ccopy_reg
_reconstructor
p0
(cdebian_linux.config
ConfigCore
p1
c__builtin__
dict
p2
(dp3
(S'image'
p4
S'amd64'
p5
tp6
(dp7
S'install-stem'
p8
S'vmlinuz'
p9
sS'configs'
p10
(lp11
sS'bootloaders'
p12
(lp13
S'grub-pc'
p14
aS'grub-efi'
p15
aS'extlinux'
p16
ass(S'image'
p17
S'i386'
p18
NS'586'
p19
tp20
(dp21
S'configs'
p22
(lp23
S'kernelarch-x86/config-arch-32'
p24
aS'i386/config.586'
p25
ass(S'base'
p26
g5
S'none'
p27
tp28
(dp29
S'flavours'
p30
(lp31
S'amd64'
p32
ass(S'image'
p33
S'ia64'
p34
tp35
(dp36
S'suggests'
p37
S'fdutils'
p38
sS'bootloaders'
p39
(lp40
S'elilo'
p41
asS'install-stem'
p42
S'vmlinuz'
p43
ss(S'description'
p44
g34
NS'itanium'
p45
tp46
(dp47
S'hardware'
p48
S'Itanium'
p49
ss(S'base'
p50
NS'rt'
p51
tp52
(dp53
S'enabled'
p54
I00
ss(S'version'
p55
tp56
(dp57
S'abiname'
p58
S'3.16.0-kali1'
p59
sS'source'
p60
V3.16.7-2kali1
p61
sS'upstream'
p62
S'3.16'
p63
ss(S'description'
p64
g5
g27
S'amd64'
p65
tp66
(dp67
S'parts'
p68
(lp69
S'xen'
p70
ass(S'base'
p71
g34
S'none'
p72
tp73
(dp74
S'implicit-flavour'
p75
I01
sS'flavours'
p76
(lp77
S'itanium'
p78
aS'mckinley'
p79
ass(S'description'
p80
S'alpha'
p81
NS'alpha-generic'
p82
tp83
(dp84
S'hardware'
p85
S'Alpha'
p86
sS'hardware-long'
p87
S'DEC Alpha systems with extended kernel start address (Wildfire, Titan, Marvel)'
p88
ss(g71
S'ppc64'
p89
g72
tp90
(dp91
g75
I01
sg76
(lp92
S'powerpc64'
p93
ass(S'base'
p94
S'hppa'
p95
NS'parisc64-smp'
p96
tp97
(dp98
S'override-host-type'
p99
S'hppa64-linux-gnu'
p100
sS'cflags'
p101
S'-fno-cse-follow-jumps'
p102
ss(S'description'
p103
g18
NS'amd64'
p104
tp105
(dp106
S'hardware'
p107
S'64-bit PCs'
p108
sS'parts'
p109
(lp110
S'xen'
p111
asS'hardware-long'
p112
S'PCs with AMD64, Intel 64 or VIA Nano processors'
p113
ss(S'image'
p114
S'mips64el'
p115
NS'loongson-3'
p116
tp117
(dp118
S'configs'
p119
(lp120
S'kernelarch-mips/config.loongson-3'
p121
ass(S'image'
p122
S's390x'
p123
NS's390x'
p124
tp125
(dp126
S'configs'
p127
(lp128
S'kernelarch-s390/config-arch-64'
p129
ass(S'image'
p130
S'sparc'
p131
NS'sparc32'
p132
tp133
(dp134
S'image-postproc'
p135
S'sparc32-image-postproc'
p136
ss(S'base'
p137
g81
tp138
(dp139
S'kernel-arch'
p140
S'alpha'
p141
sS'featuresets'
p142
(lp143
g72
ass(g71
S'armhf'
p144
g72
tp145
(dp146
g75
I01
sg76
(lp147
S'armmp'
p148
aS'armmp-lpae'
p149
ass(S'image'
p150
S'powerpc'
p151
NS'powerpc64'
p152
tp153
(dp154
S'configs'
p155
(lp156
S'kernelarch-powerpc/config-arch-64'
p157
aS'kernelarch-powerpc/config-arch-64-be'
p158
ass(S'base'
p159
g18
S'rt'
p160
tp161
(dp162
S'flavours'
p163
(lp164
S'686-pae'
p165
ass(S'description'
p166
g81
NS'alpha-smp'
p167
tp168
(dp169
S'hardware'
p170
S'Alpha SMP'
p171
sS'hardware-long'
p172
S'DEC Alpha SMP systems with extended kernel start address (Wildfire, Titan, Marvel)'
p173
ss(S'image'
p174
S'ppc64el'
p175
tp176
(dp177
S'suggests'
p178
S'mkvmlinuz'
p179
sS'configs'
p180
(lp181
sS'install-stem'
p182
S'vmlinux'
p183
ss(S'relations'
p184
g18
tp185
(dp186
S'headers%gcc-4.8'
p187
S'linux-compiler-gcc-4.8-x86'
p188
ss(S'description'
p189
g18
NS'586'
p190
tp191
(dp192
S'hardware'
p193
S'older PCs'
p194
sS'parts'
p195
(lp196
S'up'
p197
asS'hardware-long'
p198
S'PCs with a single processor not supporting PAE'
p199
ss(S'image'
p200
g151
tp201
(dp202
S'suggests'
p203
S'mkvmlinuz'
p204
sS'configs'
p205
(lp206
sS'install-stem'
p207
S'vmlinux'
p208
ss(S'image'
p209
g115
NS'5kc-malta'
p210
tp211
(dp212
S'configs'
p213
(lp214
S'kernelarch-mips/config.5kc-malta'
p215
ass(S'relations'
p216
g89
tp217
(dp218
S'gcc-4.8'
p219
S'gcc-4.8 (>= 4.8.2-21)'
p220
ss(S'base'
p221
g5
S'rt'
p222
tp223
(dp224
S'flavours'
p225
(lp226
S'amd64'
p227
ass(S'build'
p228
g175
tp229
(dp230
S'image-file'
p231
S'vmlinux'
p232
ss(S'build'
p233
g89
tp234
(dp235
S'image-file'
p236
S'vmlinux'
p237
ss(S'description'
p238
g18
S'none'
p239
S'amd64'
p240
tp241
(dp242
S'parts'
p243
(lp244
S'xen'
p245
ass(S'base'
p246
S'arm64'
p247
tp248
(dp249
S'kernel-arch'
p250
S'arm64'
p251
sS'featuresets'
p252
(lp253
S'none'
p254
ass(S'base'
p255
g18
tp256
(dp257
S'kernel-arch'
p258
S'x86'
p259
sS'featuresets'
p260
(lp261
S'none'
p262
aS'rt'
p263
ass(S'base'
p264
S'mipsel'
p265
tp266
(dp267
S'kernel-arch'
p268
S'mips'
p269
sg142
(lp270
g72
ass(S'relations'
p271
g5
tp272
(dp273
S'headers%gcc-4.8'
p274
S'linux-compiler-gcc-4.8-x86'
p275
ss(S'description'
p276
S'mips64'
p277
NS'sb1-bcm91250a'
p278
tp279
(dp280
S'hardware'
p281
S'BCM91250A'
p282
sS'hardware-long'
p283
S'Broadcom BCM91250A systems (aka SWARM)'
p284
ss(S'image'
p285
g265
NS'loongson-2e'
p286
tp287
(dp288
S'configs'
p289
(lp290
S'kernelarch-mips/config.loongson-2e'
p291
ass(S'image'
p292
g18
NS'amd64'
p293
tp294
(dp295
S'configs'
p296
(lp297
S'kernelarch-x86/config-arch-64'
p298
asS'recommends'
p299
S'libc6-i686'
p300
ss(S'description'
p301
g123
NS's390x'
p302
tp303
(dp304
S'hardware'
p305
S'IBM zSeries'
p306
ss(S'image'
p307
S'mips'
p308
NS'octeon'
p309
tp310
(dp311
S'configs'
p312
(lp313
S'kernelarch-mips/config.octeon'
p314
ass(S'relations'
p315
S's390'
p316
tp317
(dp318
S'headers%gcc-4.8'
p319
S'linux-compiler-gcc-4.8-s390'
p320
ss(g71
g265
g72
tp321
(dp322
g75
I01
sg76
(lp323
S'sb1-bcm91250a'
p324
aS'4kc-malta'
p325
aS'5kc-malta'
p326
aS'loongson-2e'
p327
aS'loongson-2f'
p328
aS'loongson-3'
p329
ass(S'description'
p330
S'powerpcspe'
p331
tp332
(dp333
S'hardware'
p334
S'32-bit PowerPC with SPE (instead of AltiVec) with SMP support'
p335
ss(S'description'
p336
g265
NS'loongson-3'
p337
tp338
(dp339
S'hardware'
p340
S'Loongson 3A/3B'
p341
sS'hardware-long'
p342
S'Loongson 3A or 3B based systems (e.g. from Loongson or Lemote)'
p343
ss(S'description'
p344
S'armel'
p345
NS'versatile'
p346
tp347
(dp348
S'hardware'
p349
S'Versatile'
p350
sS'hardware-long'
p351
S'Versatile systems (PB, AB, Qemu)'
p352
ss(S'build'
p353
g81
tp354
(dp355
S'image-file'
p356
S'arch/alpha/boot/vmlinux.gz'
p357
ss(S'image'
p358
g265
NS'loongson-3'
p359
tp360
(dp361
S'configs'
p362
(lp363
S'kernelarch-mips/config.loongson-3'
p364
ass(S'image'
p365
g115
NS'sb1-bcm91250a'
p366
tp367
(dp368
S'configs'
p369
(lp370
S'kernelarch-mips/config.sb1-bcm91250a'
p371
ass(S'image'
p372
g345
NS'kirkwood'
p373
tp374
(dp375
S'check-size'
p376
S'2097080'
p377
sS'recommends'
p378
S'uboot-mkimage'
p379
ss(S'image'
p380
g265
NS'4kc-malta'
p381
tp382
(dp383
S'configs'
p384
(lp385
S'kernelarch-mips/config.4kc-malta'
p386
ass(S'description'
p387
g308
NS'r4k-ip22'
p388
tp389
(dp390
S'hardware'
p391
S'SGI IP22'
p392
sS'hardware-long'
p393
S'SGI IP22 systems (Indy, Indigo2)'
p394
ss(S'description'
p395
g308
NS'5kc-malta'
p396
tp397
(dp398
S'hardware'
p399
S'MIPS Malta (64-bit)'
p400
sS'hardware-long'
p401
S'MIPS Malta boards (64-bit)'
p402
ss(g71
g115
g72
tp403
(dp404
g75
I01
sg76
(lp405
S'sb1-bcm91250a'
p406
aS'5kc-malta'
p407
aS'loongson-3'
p408
aS'octeon'
p409
ass(S'build'
p410
g331
tp411
(dp412
S'image-file'
p413
S'vmlinux'
p414
ss(g71
S'sh4'
p415
g72
tp416
(dp417
g75
I01
sg76
(lp418
S'sh7751r'
p419
aS'sh7785lcr'
p420
ass(S'build'
p421
g95
tp422
(dp423
S'image-file'
p424
S'vmlinux'
p425
ss(S'image'
p426
g247
NS'arm64'
p427
tp428
(dp429
s(S'image'
p430
g277
NS'octeon'
p431
tp432
(dp433
S'configs'
p434
(lp435
S'kernelarch-mips/config.octeon'
p436
ass(S'description'
p437
g247
NS'arm64'
p438
tp439
(dp440
S'hardware'
p441
S'64-bit ARMv8 machines'
p442
ss(S'image'
p443
g89
NS'powerpc64'
p444
tp445
(dp446
S'configs'
p447
(lp448
S'kernelarch-powerpc/config-arch-64'
p449
aS'kernelarch-powerpc/config-arch-64-be'
p450
ass(S'base'
p451
g345
tp452
(dp453
S'kernel-arch'
p454
S'arm'
p455
sg142
(lp456
g72
ass(S'build'
p457
g144
tp458
(dp459
S'image-file'
p460
S'arch/arm/boot/zImage'
p461
ss(S'base'
p462
g131
tp463
(dp464
S'kernel-arch'
p465
S'sparc'
p466
sg142
(lp467
g72
ass(S'base'
p468
g331
tp469
(dp470
S'kernel-arch'
p471
S'powerpc'
p472
sg142
(lp473
g72
ass(S'description'
p474
g265
NS'sb1-bcm91250a'
p475
tp476
(dp477
S'hardware'
p478
S'BCM91250A'
p479
sS'hardware-long'
p480
S'Broadcom BCM91250A systems (aka SWARM)'
p481
ss(S'description'
p482
g89
NS'powerpc64'
p483
tp484
(dp485
S'hardware'
p486
S'64-bit PowerPC'
p487
ss(g71
g316
g72
tp488
(dp489
g75
I01
sg76
(lp490
S's390x'
p491
ass(S'description'
p492
S'm68k'
p493
NS'm68k'
p494
tp495
(dp496
S'hardware'
p497
S'Motorola MC68020+ family'
p498
ss(g71
g123
g72
tp499
(dp500
g75
I01
sg76
(lp501
S's390x'
p502
ass(S'base'
p503
g308
tp504
(dp505
S'kernel-arch'
p506
S'mips'
p507
sg142
(lp508
g72
ass(S'build'
p509
g5
tp510
(dp511
S'debug-info'
p512
I01
sS'image-file'
p513
S'arch/x86/boot/bzImage'
p514
ss(S'image'
p515
g265
NS'loongson-2f'
p516
tp517
(dp518
S'configs'
p519
(lp520
S'kernelarch-mips/config.loongson-2f'
p521
asS'recommends'
p522
S'libc6-loongson2f'
p523
ss(S'description'
p524
g115
NS'5kc-malta'
p525
tp526
(dp527
S'hardware'
p528
S'MIPS Malta'
p529
sS'hardware-long'
p530
S'MIPS Malta boards'
p531
ss(S'abi'
p532
NS'rt'
p533
tp534
(dp535
S'ignore-changes'
p536
(lp537
S'*'
p538
ass(S'build'
p539
g131
tp540
(dp541
S'image-file'
p542
S'arch/sparc/boot/zImage'
p543
ss(S'image'
p544
g265
tp545
(dp546
S'install-stem'
p547
S'vmlinux'
p548
ss(S'image'
p549
g415
NS'sh7785lcr'
p550
tp551
(dp552
S'check-size'
p553
S'4194304'
p554
sS'recommends'
p555
S'uboot-mkimage'
p556
ss(S'description'
p557
g265
NS'loongson-2e'
p558
tp559
(dp560
S'hardware'
p561
S'Loongson 2E'
p562
sS'hardware-long'
p563
S'Lemote Loongson 2E systems'
p564
ss(S'image'
p565
g131
NS'sparc64'
p566
tp567
(dp568
S'configs'
p569
(lp570
S'kernelarch-sparc/config-up'
p571
ass(S'build'
p572
g151
tp573
(dp574
S'image-file'
p575
S'vmlinux'
p576
ss(S'build'
p577
g247
tp578
(dp579
S'debug-info'
p580
I01
sS'image-file'
p581
S'arch/arm64/boot/Image'
p582
ss(S'description'
p583
g34
NS'mckinley'
p584
tp585
(dp586
S'hardware'
p587
S'Itanium II'
p588
ss(S'build'
p589
g265
tp590
(dp591
S'image-file'
p592
S'vmlinux'
p593
ss(S'base'
p594
g277
tp595
(dp596
S'kernel-arch'
p597
S'mips'
p598
sg142
(lp599
g72
ass(S'image'
p600
g5
NS'amd64'
p601
tp602
(dp603
S'configs'
p604
(lp605
S'kernelarch-x86/config-arch-64'
p606
ass(S'base'
p607
g5
tp608
(dp609
S'kernel-arch'
p610
S'x86'
p611
sS'featuresets'
p612
(lp613
S'none'
p614
aS'rt'
p615
ass(S'base'
p616
g34
tp617
(dp618
S'kernel-arch'
p619
S'ia64'
p620
sg142
(lp621
g72
asS'compiler'
p622
S'gcc-4.6'
p623
ss(S'description'
p624
g95
NS'parisc64-smp'
p625
tp626
(dp627
S'hardware'
p628
S'multiprocessor 64-bit PA-RISC'
p629
sS'hardware-long'
p630
S'HP PA-RISC 64-bit SMP systems with support for more than 4 GB RAM'
p631
ss(g71
g345
g72
tp632
(dp633
g75
I01
sg76
(lp634
S'ixp4xx'
p635
aS'kirkwood'
p636
aS'orion5x'
p637
aS'versatile'
p638
ass(S'image'
p639
g277
NS'sb1-bcm91250a'
p640
tp641
(dp642
S'configs'
p643
(lp644
S'kernelarch-mips/config.sb1-bcm91250a'
p645
ass(S'description'
p646
g5
NS'amd64'
p647
tp648
(dp649
S'hardware'
p650
S'64-bit PCs'
p651
sS'hardware-long'
p652
S'PCs with AMD64, Intel 64 or VIA Nano processors'
p653
ss(S'description'
p654
g151
NS'powerpc-smp'
p655
tp656
(dp657
S'hardware'
p658
S'multiprocessor 32-bit PowerPC'
p659
ss(S'description'
p660
g151
NS'powerpc64'
p661
tp662
(dp663
S'hardware'
p664
S'64-bit PowerPC'
p665
ss(S'description'
p666
g18
tp667
(dp668
S'part-long-pae'
p669
S'This kernel requires PAE (Physical Address Extension).\nThis feature is supported by the Intel Pentium Pro/II/III/4/4M/D, Xeon,\nCore and Atom; AMD Geode NX, Athlon (K7), Duron, Opteron, Sempron,\nTurion or Phenom; Transmeta Efficeon; VIA C7; and some other processors.'
p670
ss(S'relations'
p671
tp672
(dp673
S'gcc-4.8'
p674
S'gcc-4.8'
p675
sS'initramfs-fallback'
p676
S'linux-initramfs-tool'
p677
sS'gcc-4.7'
p678
S'gcc-4.7'
p679
sS'gcc-4.6'
p680
S'gcc-4.6'
p681
sS'gcc-4.4'
p682
S'gcc-4.4'
p683
sS'initramfs-tools'
p684
S'initramfs-tools (>= 0.110~)'
p685
ss(S'description'
p686
g277
NS'5kc-malta'
p687
tp688
(dp689
S'hardware'
p690
S'MIPS Malta'
p691
sS'hardware-long'
p692
S'MIPS Malta boards'
p693
ss(S'build'
p694
g115
tp695
(dp696
S'image-file'
p697
S'vmlinux'
p698
ss(S'description'
p699
g18
NS'686-pae'
p700
tp701
(dp702
S'hardware'
p703
S'modern PCs'
p704
sS'parts'
p705
(lp706
S'pae'
p707
asS'hardware-long'
p708
S'PCs with one or more processors supporting PAE'
p709
ss(S'image'
p710
g345
tp711
(dp712
S'suggests'
p713
S'fdutils'
p714
sS'configs'
p715
(lp716
S'kernelarch-arm/config'
p717
aS'armel/config'
p718
asS'install-stem'
p719
S'vmlinuz'
p720
ss(S'image'
p721
g316
tp722
(dp723
S'install-stem'
p724
S'vmlinuz'
p725
sS'configs'
p726
(lp727
sS'bootloaders'
p728
(lp729
S's390-tools'
p730
ass(S'relations'
p731
g345
tp732
(dp733
S'headers%gcc-4.8'
p734
S'linux-compiler-gcc-4.8-arm'
p735
ss(S'image'
p736
g95
tp737
(dp738
S'suggests'
p739
S'palo'
p740
sS'install-stem'
p741
S'vmlinux'
p742
ss(g71
g277
g72
tp743
(dp744
g75
I01
sg76
(lp745
S'sb1-bcm91250a'
p746
aS'5kc-malta'
p747
aS'octeon'
p748
ass(S'relations'
p749
g95
tp750
(dp751
S'gcc-4.8'
p752
S'gcc-4.8, binutils-hppa64, gcc-4.8-hppa64'
p753
ss(S'image'
p754
g115
NS'octeon'
p755
tp756
(dp757
S'configs'
p758
(lp759
S'kernelarch-mips/config.octeon'
p760
ass(S'image'
p761
g308
NS'4kc-malta'
p762
tp763
(dp764
S'configs'
p765
(lp766
S'kernelarch-mips/config.4kc-malta'
p767
ass(S'image'
p768
g345
NS'orion5x'
p769
tp770
(dp771
S'check-size'
p772
S'1572792'
p773
sS'configs'
p774
(lp775
S'armel/config-reduced'
p776
aS'armel/config.orion5x'
p777
asS'recommends'
p778
S'uboot-mkimage'
p779
ss(S'image'
p780
g89
tp781
(dp782
S'suggests'
p783
S'mkvmlinuz'
p784
sS'configs'
p785
(lp786
sS'install-stem'
p787
S'vmlinux'
p788
ss(g71
g95
g72
tp789
(dp790
g75
I01
sg76
(lp791
S'parisc'
p792
aS'parisc64-smp'
p793
ass(S'image'
p794
g81
tp795
(dp796
S'suggests'
p797
S'aboot, fdutils'
p798
sS'install-stem'
p799
S'vmlinuz'
p800
ss(S'base'
p801
S'sparc64'
p802
tp803
(dp804
S'kernel-arch'
p805
S'sparc'
p806
sg142
(lp807
g72
ass(S'image'
p808
g18
tp809
(dp810
S'install-stem'
p811
S'vmlinuz'
p812
sS'configs'
p813
(lp814
sS'bootloaders'
p815
(lp816
S'grub-pc'
p817
aS'extlinux'
p818
ass(S'base'
p819
S'or1k'
p820
tp821
(dp822
S'kernel-arch'
p823
S'openrisc'
p824
sS'featuresets'
p825
(lp826
ss(S'base'
p827
g123
tp828
(dp829
S'kernel-arch'
p830
S's390'
p831
sg142
(lp832
g72
ass(S'image'
p833
g308
NS'sb1-bcm91250a'
p834
tp835
(dp836
S'configs'
p837
(lp838
S'kernelarch-mips/config.sb1-bcm91250a'
p839
ass(S'description'
p840
g345
NS'orion5x'
p841
tp842
(dp843
S'hardware'
p844
S'Marvell Orion'
p845
sS'hardware-long'
p846
S'Marvell Orion 5181, 5182 and 5281 based systems (QNAP TS-109/TS-209, etc)'
p847
ss(S'image'
p848
g316
NS's390x'
p849
tp850
(dp851
S'configs'
p852
(lp853
S'kernelarch-s390/config-arch-64'
p854
ass(S'image'
p855
g802
tp856
(dp857
S'suggests'
p858
S'silo, fdutils'
p859
sS'configs'
p860
(lp861
sS'install-stem'
p862
S'vmlinuz'
p863
ss(S'image'
p864
g131
NS'sparc64-smp'
p865
tp866
(dp867
S'configs'
p868
(lp869
S'kernelarch-sparc/config-smp'
p870
ass(S'image'
p871
g308
tp872
(dp873
S'install-stem'
p874
S'vmlinux'
p875
ss(S'description'
p876
g115
NS'sb1-bcm91250a'
p877
tp878
(dp879
S'hardware'
p880
S'BCM91250A'
p881
sS'hardware-long'
p882
S'Broadcom BCM91250A systems (aka SWARM)'
p883
ss(g71
g131
g72
tp884
(dp885
g75
I01
sg76
(lp886
S'sparc64'
p887
aS'sparc64-smp'
p888
ass(S'relations'
p889
g151
tp890
(dp891
S'gcc-4.8'
p892
S'gcc-4.8 (>= 4.8.2-21)'
p893
ss(g71
g81
g72
tp894
(dp895
g75
I01
sg76
(lp896
S'alpha-generic'
p897
aS'alpha-smp'
p898
aS'alpha-legacy'
p899
ass(S'description'
p900
g18
g239
S'686-pae'
p901
tp902
(dp903
S'parts'
p904
(lp905
S'xen'
p906
ass(S'description'
p907
g265
NS'4kc-malta'
p908
tp909
(dp910
S'hardware'
p911
S'MIPS Malta'
p912
sS'hardware-long'
p913
S'MIPS Malta boards'
p914
ss(S'base'
p915
g89
tp916
(dp917
S'kernel-arch'
p918
S'powerpc'
p919
sg142
(lp920
g72
ass(S'build'
p921
g123
tp922
(dp923
S'image-file'
p924
S'arch/s390/boot/image'
p925
ss(g71
g308
g72
tp926
(dp927
g75
I01
sg76
(lp928
S'r4k-ip22'
p929
aS'r5k-ip32'
p930
aS'sb1-bcm91250a'
p931
aS'4kc-malta'
p932
aS'5kc-malta'
p933
aS'octeon'
p934
ass(S'build'
p935
g308
tp936
(dp937
S'image-file'
p938
S'vmlinux'
p939
ss(S'description'
p940
g277
NS'octeon'
p941
tp942
(dp943
S'hardware'
p944
S'Octeon'
p945
sS'hardware-long'
p946
S'Cavium Networks Octeon'
p947
ss(S'image'
p948
g277
tp949
(dp950
S'install-stem'
p951
S'vmlinux'
p952
ss(S'description'
p953
g151
NS'powerpc'
p954
tp955
(dp956
S'hardware'
p957
S'uniprocessor 32-bit PowerPC'
p958
ss(S'description'
p959
g115
NS'octeon'
p960
tp961
(dp962
S'hardware'
p963
S'Octeon'
p964
sS'hardware-long'
p965
S'Cavium Networks Octeon'
p966
ss(S'description'
p967
g144
NS'armmp-lpae'
p968
tp969
(dp970
S'hardware'
p971
S'ARMv7 multiplatform compatible SoCs supporting LPAE'
p972
sS'hardware-long'
p973
S'ARMv7 multiplatform kernel supporting LPAE. See\nhttps://wiki.debian.org/DebianKernel/ARMMP for details of supported\nplatforms.'
p974
ss(S'base'
p975
S'x32'
p976
tp977
(dp978
S'kernel-arch'
p979
S'x86'
p980
sS'featuresets'
p981
(lp982
ss(S'build'
p983
g415
tp984
(dp985
S'image-file'
p986
S'arch/sh/boot/zImage'
p987
ss(S'image'
p988
g493
tp989
(dp990
S'suggests'
p991
S'vmelilo, fdutils'
p992
sS'install-stem'
p993
S'vmlinuz'
p994
ss(S'description'
p995
g308
NS'sb1-bcm91250a'
p996
tp997
(dp998
S'hardware'
p999
S'BCM91250A'
p1000
sS'hardware-long'
p1001
S'Broadcom BCM91250A systems (aka SWARM)'
p1002
ss(S'base'
p1003
g247
S'none'
p1004
tp1005
(dp1006
S'flavours'
p1007
(lp1008
S'arm64'
p1009
ass(S'build'
p1010
g277
tp1011
(dp1012
S'image-file'
p1013
S'vmlinux'
p1014
ss(S'image'
p1015
g265
NS'sb1-bcm91250a'
p1016
tp1017
(dp1018
S'configs'
p1019
(lp1020
S'kernelarch-mips/config.sb1-bcm91250a'
p1021
ass(S'image'
p1022
g144
NS'armmp-lpae'
p1023
tp1024
(dp1025
S'configs'
p1026
(lp1027
S'armhf/config.armmp'
p1028
aS'armhf/config.lpae'
p1029
ass(S'build'
p1030
g34
tp1031
(dp1032
S'image-file'
p1033
S'vmlinux.gz'
p1034
ss(S'base'
p1035
g144
tp1036
(dp1037
S'kernel-arch'
p1038
S'arm'
p1039
sg142
(lp1040
g72
ass(S'description'
p1041
g115
NS'loongson-3'
p1042
tp1043
(dp1044
S'hardware'
p1045
S'Loongson 3A/3B'
p1046
sS'hardware-long'
p1047
S'Loongson 3A or 3B based systems (e.g. from Loongson or Lemote)'
p1048
ss(S'image'
p1049
g415
tp1050
(dp1051
S'suggests'
p1052
S'fdutils'
p1053
sS'install-stem'
p1054
S'vmlinuz'
p1055
ss(S'image'
p1056
g18
NS'686-pae'
p1057
tp1058
(dp1059
S'configs'
p1060
(lp1061
S'kernelarch-x86/config-arch-32'
p1062
aS'i386/config.686-pae'
p1063
asS'recommends'
p1064
S'libc6-i686'
p1065
ss(S'base'
p1066
g95
tp1067
(dp1068
S'kernel-arch'
p1069
S'parisc'
p1070
sg142
(lp1071
g72
ass(S'image'
p1072
g151
NS'powerpc-smp'
p1073
tp1074
(dp1075
S'configs'
p1076
(lp1077
S'powerpc/config.powerpc'
p1078
aS'powerpc/config.powerpc-smp'
p1079
ass(S'description'
p1080
g265
NS'loongson-2f'
p1081
tp1082
(dp1083
S'hardware'
p1084
S'Loongson 2F'
p1085
sS'hardware-long'
p1086
S'Lemote Loongson 2F systems'
p1087
ss(S'base'
p1088
tp1089
(dp1090
S'arches'
p1091
(lp1092
S'alpha'
p1093
aS'amd64'
p1094
aS'arm64'
p1095
aS'armel'
p1096
aS'armhf'
p1097
aS'hppa'
p1098
aS'i386'
p1099
aS'ia64'
p1100
aS'm68k'
p1101
aS'mips'
p1102
aS'mipsel'
p1103
aS'mips64'
p1104
aS'mips64el'
p1105
aS'or1k'
p1106
aS'powerpc'
p1107
aS'powerpcspe'
p1108
aS'ppc64'
p1109
aS'ppc64el'
p1110
aS's390'
p1111
aS's390x'
p1112
aS'sh4'
p1113
aS'sparc'
p1114
aS'sparc64'
p1115
aS'x32'
p1116
asS'featuresets'
p1117
(lp1118
S'none'
p1119
aS'rt'
p1120
asS'compiler'
p1121
S'gcc-4.7'
p1122
ss(S'description'
p1123
g308
NS'octeon'
p1124
tp1125
(dp1126
S'hardware'
p1127
S'Octeon'
p1128
sS'hardware-long'
p1129
S'Cavium Networks Octeon'
p1130
ss(S'description'
p1131
g131
NS'sparc32'
p1132
tp1133
(dp1134
S'hardware'
p1135
S'uniprocessor sparc32 (sun4m)'
p1136
ss(S'image'
p1137
g131
tp1138
(dp1139
S'suggests'
p1140
S'silo, fdutils'
p1141
sS'configs'
p1142
(lp1143
sS'install-stem'
p1144
S'vmlinuz'
p1145
ss(S'description'
p1146
tp1147
(dp1148
S'part-long-up'
p1149
S'This kernel is not suitable for SMP (multi-processor,\nmulti-core or hyper-threaded) systems.'
p1150
sS'part-long-xen'
p1151
S'This kernel also runs on a Xen hypervisor.\nIt supports both privileged (dom0) and unprivileged (domU) operation.'
p1152
ss(S'description'
p1153
g415
NS'sh7785lcr'
p1154
tp1155
(dp1156
S'hardware'
p1157
S'sh7785lcr'
p1158
sS'hardware-long'
p1159
S'Renesas SH7785 reference board'
p1160
ss(S'build'
p1161
g802
tp1162
(dp1163
S'image-file'
p1164
S'arch/sparc/boot/zImage'
p1165
ss(S'relations'
p1166
g144
tp1167
(dp1168
S'headers%gcc-4.8'
p1169
S'linux-compiler-gcc-4.8-arm'
p1170
ss(S'description'
p1171
g345
NS'kirkwood'
p1172
tp1173
(dp1174
S'hardware'
p1175
S'Marvell Kirkwood'
p1176
sS'hardware-long'
p1177
S'Marvell Kirkwood based systems (SheevaPlug, QNAP TS-119/TS-219, etc)'
p1178
ss(S'image'
p1179
g345
NS'ixp4xx'
p1180
tp1181
(dp1182
S'check-size'
p1183
S'1441760'
p1184
sS'configs'
p1185
(lp1186
S'armel/config-reduced'
p1187
aS'armel/config.ixp4xx'
p1188
ass(S'image'
p1189
g308
NS'r4k-ip22'
p1190
tp1191
(dp1192
S'configs'
p1193
(lp1194
S'kernelarch-mips/config.r4k-ip22'
p1195
ass(S'base'
p1196
g316
tp1197
(dp1198
S'kernel-arch'
p1199
S's390'
p1200
sg142
(lp1201
g72
ass(S'description'
p1202
g131
NS'sparc64'
p1203
tp1204
(dp1205
S'hardware'
p1206
S'uniprocessor 64-bit UltraSPARC'
p1207
ss(S'relations'
p1208
g123
tp1209
(dp1210
S'headers%gcc-4.8'
p1211
S'linux-compiler-gcc-4.8-s390'
p1212
ss(S'image'
p1213
g308
NS'5kc-malta'
p1214
tp1215
(dp1216
S'configs'
p1217
(lp1218
S'kernelarch-mips/config.5kc-malta'
p1219
ass(S'base'
p1220
g151
tp1221
(dp1222
S'kernel-arch'
p1223
S'powerpc'
p1224
sg142
(lp1225
g72
ass(S'description'
p1226
g345
NS'ixp4xx'
p1227
tp1228
(dp1229
S'hardware'
p1230
S'IXP4xx'
p1231
sS'hardware-long'
p1232
S'IXP4xx based systems (Linksys NSLU2, etc)'
p1233
ss(S'image'
p1234
g308
NS'r5k-ip32'
p1235
tp1236
(dp1237
S'configs'
p1238
(lp1239
S'kernelarch-mips/config.r5k-ip32'
p1240
ass(S'description'
p1241
g802
NS'sparc64-smp'
p1242
tp1243
(dp1244
S'hardware'
p1245
S'multiprocessor 64-bit UltraSPARC'
p1246
ss(S'description'
p1247
g81
NS'alpha-legacy'
p1248
tp1249
(dp1250
S'hardware'
p1251
S'Alpha Legacy'
p1252
sS'hardware-long'
p1253
S'DEC Alpha systems with legacy kernel start address'
p1254
ss(S'base'
p1255
g415
tp1256
(dp1257
S'kernel-arch'
p1258
S'sh'
p1259
sg142
(lp1260
g72
asS'compiler'
p1261
S'gcc-4.7'
p1262
ss(S'build'
p1263
g316
tp1264
(dp1265
S'image-file'
p1266
S'arch/s390/boot/image'
p1267
ss(S'image'
p1268
g331
tp1269
(dp1270
S'suggests'
p1271
S'mkvmlinuz'
p1272
sS'install-stem'
p1273
S'vmlinux'
p1274
ss(S'image'
p1275
g144
tp1276
(dp1277
S'suggests'
p1278
S'fdutils'
p1279
sS'configs'
p1280
(lp1281
S'kernelarch-arm/config'
p1282
aS'armhf/config'
p1283
asS'install-stem'
p1284
S'vmlinuz'
p1285
ss(S'abi'
p1286
tp1287
(dp1288
S'abiname'
p1289
S'kali1'
p1290
ss(S'build'
p1291
g316
NS's390x'
p1292
tp1293
(dp1294
S'debug-info'
p1295
I01
ss(S'xen'
p1296
g5
g27
S'amd64'
p1297
tp1298
(dp1299
S'flavours'
p1300
(lp1301
S'amd64'
p1302
ass(g71
g331
g72
tp1303
(dp1304
g75
I01
sg76
(lp1305
S'powerpcspe'
p1306
ass(g71
g493
g72
tp1307
(dp1308
g75
I01
sg76
(lp1309
S'm68k'
p1310
ass(S'description'
p1311
g308
NS'r5k-ip32'
p1312
tp1313
(dp1314
S'hardware'
p1315
S'SGI IP32'
p1316
sS'hardware-long'
p1317
S'SGI IP32 systems (O2)'
p1318
ss(S'base'
p1319
g18
g239
tp1320
(dp1321
S'flavours'
p1322
(lp1323
S'586'
p1324
aS'686-pae'
p1325
aS'amd64'
p1326
ass(S'image'
p1327
g265
NS'5kc-malta'
p1328
tp1329
(dp1330
S'configs'
p1331
(lp1332
S'kernelarch-mips/config.5kc-malta'
p1333
ass(S'image'
p1334
g277
NS'5kc-malta'
p1335
tp1336
(dp1337
S'configs'
p1338
(lp1339
S'kernelarch-mips/config.5kc-malta'
p1340
ass(S'build'
p1341
g493
tp1342
(dp1343
S'image-file'
p1344
S'vmlinux.gz'
p1345
ss(S'description'
p1346
g265
NS'5kc-malta'
p1347
tp1348
(dp1349
S'hardware'
p1350
S'MIPS Malta (64-bit)'
p1351
sS'hardware-long'
p1352
S'MIPS Malta boards (64-bit)'
p1353
ss(S'build'
p1354
g345
tp1355
(dp1356
S'image-file'
p1357
S'arch/arm/boot/zImage'
p1358
ss(g71
g151
g72
tp1359
(dp1360
g75
I01
sg76
(lp1361
S'powerpc'
p1362
aS'powerpc-smp'
p1363
aS'powerpc64'
p1364
ass(S'image'
p1365
g115
tp1366
(dp1367
S'install-stem'
p1368
S'vmlinux'
p1369
ss(S'base'
p1370
g175
tp1371
(dp1372
S'kernel-arch'
p1373
S'powerpc'
p1374
sg142
(lp1375
g72
ass(S'base'
p1376
g115
tp1377
(dp1378
S'kernel-arch'
p1379
S'mips'
p1380
sg142
(lp1381
g72
ass(S'base'
p1382
g493
tp1383
(dp1384
S'kernel-arch'
p1385
S'm68k'
p1386
sg142
(lp1387
g72
asS'cflags'
p1388
S'-ffreestanding'
p1389
sS'compiler'
p1390
S'gcc-4.8'
p1391
ss(S'image'
p1392
tp1393
(dp1394
S'initramfs-generators'
p1395
(lp1396
S'initramfs-tools'
p1397
aS'initramfs-fallback'
p1398
asS'type'
p1399
S'plain'
p1400
ss(S'description'
p1401
g144
NS'armmp'
p1402
tp1403
(dp1404
S'hardware'
p1405
S'ARMv7 multiplatform compatible SoCs'
p1406
sS'hardware-long'
p1407
S'ARMv7 multiplatform kernel. See\nhttps://wiki.debian.org/DebianKernel/ARMMP for details of supported\nplatforms'
p1408
ss(S'description'
p1409
Ng533
tp1410
(dp1411
S'part-long-rt'
p1412
S'This kernel includes the PREEMPT_RT realtime patch set.'
p1413
sS'parts'
p1414
(lp1415
S'rt'
p1416
asS'part-short-rt'
p1417
S'PREEMPT_RT'
p1418
ss(g71
g802
g72
tp1419
(dp1420
g75
I01
sg76
(lp1421
S'sparc64'
p1422
aS'sparc64-smp'
p1423
ass(S'image'
p1424
g802
NS'sparc64'
p1425
tp1426
(dp1427
S'configs'
p1428
(lp1429
S'kernelarch-sparc/config-up'
p1430
ass(S'build'
p1431
g123
NS's390x'
p1432
tp1433
(dp1434
S'debug-info'
p1435
I01
ss(S'description'
p1436
g316
NS's390x'
p1437
tp1438
(dp1439
S'hardware'
p1440
S'IBM zSeries'
p1441
ss(S'build'
p1442
g18
NS'686-pae'
p1443
tp1444
(dp1445
S'debug-info'
p1446
I01
ss(S'image'
p1447
g175
NS'powerpc64le'
p1448
tp1449
(dp1450
S'configs'
p1451
(lp1452
S'kernelarch-powerpc/config-arch-64'
p1453
aS'kernelarch-powerpc/config-arch-64-le'
p1454
ass(S'description'
p1455
g308
NS'4kc-malta'
p1456
tp1457
(dp1458
S'hardware'
p1459
S'MIPS Malta'
p1460
sS'hardware-long'
p1461
S'MIPS Malta boards'
p1462
ss(S'description'
p1463
g131
NS'sparc64-smp'
p1464
tp1465
(dp1466
S'hardware'
p1467
S'multiprocessor 64-bit UltraSPARC'
p1468
ss(S'description'
p1469
g415
NS'sh7751r'
p1470
tp1471
(dp1472
S'hardware'
p1473
S'sh7751r'
p1474
sS'hardware-long'
p1475
S'Renesas SH7751R R2D plus board'
p1476
ss(S'description'
p1477
g175
NS'powerpc64le'
p1478
tp1479
(dp1480
S'hardware'
p1481
S'Little-endian 64-bit PowerPC'
p1482
ss(S'description'
p1483
g95
NS'parisc'
p1484
tp1485
(dp1486
S'hardware'
p1487
S'32-bit PA-RISC'
p1488
sS'hardware-long'
p1489
S'HP PA-RISC 32-bit systems with max 4 GB RAM'
p1490
ss(S'image'
p1491
g123
tp1492
(dp1493
S'install-stem'
p1494
S'vmlinuz'
p1495
sS'configs'
p1496
(lp1497
sS'bootloaders'
p1498
(lp1499
S's390-tools'
p1500
ass(S'image'
p1501
g247
tp1502
(dp1503
S'install-stem'
p1504
S'vmlinuz'
p1505
ss(S'image'
p1506
g802
NS'sparc64-smp'
p1507
tp1508
(dp1509
S'configs'
p1510
(lp1511
S'kernelarch-sparc/config-smp'
p1512
ass(S'build'
p1513
g18
tp1514
(dp1515
S'image-file'
p1516
S'arch/x86/boot/bzImage'
p1517
ss(g71
g175
g72
tp1518
(dp1519
g75
I01
sg76
(lp1520
S'powerpc64le'
p1521
ass(S'description'
p1522
g802
NS'sparc64'
p1523
tp1524
(dp1525
S'hardware'
p1526
S'uniprocessor 64-bit UltraSPARC'
p1527
sstp1528
Rp1529
.