cdebian_linux.config
ConfigCore
p0
(tRp1
(Vabi
p2
tp3
(dp4
Vabiname
p5
Vkali2
p6
sVignore-changes
p7
(lp8
V__cpuhp_*
p9
aV__xive_vm_h_*
p10
aVbpf_analyzer
p11
aVcxl_*
p12
aVdax_flush
p13
aVieee80211_nullfunc_get
p14
aVinet_add_protocol
p15
aVinet_del_protocol
p16
aViommu_device_*
p17
aVkvm_async_pf_task_wait
p18
aVkvmppc_*
p19
aVmm_iommu_*
p20
aVmv_mbus_*
p21
aVperf_*
p22
aVregister_cxl_calls
p23
aVregister_key_type
p24
aVunregister_cxl_calls
p25
aV*_hw_breakpoint
p26
aVmodule:arch/x86/kvm/*
p27
aVmodule:drivers/crypto/ccp/*
p28
aVmodule:drivers/hv/*
p29
aVmodule:drivers/iio/**
p30
aVmodule:drivers/mtd/nand/*
p31
aVmodule:drivers/net/wireless/**
p32
aVmodule:drivers/nvdimm/*
p33
aVmodule:drivers/power/supply/bq27xxx_battery
p34
aVmodule:drivers/scsi/cxgbi/*
p35
aVmodule:drivers/scsi/libiscs*
p36
aVmodule:drivers/scsi/qla2xxx/qla2xxx
p37
aVmodule:drivers/scsi/ufs/*
p38
aVmodule:drivers/target/**
p39
aVmodule:drivers/usb/chipidea/**
p40
aVmodule:drivers/usb/gadget/**
p41
aVmodule:drivers/usb/host/**
p42
aVmodule:drivers/usb/musb/**
p43
aVmodule:fs/nfs/**
p44
aVmodule:net/ceph/libceph
p45
aVmodule:net/l2tp/**
p46
aVmodule:net/rxrpc/rxrpc
p47
aVmodule:sound/core/seq/**
p48
aVmodule:sound/firewire/snd-firewire-lib
p49
aVbtree_*
p50
aVvisitor*
p51
aVcan_rx_register
p52
aVip6_xmit
p53
aVmodule:net/dccp/dccp
p54
aVmodule:net/rds/rds
p55
aVdevfreq_*
p56
aVdevm_devfreq_*
p57
aVupdate_devfreq
p58
aVmodule:drivers/infiniband/**
p59
aVacpi_ec_add_query_handler
p60
aVacpi_ec_remove_query_handler
p61
aVfirst_ec
p62
aVdebugfs_create_automount
p63
aVmodule:drivers/iio/imu/inv_mpu6050/*
p64
aVdrm_crtc_accurate_vblank_count
p65
ass(Vbase
p66
tp67
(dp68
Varches
p69
(lp70
Valpha
p71
aVamd64
p72
aVarm64
p73
aVarm64ilp32
p74
aVarmel
p75
aVarmhf
p76
aVhppa
p77
aVi386
p78
aVia64
p79
aVm68k
p80
aVmips
p81
aVmips64
p82
aVmips64el
p83
aVmips64r6
p84
aVmips64r6el
p85
aVmipsel
p86
aVmipsn32
p87
aVmipsn32el
p88
aVmipsn32r6
p89
aVmipsn32r6el
p90
aVmipsr6
p91
aVmipsr6el
p92
aVpowerpc
p93
aVpowerpcspe
p94
aVppc64
p95
aVppc64el
p96
aVs390
p97
aVs390x
p98
aVsh3
p99
aVsh4
p100
aVsparc
p101
aVsparc64
p102
aVtilegx
p103
aVx32
p104
asVcompiler
p105
Vgcc-7
p106
sVfeaturesets
p107
(lp108
Vnone
p109
aVrt
p110
ass(Vbuild
p111
tp112
(dp113
Vdebug-info
p114
I01
sVsigned-code
p115
I00
ss(Vbase
p116
NVrt
p117
tp118
(dp119
Venabled
p120
I01
ss(Vdescription
p121
tp122
(dp123
Vpart-long-up
p124
VThis kernel is not suitable for SMP (multi-processor,\u000amulti-core or hyper-threaded) systems.
p125
ss(Vimage
p126
tp127
(dp128
Vinitramfs-generators
p129
(lp130
Vinitramfs-tools
p131
aVinitramfs-fallback
p132
asVrecommends
p133
Vapparmor
p134
ss(Vrelations
p135
tp136
(dp137
Vgcc-7
p138
Vgcc-7 <!stage1 !cross>, gcc-7-@gnu-type-package@ <!stage1 cross>
p139
sVinitramfs-fallback
p140
Vlinux-initramfs-tool
p141
sVinitramfs-tools
p142
Vinitramfs-tools (>= 0.120+deb8u2)
p143
ss(Vbase
p144
Valpha
p145
tp146
(dp147
Vkernel-arch
p148
Valpha
p149
sVfeaturesets
p150
(lp151
Vnone
p152
ass(Vbuild
p153
g145
tp154
(dp155
Vimage-file
p156
Varch/alpha/boot/vmlinux.gz
p157
ss(Vimage
p158
g145
tp159
(dp160
Vsuggests
p161
Vaboot, fdutils
p162
sVinstall-stem
p163
Vvmlinuz
p164
ss(Vdescription
p165
g145
NValpha-generic
p166
tp167
(dp168
Vhardware
p169
VAlpha
p170
sVhardware-long
p171
VDEC Alpha systems with extended kernel start address (Wildfire, Titan, Marvel)
p172
ss(Vdescription
p173
g145
NValpha-smp
p174
tp175
(dp176
Vhardware
p177
VAlpha SMP
p178
sVhardware-long
p179
VDEC Alpha SMP systems with extended kernel start address (Wildfire, Titan, Marvel)
p180
ss(Vbase
p181
g145
g152
tp182
(dp183
Vflavours
p184
(lp185
Valpha-generic
p186
aValpha-smp
p187
asVimplicit-flavour
p188
I01
ss(Vbase
p189
Vamd64
p190
tp191
(dp192
Vfeaturesets
p193
(lp194
Vnone
p195
aVrt
p196
asVkernel-arch
p197
Vx86
p198
ss(Vbuild
p199
g190
tp200
(dp201
Vdebug-info
p202
I01
sVimage-file
p203
Varch/x86/boot/bzImage
p204
sVvdso
p205
I01
sVsigned-modules
p206
Vfalse
p207
ss(Vimage
p208
g190
tp209
(dp210
Vbootloaders
p211
(lp212
Vgrub-pc
p213
aVgrub-efi-amd64
p214
aVextlinux
p215
asVinstall-stem
p216
Vvmlinuz
p217
sVbreaks
p218
Vxserver-xorg-input-vmmouse (<< 1:13.0.99)
p219
ss(Vrelations
p220
g190
tp221
(dp222
Vgcc-7
p223
Vgcc-7 (>= 7.2.0-20~) <!stage1 !cross>, gcc-7-x86-64-linux-gnu (>= 7.2.0-20~) <!stage1 cross>
p224
sVheaders%gcc-7
p225
Vlinux-compiler-gcc-7-x86 (>= 4.14.17-1~)
p226
ss(Vdescription
p227
g190
NVamd64
p228
tp229
(dp230
Vhardware
p231
V64-bit PCs
p232
sVhardware-long
p233
VPCs with AMD64, Intel 64 or VIA Nano processors
p234
ss(Vdescription
p235
g190
NVcloud-amd64
p236
tp237
(dp238
Vhardware
p239
Vx86-64 cloud
p240
sVhardware-long
p241
VAmazon EC2, Google Compute Engine and Microsoft Azure cloud platforms
p242
ss(Vbase
p243
g190
Vnone
p244
tp245
(dp246
Vflavours
p247
(lp248
Vamd64
p249
aVcloud-amd64
p250
ass(Vbase
p251
g190
Vrt
p252
tp253
(dp254
Vflavours
p255
(lp256
Vamd64
p257
ass(Vbase
p258
Varm64
p259
tp260
(dp261
Vkernel-arch
p262
Varm64
p263
sVfeaturesets
p264
(lp265
Vnone
p266
ass(Vbuild
p267
g259
tp268
(dp269
Vdebug-info
p270
I01
sVimage-file
p271
Varch/arm64/boot/Image
p272
sVvdso
p273
I01
sVsigned-modules
p274
Vfalse
p275
ss(Vimage
p276
g259
tp277
(dp278
Vinstall-stem
p279
Vvmlinuz
p280
sVbreaks
p281
Vlibmozjs185-1.0, libmozjs-24-0 (<< 24.2.0-5.1~)
p282
ss(Vdescription
p283
g259
NVarm64
p284
tp285
(dp286
Vhardware
p287
V64-bit ARMv8 machines
p288
ss(Vimage
p289
g259
NVarm64
p290
tp291
(dp292
s(Vbase
p293
g259
Vnone
p294
tp295
(dp296
Vflavours
p297
(lp298
Varm64
p299
ass(Vbase
p300
Varm64ilp32
p301
tp302
(dp303
Vkernel-arch
p304
Varm64
p305
sVfeaturesets
p306
(lp307
ss(Vbase
p308
Varmel
p309
tp310
(dp311
Vkernel-arch
p312
Varm
p313
sg150
(lp314
g152
ass(Vbuild
p315
g309
tp316
(dp317
Vimage-file
p318
Varch/arm/boot/zImage
p319
sVuncompressed-image-file
p320
Varch/arm/boot/Image
p321
ss(Vimage
p322
g309
tp323
(dp324
Vinstall-stem
p325
Vvmlinuz
p326
ss(Vrelations
p327
g309
tp328
(dp329
Vheaders%gcc-7
p330
Vlinux-compiler-gcc-7-arm
p331
ss(Vdescription
p332
g309
NVmarvell
p333
tp334
(dp335
Vhardware
p336
VMarvell Kirkwood/Orion
p337
sVhardware-long
p338
VMarvell Kirkwood and Orion based systems (https://wiki.debian.org/ArmEabiPort#Supported_hardware)
p339
ss(Vimage
p340
g309
NVmarvell
p341
tp342
(dp343
Vrecommends
p344
Vu-boot-tools
p345
sVcheck-size
p346
L2097080L
sVcheck-size-with-dtb
p347
I01
sVcheck-uncompressed-size
p348
L7340032L
sVbreaks
p349
Vflash-kernel (<< 3.57~)
p350
ss(g181
g309
g152
tp351
(dp352
g184
(lp353
Vmarvell
p354
asg188
I01
ss(Vbase
p355
Varmhf
p356
tp357
(dp358
Vkernel-arch
p359
Varm
p360
sg150
(lp361
g152
ass(Vbuild
p362
g356
tp363
(dp364
Vimage-file
p365
Varch/arm/boot/zImage
p366
sVvdso
p367
I01
sVsigned-modules
p368
Vfalse
p369
ss(Vimage
p370
g356
tp371
(dp372
Vinstall-stem
p373
Vvmlinuz
p374
ss(Vrelations
p375
g356
tp376
(dp377
Vheaders%gcc-7
p378
Vlinux-compiler-gcc-7-arm
p379
ss(Vdescription
p380
g356
NVarmmp
p381
tp382
(dp383
Vhardware
p384
VARMv7 multiplatform compatible SoCs
p385
sVhardware-long
p386
VARMv7 multiplatform kernel. See\u000ahttps://wiki.debian.org/DebianKernel/ARMMP for details of supported\u000aplatforms
p387
ss(Vdescription
p388
g356
NVarmmp-lpae
p389
tp390
(dp391
Vhardware
p392
VARMv7 multiplatform compatible SoCs supporting LPAE
p393
sVhardware-long
p394
VARMv7 multiplatform kernel supporting LPAE. See\u000ahttps://wiki.debian.org/DebianKernel/ARMMP for details of supported\u000aplatforms.
p395
ss(g181
g356
g152
tp396
(dp397
g184
(lp398
Varmmp
p399
aVarmmp-lpae
p400
asg188
I01
ss(Vbase
p401
Vhppa
p402
tp403
(dp404
Vkernel-arch
p405
Vparisc
p406
sg150
(lp407
g152
ass(Vbuild
p408
g402
tp409
(dp410
Vimage-file
p411
Varch/parisc/boot/bzImage
p412
sVdebug-info
p413
I01
ss(Vimage
p414
g402
tp415
(dp416
Vsuggests
p417
Vpalo
p418
sVinstall-stem
p419
Vvmlinuz
p420
ss(Vdescription
p421
g402
NVparisc
p422
tp423
(dp424
Vhardware
p425
V32-bit PA-RISC
p426
sVhardware-long
p427
VHP PA-RISC 32-bit systems with max 4 GB RAM
p428
ss(Vdescription
p429
g402
NVparisc-smp
p430
tp431
(dp432
Vhardware
p433
Vmultiprocessor 32-bit PA-RISC
p434
sVhardware-long
p435
VHP PA-RISC 32-bit SMP systems with max 4 GB RAM
p436
ss(Vbase
p437
g402
NVparisc64-smp
p438
tp439
(dp440
Vcflags
p441
V-fno-cse-follow-jumps
p442
sVoverride-host-type
p443
Vhppa64-linux-gnu
p444
ss(Vdescription
p445
g402
NVparisc64-smp
p446
tp447
(dp448
Vhardware
p449
Vmultiprocessor 64-bit PA-RISC
p450
sVhardware-long
p451
VHP PA-RISC 64-bit SMP systems with support for more than 4 GB RAM
p452
ss(Vrelations
p453
g402
tp454
(dp455
Vgcc-7
p456
Vgcc-7 <!stage1 !cross>, binutils-hppa64-linux-gnu <!stage1 !cross>, gcc-7-hppa64-linux-gnu <!stage1 !cross>, gcc-7-hppa-linux-gnu <!stage1 cross>, binutils-hppa64-linux-gnu <!stage1 cross>, gcc-7-hppa64-linux-gnu <!stage1 cross>
p457
ss(g181
g402
g152
tp458
(dp459
g184
(lp460
Vparisc
p461
aVparisc-smp
p462
aVparisc64-smp
p463
asg188
I01
ss(Vbase
p464
Vi386
p465
tp466
(dp467
Vfeaturesets
p468
(lp469
Vnone
p470
aVrt
p471
asVkernel-arch
p472
Vx86
p473
ss(Vbuild
p474
g465
tp475
(dp476
Vimage-file
p477
Varch/x86/boot/bzImage
p478
sVvdso
p479
I01
sVsigned-modules
p480
Vfalse
p481
ss(Vdescription
p482
g465
tp483
(dp484
Vpart-long-pae
p485
VThis kernel requires PAE (Physical Address Extension).\u000aThis feature is supported by the Intel Pentium Pro/II/III/4/4M/D, Xeon,\u000aCore and Atom; AMD Geode NX, Athlon (K7), Duron, Opteron, Sempron,\u000aTurion or Phenom; Transmeta Efficeon; VIA C7; and some other processors.
p486
ss(Vimage
p487
g465
tp488
(dp489
Vbootloaders
p490
(lp491
Vgrub-pc
p492
aVextlinux
p493
asVinstall-stem
p494
Vvmlinuz
p495
sVbreaks
p496
Vxserver-xorg-input-vmmouse (<< 1:13.0.99)
p497
ss(Vrelations
p498
g465
tp499
(dp500
Vgcc-7
p501
Vgcc-7 (>= 7.2.0-20~) <!stage1 !cross>, gcc-7-i686-linux-gnu (>= 7.2.0-20~) <!stage1 cross>
p502
sVheaders%gcc-7
p503
Vlinux-compiler-gcc-7-x86 (>= 4.14.17-1~)
p504
ss(Vdescription
p505
g465
NV686
p506
tp507
(dp508
Vhardware
p509
Volder PCs
p510
sVhardware-long
p511
VPCs with one or more processors not supporting PAE
p512
ss(Vbuild
p513
g465
NV686-pae
p514
tp515
(dp516
Vdebug-info
p517
I01
ss(Vdescription
p518
g465
NV686-pae
p519
tp520
(dp521
Vhardware
p522
Vmodern PCs
p523
sVhardware-long
p524
VPCs with one or more processors supporting PAE
p525
sVparts
p526
(lp527
Vpae
p528
ass(Vbase
p529
g465
Vnone
p530
tp531
(dp532
Vflavours
p533
(lp534
V686
p535
aV686-pae
p536
ass(Vbase
p537
g465
Vrt
p538
tp539
(dp540
Vflavours
p541
(lp542
V686-pae
p543
ass(Vbase
p544
Via64
p545
tp546
(dp547
Vkernel-arch
p548
Via64
p549
sg150
(lp550
g152
ass(Vbuild
p551
g545
tp552
(dp553
Vimage-file
p554
Vvmlinux.gz
p555
ss(Vimage
p556
g545
tp557
(dp558
Vbootloaders
p559
(lp560
Velilo
p561
asVinstall-stem
p562
Vvmlinuz
p563
ss(Vdescription
p564
g545
NVitanium
p565
tp566
(dp567
Vhardware
p568
VItanium (Merced)
p569
sVhardware-long
p570
Vsystems with original Itanium (Merced) processors
p571
ss(Vdescription
p572
g545
NVmckinley
p573
tp574
(dp575
Vhardware
p576
VItanium 2+
p577
sVhardware-long
p578
Vsystems with Itanium 2 or 9300/9500/9700-series processors
p579
ss(g181
g545
g152
tp580
(dp581
g184
(lp582
Vitanium
p583
aVmckinley
p584
asg188
I01
ss(Vbase
p585
Vm68k
p586
tp587
(dp588
Vcflags
p589
V-ffreestanding
p590
sVkernel-arch
p591
Vm68k
p592
sg150
(lp593
g152
ass(Vbuild
p594
g586
tp595
(dp596
Vimage-file
p597
Vvmlinux
p598
ss(Vimage
p599
g586
tp600
(dp601
Vsuggests
p602
Vvmelilo, fdutils
p603
sVinstall-stem
p604
Vvmlinux
p605
ss(Vdescription
p606
g586
NVm68k
p607
tp608
(dp609
Vhardware
p610
VMotorola MC68020+ family
p611
ss(g181
g586
g152
tp612
(dp613
g184
(lp614
Vm68k
p615
asg188
I01
ss(Vbase
p616
Vmips
p617
tp618
(dp619
Vkernel-arch
p620
Vmips
p621
sg150
(lp622
g152
ass(Vbuild
p623
g617
tp624
(dp625
Vimage-file
p626
Vvmlinux
p627
ss(Vimage
p628
g617
tp629
(dp630
Vinstall-stem
p631
Vvmlinux
p632
ss(Vdescription
p633
g617
NV4kc-malta
p634
tp635
(dp636
Vhardware
p637
VMIPS Malta
p638
sVhardware-long
p639
VMIPS Malta boards
p640
ss(Vimage
p641
g617
NV4kc-malta
p642
tp643
(dp644
Vconfigs
p645
(lp646
Vkernelarch-mips/config.malta
p647
aVkernelarch-mips/config.mips32r2
p648
ass(Vdescription
p649
g617
NV5kc-malta
p650
tp651
(dp652
Vhardware
p653
VMIPS Malta (64-bit)
p654
sVhardware-long
p655
VMIPS Malta boards (64-bit)
p656
ss(Vimage
p657
g617
NV5kc-malta
p658
tp659
(dp660
Vconfigs
p661
(lp662
Vkernelarch-mips/config.malta
p663
aVkernelarch-mips/config.mips64r2
p664
ass(Vdescription
p665
g617
NVocteon
p666
tp667
(dp668
Vhardware
p669
VOcteon
p670
sVhardware-long
p671
VCavium Networks Octeon
p672
ss(Vimage
p673
g617
NVocteon
p674
tp675
(dp676
Vconfigs
p677
(lp678
Vkernelarch-mips/config.octeon
p679
ass(g181
g617
g152
tp680
(dp681
g184
(lp682
V4kc-malta
p683
aV5kc-malta
p684
aVocteon
p685
asg188
I01
ss(Vbase
p686
Vmips64
p687
tp688
(dp689
Vkernel-arch
p690
Vmips
p691
sg150
(lp692
g152
ass(Vbuild
p693
g687
tp694
(dp695
Vimage-file
p696
Vvmlinux
p697
ss(Vimage
p698
g687
tp699
(dp700
Vinstall-stem
p701
Vvmlinux
p702
ss(Vdescription
p703
g687
NV5kc-malta
p704
tp705
(dp706
Vhardware
p707
VMIPS Malta
p708
sVhardware-long
p709
VMIPS Malta boards
p710
ss(Vimage
p711
g687
NV5kc-malta
p712
tp713
(dp714
Vconfigs
p715
(lp716
Vkernelarch-mips/config.malta
p717
aVkernelarch-mips/config.mips64r2
p718
ass(Vdescription
p719
g687
NVocteon
p720
tp721
(dp722
Vhardware
p723
VOcteon
p724
sVhardware-long
p725
VCavium Networks Octeon
p726
ss(Vimage
p727
g687
NVocteon
p728
tp729
(dp730
Vconfigs
p731
(lp732
Vkernelarch-mips/config.octeon
p733
ass(g181
g687
g152
tp734
(dp735
g184
(lp736
V5kc-malta
p737
aVocteon
p738
asg188
I01
ss(Vbase
p739
Vmips64el
p740
tp741
(dp742
Vkernel-arch
p743
Vmips
p744
sg150
(lp745
g152
ass(Vbuild
p746
g740
tp747
(dp748
Vimage-file
p749
Vvmlinux
p750
ss(Vimage
p751
g740
tp752
(dp753
Vinstall-stem
p754
Vvmlinux
p755
ss(Vdescription
p756
g740
NV5kc-malta
p757
tp758
(dp759
Vhardware
p760
VMIPS Malta
p761
sVhardware-long
p762
VMIPS Malta boards
p763
ss(Vimage
p764
g740
NV5kc-malta
p765
tp766
(dp767
Vconfigs
p768
(lp769
Vkernelarch-mips/config.malta
p770
aVkernelarch-mips/config.mips64r2
p771
ass(Vdescription
p772
g740
NVloongson-3
p773
tp774
(dp775
Vhardware
p776
VLoongson 3A/3B
p777
sVhardware-long
p778
VLoongson 3A or 3B based systems (e.g. from Loongson or Lemote)
p779
ss(Vimage
p780
g740
NVloongson-3
p781
tp782
(dp783
Vconfigs
p784
(lp785
Vkernelarch-mips/config.loongson-3
p786
ass(Vdescription
p787
g740
NVocteon
p788
tp789
(dp790
Vhardware
p791
VOcteon
p792
sVhardware-long
p793
VCavium Networks Octeon
p794
ss(Vimage
p795
g740
NVocteon
p796
tp797
(dp798
Vconfigs
p799
(lp800
Vkernelarch-mips/config.octeon
p801
ass(g181
g740
g152
tp802
(dp803
g184
(lp804
V5kc-malta
p805
aVloongson-3
p806
aVocteon
p807
asg188
I01
ss(Vbase
p808
Vmips64r6
p809
tp810
(dp811
Vkernel-arch
p812
Vmips
p813
sg150
(lp814
g152
ass(Vbuild
p815
g809
tp816
(dp817
Vimage-file
p818
Vvmlinux
p819
ss(Vimage
p820
g809
tp821
(dp822
Vinstall-stem
p823
Vvmlinux
p824
ss(Vdescription
p825
g809
NVmips64r6
p826
tp827
(dp828
Vhardware
p829
VMIPS R6 (64 bit, big endian)
p830
sVhardware-long
p831
VMIPS R6 (64 bit, big endian)
p832
ss(Vimage
p833
g809
NVmips64r6
p834
tp835
(dp836
Vconfigs
p837
(lp838
Vkernelarch-mips/config.malta
p839
aVkernelarch-mips/config.mips64r6
p840
ass(g181
g809
g152
tp841
(dp842
g184
(lp843
Vmips64r6
p844
asg188
I01
ss(Vbase
p845
Vmips64r6el
p846
tp847
(dp848
Vkernel-arch
p849
Vmips
p850
sg150
(lp851
g152
ass(Vbuild
p852
g846
tp853
(dp854
Vimage-file
p855
Vvmlinux
p856
ss(Vimage
p857
g846
tp858
(dp859
Vinstall-stem
p860
Vvmlinux
p861
ss(Vdescription
p862
g846
NVmips64r6el
p863
tp864
(dp865
Vhardware
p866
VMIPS R6 (64 bit, little endian)
p867
sVhardware-long
p868
VMIPS R6 (64 bit, little endian)
p869
ss(Vimage
p870
g846
NVmips64r6el
p871
tp872
(dp873
Vconfigs
p874
(lp875
Vkernelarch-mips/config.malta
p876
aVkernelarch-mips/config.mips64r6
p877
ass(g181
g846
g152
tp878
(dp879
g184
(lp880
Vmips64r6el
p881
asg188
I01
ss(Vbase
p882
Vmipsel
p883
tp884
(dp885
Vkernel-arch
p886
Vmips
p887
sg150
(lp888
g152
ass(Vbuild
p889
g883
tp890
(dp891
Vimage-file
p892
Vvmlinux
p893
ss(Vimage
p894
g883
tp895
(dp896
Vinstall-stem
p897
Vvmlinux
p898
ss(Vdescription
p899
g883
NV4kc-malta
p900
tp901
(dp902
Vhardware
p903
VMIPS Malta
p904
sVhardware-long
p905
VMIPS Malta boards
p906
ss(Vimage
p907
g883
NV4kc-malta
p908
tp909
(dp910
Vconfigs
p911
(lp912
Vkernelarch-mips/config.malta
p913
aVkernelarch-mips/config.mips32r2
p914
ass(Vdescription
p915
g883
NV5kc-malta
p916
tp917
(dp918
Vhardware
p919
VMIPS Malta (64-bit)
p920
sVhardware-long
p921
VMIPS Malta boards (64-bit)
p922
ss(Vimage
p923
g883
NV5kc-malta
p924
tp925
(dp926
Vconfigs
p927
(lp928
Vkernelarch-mips/config.malta
p929
aVkernelarch-mips/config.mips64r2
p930
ass(Vdescription
p931
g883
NVloongson-3
p932
tp933
(dp934
Vhardware
p935
VLoongson 3A/3B
p936
sVhardware-long
p937
VLoongson 3A or 3B based systems (e.g. from Loongson or Lemote)
p938
ss(Vimage
p939
g883
NVloongson-3
p940
tp941
(dp942
Vconfigs
p943
(lp944
Vkernelarch-mips/config.loongson-3
p945
ass(Vdescription
p946
g883
NVocteon
p947
tp948
(dp949
Vhardware
p950
VOcteon
p951
sVhardware-long
p952
VCavium Networks Octeon
p953
ss(Vimage
p954
g883
NVocteon
p955
tp956
(dp957
Vconfigs
p958
(lp959
Vkernelarch-mips/config.octeon
p960
ass(g181
g883
g152
tp961
(dp962
g184
(lp963
V4kc-malta
p964
aV5kc-malta
p965
aVloongson-3
p966
aVocteon
p967
asg188
I01
ss(Vbase
p968
Vmipsn32
p969
tp970
(dp971
Vkernel-arch
p972
Vmips
p973
sVfeaturesets
p974
(lp975
ss(Vbase
p976
Vmipsn32el
p977
tp978
(dp979
Vkernel-arch
p980
Vmips
p981
sVfeaturesets
p982
(lp983
ss(Vbase
p984
Vmipsn32r6
p985
tp986
(dp987
Vkernel-arch
p988
Vmips
p989
sVfeaturesets
p990
(lp991
ss(Vbase
p992
Vmipsn32r6el
p993
tp994
(dp995
Vkernel-arch
p996
Vmips
p997
sVfeaturesets
p998
(lp999
ss(Vbase
p1000
Vmipsr6
p1001
tp1002
(dp1003
Vkernel-arch
p1004
Vmips
p1005
sg150
(lp1006
g152
ass(Vbuild
p1007
g1001
tp1008
(dp1009
Vimage-file
p1010
Vvmlinux
p1011
ss(Vimage
p1012
g1001
tp1013
(dp1014
Vinstall-stem
p1015
Vvmlinux
p1016
ss(Vdescription
p1017
g1001
NVmips32r6
p1018
tp1019
(dp1020
Vhardware
p1021
VMIPS R6 (32 bit, big endian)
p1022
sVhardware-long
p1023
VMIPS R6 (32 bit, big endian)
p1024
ss(Vimage
p1025
g1001
NVmips32r6
p1026
tp1027
(dp1028
Vconfigs
p1029
(lp1030
Vkernelarch-mips/config.malta
p1031
aVkernelarch-mips/config.mips32r6
p1032
ass(Vdescription
p1033
g1001
NVmips64r6
p1034
tp1035
(dp1036
Vhardware
p1037
VMIPS R6 (64 bit, big endian)
p1038
sVhardware-long
p1039
VMIPS R6 (64 bit, big endian)
p1040
ss(Vimage
p1041
g1001
NVmips64r6
p1042
tp1043
(dp1044
Vconfigs
p1045
(lp1046
Vkernelarch-mips/config.malta
p1047
aVkernelarch-mips/config.mips64r6
p1048
ass(g181
g1001
g152
tp1049
(dp1050
g184
(lp1051
Vmips32r6
p1052
aVmips64r6
p1053
asg188
I01
ss(Vbase
p1054
Vmipsr6el
p1055
tp1056
(dp1057
Vkernel-arch
p1058
Vmips
p1059
sg150
(lp1060
g152
ass(Vbuild
p1061
g1055
tp1062
(dp1063
Vimage-file
p1064
Vvmlinux
p1065
ss(Vimage
p1066
g1055
tp1067
(dp1068
Vinstall-stem
p1069
Vvmlinux
p1070
ss(Vdescription
p1071
g1055
NVmips32r6el
p1072
tp1073
(dp1074
Vhardware
p1075
VMIPS R6 (32 bit, little endian)
p1076
sVhardware-long
p1077
VMIPS R6 (32 bit, little endian)
p1078
ss(Vimage
p1079
g1055
NVmips32r6el
p1080
tp1081
(dp1082
Vconfigs
p1083
(lp1084
Vkernelarch-mips/config.malta
p1085
aVkernelarch-mips/config.mips32r6
p1086
ass(Vdescription
p1087
g1055
NVmips64r6el
p1088
tp1089
(dp1090
Vhardware
p1091
VMIPS R6 (64 bit, little endian)
p1092
sVhardware-long
p1093
VMIPS R6 (64 bit, little endian)
p1094
ss(Vimage
p1095
g1055
NVmips64r6el
p1096
tp1097
(dp1098
Vconfigs
p1099
(lp1100
Vkernelarch-mips/config.malta
p1101
aVkernelarch-mips/config.mips64r6
p1102
ass(g181
g1055
g152
tp1103
(dp1104
g184
(lp1105
Vmips32r6el
p1106
aVmips64r6el
p1107
asg188
I01
ss(Vbase
p1108
Vpowerpc
p1109
tp1110
(dp1111
Vkernel-arch
p1112
Vpowerpc
p1113
sg150
(lp1114
g152
ass(Vbuild
p1115
g1109
tp1116
(dp1117
Vimage-file
p1118
Vvmlinux
p1119
sVvdso
p1120
I01
ss(Vimage
p1121
g1109
tp1122
(dp1123
Vconfigs
p1124
(lp1125
sVsuggests
p1126
Vmkvmlinuz
p1127
sVinstall-stem
p1128
Vvmlinux
p1129
ss(Vdescription
p1130
g1109
NVpowerpc
p1131
tp1132
(dp1133
Vhardware
p1134
Vuniprocessor 32-bit PowerPC
p1135
ss(Vdescription
p1136
g1109
NVpowerpc-smp
p1137
tp1138
(dp1139
Vhardware
p1140
Vmultiprocessor 32-bit PowerPC
p1141
ss(Vimage
p1142
g1109
NVpowerpc-smp
p1143
tp1144
(dp1145
Vconfigs
p1146
(lp1147
Vpowerpc/config.powerpc
p1148
aVpowerpc/config.powerpc-smp
p1149
ass(Vdescription
p1150
g1109
NVpowerpc64
p1151
tp1152
(dp1153
Vhardware
p1154
V64-bit PowerPC
p1155
ss(Vimage
p1156
g1109
NVpowerpc64
p1157
tp1158
(dp1159
Vconfigs
p1160
(lp1161
Vkernelarch-powerpc/config-arch-64
p1162
aVkernelarch-powerpc/config-arch-64-be
p1163
ass(g181
g1109
g152
tp1164
(dp1165
g184
(lp1166
Vpowerpc
p1167
aVpowerpc-smp
p1168
aVpowerpc64
p1169
asg188
I01
ss(Vbase
p1170
Vpowerpcspe
p1171
tp1172
(dp1173
Vkernel-arch
p1174
Vpowerpc
p1175
sg150
(lp1176
g152
ass(Vbuild
p1177
g1171
tp1178
(dp1179
Vimage-file
p1180
Vvmlinux
p1181
sVvdso
p1182
I01
ss(Vimage
p1183
g1171
tp1184
(dp1185
Vsuggests
p1186
Vmkvmlinuz
p1187
sVinstall-stem
p1188
Vvmlinux
p1189
ss(Vdescription
p1190
g1171
tp1191
(dp1192
Vhardware
p1193
V32-bit PowerPC with SPE (instead of AltiVec) with SMP support
p1194
ss(g181
g1171
g152
tp1195
(dp1196
g184
(lp1197
Vpowerpcspe
p1198
asg188
I01
ss(Vbase
p1199
Vppc64
p1200
tp1201
(dp1202
Vkernel-arch
p1203
Vpowerpc
p1204
sg150
(lp1205
g152
ass(Vbuild
p1206
g1200
tp1207
(dp1208
Vimage-file
p1209
Vvmlinux
p1210
sVvdso
p1211
I01
ss(Vimage
p1212
g1200
tp1213
(dp1214
Vconfigs
p1215
(lp1216
sVsuggests
p1217
Vmkvmlinuz
p1218
sVinstall-stem
p1219
Vvmlinux
p1220
ss(Vdescription
p1221
g1200
NVpowerpc64
p1222
tp1223
(dp1224
Vhardware
p1225
V64-bit PowerPC
p1226
ss(Vimage
p1227
g1200
NVpowerpc64
p1228
tp1229
(dp1230
Vconfigs
p1231
(lp1232
Vkernelarch-powerpc/config-arch-64
p1233
aVkernelarch-powerpc/config-arch-64-be
p1234
ass(g181
g1200
g152
tp1235
(dp1236
g184
(lp1237
Vpowerpc64
p1238
asg188
I01
ss(Vbase
p1239
Vppc64el
p1240
tp1241
(dp1242
Vkernel-arch
p1243
Vpowerpc
p1244
sg150
(lp1245
g152
ass(Vbuild
p1246
g1240
tp1247
(dp1248
Vimage-file
p1249
Vvmlinux
p1250
sVvdso
p1251
I01
ss(Vimage
p1252
g1240
tp1253
(dp1254
Vconfigs
p1255
(lp1256
sVsuggests
p1257
Vmkvmlinuz
p1258
sVinstall-stem
p1259
Vvmlinux
p1260
ss(Vdescription
p1261
g1240
NVpowerpc64le
p1262
tp1263
(dp1264
Vhardware
p1265
VLittle-endian 64-bit PowerPC
p1266
ss(Vimage
p1267
g1240
NVpowerpc64le
p1268
tp1269
(dp1270
Vconfigs
p1271
(lp1272
Vkernelarch-powerpc/config-arch-64
p1273
aVkernelarch-powerpc/config-arch-64-le
p1274
ass(g181
g1240
g152
tp1275
(dp1276
g184
(lp1277
Vpowerpc64le
p1278
asg188
I01
ss(Vbase
p1279
Vs390
p1280
tp1281
(dp1282
Vkernel-arch
p1283
Vs390
p1284
sVfeaturesets
p1285
(lp1286
ss(Vbase
p1287
Vs390x
p1288
tp1289
(dp1290
Vkernel-arch
p1291
Vs390
p1292
sg150
(lp1293
g152
ass(Vbuild
p1294
g1288
tp1295
(dp1296
Vimage-file
p1297
Varch/s390/boot/image
p1298
sVvdso
p1299
I01
ss(Vimage
p1300
g1288
tp1301
(dp1302
Vbootloaders
p1303
(lp1304
Vs390-tools
p1305
asVinstall-stem
p1306
Vvmlinuz
p1307
ss(Vrelations
p1308
g1288
tp1309
(dp1310
Vheaders%gcc-7
p1311
Vlinux-compiler-gcc-7-s390
p1312
ss(Vbuild
p1313
g1288
NVs390x
p1314
tp1315
(dp1316
Vdebug-info
p1317
I01
ss(Vdescription
p1318
g1288
NVs390x
p1319
tp1320
(dp1321
Vhardware
p1322
VIBM zSeries
p1323
ss(g181
g1288
g152
tp1324
(dp1325
g184
(lp1326
Vs390x
p1327
asg188
I01
ss(Vbase
p1328
Vsh3
p1329
tp1330
(dp1331
Vkernel-arch
p1332
Vsh
p1333
sVfeaturesets
p1334
(lp1335
ss(Vbase
p1336
Vsh4
p1337
tp1338
(dp1339
Vkernel-arch
p1340
Vsh
p1341
sg150
(lp1342
g152
ass(Vbuild
p1343
g1337
tp1344
(dp1345
Vimage-file
p1346
Varch/sh/boot/zImage
p1347
ss(Vimage
p1348
g1337
tp1349
(dp1350
Vinstall-stem
p1351
Vvmlinuz
p1352
ss(Vdescription
p1353
g1337
NVsh7751r
p1354
tp1355
(dp1356
Vhardware
p1357
Vsh7751r
p1358
sVhardware-long
p1359
VRenesas SH7751R R2D plus board
p1360
ss(Vdescription
p1361
g1337
NVsh7785lcr
p1362
tp1363
(dp1364
Vhardware
p1365
Vsh7785lcr
p1366
sVhardware-long
p1367
VRenesas SH7785 reference board
p1368
ss(Vimage
p1369
g1337
NVsh7785lcr
p1370
tp1371
(dp1372
Vrecommends
p1373
Vu-boot-tools
p1374
sVcheck-size
p1375
L4194304L
ss(g181
g1337
g152
tp1376
(dp1377
g184
(lp1378
Vsh7751r
p1379
aVsh7785lcr
p1380
asg188
I01
ss(Vbase
p1381
Vsparc
p1382
tp1383
(dp1384
Vkernel-arch
p1385
Vsparc
p1386
sVfeaturesets
p1387
(lp1388
ss(Vbase
p1389
Vsparc64
p1390
tp1391
(dp1392
Vkernel-arch
p1393
Vsparc
p1394
sg150
(lp1395
g152
ass(Vbuild
p1396
g1390
tp1397
(dp1398
Vimage-file
p1399
Varch/sparc/boot/zImage
p1400
ss(Vimage
p1401
g1390
tp1402
(dp1403
Vconfigs
p1404
(lp1405
sVsuggests
p1406
Vsilo, fdutils
p1407
sVinstall-stem
p1408
Vvmlinuz
p1409
ss(Vdescription
p1410
g1390
NVsparc64
p1411
tp1412
(dp1413
Vhardware
p1414
Vuniprocessor 64-bit UltraSPARC
p1415
ss(Vimage
p1416
g1390
NVsparc64
p1417
tp1418
(dp1419
Vconfigs
p1420
(lp1421
Vkernelarch-sparc/config-up
p1422
ass(Vdescription
p1423
g1390
NVsparc64-smp
p1424
tp1425
(dp1426
Vhardware
p1427
Vmultiprocessor 64-bit UltraSPARC
p1428
ss(Vimage
p1429
g1390
NVsparc64-smp
p1430
tp1431
(dp1432
Vconfigs
p1433
(lp1434
Vkernelarch-sparc/config-smp
p1435
ass(g181
g1390
g152
tp1436
(dp1437
g184
(lp1438
Vsparc64
p1439
aVsparc64-smp
p1440
asg188
I01
ss(Vbase
p1441
Vtilegx
p1442
tp1443
(dp1444
Vkernel-arch
p1445
Vtile
p1446
sVfeaturesets
p1447
(lp1448
ss(Vbase
p1449
Vx32
p1450
tp1451
(dp1452
Vkernel-arch
p1453
Vx86
p1454
sVfeaturesets
p1455
(lp1456
ss(Vabi
p1457
NVrt
p1458
tp1459
(dp1460
Vignore-changes
p1461
(lp1462
V*
p1463
ass(Vdescription
p1464
Ng1458
tp1465
(dp1466
Vpart-long-rt
p1467
VThis kernel includes the PREEMPT_RT realtime patch set.
p1468
sVpart-short-rt
p1469
VPREEMPT_RT
p1470
sVparts
p1471
(lp1472
Vrt
p1473
ass(Vversion
p1474
tp1475
(dp1476
Vsource
p1477
V4.16.16-1kali1
p1478
sVupstream
p1479
V4.16
p1480
sVabiname_base
p1481
V4.16.0
p1482
sVabiname
p1483
V4.16.0-kali2
p1484
ss.