ccopy_reg
_reconstructor
p0
(cdebian_linux.config
ConfigCore
p1
c__builtin__
dict
p2
(dp3
(Vimage
p4
Vmips
p5
NV4kc-malta
p6
tp7
(dp8
Vconfigs
p9
(lp10
Vkernelarch-mips/config.4kc-malta
p11
ass(Vbase
p12
Vhppa
p13
NVparisc64-smp
p14
tp15
(dp16
Voverride-host-type
p17
Vhppa64-linux-gnu
p18
sVcflags
p19
V-fno-cse-follow-jumps
p20
ss(Vbase
p21
Vpowerpc
p22
Vnone
p23
tp24
(dp25
Vimplicit-flavour
p26
I01
sVflavours
p27
(lp28
Vpowerpc
p29
aVpowerpc-smp
p30
aVpowerpc64
p31
ass(Vbase
p32
Vmipsel
p33
tp34
(dp35
Vfeaturesets
p36
(lp37
g23
asVkernel-arch
p38
Vmips
p39
ss(Vimage
p40
Vppc64el
p41
tp42
(dp43
Vinstall-stem
p44
Vvmlinux
p45
sVsuggests
p46
Vmkvmlinuz
p47
sVconfigs
p48
(lp49
ss(g21
Vm68k
p50
g23
tp51
(dp52
g26
I01
sg27
(lp53
Vm68k
p54
ass(Vdescription
p55
g33
NV4kc-malta
p56
tp57
(dp58
Vhardware-long
p59
VMIPS Malta boards
p60
sVhardware
p61
VMIPS Malta
p62
ss(Vdescription
p63
Vi386
p64
NV686-pae
p65
tp66
(dp67
Vhardware-long
p68
VPCs with one or more processors supporting PAE
p69
sVhardware
p70
Vmodern PCs
p71
sVparts
p72
(lp73
Vpae
p74
ass(Vrelations
p75
Vamd64
p76
tp77
(dp78
Vheaders%gcc-5
p79
Vlinux-compiler-gcc-5-x86
p80
ss(Vdescription
p81
Vsparc64
p82
NVsparc64
p83
tp84
(dp85
Vhardware
p86
Vuniprocessor 64-bit UltraSPARC
p87
ss(Vdescription
p88
g64
Vnone
p89
V686-pae
p90
tp91
(dp92
Vparts
p93
(lp94
Vxen
p95
ass(g21
Vs390x
p96
g23
tp97
(dp98
g26
I01
sg27
(lp99
Vs390x
p100
ass(g21
g41
g23
tp101
(dp102
g26
I01
sg27
(lp103
Vpowerpc64le
p104
ass(Vimage
p105
g5
NV5kc-malta
p106
tp107
(dp108
Vconfigs
p109
(lp110
Vkernelarch-mips/config.5kc-malta
p111
ass(Vrelations
p112
g96
tp113
(dp114
Vheaders%gcc-4.9
p115
Vlinux-compiler-gcc-4.9-s390
p116
ss(Vrelations
p117
tp118
(dp119
Vgcc-4.8
p120
Vgcc-4.8 <!stage1>
p121
sVinitramfs-fallback
p122
Vlinux-initramfs-tool
p123
sVgcc-5
p124
Vgcc-5 <!stage1>
p125
sVgcc-4.9
p126
Vgcc-4.9 <!stage1>
p127
sVinitramfs-tools
p128
Vinitramfs-tools (>= 0.110~)
p129
ss(Vimage
p130
g96
NVs390x
p131
tp132
(dp133
Vconfigs
p134
(lp135
Vkernelarch-s390/config-arch-64
p136
ass(Vdescription
p137
g5
NV4kc-malta
p138
tp139
(dp140
Vhardware-long
p141
VMIPS Malta boards
p142
sVhardware
p143
VMIPS Malta
p144
ss(Vimage
p145
g33
NV5kc-malta
p146
tp147
(dp148
Vconfigs
p149
(lp150
Vkernelarch-mips/config.5kc-malta
p151
ass(Vbase
p152
g76
Vnone
p153
tp154
(dp155
Vflavours
p156
(lp157
Vamd64
p158
ass(Vdescription
p159
g5
NVocteon
p160
tp161
(dp162
Vhardware-long
p163
VCavium Networks Octeon
p164
sVhardware
p165
VOcteon
p166
ss(Vabi
p167
NVrt
p168
tp169
(dp170
Vignore-changes
p171
(lp172
V*
p173
ass(Vbase
p174
g64
Vrt
p175
tp176
(dp177
Vflavours
p178
(lp179
V686-pae
p180
ass(g21
g13
g23
tp181
(dp182
g26
I01
sg27
(lp183
Vparisc
p184
aVparisc64-smp
p185
ass(Vbase
p186
g41
tp187
(dp188
g36
(lp189
g23
asVkernel-arch
p190
Vpowerpc
p191
ss(Vdescription
p192
tp193
(dp194
Vpart-long-up
p195
VThis kernel is not suitable for SMP (multi-processor,\u000amulti-core or hyper-threaded) systems.
p196
sVpart-long-xen
p197
VThis kernel also runs on a Xen hypervisor.\u000aIt supports both privileged (dom0) and unprivileged (domU) operation.
p198
ss(Vbuild
p199
g5
tp200
(dp201
Vimage-file
p202
Vvmlinux
p203
ss(Vimage
p204
g33
tp205
(dp206
Vinstall-stem
p207
Vvmlinux
p208
ss(Vdescription
p209
g41
NVpowerpc64le
p210
tp211
(dp212
Vhardware
p213
VLittle-endian 64-bit PowerPC
p214
ss(Vbase
p215
Vor1k
p216
tp217
(dp218
Vkernel-arch
p219
Vopenrisc
p220
sVfeaturesets
p221
(lp222
ss(Vimage
p223
Varmel
p224
tp225
(dp226
Vinstall-stem
p227
Vvmlinuz
p228
sVsuggests
p229
Vfdutils
p230
sVconfigs
p231
(lp232
Vkernelarch-arm/config
p233
aVarmel/config
p234
ass(Vimage
p235
g224
NVkirkwood
p236
tp237
(dp238
Vrecommends
p239
Vu-boot-tools
p240
sVconfigs
p241
(lp242
Varmel/config-reduced
p243
aVarmel/config.kirkwood
p244
asVcheck-size
p245
L2097080L
sVbreaks
p246
Vflash-kernel (<< 3.37~)
p247
sVcheck-size-with-dtb
p248
I01
ss(Vimage
p249
Vmips64
p250
NVocteon
p251
tp252
(dp253
Vconfigs
p254
(lp255
Vkernelarch-mips/config.octeon
p256
ass(Vabi
p257
tp258
(dp259
Vabiname
p260
V1
p261
sVignore-changes
p262
(lp263
Vmodule:net/dccp/dccp
p264
aVfl6_*
p265
aVinet_sk_diag_fill
p266
aVip6_append_data
p267
aVip6_datagram_send_ctl
p268
aVip6_xmit
p269
aVipv6_dup_options
p270
aVipv6_fixup_options
p271
aVipv6_push_nfrag_opts
p272
aVtcp_cong_avoid_ai
p273
aVtcp_slow_start
p274
aVpin_is_valid
p275
aVpinctrl_*
p276
ass(Vbuild
p277
g224
tp278
(dp279
Vimage-file
p280
Varch/arm/boot/zImage
p281
ss(Vdescription
p282
g13
NVparisc64-smp
p283
tp284
(dp285
Vhardware-long
p286
VHP PA-RISC 64-bit SMP systems with support for more than 4 GB RAM
p287
sVhardware
p288
Vmultiprocessor 64-bit PA-RISC
p289
ss(Vimage
p290
g64
tp291
(dp292
Vbreaks
p293
Vxserver-xorg-input-vmmouse (<< 1:13.0.99)
p294
sVconfigs
p295
(lp296
sVinstall-stem
p297
Vvmlinuz
p298
sVbootloaders
p299
(lp300
Vgrub-pc
p301
aVextlinux
p302
ass(Vbuild
p303
g13
tp304
(dp305
Vimage-file
p306
Vvmlinux
p307
ss(Vdescription
p308
g5
NV5kc-malta
p309
tp310
(dp311
Vhardware-long
p312
VMIPS Malta boards (64-bit)
p313
sVhardware
p314
VMIPS Malta (64-bit)
p315
ss(Vimage
p316
g50
tp317
(dp318
Vinstall-stem
p319
Vvmlinuz
p320
sVsuggests
p321
Vvmelilo, fdutils
p322
ss(Vdescription
p323
g76
NVamd64
p324
tp325
(dp326
Vhardware-long
p327
VPCs with AMD64, Intel 64 or VIA Nano processors
p328
sVhardware
p329
V64-bit PCs
p330
ss(Vbase
p331
g64
g89
tp332
(dp333
Vflavours
p334
(lp335
V686
p336
aV686-pae
p337
ass(Vdescription
p338
g76
g153
Vamd64
p339
tp340
(dp341
Vparts
p342
(lp343
Vxen
p344
ass(Vbase
p345
g5
tp346
(dp347
g36
(lp348
g23
asVkernel-arch
p349
Vmips
p350
ss(g21
g82
g23
tp351
(dp352
g26
I01
sg27
(lp353
Vsparc64
p354
aVsparc64-smp
p355
ass(Vbuild
p356
g41
tp357
(dp358
Vvdso
p359
I01
sVimage-file
p360
Vvmlinux
p361
ss(Vimage
p362
g41
NVpowerpc64le
p363
tp364
(dp365
Vconfigs
p366
(lp367
Vkernelarch-powerpc/config-arch-64
p368
aVkernelarch-powerpc/config-arch-64-le
p369
ass(Vimage
p370
g96
tp371
(dp372
Vconfigs
p373
(lp374
sVinstall-stem
p375
Vvmlinuz
p376
sVbootloaders
p377
(lp378
Vs390-tools
p379
ass(Vbase
p380
Varmhf
p381
tp382
(dp383
g36
(lp384
g23
asVkernel-arch
p385
Varm
p386
ss(Vimage
p387
Vppc64
p388
NVpowerpc64
p389
tp390
(dp391
Vconfigs
p392
(lp393
Vkernelarch-powerpc/config-arch-64
p394
aVkernelarch-powerpc/config-arch-64-be
p395
ass(Vbase
p396
Vmips64el
p397
tp398
(dp399
g36
(lp400
g23
asVkernel-arch
p401
Vmips
p402
ss(Vimage
p403
g224
NVorion5x
p404
tp405
(dp406
Vrecommends
p407
Vu-boot-tools
p408
sVconfigs
p409
(lp410
Varmel/config-reduced
p411
aVarmel/config.orion5x
p412
asVcheck-size
p413
L2097080L
sVcheck-size-with-dtb
p414
I01
ss(Vimage
p415
g64
NV686
p416
tp417
(dp418
Vrecommends
p419
Vlibc6-i686
p420
sVconfigs
p421
(lp422
Vkernelarch-x86/config-arch-32
p423
aVi386/config.686
p424
ass(Vdescription
p425
g397
NVocteon
p426
tp427
(dp428
Vhardware-long
p429
VCavium Networks Octeon
p430
sVhardware
p431
VOcteon
p432
ss(Vbase
p433
Valpha
p434
tp435
(dp436
g36
(lp437
g23
asVkernel-arch
p438
Valpha
p439
ss(Vimage
p440
g388
tp441
(dp442
Vinstall-stem
p443
Vvmlinux
p444
sVsuggests
p445
Vmkvmlinuz
p446
sVconfigs
p447
(lp448
ss(Vbase
p449
Vsh4
p450
tp451
(dp452
g36
(lp453
g23
asVkernel-arch
p454
Vsh
p455
ss(Vdescription
p456
g381
NVarmmp
p457
tp458
(dp459
Vhardware-long
p460
VARMv7 multiplatform kernel. See\u000ahttps://wiki.debian.org/DebianKernel/ARMMP for details of supported\u000aplatforms
p461
sVhardware
p462
VARMv7 multiplatform compatible SoCs
p463
ss(Vbuild
p464
g96
tp465
(dp466
Vvdso
p467
I01
sVimage-file
p468
Varch/s390/boot/image
p469
ss(Vimage
p470
g33
NVloongson-2e
p471
tp472
(dp473
Vconfigs
p474
(lp475
Vkernelarch-mips/config.loongson-2e
p476
ass(Vxen
p477
g76
g153
Vamd64
p478
tp479
(dp480
Vflavours
p481
(lp482
Vamd64
p483
ass(Vimage
p484
g381
NVarmmp-lpae
p485
tp486
(dp487
Vconfigs
p488
(lp489
Varmhf/config.armmp
p490
aVarmhf/config.lpae
p491
ass(Vbuild
p492
g96
NVs390x
p493
tp494
(dp495
Vdebug-info
p496
I01
ss(Vbuild
p497
g64
NV686-pae
p498
tp499
(dp500
Vdebug-info
p501
I01
ss(Vdescription
p502
g434
NValpha-smp
p503
tp504
(dp505
Vhardware-long
p506
VDEC Alpha SMP systems with extended kernel start address (Wildfire, Titan, Marvel)
p507
sVhardware
p508
VAlpha SMP
p509
ss(Vdescription
p510
g250
NVocteon
p511
tp512
(dp513
Vhardware-long
p514
VCavium Networks Octeon
p515
sVhardware
p516
VOcteon
p517
ss(g21
g33
g23
tp518
(dp519
g26
I01
sg27
(lp520
V4kc-malta
p521
aV5kc-malta
p522
aVloongson-2e
p523
aVloongson-2f
p524
aVloongson-3
p525
ass(Vbase
p526
g82
tp527
(dp528
g36
(lp529
g23
asVkernel-arch
p530
Vsparc
p531
ss(Vbuild
p532
g381
tp533
(dp534
Vvdso
p535
I01
sVimage-file
p536
Varch/arm/boot/zImage
p537
ss(Vimage
p538
g33
NVloongson-3
p539
tp540
(dp541
Vconfigs
p542
(lp543
Vkernelarch-mips/config.loongson-3
p544
ass(Vimage
p545
g33
NV4kc-malta
p546
tp547
(dp548
Vconfigs
p549
(lp550
Vkernelarch-mips/config.4kc-malta
p551
ass(g21
g224
g23
tp552
(dp553
g26
I01
sg27
(lp554
Vkirkwood
p555
aVorion5x
p556
aVversatile
p557
ass(Vimage
p558
Vpowerpcspe
p559
tp560
(dp561
Vinstall-stem
p562
Vvmlinux
p563
sVsuggests
p564
Vmkvmlinuz
p565
ss(Vdescription
p566
g224
NVorion5x
p567
tp568
(dp569
Vhardware-long
p570
VMarvell Orion 5181, 5182 and 5281 based systems (QNAP TS-109/TS-209, etc)
p571
sVhardware
p572
VMarvell Orion
p573
ss(Vimage
p574
Varm64
p575
tp576
(dp577
Vinstall-stem
p578
Vvmlinuz
p579
ss(Vimage
p580
g82
NVsparc64-smp
p581
tp582
(dp583
Vconfigs
p584
(lp585
Vkernelarch-sparc/config-smp
p586
ass(Vbuild
p587
g50
tp588
(dp589
Vimage-file
p590
Vvmlinux.gz
p591
ss(Vimage
p592
g250
NV5kc-malta
p593
tp594
(dp595
Vconfigs
p596
(lp597
Vkernelarch-mips/config.5kc-malta
p598
ass(Vdescription
p599
g64
tp600
(dp601
Vpart-long-pae
p602
VThis kernel requires PAE (Physical Address Extension).\u000aThis feature is supported by the Intel Pentium Pro/II/III/4/4M/D, Xeon,\u000aCore and Atom; AMD Geode NX, Athlon (K7), Duron, Opteron, Sempron,\u000aTurion or Phenom; Transmeta Efficeon; VIA C7; and some other processors.
p603
ss(Vimage
p604
g450
NVsh7785lcr
p605
tp606
(dp607
Vrecommends
p608
Vu-boot-tools
p609
sVcheck-size
p610
L4194304L
ss(Vimage
p611
g397
NVloongson-3
p612
tp613
(dp614
Vconfigs
p615
(lp616
Vkernelarch-mips/config.loongson-3
p617
ass(Vbase
p618
g575
Vnone
p619
tp620
(dp621
Vflavours
p622
(lp623
Varm64
p624
ass(Vbase
p625
g250
tp626
(dp627
g36
(lp628
g23
asVkernel-arch
p629
Vmips
p630
ss(Vbase
p631
Vx32
p632
tp633
(dp634
Vkernel-arch
p635
Vx86
p636
sVfeaturesets
p637
(lp638
ss(Vbuild
p639
g450
tp640
(dp641
Vimage-file
p642
Varch/sh/boot/zImage
p643
ss(Vdescription
p644
Ng168
tp645
(dp646
Vpart-short-rt
p647
VPREEMPT_RT
p648
sVpart-long-rt
p649
VThis kernel includes the PREEMPT_RT realtime patch set.
p650
sVparts
p651
(lp652
Vrt
p653
ass(Vimage
p654
g22
tp655
(dp656
Vinstall-stem
p657
Vvmlinux
p658
sVsuggests
p659
Vmkvmlinuz
p660
sVconfigs
p661
(lp662
ss(Vbase
p663
g96
tp664
(dp665
g36
(lp666
g23
asVkernel-arch
p667
Vs390
p668
ss(Vdescription
p669
g575
NVarm64
p670
tp671
(dp672
Vhardware
p673
V64-bit ARMv8 machines
p674
ss(Vdescription
p675
g397
NV5kc-malta
p676
tp677
(dp678
Vhardware-long
p679
VMIPS Malta boards
p680
sVhardware
p681
VMIPS Malta
p682
ss(Vimage
p683
g82
NVsparc64
p684
tp685
(dp686
Vconfigs
p687
(lp688
Vkernelarch-sparc/config-up
p689
ass(Vbase
p690
NVrt
p691
tp692
(dp693
Venabled
p694
I00
ss(Vimage
p695
g5
NVocteon
p696
tp697
(dp698
Vconfigs
p699
(lp700
Vkernelarch-mips/config.octeon
p701
ass(Vbase
p702
g76
tp703
(dp704
Vcompiler
p705
Vgcc-5
p706
sVkernel-arch
p707
Vx86
p708
sVfeaturesets
p709
(lp710
Vnone
p711
aVrt
p712
ass(Vbuild
p713
g250
tp714
(dp715
Vimage-file
p716
Vvmlinux
p717
ss(Vdescription
p718
g397
NVloongson-3
p719
tp720
(dp721
Vhardware-long
p722
VLoongson 3A or 3B based systems (e.g. from Loongson or Lemote)
p723
sVhardware
p724
VLoongson 3A/3B
p725
ss(Vbuild
p726
g33
tp727
(dp728
Vimage-file
p729
Vvmlinux
p730
ss(Vrelations
p731
g381
tp732
(dp733
Vheaders%gcc-4.9
p734
Vlinux-compiler-gcc-4.9-arm
p735
ss(Vbase
p736
Vs390
p737
tp738
(dp739
Vkernel-arch
p740
Vs390
p741
sVfeaturesets
p742
(lp743
ss(Vdescription
p744
g33
NVloongson-2e
p745
tp746
(dp747
Vhardware-long
p748
VLemote Loongson 2E systems
p749
sVhardware
p750
VLoongson 2E
p751
ss(g21
g5
g23
tp752
(dp753
g26
I01
sg27
(lp754
V4kc-malta
p755
aV5kc-malta
p756
aVocteon
p757
ass(Vbase
p758
g13
tp759
(dp760
g36
(lp761
g23
asVkernel-arch
p762
Vparisc
p763
ss(Vimage
p764
g13
tp765
(dp766
Vinstall-stem
p767
Vvmlinux
p768
sVsuggests
p769
Vpalo
p770
ss(Vimage
p771
g575
NVarm64
p772
tp773
(dp774
s(Vdescription
p775
g559
tp776
(dp777
Vhardware
p778
V32-bit PowerPC with SPE (instead of AltiVec) with SMP support
p779
ss(Vimage
p780
g22
NVpowerpc64
p781
tp782
(dp783
Vconfigs
p784
(lp785
Vkernelarch-powerpc/config-arch-64
p786
aVkernelarch-powerpc/config-arch-64-be
p787
ass(Vdescription
p788
g82
NVsparc64-smp
p789
tp790
(dp791
Vhardware
p792
Vmultiprocessor 64-bit UltraSPARC
p793
ss(Vdescription
p794
g250
NV5kc-malta
p795
tp796
(dp797
Vhardware-long
p798
VMIPS Malta boards
p799
sVhardware
p800
VMIPS Malta
p801
ss(Vdescription
p802
g33
NV5kc-malta
p803
tp804
(dp805
Vhardware-long
p806
VMIPS Malta boards (64-bit)
p807
sVhardware
p808
VMIPS Malta (64-bit)
p809
ss(Vbuild
p810
g76
tp811
(dp812
Vdebug-info
p813
I01
sVvdso
p814
I01
sVimage-file
p815
Varch/x86/boot/bzImage
p816
ss(Vbuild
p817
g388
tp818
(dp819
Vvdso
p820
I01
sVimage-file
p821
Vvmlinux
p822
ss(Vdescription
p823
g13
NVparisc
p824
tp825
(dp826
Vhardware-long
p827
VHP PA-RISC 32-bit systems with max 4 GB RAM
p828
sVhardware
p829
V32-bit PA-RISC
p830
ss(Vimage
p831
g76
tp832
(dp833
Vbreaks
p834
Vxserver-xorg-input-vmmouse (<< 1:13.0.99)
p835
sVconfigs
p836
(lp837
sVinstall-stem
p838
Vvmlinuz
p839
sVbootloaders
p840
(lp841
Vgrub-pc
p842
aVgrub-efi
p843
aVextlinux
p844
ass(Vimage
p845
g5
tp846
(dp847
Vinstall-stem
p848
Vvmlinux
p849
ss(Vdescription
p850
g64
NV686
p851
tp852
(dp853
Vhardware-long
p854
VPCs with one or more processors not supporting PAE
p855
sVhardware
p856
Volder PCs
p857
ss(g21
g450
g23
tp858
(dp859
g26
I01
sg27
(lp860
Vsh7751r
p861
aVsh7785lcr
p862
ass(Vbuild
p863
g434
tp864
(dp865
Vimage-file
p866
Varch/alpha/boot/vmlinux.gz
p867
ss(Vimage
p868
tp869
(dp870
Vinitramfs-generators
p871
(lp872
Vinitramfs-tools
p873
aVinitramfs-fallback
p874
asVtype
p875
Vplain
p876
ss(Vimage
p877
g397
NVocteon
p878
tp879
(dp880
Vconfigs
p881
(lp882
Vkernelarch-mips/config.octeon
p883
ass(Vbase
p884
g22
tp885
(dp886
g36
(lp887
g23
asVkernel-arch
p888
Vpowerpc
p889
ss(Vdescription
p890
g22
NVpowerpc
p891
tp892
(dp893
Vhardware
p894
Vuniprocessor 32-bit PowerPC
p895
ss(Vdescription
p896
g224
NVversatile
p897
tp898
(dp899
Vhardware-long
p900
VVersatile systems (PB, AB, Qemu)
p901
sVhardware
p902
VVersatile
p903
ss(g21
g250
g23
tp904
(dp905
g26
I01
sg27
(lp906
V5kc-malta
p907
aVocteon
p908
ass(Vimage
p909
g250
tp910
(dp911
Vinstall-stem
p912
Vvmlinux
p913
ss(Vbuild
p914
g559
tp915
(dp916
Vvdso
p917
I01
sVimage-file
p918
Vvmlinux
p919
ss(Vdescription
p920
g22
NVpowerpc64
p921
tp922
(dp923
Vhardware
p924
V64-bit PowerPC
p925
ss(Vimage
p926
g22
NVpowerpc-smp
p927
tp928
(dp929
Vconfigs
p930
(lp931
Vpowerpc/config.powerpc
p932
aVpowerpc/config.powerpc-smp
p933
ass(Vdescription
p934
g434
NValpha-generic
p935
tp936
(dp937
Vhardware-long
p938
VDEC Alpha systems with extended kernel start address (Wildfire, Titan, Marvel)
p939
sVhardware
p940
VAlpha
p941
ss(Vbase
p942
g575
tp943
(dp944
Vkernel-arch
p945
Varm64
p946
sVfeaturesets
p947
(lp948
Vnone
p949
ass(Vimage
p950
g33
NVloongson-2f
p951
tp952
(dp953
Vrecommends
p954
Vlibc6-loongson2f
p955
sVconfigs
p956
(lp957
Vkernelarch-mips/config.loongson-2f
p958
ass(Vversion
p959
tp960
(dp961
Vsource
p962
V4.3.3-7
p963
sVabiname_base
p964
V4.3.0
p965
sVabiname
p966
V4.3.0-1
p967
sVupstream
p968
V4.3
p969
ss(Vbase
p970
g388
tp971
(dp972
g36
(lp973
g23
asVkernel-arch
p974
Vpowerpc
p975
ss(Vrelations
p976
g64
tp977
(dp978
Vheaders%gcc-5
p979
Vlinux-compiler-gcc-5-x86
p980
ss(Vbase
p981
g76
Vrt
p982
tp983
(dp984
Vflavours
p985
(lp986
Vamd64
p987
ass(Vdescription
p988
g388
NVpowerpc64
p989
tp990
(dp991
Vhardware
p992
V64-bit PowerPC
p993
ss(Vrelations
p994
g13
tp995
(dp996
Vgcc-4.9
p997
Vgcc-4.9 <!stage1>, binutils-hppa64 <!stage1>, gcc-4.9-hppa64 <!stage1>
p998
ss(Vbase
p999
g224
tp1000
(dp1001
g36
(lp1002
g23
asVkernel-arch
p1003
Varm
p1004
ss(Vbase
p1005
tp1006
(dp1007
Varches
p1008
(lp1009
Valpha
p1010
aVamd64
p1011
aVarm64
p1012
aVarmel
p1013
aVarmhf
p1014
aVhppa
p1015
aVi386
p1016
aVm68k
p1017
aVmips
p1018
aVmipsel
p1019
aVmips64
p1020
aVmips64el
p1021
aVor1k
p1022
aVpowerpc
p1023
aVpowerpcspe
p1024
aVppc64
p1025
aVppc64el
p1026
aVs390
p1027
aVs390x
p1028
aVsh4
p1029
aVsparc
p1030
aVsparc64
p1031
aVx32
p1032
asVcompiler
p1033
Vgcc-4.9
p1034
sVfeaturesets
p1035
(lp1036
Vnone
p1037
aVrt
p1038
ass(Vbase
p1039
g559
tp1040
(dp1041
g36
(lp1042
g23
asVkernel-arch
p1043
Vpowerpc
p1044
ss(Vbuild
p1045
g22
tp1046
(dp1047
Vvdso
p1048
I01
sVimage-file
p1049
Vvmlinux
p1050
ss(Vdescription
p1051
g50
NVm68k
p1052
tp1053
(dp1054
Vhardware
p1055
VMotorola MC68020+ family
p1056
ss(Vimage
p1057
g82
tp1058
(dp1059
Vinstall-stem
p1060
Vvmlinuz
p1061
sVsuggests
p1062
Vsilo, fdutils
p1063
sVconfigs
p1064
(lp1065
ss(Vdescription
p1066
g22
NVpowerpc-smp
p1067
tp1068
(dp1069
Vhardware
p1070
Vmultiprocessor 32-bit PowerPC
p1071
ss(Vbuild
p1072
g575
tp1073
(dp1074
Vdebug-info
p1075
I01
sVvdso
p1076
I01
sVimage-file
p1077
Varch/arm64/boot/Image
p1078
ss(Vbuild
p1079
g82
tp1080
(dp1081
Vimage-file
p1082
Varch/sparc/boot/zImage
p1083
ss(Vdescription
p1084
g33
NVloongson-3
p1085
tp1086
(dp1087
Vhardware-long
p1088
VLoongson 3A or 3B based systems (e.g. from Loongson or Lemote)
p1089
sVhardware
p1090
VLoongson 3A/3B
p1091
ss(g21
g397
g23
tp1092
(dp1093
g26
I01
sg27
(lp1094
V5kc-malta
p1095
aVloongson-3
p1096
aVocteon
p1097
ass(Vimage
p1098
g450
tp1099
(dp1100
Vinstall-stem
p1101
Vvmlinuz
p1102
sVsuggests
p1103
Vfdutils
p1104
ss(Vdescription
p1105
g224
NVkirkwood
p1106
tp1107
(dp1108
Vhardware-long
p1109
VMarvell Kirkwood based systems (SheevaPlug, QNAP TS-119/TS-219, etc)
p1110
sVhardware
p1111
VMarvell Kirkwood
p1112
ss(Vbuild
p1113
g397
tp1114
(dp1115
Vimage-file
p1116
Vvmlinux
p1117
ss(Vimage
p1118
g434
tp1119
(dp1120
Vinstall-stem
p1121
Vvmlinuz
p1122
sVsuggests
p1123
Vaboot, fdutils
p1124
ss(Vimage
p1125
g397
NV5kc-malta
p1126
tp1127
(dp1128
Vconfigs
p1129
(lp1130
Vkernelarch-mips/config.5kc-malta
p1131
ass(Vimage
p1132
g397
tp1133
(dp1134
Vinstall-stem
p1135
Vvmlinux
p1136
ss(g21
g381
g23
tp1137
(dp1138
g26
I01
sg27
(lp1139
Varmmp
p1140
aVarmmp-lpae
p1141
ass(Vimage
p1142
g381
tp1143
(dp1144
Vinstall-stem
p1145
Vvmlinuz
p1146
sVsuggests
p1147
Vfdutils
p1148
sVconfigs
p1149
(lp1150
Vkernelarch-arm/config
p1151
ass(Vbuild
p1152
g64
tp1153
(dp1154
Vvdso
p1155
I01
sVimage-file
p1156
Varch/x86/boot/bzImage
p1157
ss(Vimage
p1158
g76
NVamd64
p1159
tp1160
(dp1161
Vconfigs
p1162
(lp1163
Vkernelarch-x86/config-arch-64
p1164
ass(Vdescription
p1165
g381
NVarmmp-lpae
p1166
tp1167
(dp1168
Vhardware-long
p1169
VARMv7 multiplatform kernel supporting LPAE. See\u000ahttps://wiki.debian.org/DebianKernel/ARMMP for details of supported\u000aplatforms.
p1170
sVhardware
p1171
VARMv7 multiplatform compatible SoCs supporting LPAE
p1172
ss(Vdescription
p1173
g33
NVloongson-2f
p1174
tp1175
(dp1176
Vhardware-long
p1177
VLemote Loongson 2F systems
p1178
sVhardware
p1179
VLoongson 2F
p1180
ss(Vbase
p1181
g64
tp1182
(dp1183
Vcompiler
p1184
Vgcc-5
p1185
sVkernel-arch
p1186
Vx86
p1187
sVfeaturesets
p1188
(lp1189
Vnone
p1190
aVrt
p1191
ass(g21
g434
g23
tp1192
(dp1193
g26
I01
sg27
(lp1194
Valpha-generic
p1195
aValpha-smp
p1196
ass(Vimage
p1197
g64
NV686-pae
p1198
tp1199
(dp1200
Vrecommends
p1201
Vlibc6-i686
p1202
sVconfigs
p1203
(lp1204
Vkernelarch-x86/config-arch-32
p1205
aVi386/config.686-pae
p1206
ass(Vdescription
p1207
g450
NVsh7751r
p1208
tp1209
(dp1210
Vhardware-long
p1211
VRenesas SH7751R R2D plus board
p1212
sVhardware
p1213
Vsh7751r
p1214
ss(Vdescription
p1215
g450
NVsh7785lcr
p1216
tp1217
(dp1218
Vhardware-long
p1219
VRenesas SH7785 reference board
p1220
sVhardware
p1221
Vsh7785lcr
p1222
ss(g21
g388
g23
tp1223
(dp1224
g26
I01
sg27
(lp1225
Vpowerpc64
p1226
ass(Vrelations
p1227
g224
tp1228
(dp1229
Vheaders%gcc-4.9
p1230
Vlinux-compiler-gcc-4.9-arm
p1231
ss(g21
g559
g23
tp1232
(dp1233
g26
I01
sg27
(lp1234
Vpowerpcspe
p1235
ass(Vbase
p1236
g50
tp1237
(dp1238
Vcompiler
p1239
Vgcc-4.8
p1240
sVcflags
p1241
V-ffreestanding
p1242
sg36
(lp1243
g23
asVkernel-arch
p1244
Vm68k
p1245
ss(Vbase
p1246
Vsparc
p1247
tp1248
(dp1249
Vkernel-arch
p1250
Vsparc
p1251
sVfeaturesets
p1252
(lp1253
ss(Vdescription
p1254
g96
NVs390x
p1255
tp1256
(dp1257
Vhardware
p1258
VIBM zSeries
p1259
sstp1260
Rp1261
.