ccopy_reg
_reconstructor
p0
(cdebian_linux.config
ConfigCore
p1
c__builtin__
dict
p2
(dp3
(Vabi
p4
tp5
(dp6
Vabiname
p7
V2
p8
sVignore-changes
p9
(lp10
Vmodule:arch/x86/kvm/*
p11
aVmodule:drivers/nvdimm/libnvdimm
p12
ass(Vdescription
p13
tp14
(dp15
Vpart-long-up
p16
VThis kernel is not suitable for SMP (multi-processor,\u000amulti-core or hyper-threaded) systems.
p17
sVpart-long-xen
p18
VThis kernel also runs on a Xen hypervisor.\u000aIt supports both privileged (dom0) and unprivileged (domU) operation.
p19
ss(Vimage
p20
Vpowerpc
p21
tp22
(dp23
Vconfigs
p24
(lp25
sVsuggests
p26
Vmkvmlinuz
p27
sVinstall-stem
p28
Vvmlinux
p29
ss(Vimage
p30
Vmips64el
p31
NV5kc-malta
p32
tp33
(dp34
Vconfigs
p35
(lp36
Vkernelarch-mips/config.malta
p37
aVkernelarch-mips/config.mips64r2
p38
ass(Vbase
p39
Vmips64
p40
Vnone
p41
tp42
(dp43
Vflavours
p44
(lp45
V5kc-malta
p46
aVocteon
p47
asVimplicit-flavour
p48
I01
ss(Vimage
p49
Vmips
p50
NV4kc-malta
p51
tp52
(dp53
Vconfigs
p54
(lp55
Vkernelarch-mips/config.malta
p56
aVkernelarch-mips/config.mips32r2
p57
ass(Vbase
p58
Vamd64
p59
tp60
(dp61
Vfeaturesets
p62
(lp63
Vnone
p64
aVrt
p65
asVkernel-arch
p66
Vx86
p67
ss(Vdescription
p68
Vsh4
p69
NVsh7785lcr
p70
tp71
(dp72
Vhardware-long
p73
VRenesas SH7785 reference board
p74
sVhardware
p75
Vsh7785lcr
p76
ss(Vbuild
p77
Vppc64
p78
tp79
(dp80
Vsigned-modules
p81
I00
sVimage-file
p82
Vvmlinux
p83
sVvdso
p84
I01
ss(Vimage
p85
g78
tp86
(dp87
Vconfigs
p88
(lp89
sVsuggests
p90
Vmkvmlinuz
p91
sVinstall-stem
p92
Vvmlinux
p93
ss(Vimage
p94
Vm68k
p95
tp96
(dp97
Vsuggests
p98
Vvmelilo, fdutils
p99
sVinstall-stem
p100
Vvmlinuz
p101
ss(Vbuild
p102
Vi386
p103
NV686-pae
p104
tp105
(dp106
Vdebug-info
p107
I01
ss(Vimage
p108
Vsparc64
p109
NVsparc64-smp
p110
tp111
(dp112
Vconfigs
p113
(lp114
Vkernelarch-sparc/config-smp
p115
ass(Vdescription
p116
g40
NVocteon
p117
tp118
(dp119
Vhardware-long
p120
VCavium Networks Octeon
p121
sVhardware
p122
VOcteon
p123
ss(Vbase
p124
Vx32
p125
tp126
(dp127
Vfeaturesets
p128
(lp129
sVkernel-arch
p130
Vx86
p131
ss(Vbase
p132
g103
Vnone
p133
tp134
(dp135
Vflavours
p136
(lp137
V686
p138
aV686-pae
p139
ass(Vbase
p140
Vor1k
p141
tp142
(dp143
Vfeaturesets
p144
(lp145
sVkernel-arch
p146
Vopenrisc
p147
ss(Vdescription
p148
Varmel
p149
NVversatile
p150
tp151
(dp152
Vhardware-long
p153
VVersatile systems (PB, AB, Qemu)
p154
sVhardware
p155
VVersatile
p156
ss(Vimage
p157
tp158
(dp159
Vinitramfs-generators
p160
(lp161
Vinitramfs-tools
p162
aVinitramfs-fallback
p163
ass(Vimage
p164
Vppc64el
p165
tp166
(dp167
Vconfigs
p168
(lp169
sVsuggests
p170
Vmkvmlinuz
p171
sVinstall-stem
p172
Vvmlinux
p173
ss(Vrelations
p174
g59
tp175
(dp176
Vheaders%gcc-5
p177
Vlinux-compiler-gcc-5-x86
p178
ss(Vdescription
p179
Vmipsel
p180
NV5kc-malta
p181
tp182
(dp183
Vhardware-long
p184
VMIPS Malta boards (64-bit)
p185
sVhardware
p186
VMIPS Malta (64-bit)
p187
ss(Vimage
p188
g59
tp189
(dp190
Vbootloaders
p191
(lp192
Vgrub-pc
p193
aVgrub-efi-amd64
p194
aVextlinux
p195
asVbreaks
p196
Vxserver-xorg-input-vmmouse (<< 1:13.0.99)
p197
sVinstall-stem
p198
Vvmlinuz
p199
ss(Vbuild
p200
Varm64
p201
tp202
(dp203
Vdebug-info
p204
I01
sVimage-file
p205
Varch/arm64/boot/Image
p206
sVvdso
p207
I01
ss(Vbase
p208
NVrt
p209
tp210
(dp211
Venabled
p212
I01
ss(Vimage
p213
g40
NVocteon
p214
tp215
(dp216
Vconfigs
p217
(lp218
Vkernelarch-mips/config.octeon
p219
ass(Vimage
p220
g21
NVpowerpc64
p221
tp222
(dp223
Vconfigs
p224
(lp225
Vkernelarch-powerpc/config-arch-64
p226
aVkernelarch-powerpc/config-arch-64-be
p227
ass(Vbuild
p228
g103
tp229
(dp230
Vvdso
p231
I01
sVimage-file
p232
Varch/x86/boot/bzImage
p233
ss(Vdescription
p234
g50
NV4kc-malta
p235
tp236
(dp237
Vhardware-long
p238
VMIPS Malta boards
p239
sVhardware
p240
VMIPS Malta
p241
ss(Vdescription
p242
g95
NVm68k
p243
tp244
(dp245
Vhardware
p246
VMotorola MC68020+ family
p247
ss(Vversion
p248
tp249
(dp250
Vupstream
p251
V4.8
p252
sVabiname
p253
V4.8.0-2
p254
sVsource
p255
V4.8.15-1
p256
sVabiname_base
p257
V4.8.0
p258
ss(Vbase
p259
Vmipsn32
p260
tp261
(dp262
Vfeaturesets
p263
(lp264
sVkernel-arch
p265
Vmips
p266
ss(Vbuild
p267
Vhppa
p268
tp269
(dp270
Vsigned-modules
p271
I00
sVimage-file
p272
Vvmlinux
p273
ss(g39
g95
g41
tp274
(dp275
g44
(lp276
Vm68k
p277
asg48
I01
ss(Vdescription
p278
NVrt
p279
tp280
(dp281
Vparts
p282
(lp283
Vrt
p284
asVpart-long-rt
p285
VThis kernel includes the PREEMPT_RT realtime patch set.
p286
sVpart-short-rt
p287
VPREEMPT_RT
p288
ss(Vbase
p289
g201
tp290
(dp291
Vfeaturesets
p292
(lp293
Vnone
p294
asVkernel-arch
p295
Varm64
p296
ss(Vimage
p297
g165
NVpowerpc64le
p298
tp299
(dp300
Vconfigs
p301
(lp302
Vkernelarch-powerpc/config-arch-64
p303
aVkernelarch-powerpc/config-arch-64-le
p304
ass(Vdescription
p305
Valpha
p306
NValpha-smp
p307
tp308
(dp309
Vhardware-long
p310
VDEC Alpha SMP systems with extended kernel start address (Wildfire, Titan, Marvel)
p311
sVhardware
p312
VAlpha SMP
p313
ss(g39
g21
g41
tp314
(dp315
g44
(lp316
Vpowerpc
p317
aVpowerpc-smp
p318
aVpowerpc64
p319
asg48
I01
ss(Vimage
p320
g201
NVarm64
p321
tp322
(dp323
s(Vimage
p324
g180
NV4kc-malta
p325
tp326
(dp327
Vconfigs
p328
(lp329
Vkernelarch-mips/config.malta
p330
aVkernelarch-mips/config.mips32r2
p331
ass(Vrelations
p332
g103
tp333
(dp334
Vheaders%gcc-5
p335
Vlinux-compiler-gcc-5-x86
p336
ss(Vdescription
p337
g103
tp338
(dp339
Vpart-long-pae
p340
VThis kernel requires PAE (Physical Address Extension).\u000aThis feature is supported by the Intel Pentium Pro/II/III/4/4M/D, Xeon,\u000aCore and Atom; AMD Geode NX, Athlon (K7), Duron, Opteron, Sempron,\u000aTurion or Phenom; Transmeta Efficeon; VIA C7; and some other processors.
p341
ss(Vbase
p342
g268
tp343
(dp344
Vfeaturesets
p345
(lp346
g41
asVkernel-arch
p347
Vparisc
p348
ss(Vdescription
p349
g103
NV686-pae
p350
tp351
(dp352
Vhardware-long
p353
VPCs with one or more processors supporting PAE
p354
sVparts
p355
(lp356
Vpae
p357
asVhardware
p358
Vmodern PCs
p359
ss(Vdescription
p360
g59
Vnone
p361
Vamd64
p362
tp363
(dp364
Vparts
p365
(lp366
Vxen
p367
ass(g39
g31
g41
tp368
(dp369
g44
(lp370
V5kc-malta
p371
aVloongson-3
p372
aVocteon
p373
asg48
I01
ss(Vbuild
p374
g69
tp375
(dp376
Vsigned-modules
p377
I00
sVimage-file
p378
Varch/sh/boot/zImage
p379
ss(Vimage
p380
g31
NVloongson-3
p381
tp382
(dp383
Vconfigs
p384
(lp385
Vkernelarch-mips/config.loongson-3
p386
ass(Vbase
p387
g165
tp388
(dp389
g345
(lp390
g41
asVkernel-arch
p391
Vpowerpc
p392
ss(Vdescription
p393
g40
NV5kc-malta
p394
tp395
(dp396
Vhardware-long
p397
VMIPS Malta boards
p398
sVhardware
p399
VMIPS Malta
p400
ss(Vimage
p401
g50
NVocteon
p402
tp403
(dp404
Vconfigs
p405
(lp406
Vkernelarch-mips/config.octeon
p407
ass(Vbuild
p408
Vs390x
p409
NVs390x
p410
tp411
(dp412
Vdebug-info
p413
I01
ss(Vrelations
p414
g149
tp415
(dp416
Vheaders%gcc-5
p417
Vlinux-compiler-gcc-5-arm
p418
ss(Vbuild
p419
g50
tp420
(dp421
Vsigned-modules
p422
I00
sVimage-file
p423
Vvmlinux
p424
ss(Vimage
p425
g31
tp426
(dp427
Vinstall-stem
p428
Vvmlinux
p429
ss(Vbuild
p430
g165
tp431
(dp432
Vvdso
p433
I01
sVimage-file
p434
Vvmlinux
p435
ss(Vabi
p436
Ng279
tp437
(dp438
Vignore-changes
p439
(lp440
V*
p441
ass(Vdescription
p442
g31
NV5kc-malta
p443
tp444
(dp445
Vhardware-long
p446
VMIPS Malta boards
p447
sVhardware
p448
VMIPS Malta
p449
ss(Vbase
p450
g59
Vrt
p451
tp452
(dp453
Vflavours
p454
(lp455
Vamd64
p456
ass(Vimage
p457
g268
tp458
(dp459
Vsuggests
p460
Vpalo
p461
sVinstall-stem
p462
Vvmlinux
p463
ss(Vbase
p464
g201
Vnone
p465
tp466
(dp467
Vflavours
p468
(lp469
Varm64
p470
ass(g39
Varmhf
p471
g41
tp472
(dp473
g44
(lp474
Varmmp
p475
aVarmmp-lpae
p476
asg48
I01
ss(Vimage
p477
g180
NV5kc-malta
p478
tp479
(dp480
Vconfigs
p481
(lp482
Vkernelarch-mips/config.malta
p483
aVkernelarch-mips/config.mips64r2
p484
ass(Vbase
p485
g50
tp486
(dp487
g345
(lp488
g41
asVkernel-arch
p489
Vmips
p490
ss(Vbuild
p491
g471
tp492
(dp493
Vvdso
p494
I01
sVimage-file
p495
Varch/arm/boot/zImage
p496
ss(Vdescription
p497
g471
NVarmmp
p498
tp499
(dp500
Vhardware-long
p501
VARMv7 multiplatform kernel. See\u000ahttps://wiki.debian.org/DebianKernel/ARMMP for details of supported\u000aplatforms
p502
sVhardware
p503
VARMv7 multiplatform compatible SoCs
p504
ss(Vimage
p505
g149
tp506
(dp507
Vinstall-stem
p508
Vvmlinuz
p509
ss(Vdescription
p510
g268
NVparisc
p511
tp512
(dp513
Vhardware-long
p514
VHP PA-RISC 32-bit systems with max 4 GB RAM
p515
sVhardware
p516
V32-bit PA-RISC
p517
ss(Vbuild
p518
g21
tp519
(dp520
Vvdso
p521
I01
sVimage-file
p522
Vvmlinux
p523
ss(g39
g69
g41
tp524
(dp525
g44
(lp526
Vsh7751r
p527
aVsh7785lcr
p528
asg48
I01
ss(Vbuild
p529
g31
tp530
(dp531
Vsigned-modules
p532
I00
sVimage-file
p533
Vvmlinux
p534
ss(Vimage
p535
Vpowerpcspe
p536
tp537
(dp538
Vsuggests
p539
Vmkvmlinuz
p540
sVinstall-stem
p541
Vvmlinux
p542
ss(Vimage
p543
g21
NVpowerpc-smp
p544
tp545
(dp546
Vconfigs
p547
(lp548
Vpowerpc/config.powerpc
p549
aVpowerpc/config.powerpc-smp
p550
ass(Vdescription
p551
g306
NValpha-generic
p552
tp553
(dp554
Vhardware-long
p555
VDEC Alpha systems with extended kernel start address (Wildfire, Titan, Marvel)
p556
sVhardware
p557
VAlpha
p558
ss(Vbuild
p559
g409
tp560
(dp561
Vvdso
p562
I01
sVimage-file
p563
Varch/s390/boot/image
p564
ss(Vdescription
p565
g180
NVocteon
p566
tp567
(dp568
Vhardware-long
p569
VCavium Networks Octeon
p570
sVhardware
p571
VOcteon
p572
ss(Vimage
p573
g69
NVsh7785lcr
p574
tp575
(dp576
Vrecommends
p577
Vu-boot-tools
p578
sVcheck-size
p579
L4194304L
ss(Vimage
p580
g180
NVocteon
p581
tp582
(dp583
Vconfigs
p584
(lp585
Vkernelarch-mips/config.octeon
p586
ass(g39
g536
g41
tp587
(dp588
g44
(lp589
Vpowerpcspe
p590
asg48
I01
ss(Vrelations
p591
tp592
(dp593
Vgcc-5
p594
Vgcc-5 <!stage1 !cross>, gcc-5-@gnu-type-package@:native <!stage1 cross>
p595
sVinitramfs-fallback
p596
Vlinux-initramfs-tool
p597
sVinitramfs-tools
p598
Vinitramfs-tools (>= 0.110~)
p599
ss(Vimage
p600
g306
tp601
(dp602
Vsuggests
p603
Vaboot, fdutils
p604
sVinstall-stem
p605
Vvmlinuz
p606
ss(Vbase
p607
g31
tp608
(dp609
g345
(lp610
g41
asVkernel-arch
p611
Vmips
p612
ss(Vdescription
p613
g109
NVsparc64
p614
tp615
(dp616
Vhardware
p617
Vuniprocessor 64-bit UltraSPARC
p618
ss(Vbase
p619
g471
tp620
(dp621
g345
(lp622
g41
asVkernel-arch
p623
Varm
p624
ss(Vbase
p625
Vtilegx
p626
tp627
(dp628
Vfeaturesets
p629
(lp630
sVkernel-arch
p631
Vtile
p632
ss(Vimage
p633
g409
tp634
(dp635
Vbootloaders
p636
(lp637
Vs390-tools
p638
asVinstall-stem
p639
Vvmlinuz
p640
ss(Vimage
p641
g78
NVpowerpc64
p642
tp643
(dp644
Vconfigs
p645
(lp646
Vkernelarch-powerpc/config-arch-64
p647
aVkernelarch-powerpc/config-arch-64-be
p648
ass(Vdescription
p649
g21
NVpowerpc-smp
p650
tp651
(dp652
Vhardware
p653
Vmultiprocessor 32-bit PowerPC
p654
ss(g39
g306
g41
tp655
(dp656
g44
(lp657
Valpha-generic
p658
aValpha-smp
p659
asg48
I01
ss(Vimage
p660
g149
NVmarvell
p661
tp662
(dp663
Vbreaks
p664
Vflash-kernel (<< 3.57~)
p665
sVrecommends
p666
Vu-boot-tools
p667
sVcheck-size-with-dtb
p668
I01
sVcheck-size
p669
L2097080L
ss(Vdescription
p670
g50
NVocteon
p671
tp672
(dp673
Vhardware-long
p674
VCavium Networks Octeon
p675
sVhardware
p676
VOcteon
p677
ss(Vbuild
p678
g180
tp679
(dp680
Vsigned-modules
p681
I00
sVimage-file
p682
Vvmlinux
p683
ss(Vdescription
p684
g409
NVs390x
p685
tp686
(dp687
Vhardware
p688
VIBM zSeries
p689
ss(Vdescription
p690
g78
NVpowerpc64
p691
tp692
(dp693
Vhardware
p694
V64-bit PowerPC
p695
ss(Vimage
p696
g50
NV5kc-malta
p697
tp698
(dp699
Vconfigs
p700
(lp701
Vkernelarch-mips/config.malta
p702
aVkernelarch-mips/config.mips64r2
p703
ass(Vbase
p704
g109
tp705
(dp706
g345
(lp707
g41
asVkernel-arch
p708
Vsparc
p709
ss(Vbase
p710
g21
tp711
(dp712
g345
(lp713
g41
asVkernel-arch
p714
Vpowerpc
p715
ss(Vbase
p716
g95
tp717
(dp718
g345
(lp719
g41
asVcflags
p720
V-ffreestanding
p721
sVkernel-arch
p722
Vm68k
p723
ss(Vbase
p724
g40
tp725
(dp726
g345
(lp727
g41
asVkernel-arch
p728
Vmips
p729
ss(g39
g78
g41
tp730
(dp731
g44
(lp732
Vpowerpc64
p733
asg48
I01
ss(Vimage
p734
g109
tp735
(dp736
Vconfigs
p737
(lp738
sVsuggests
p739
Vsilo, fdutils
p740
sVinstall-stem
p741
Vvmlinuz
p742
ss(g39
g50
g41
tp743
(dp744
g44
(lp745
V4kc-malta
p746
aV5kc-malta
p747
aVocteon
p748
asg48
I01
ss(Vdescription
p749
g103
g133
V686-pae
p750
tp751
(dp752
Vparts
p753
(lp754
Vxen
p755
ass(Vbase
p756
g409
tp757
(dp758
g345
(lp759
g41
asVkernel-arch
p760
Vs390
p761
ss(Vbuild
p762
g306
tp763
(dp764
Vsigned-modules
p765
I00
sVimage-file
p766
Varch/alpha/boot/vmlinux.gz
p767
ss(Vbase
p768
g180
tp769
(dp770
g345
(lp771
g41
asVkernel-arch
p772
Vmips
p773
ss(Vbase
p774
Vmipsn32el
p775
tp776
(dp777
Vfeaturesets
p778
(lp779
sVkernel-arch
p780
Vmips
p781
ss(Vbase
p782
g103
tp783
(dp784
Vfeaturesets
p785
(lp786
Vnone
p787
aVrt
p788
asVkernel-arch
p789
Vx86
p790
ss(g39
g268
g41
tp791
(dp792
g44
(lp793
Vparisc
p794
aVparisc64-smp
p795
asg48
I01
ss(Vdescription
p796
g536
tp797
(dp798
Vhardware
p799
V32-bit PowerPC with SPE (instead of AltiVec) with SMP support
p800
ss(Vbuild
p801
g59
tp802
(dp803
Vdebug-info
p804
I01
sVimage-file
p805
Varch/x86/boot/bzImage
p806
sVvdso
p807
I01
ss(Vbase
p808
Vsparc
p809
tp810
(dp811
Vfeaturesets
p812
(lp813
sVkernel-arch
p814
Vsparc
p815
ss(Vbuild
p816
g40
tp817
(dp818
Vsigned-modules
p819
I00
sVimage-file
p820
Vvmlinux
p821
ss(Vbuild
p822
g536
tp823
(dp824
Vsigned-modules
p825
I00
sVimage-file
p826
Vvmlinux
p827
sVvdso
p828
I01
ss(Vimage
p829
g50
tp830
(dp831
Vinstall-stem
p832
Vvmlinux
p833
ss(Vbase
p834
g306
tp835
(dp836
g345
(lp837
g41
asVkernel-arch
p838
Valpha
p839
ss(Vbase
p840
g103
Vrt
p841
tp842
(dp843
Vflavours
p844
(lp845
V686-pae
p846
ass(g39
g109
g41
tp847
(dp848
g44
(lp849
Vsparc64
p850
aVsparc64-smp
p851
asg48
I01
ss(Vdescription
p852
g21
NVpowerpc
p853
tp854
(dp855
Vhardware
p856
Vuniprocessor 32-bit PowerPC
p857
ss(Vdescription
p858
g180
NVloongson-3
p859
tp860
(dp861
Vhardware-long
p862
VLoongson 3A or 3B based systems (e.g. from Loongson or Lemote)
p863
sVhardware
p864
VLoongson 3A/3B
p865
ss(Vimage
p866
g40
tp867
(dp868
Vinstall-stem
p869
Vvmlinux
p870
ss(Vdescription
p871
g50
NV5kc-malta
p872
tp873
(dp874
Vhardware-long
p875
VMIPS Malta boards (64-bit)
p876
sVhardware
p877
VMIPS Malta (64-bit)
p878
ss(Vdescription
p879
g149
NVmarvell
p880
tp881
(dp882
Vhardware-long
p883
VMarvell Kirkwood based systems (SheevaPlug, QNAP TS-119/TS-219, etc)\u000aand Orion 5181, 5182 and 5281 based systems (QNAP TS-109/TS-209, etc)
p884
sVhardware
p885
VMarvell Kirkwood/Orion
p886
ss(Vimage
p887
g40
NV5kc-malta
p888
tp889
(dp890
Vconfigs
p891
(lp892
Vkernelarch-mips/config.malta
p893
aVkernelarch-mips/config.mips64r2
p894
ass(Vbuild
p895
g109
tp896
(dp897
Vsigned-modules
p898
I00
sVimage-file
p899
Varch/sparc/boot/zImage
p900
ss(Vbuild
p901
g95
tp902
(dp903
Vsigned-modules
p904
I00
sVimage-file
p905
Vvmlinux.gz
p906
ss(Vbase
p907
g536
tp908
(dp909
g345
(lp910
g41
asVkernel-arch
p911
Vpowerpc
p912
ss(Vbuild
p913
tp914
(dp915
Vdebug-info
p916
I01
sVsigned-modules
p917
I01
ss(Vdescription
p918
g180
NV4kc-malta
p919
tp920
(dp921
Vhardware-long
p922
VMIPS Malta boards
p923
sVhardware
p924
VMIPS Malta
p925
ss(Vimage
p926
g69
tp927
(dp928
Vinstall-stem
p929
Vvmlinuz
p930
ss(Vdescription
p931
g103
NV686
p932
tp933
(dp934
Vhardware-long
p935
VPCs with one or more processors not supporting PAE
p936
sVhardware
p937
Volder PCs
p938
ss(Vbase
p939
tp940
(dp941
Vcompiler
p942
Vgcc-5
p943
sVarches
p944
(lp945
Valpha
p946
aVamd64
p947
aVarm64
p948
aVarmel
p949
aVarmhf
p950
aVhppa
p951
aVi386
p952
aVm68k
p953
aVmips
p954
aVmipsel
p955
aVmipsn32
p956
aVmipsn32el
p957
aVmips64
p958
aVmips64el
p959
aVor1k
p960
aVpowerpc
p961
aVpowerpcspe
p962
aVppc64
p963
aVppc64el
p964
aVs390
p965
aVs390x
p966
aVsh4
p967
aVsparc
p968
aVsparc64
p969
aVtilegx
p970
aVx32
p971
asVfeaturesets
p972
(lp973
Vnone
p974
aVrt
p975
ass(Vimage
p976
g103
tp977
(dp978
Vbootloaders
p979
(lp980
Vgrub-pc
p981
aVextlinux
p982
asVbreaks
p983
Vxserver-xorg-input-vmmouse (<< 1:13.0.99)
p984
sVinstall-stem
p985
Vvmlinuz
p986
ss(g39
g149
g41
tp987
(dp988
g44
(lp989
Vmarvell
p990
aVversatile
p991
asg48
I01
ss(Vbase
p992
Vs390
p993
tp994
(dp995
Vfeaturesets
p996
(lp997
sVkernel-arch
p998
Vs390
p999
ss(Vimage
p1000
g109
NVsparc64
p1001
tp1002
(dp1003
Vconfigs
p1004
(lp1005
Vkernelarch-sparc/config-up
p1006
ass(Vdescription
p1007
g268
NVparisc64-smp
p1008
tp1009
(dp1010
Vhardware-long
p1011
VHP PA-RISC 64-bit SMP systems with support for more than 4 GB RAM
p1012
sVhardware
p1013
Vmultiprocessor 64-bit PA-RISC
p1014
ss(Vimage
p1015
g180
tp1016
(dp1017
Vinstall-stem
p1018
Vvmlinux
p1019
ss(Vbase
p1020
g69
tp1021
(dp1022
g345
(lp1023
g41
asVkernel-arch
p1024
Vsh
p1025
ss(Vrelations
p1026
g268
tp1027
(dp1028
Vgcc-5
p1029
Vgcc-5 <!stage1 !cross>, binutils-hppa64-linux-gnu <!stage1 !cross>, gcc-5-hppa64-linux-gnu <!stage1 !cross>, gcc-5-hppa-linux-gnu:native <!stage1 cross>, binutils-hppa64-linux-gnu:native <!stage1 cross>, gcc-5-hppa64-linux-gnu:native <!stage1 cross>
p1030
ss(Vdescription
p1031
g165
NVpowerpc64le
p1032
tp1033
(dp1034
Vhardware
p1035
VLittle-endian 64-bit PowerPC
p1036
ss(Vbase
p1037
g268
NVparisc64-smp
p1038
tp1039
(dp1040
Vcflags
p1041
V-fno-cse-follow-jumps
p1042
sVoverride-host-type
p1043
Vhppa64-linux-gnu
p1044
ss(g39
g180
g41
tp1045
(dp1046
g44
(lp1047
V4kc-malta
p1048
aV5kc-malta
p1049
aVloongson-3
p1050
aVocteon
p1051
asg48
I01
ss(Vdescription
p1052
g31
NVloongson-3
p1053
tp1054
(dp1055
Vhardware-long
p1056
VLoongson 3A or 3B based systems (e.g. from Loongson or Lemote)
p1057
sVhardware
p1058
VLoongson 3A/3B
p1059
ss(Vdescription
p1060
g69
NVsh7751r
p1061
tp1062
(dp1063
Vhardware-long
p1064
VRenesas SH7751R R2D plus board
p1065
sVhardware
p1066
Vsh7751r
p1067
ss(Vdescription
p1068
g21
NVpowerpc64
p1069
tp1070
(dp1071
Vhardware
p1072
V64-bit PowerPC
p1073
ss(Vdescription
p1074
g109
NVsparc64-smp
p1075
tp1076
(dp1077
Vhardware
p1078
Vmultiprocessor 64-bit UltraSPARC
p1079
ss(Vbuild
p1080
g149
tp1081
(dp1082
Vsigned-modules
p1083
I00
sVimage-file
p1084
Varch/arm/boot/zImage
p1085
ss(Vdescription
p1086
g471
NVarmmp-lpae
p1087
tp1088
(dp1089
Vhardware-long
p1090
VARMv7 multiplatform kernel supporting LPAE. See\u000ahttps://wiki.debian.org/DebianKernel/ARMMP for details of supported\u000aplatforms.
p1091
sVhardware
p1092
VARMv7 multiplatform compatible SoCs supporting LPAE
p1093
ss(Vbase
p1094
g59
g361
tp1095
(dp1096
Vflavours
p1097
(lp1098
Vamd64
p1099
ass(g39
g165
g41
tp1100
(dp1101
g44
(lp1102
Vpowerpc64le
p1103
asg48
I01
ss(Vimage
p1104
g31
NVocteon
p1105
tp1106
(dp1107
Vconfigs
p1108
(lp1109
Vkernelarch-mips/config.octeon
p1110
ass(Vrelations
p1111
g409
tp1112
(dp1113
Vheaders%gcc-5
p1114
Vlinux-compiler-gcc-5-s390
p1115
ss(Vimage
p1116
g201
tp1117
(dp1118
Vinstall-stem
p1119
Vvmlinuz
p1120
ss(Vimage
p1121
g180
NVloongson-3
p1122
tp1123
(dp1124
Vconfigs
p1125
(lp1126
Vkernelarch-mips/config.loongson-3
p1127
ass(Vdescription
p1128
g201
NVarm64
p1129
tp1130
(dp1131
Vhardware
p1132
V64-bit ARMv8 machines
p1133
ss(Vrelations
p1134
g471
tp1135
(dp1136
Vheaders%gcc-5
p1137
Vlinux-compiler-gcc-5-arm
p1138
ss(Vxen
p1139
g59
g361
Vamd64
p1140
tp1141
(dp1142
Vflavours
p1143
(lp1144
Vamd64
p1145
ass(g39
g409
g41
tp1146
(dp1147
g44
(lp1148
Vs390x
p1149
asg48
I01
ss(Vdescription
p1150
g59
NVamd64
p1151
tp1152
(dp1153
Vhardware-long
p1154
VPCs with AMD64, Intel 64 or VIA Nano processors
p1155
sVhardware
p1156
V64-bit PCs
p1157
ss(Vimage
p1158
g471
tp1159
(dp1160
Vinstall-stem
p1161
Vvmlinuz
p1162
ss(Vbase
p1163
g78
tp1164
(dp1165
g345
(lp1166
g41
asVkernel-arch
p1167
Vpowerpc
p1168
ss(Vdescription
p1169
g31
NVocteon
p1170
tp1171
(dp1172
Vhardware-long
p1173
VCavium Networks Octeon
p1174
sVhardware
p1175
VOcteon
p1176
ss(Vbase
p1177
g149
tp1178
(dp1179
g345
(lp1180
g41
asVkernel-arch
p1181
Varm
p1182
sstp1183
Rp1184
.