cdebian_linux.config
ConfigCore
p0
(tRp1
(Vbase
p2
tp3
(dp4
Varches
p5
(lp6
Valpha
p7
aVamd64
p8
aVarm64
p9
aVarmel
p10
aVarmhf
p11
aVhppa
p12
aVi386
p13
aVm68k
p14
aVmips
p15
aVmipsel
p16
aVmipsn32
p17
aVmipsn32el
p18
aVmips64
p19
aVmips64el
p20
aVpowerpc
p21
aVpowerpcspe
p22
aVppc64
p23
aVppc64el
p24
aVs390
p25
aVs390x
p26
aVsh3
p27
aVsh4
p28
aVsparc
p29
aVsparc64
p30
aVtilegx
p31
aVx32
p32
asVfeaturesets
p33
(lp34
Vnone
p35
aVrt
p36
asVcompiler
p37
Vgcc-6
p38
ss(Vbuild
p39
tp40
(dp41
Vsigned-modules
p42
I01
sVdebug-info
p43
I01
ss(Vbase
p44
NVrt
p45
tp46
(dp47
Venabled
p48
I01
ss(Vdescription
p49
tp50
(dp51
Vpart-long-up
p52
VThis kernel is not suitable for SMP (multi-processor,\u000amulti-core or hyper-threaded) systems.
p53
sVpart-long-xen
p54
VThis kernel also runs on a Xen hypervisor.\u000aIt supports both privileged (dom0) and unprivileged (domU) operation.
p55
ss(Vrelations
p56
tp57
(dp58
Vinitramfs-tools
p59
Vinitramfs-tools (>= 0.120+deb8u2)
p60
sVgcc-6
p61
Vgcc-6 <!stage1 !cross>, gcc-6-@gnu-type-package@:native <!stage1 cross>
p62
sVinitramfs-fallback
p63
Vlinux-initramfs-tool
p64
ss(Vimage
p65
tp66
(dp67
Vinitramfs-generators
p68
(lp69
Vinitramfs-tools
p70
aVinitramfs-fallback
p71
ass(Vabi
p72
tp73
(dp74
Vabiname
p75
V2
p76
sVignore-changes
p77
(lp78
V__cpuhp_*
p79
aVmodule:drivers/iio/common/st_sensors/**
p80
aVmodule:drivers/net/wireless/**
p81
aVmodule:drivers/power/supply/bq27xxx_battery
p82
aVmodule:drivers/usb/host/**
p83
aVmodule:drivers/usb/musb/**
p84
aVmodule:net/ceph/libceph
p85
aVbtree_*
p86
aVvisitor*
p87
ass(Vbase
p88
Valpha
p89
tp90
(dp91
Vfeaturesets
p92
(lp93
Vnone
p94
asVkernel-arch
p95
Valpha
p96
ss(Vdescription
p97
g89
NValpha-smp
p98
tp99
(dp100
Vhardware
p101
VAlpha SMP
p102
sVhardware-long
p103
VDEC Alpha SMP systems with extended kernel start address (Wildfire, Titan, Marvel)
p104
ss(Vbuild
p105
g89
tp106
(dp107
Vsigned-modules
p108
I00
sVimage-file
p109
Varch/alpha/boot/vmlinux.gz
p110
ss(Vdescription
p111
g89
NValpha-generic
p112
tp113
(dp114
Vhardware
p115
VAlpha
p116
sVhardware-long
p117
VDEC Alpha systems with extended kernel start address (Wildfire, Titan, Marvel)
p118
ss(Vimage
p119
g89
tp120
(dp121
Vsuggests
p122
Vaboot, fdutils
p123
sVinstall-stem
p124
Vvmlinuz
p125
ss(Vbase
p126
g89
g94
tp127
(dp128
Vflavours
p129
(lp130
Valpha-generic
p131
aValpha-smp
p132
asVimplicit-flavour
p133
I01
ss(Vbase
p134
Vamd64
p135
tp136
(dp137
Vfeaturesets
p138
(lp139
Vnone
p140
aVrt
p141
asVkernel-arch
p142
Vx86
p143
ss(Vdescription
p144
g135
NVamd64
p145
tp146
(dp147
Vhardware
p148
V64-bit PCs
p149
sVhardware-long
p150
VPCs with AMD64, Intel 64 or VIA Nano processors
p151
ss(Vbuild
p152
g135
tp153
(dp154
Vvdso
p155
I01
sVimage-file
p156
Varch/x86/boot/bzImage
p157
sVdebug-info
p158
I01
ss(Vrelations
p159
g135
tp160
(dp161
Vheaders%gcc-6
p162
Vlinux-compiler-gcc-6-x86
p163
ss(Vimage
p164
g135
tp165
(dp166
Vbreaks
p167
Vxserver-xorg-input-vmmouse (<< 1:13.0.99)
p168
sVinstall-stem
p169
Vvmlinuz
p170
sVbootloaders
p171
(lp172
Vgrub-pc
p173
aVgrub-efi-amd64
p174
aVextlinux
p175
ass(Vbase
p176
g135
Vnone
p177
tp178
(dp179
Vflavours
p180
(lp181
Vamd64
p182
ass(Vdescription
p183
g135
g177
Vamd64
p184
tp185
(dp186
Vparts
p187
(lp188
Vxen
p189
ass(Vbase
p190
g135
Vrt
p191
tp192
(dp193
Vflavours
p194
(lp195
Vamd64
p196
ass(Vbase
p197
Varm64
p198
tp199
(dp200
Vfeaturesets
p201
(lp202
Vnone
p203
asVkernel-arch
p204
Varm64
p205
ss(Vdescription
p206
g198
NVarm64
p207
tp208
(dp209
Vhardware
p210
V64-bit ARMv8 machines
p211
ss(Vbuild
p212
g198
tp213
(dp214
Vvdso
p215
I01
sVimage-file
p216
Varch/arm64/boot/Image
p217
sVdebug-info
p218
I01
ss(Vimage
p219
g198
NVarm64
p220
tp221
(dp222
s(Vimage
p223
g198
tp224
(dp225
Vbreaks
p226
Vlibmozjs185-1.0, libmozjs-24-0 (<< 24.2.0-5.1~)
p227
sVinstall-stem
p228
Vvmlinuz
p229
ss(Vbase
p230
g198
Vnone
p231
tp232
(dp233
Vflavours
p234
(lp235
Varm64
p236
ass(Vbase
p237
Varmel
p238
tp239
(dp240
g92
(lp241
g94
asVkernel-arch
p242
Varm
p243
ss(Vbuild
p244
g238
tp245
(dp246
Vsigned-modules
p247
I00
sVimage-file
p248
Varch/arm/boot/zImage
p249
ss(Vimage
p250
g238
NVmarvell
p251
tp252
(dp253
Vrecommends
p254
Vu-boot-tools
p255
sVbreaks
p256
Vflash-kernel (<< 3.57~)
p257
sVcheck-size-with-dtb
p258
I01
sVcheck-size
p259
L2097080L
ss(Vdescription
p260
g238
NVmarvell
p261
tp262
(dp263
Vhardware
p264
VMarvell Kirkwood/Orion
p265
sVhardware-long
p266
VMarvell Kirkwood based systems (SheevaPlug, QNAP TS-119/TS-219, etc)\u000aand Orion 5181, 5182 and 5281 based systems (QNAP TS-109/TS-209, etc)
p267
ss(Vrelations
p268
g238
tp269
(dp270
Vheaders%gcc-6
p271
Vlinux-compiler-gcc-6-arm
p272
ss(Vimage
p273
g238
tp274
(dp275
Vinstall-stem
p276
Vvmlinuz
p277
ss(g126
g238
g94
tp278
(dp279
g129
(lp280
Vmarvell
p281
asg133
I01
ss(Vbase
p282
Varmhf
p283
tp284
(dp285
g92
(lp286
g94
asVkernel-arch
p287
Varm
p288
ss(Vdescription
p289
g283
NVarmmp
p290
tp291
(dp292
Vhardware
p293
VARMv7 multiplatform compatible SoCs
p294
sVhardware-long
p295
VARMv7 multiplatform kernel. See\u000ahttps://wiki.debian.org/DebianKernel/ARMMP for details of supported\u000aplatforms
p296
ss(Vbuild
p297
g283
tp298
(dp299
Vvdso
p300
I01
sVimage-file
p301
Varch/arm/boot/zImage
p302
ss(Vdescription
p303
g283
NVarmmp-lpae
p304
tp305
(dp306
Vhardware
p307
VARMv7 multiplatform compatible SoCs supporting LPAE
p308
sVhardware-long
p309
VARMv7 multiplatform kernel supporting LPAE. See\u000ahttps://wiki.debian.org/DebianKernel/ARMMP for details of supported\u000aplatforms.
p310
ss(Vrelations
p311
g283
tp312
(dp313
Vheaders%gcc-6
p314
Vlinux-compiler-gcc-6-arm
p315
ss(Vimage
p316
g283
tp317
(dp318
Vinstall-stem
p319
Vvmlinuz
p320
ss(g126
g283
g94
tp321
(dp322
g129
(lp323
Varmmp
p324
aVarmmp-lpae
p325
asg133
I01
ss(Vbase
p326
Vhppa
p327
tp328
(dp329
g92
(lp330
g94
asVkernel-arch
p331
Vparisc
p332
ss(Vbuild
p333
g327
tp334
(dp335
Vsigned-modules
p336
I00
sVimage-file
p337
Vvmlinux
p338
ss(Vdescription
p339
g327
NVparisc64-smp
p340
tp341
(dp342
Vhardware
p343
Vmultiprocessor 64-bit PA-RISC
p344
sVhardware-long
p345
VHP PA-RISC 64-bit SMP systems with support for more than 4 GB RAM
p346
ss(Vbase
p347
g327
NVparisc64-smp
p348
tp349
(dp350
Vcflags
p351
V-fno-cse-follow-jumps
p352
sVoverride-host-type
p353
Vhppa64-linux-gnu
p354
ss(Vrelations
p355
g327
tp356
(dp357
Vgcc-6
p358
Vgcc-6 <!stage1 !cross>, binutils-hppa64-linux-gnu <!stage1 !cross>, gcc-6-hppa64-linux-gnu <!stage1 !cross>, gcc-6-hppa-linux-gnu:native <!stage1 cross>, binutils-hppa64-linux-gnu:native <!stage1 cross>, gcc-6-hppa64-linux-gnu:native <!stage1 cross>
p359
ss(Vdescription
p360
g327
NVparisc
p361
tp362
(dp363
Vhardware
p364
V32-bit PA-RISC
p365
sVhardware-long
p366
VHP PA-RISC 32-bit systems with max 4 GB RAM
p367
ss(Vimage
p368
g327
tp369
(dp370
Vsuggests
p371
Vpalo
p372
sVinstall-stem
p373
Vvmlinux
p374
ss(g126
g327
g94
tp375
(dp376
g129
(lp377
Vparisc
p378
aVparisc64-smp
p379
asg133
I01
ss(Vbase
p380
Vi386
p381
tp382
(dp383
Vfeaturesets
p384
(lp385
Vnone
p386
aVrt
p387
asVkernel-arch
p388
Vx86
p389
ss(Vbuild
p390
g381
tp391
(dp392
Vvdso
p393
I01
sVimage-file
p394
Varch/x86/boot/bzImage
p395
ss(Vdescription
p396
g381
NV686-pae
p397
tp398
(dp399
Vhardware
p400
Vmodern PCs
p401
sVhardware-long
p402
VPCs with one or more processors supporting PAE
p403
sVparts
p404
(lp405
Vpae
p406
ass(Vdescription
p407
g381
tp408
(dp409
Vpart-long-pae
p410
VThis kernel requires PAE (Physical Address Extension).\u000aThis feature is supported by the Intel Pentium Pro/II/III/4/4M/D, Xeon,\u000aCore and Atom; AMD Geode NX, Athlon (K7), Duron, Opteron, Sempron,\u000aTurion or Phenom; Transmeta Efficeon; VIA C7; and some other processors.
p411
ss(Vbuild
p412
g381
NV686-pae
p413
tp414
(dp415
Vdebug-info
p416
I01
ss(Vdescription
p417
g381
NV686
p418
tp419
(dp420
Vhardware
p421
Volder PCs
p422
sVhardware-long
p423
VPCs with one or more processors not supporting PAE
p424
ss(Vrelations
p425
g381
tp426
(dp427
Vheaders%gcc-6
p428
Vlinux-compiler-gcc-6-x86
p429
ss(Vimage
p430
g381
tp431
(dp432
Vbreaks
p433
Vxserver-xorg-input-vmmouse (<< 1:13.0.99)
p434
sVinstall-stem
p435
Vvmlinuz
p436
sVbootloaders
p437
(lp438
Vgrub-pc
p439
aVextlinux
p440
ass(Vbase
p441
g381
Vnone
p442
tp443
(dp444
Vflavours
p445
(lp446
V686
p447
aV686-pae
p448
ass(Vdescription
p449
g381
g442
V686-pae
p450
tp451
(dp452
Vparts
p453
(lp454
Vxen
p455
ass(Vbase
p456
g381
Vrt
p457
tp458
(dp459
Vflavours
p460
(lp461
V686-pae
p462
ass(Vbase
p463
Vm68k
p464
tp465
(dp466
Vcflags
p467
V-ffreestanding
p468
sg92
(lp469
g94
asVkernel-arch
p470
Vm68k
p471
ss(Vbuild
p472
g464
tp473
(dp474
Vsigned-modules
p475
I00
sVimage-file
p476
Vvmlinux.gz
p477
ss(Vdescription
p478
g464
NVm68k
p479
tp480
(dp481
Vhardware
p482
VMotorola MC68020+ family
p483
ss(Vimage
p484
g464
tp485
(dp486
Vsuggests
p487
Vvmelilo, fdutils
p488
sVinstall-stem
p489
Vvmlinuz
p490
ss(g126
g464
g94
tp491
(dp492
g129
(lp493
Vm68k
p494
asg133
I01
ss(Vbase
p495
Vmips
p496
tp497
(dp498
g92
(lp499
g94
asVkernel-arch
p500
Vmips
p501
ss(Vbuild
p502
g496
tp503
(dp504
Vsigned-modules
p505
I00
sVimage-file
p506
Vvmlinux
p507
ss(Vimage
p508
g496
NV4kc-malta
p509
tp510
(dp511
Vconfigs
p512
(lp513
Vkernelarch-mips/config.malta
p514
aVkernelarch-mips/config.mips32r2
p515
ass(Vimage
p516
g496
NV5kc-malta
p517
tp518
(dp519
Vconfigs
p520
(lp521
Vkernelarch-mips/config.malta
p522
aVkernelarch-mips/config.mips64r2
p523
ass(Vdescription
p524
g496
NVocteon
p525
tp526
(dp527
Vhardware
p528
VOcteon
p529
sVhardware-long
p530
VCavium Networks Octeon
p531
ss(Vimage
p532
g496
NVocteon
p533
tp534
(dp535
Vconfigs
p536
(lp537
Vkernelarch-mips/config.octeon
p538
ass(Vimage
p539
g496
tp540
(dp541
Vinstall-stem
p542
Vvmlinux
p543
ss(Vdescription
p544
g496
NV5kc-malta
p545
tp546
(dp547
Vhardware
p548
VMIPS Malta (64-bit)
p549
sVhardware-long
p550
VMIPS Malta boards (64-bit)
p551
ss(Vdescription
p552
g496
NV4kc-malta
p553
tp554
(dp555
Vhardware
p556
VMIPS Malta
p557
sVhardware-long
p558
VMIPS Malta boards
p559
ss(g126
g496
g94
tp560
(dp561
g129
(lp562
V4kc-malta
p563
aV5kc-malta
p564
aVocteon
p565
asg133
I01
ss(Vbase
p566
Vmipsel
p567
tp568
(dp569
g92
(lp570
g94
asVkernel-arch
p571
Vmips
p572
ss(Vimage
p573
g567
NVloongson-3
p574
tp575
(dp576
Vconfigs
p577
(lp578
Vkernelarch-mips/config.loongson-3
p579
ass(Vbuild
p580
g567
tp581
(dp582
Vsigned-modules
p583
I00
sVimage-file
p584
Vvmlinux
p585
ss(Vimage
p586
g567
NV4kc-malta
p587
tp588
(dp589
Vconfigs
p590
(lp591
Vkernelarch-mips/config.malta
p592
aVkernelarch-mips/config.mips32r2
p593
ass(Vimage
p594
g567
NV5kc-malta
p595
tp596
(dp597
Vconfigs
p598
(lp599
Vkernelarch-mips/config.malta
p600
aVkernelarch-mips/config.mips64r2
p601
ass(Vdescription
p602
g567
NVocteon
p603
tp604
(dp605
Vhardware
p606
VOcteon
p607
sVhardware-long
p608
VCavium Networks Octeon
p609
ss(Vdescription
p610
g567
NVloongson-3
p611
tp612
(dp613
Vhardware
p614
VLoongson 3A/3B
p615
sVhardware-long
p616
VLoongson 3A or 3B based systems (e.g. from Loongson or Lemote)
p617
ss(Vimage
p618
g567
NVocteon
p619
tp620
(dp621
Vconfigs
p622
(lp623
Vkernelarch-mips/config.octeon
p624
ass(Vimage
p625
g567
tp626
(dp627
Vinstall-stem
p628
Vvmlinux
p629
ss(Vdescription
p630
g567
NV5kc-malta
p631
tp632
(dp633
Vhardware
p634
VMIPS Malta (64-bit)
p635
sVhardware-long
p636
VMIPS Malta boards (64-bit)
p637
ss(Vdescription
p638
g567
NV4kc-malta
p639
tp640
(dp641
Vhardware
p642
VMIPS Malta
p643
sVhardware-long
p644
VMIPS Malta boards
p645
ss(g126
g567
g94
tp646
(dp647
g129
(lp648
V4kc-malta
p649
aV5kc-malta
p650
aVloongson-3
p651
aVocteon
p652
asg133
I01
ss(Vbase
p653
Vmipsn32
p654
tp655
(dp656
Vfeaturesets
p657
(lp658
sVkernel-arch
p659
Vmips
p660
ss(Vbase
p661
Vmipsn32el
p662
tp663
(dp664
Vfeaturesets
p665
(lp666
sVkernel-arch
p667
Vmips
p668
ss(Vbase
p669
Vmips64
p670
tp671
(dp672
g92
(lp673
g94
asVkernel-arch
p674
Vmips
p675
ss(Vbuild
p676
g670
tp677
(dp678
Vsigned-modules
p679
I00
sVimage-file
p680
Vvmlinux
p681
ss(Vimage
p682
g670
NV5kc-malta
p683
tp684
(dp685
Vconfigs
p686
(lp687
Vkernelarch-mips/config.malta
p688
aVkernelarch-mips/config.mips64r2
p689
ass(Vdescription
p690
g670
NVocteon
p691
tp692
(dp693
Vhardware
p694
VOcteon
p695
sVhardware-long
p696
VCavium Networks Octeon
p697
ss(Vimage
p698
g670
tp699
(dp700
Vinstall-stem
p701
Vvmlinux
p702
ss(Vdescription
p703
g670
NV5kc-malta
p704
tp705
(dp706
Vhardware
p707
VMIPS Malta
p708
sVhardware-long
p709
VMIPS Malta boards
p710
ss(Vimage
p711
g670
NVocteon
p712
tp713
(dp714
Vconfigs
p715
(lp716
Vkernelarch-mips/config.octeon
p717
ass(g126
g670
g94
tp718
(dp719
g129
(lp720
V5kc-malta
p721
aVocteon
p722
asg133
I01
ss(Vbase
p723
Vmips64el
p724
tp725
(dp726
g92
(lp727
g94
asVkernel-arch
p728
Vmips
p729
ss(Vimage
p730
g724
NVloongson-3
p731
tp732
(dp733
Vconfigs
p734
(lp735
Vkernelarch-mips/config.loongson-3
p736
ass(Vbuild
p737
g724
tp738
(dp739
Vsigned-modules
p740
I00
sVimage-file
p741
Vvmlinux
p742
ss(Vimage
p743
g724
NV5kc-malta
p744
tp745
(dp746
Vconfigs
p747
(lp748
Vkernelarch-mips/config.malta
p749
aVkernelarch-mips/config.mips64r2
p750
ass(Vdescription
p751
g724
NVocteon
p752
tp753
(dp754
Vhardware
p755
VOcteon
p756
sVhardware-long
p757
VCavium Networks Octeon
p758
ss(Vdescription
p759
g724
NVloongson-3
p760
tp761
(dp762
Vhardware
p763
VLoongson 3A/3B
p764
sVhardware-long
p765
VLoongson 3A or 3B based systems (e.g. from Loongson or Lemote)
p766
ss(Vimage
p767
g724
tp768
(dp769
Vinstall-stem
p770
Vvmlinux
p771
ss(Vdescription
p772
g724
NV5kc-malta
p773
tp774
(dp775
Vhardware
p776
VMIPS Malta
p777
sVhardware-long
p778
VMIPS Malta boards
p779
ss(Vimage
p780
g724
NVocteon
p781
tp782
(dp783
Vconfigs
p784
(lp785
Vkernelarch-mips/config.octeon
p786
ass(g126
g724
g94
tp787
(dp788
g129
(lp789
V5kc-malta
p790
aVloongson-3
p791
aVocteon
p792
asg133
I01
ss(Vbase
p793
Vpowerpc
p794
tp795
(dp796
g92
(lp797
g94
asVkernel-arch
p798
Vpowerpc
p799
ss(Vdescription
p800
g794
NVpowerpc64
p801
tp802
(dp803
Vhardware
p804
V64-bit PowerPC
p805
ss(Vbuild
p806
g794
tp807
(dp808
Vvdso
p809
I01
sVimage-file
p810
Vvmlinux
p811
ss(Vimage
p812
g794
NVpowerpc-smp
p813
tp814
(dp815
Vconfigs
p816
(lp817
Vpowerpc/config.powerpc
p818
aVpowerpc/config.powerpc-smp
p819
ass(Vdescription
p820
g794
NVpowerpc
p821
tp822
(dp823
Vhardware
p824
Vuniprocessor 32-bit PowerPC
p825
ss(Vimage
p826
g794
NVpowerpc64
p827
tp828
(dp829
Vconfigs
p830
(lp831
Vkernelarch-powerpc/config-arch-64
p832
aVkernelarch-powerpc/config-arch-64-be
p833
ass(Vdescription
p834
g794
NVpowerpc-smp
p835
tp836
(dp837
Vhardware
p838
Vmultiprocessor 32-bit PowerPC
p839
ss(Vimage
p840
g794
tp841
(dp842
Vsuggests
p843
Vmkvmlinuz
p844
sVinstall-stem
p845
Vvmlinux
p846
sVconfigs
p847
(lp848
ss(g126
g794
g94
tp849
(dp850
g129
(lp851
Vpowerpc
p852
aVpowerpc-smp
p853
aVpowerpc64
p854
asg133
I01
ss(Vbase
p855
Vpowerpcspe
p856
tp857
(dp858
g92
(lp859
g94
asVkernel-arch
p860
Vpowerpc
p861
ss(Vbuild
p862
g856
tp863
(dp864
Vsigned-modules
p865
I00
sVimage-file
p866
Vvmlinux
p867
sVvdso
p868
I01
ss(Vimage
p869
g856
tp870
(dp871
Vsuggests
p872
Vmkvmlinuz
p873
sVinstall-stem
p874
Vvmlinux
p875
ss(Vdescription
p876
g856
tp877
(dp878
Vhardware
p879
V32-bit PowerPC with SPE (instead of AltiVec) with SMP support
p880
ss(g126
g856
g94
tp881
(dp882
g129
(lp883
Vpowerpcspe
p884
asg133
I01
ss(Vbase
p885
Vppc64
p886
tp887
(dp888
g92
(lp889
g94
asVkernel-arch
p890
Vpowerpc
p891
ss(Vdescription
p892
g886
NVpowerpc64
p893
tp894
(dp895
Vhardware
p896
V64-bit PowerPC
p897
ss(Vbuild
p898
g886
tp899
(dp900
Vsigned-modules
p901
I00
sVimage-file
p902
Vvmlinux
p903
sVvdso
p904
I01
ss(Vimage
p905
g886
NVpowerpc64
p906
tp907
(dp908
Vconfigs
p909
(lp910
Vkernelarch-powerpc/config-arch-64
p911
aVkernelarch-powerpc/config-arch-64-be
p912
ass(Vimage
p913
g886
tp914
(dp915
Vsuggests
p916
Vmkvmlinuz
p917
sVinstall-stem
p918
Vvmlinux
p919
sVconfigs
p920
(lp921
ss(g126
g886
g94
tp922
(dp923
g129
(lp924
Vpowerpc64
p925
asg133
I01
ss(Vbase
p926
Vppc64el
p927
tp928
(dp929
g92
(lp930
g94
asVkernel-arch
p931
Vpowerpc
p932
ss(Vdescription
p933
g927
NVpowerpc64le
p934
tp935
(dp936
Vhardware
p937
VLittle-endian 64-bit PowerPC
p938
ss(Vbuild
p939
g927
tp940
(dp941
Vvdso
p942
I01
sVimage-file
p943
Vvmlinux
p944
ss(Vimage
p945
g927
tp946
(dp947
Vsuggests
p948
Vmkvmlinuz
p949
sVinstall-stem
p950
Vvmlinux
p951
sVconfigs
p952
(lp953
ss(Vimage
p954
g927
NVpowerpc64le
p955
tp956
(dp957
Vconfigs
p958
(lp959
Vkernelarch-powerpc/config-arch-64
p960
aVkernelarch-powerpc/config-arch-64-le
p961
ass(g126
g927
g94
tp962
(dp963
g129
(lp964
Vpowerpc64le
p965
asg133
I01
ss(Vbase
p966
Vs390
p967
tp968
(dp969
Vfeaturesets
p970
(lp971
sVkernel-arch
p972
Vs390
p973
ss(Vbase
p974
Vs390x
p975
tp976
(dp977
g92
(lp978
g94
asVkernel-arch
p979
Vs390
p980
ss(Vdescription
p981
g975
NVs390x
p982
tp983
(dp984
Vhardware
p985
VIBM zSeries
p986
ss(Vbuild
p987
g975
tp988
(dp989
Vvdso
p990
I01
sVimage-file
p991
Varch/s390/boot/image
p992
ss(Vbuild
p993
g975
NVs390x
p994
tp995
(dp996
Vdebug-info
p997
I01
ss(Vrelations
p998
g975
tp999
(dp1000
Vheaders%gcc-6
p1001
Vlinux-compiler-gcc-6-s390
p1002
ss(Vimage
p1003
g975
tp1004
(dp1005
Vinstall-stem
p1006
Vvmlinuz
p1007
sVbootloaders
p1008
(lp1009
Vs390-tools
p1010
ass(g126
g975
g94
tp1011
(dp1012
g129
(lp1013
Vs390x
p1014
asg133
I01
ss(Vbase
p1015
Vsh3
p1016
tp1017
(dp1018
Vfeaturesets
p1019
(lp1020
sVkernel-arch
p1021
Vsh
p1022
ss(Vbase
p1023
Vsh4
p1024
tp1025
(dp1026
g92
(lp1027
g94
asVkernel-arch
p1028
Vsh
p1029
ss(Vbuild
p1030
g1024
tp1031
(dp1032
Vsigned-modules
p1033
I00
sVimage-file
p1034
Varch/sh/boot/zImage
p1035
ss(Vdescription
p1036
g1024
NVsh7751r
p1037
tp1038
(dp1039
Vhardware
p1040
Vsh7751r
p1041
sVhardware-long
p1042
VRenesas SH7751R R2D plus board
p1043
ss(Vdescription
p1044
g1024
NVsh7785lcr
p1045
tp1046
(dp1047
Vhardware
p1048
Vsh7785lcr
p1049
sVhardware-long
p1050
VRenesas SH7785 reference board
p1051
ss(Vimage
p1052
g1024
tp1053
(dp1054
Vinstall-stem
p1055
Vvmlinuz
p1056
ss(Vimage
p1057
g1024
NVsh7785lcr
p1058
tp1059
(dp1060
Vrecommends
p1061
Vu-boot-tools
p1062
sVcheck-size
p1063
L4194304L
ss(g126
g1024
g94
tp1064
(dp1065
g129
(lp1066
Vsh7751r
p1067
aVsh7785lcr
p1068
asg133
I01
ss(Vbase
p1069
Vsparc
p1070
tp1071
(dp1072
Vfeaturesets
p1073
(lp1074
sVkernel-arch
p1075
Vsparc
p1076
ss(Vbase
p1077
Vsparc64
p1078
tp1079
(dp1080
g92
(lp1081
g94
asVkernel-arch
p1082
Vsparc
p1083
ss(Vbuild
p1084
g1078
tp1085
(dp1086
Vsigned-modules
p1087
I00
sVimage-file
p1088
Varch/sparc/boot/zImage
p1089
ss(Vimage
p1090
g1078
NVsparc64
p1091
tp1092
(dp1093
Vconfigs
p1094
(lp1095
Vkernelarch-sparc/config-up
p1096
ass(Vimage
p1097
g1078
NVsparc64-smp
p1098
tp1099
(dp1100
Vconfigs
p1101
(lp1102
Vkernelarch-sparc/config-smp
p1103
ass(Vimage
p1104
g1078
tp1105
(dp1106
Vsuggests
p1107
Vsilo, fdutils
p1108
sVinstall-stem
p1109
Vvmlinuz
p1110
sVconfigs
p1111
(lp1112
ss(Vdescription
p1113
g1078
NVsparc64-smp
p1114
tp1115
(dp1116
Vhardware
p1117
Vmultiprocessor 64-bit UltraSPARC
p1118
ss(Vdescription
p1119
g1078
NVsparc64
p1120
tp1121
(dp1122
Vhardware
p1123
Vuniprocessor 64-bit UltraSPARC
p1124
ss(g126
g1078
g94
tp1125
(dp1126
g129
(lp1127
Vsparc64
p1128
aVsparc64-smp
p1129
asg133
I01
ss(Vbase
p1130
Vtilegx
p1131
tp1132
(dp1133
Vfeaturesets
p1134
(lp1135
sVkernel-arch
p1136
Vtile
p1137
ss(Vbase
p1138
Vx32
p1139
tp1140
(dp1141
Vfeaturesets
p1142
(lp1143
sVkernel-arch
p1144
Vx86
p1145
ss(Vdescription
p1146
NVrt
p1147
tp1148
(dp1149
Vparts
p1150
(lp1151
Vrt
p1152
asVpart-long-rt
p1153
VThis kernel includes the PREEMPT_RT realtime patch set.
p1154
sVpart-short-rt
p1155
VPREEMPT_RT
p1156
ss(Vabi
p1157
Ng1147
tp1158
(dp1159
Vignore-changes
p1160
(lp1161
V*
p1162
ass(Vversion
p1163
tp1164
(dp1165
Vupstream
p1166
V4.9
p1167
sVsource
p1168
V4.9.10-1
p1169
sVabiname
p1170
V4.9.0-2
p1171
sVabiname_base
p1172
V4.9.0
p1173
ss.