ccopy_reg
_reconstructor
p0
(cdebian_linux.config
ConfigCore
p1
c__builtin__
dict
p2
(dp3
(Vbase
p4
Vhppa
p5
NVparisc64-smp
p6
tp7
(dp8
Voverride-host-type
p9
Vhppa64-linux-gnu
p10
sVcflags
p11
V-fno-cse-follow-jumps
p12
ss(Vbuild
p13
Vpowerpc
p14
tp15
(dp16
Vimage-file
p17
Vvmlinux
p18
sVvdso
p19
I01
ss(Vbase
p20
g14
tp21
(dp22
Vfeaturesets
p23
(lp24
Vnone
p25
asVkernel-arch
p26
Vpowerpc
p27
ss(Vdescription
p28
Vamd64
p29
NVamd64
p30
tp31
(dp32
Vhardware
p33
V64-bit PCs
p34
sVhardware-long
p35
VPCs with AMD64, Intel 64 or VIA Nano processors
p36
ss(Vdescription
p37
Varmel
p38
NVversatile
p39
tp40
(dp41
Vhardware
p42
VVersatile
p43
sVhardware-long
p44
VVersatile systems (PB, AB, Qemu)
p45
ss(Vrelations
p46
g38
tp47
(dp48
Vheaders%gcc-5
p49
Vlinux-compiler-gcc-5-arm
p50
ss(Vbuild
p51
g29
tp52
(dp53
Vimage-file
p54
Varch/x86/boot/bzImage
p55
sVdebug-info
p56
I01
sVvdso
p57
I01
ss(Vdescription
p58
Varmhf
p59
NVarmmp-lpae
p60
tp61
(dp62
Vhardware
p63
VARMv7 multiplatform compatible SoCs supporting LPAE
p64
sVhardware-long
p65
VARMv7 multiplatform kernel supporting LPAE. See\u000ahttps://wiki.debian.org/DebianKernel/ARMMP for details of supported\u000aplatforms.
p66
ss(Vbase
p67
Vppc64el
p68
tp69
(dp70
g23
(lp71
g25
asVkernel-arch
p72
Vpowerpc
p73
ss(Vimage
p74
Vmips64el
p75
NVocteon
p76
tp77
(dp78
Vconfigs
p79
(lp80
Vkernelarch-mips/config.octeon
p81
ass(Vabi
p82
g75
tp83
(dp84
Vignore-changes
p85
(lp86
V__flush_icache_page
p87
ass(Vdescription
p88
Vsparc64
p89
NVsparc64
p90
tp91
(dp92
Vhardware
p93
Vuniprocessor 64-bit UltraSPARC
p94
ss(Vbuild
p95
g75
tp96
(dp97
Vimage-file
p98
Vvmlinux
p99
sVsigned-modules
p100
I00
ss(Vbase
p101
Vm68k
p102
g25
tp103
(dp104
Vimplicit-flavour
p105
I01
sVflavours
p106
(lp107
Vm68k
p108
ass(Vdescription
p109
Vi386
p110
NV686
p111
tp112
(dp113
Vhardware
p114
Volder PCs
p115
sVhardware-long
p116
VPCs with one or more processors not supporting PAE
p117
ss(Vimage
p118
g68
NVpowerpc64le
p119
tp120
(dp121
Vconfigs
p122
(lp123
Vkernelarch-powerpc/config-arch-64
p124
aVkernelarch-powerpc/config-arch-64-le
p125
ass(Vbase
p126
g89
tp127
(dp128
g23
(lp129
g25
asVkernel-arch
p130
Vsparc
p131
ss(Vimage
p132
Vmipsel
p133
NV5kc-malta
p134
tp135
(dp136
Vconfigs
p137
(lp138
Vkernelarch-mips/config.malta
p139
aVkernelarch-mips/config.mips64r1
p140
ass(Vimage
p141
Vppc64
p142
tp143
(dp144
Vinstall-stem
p145
Vvmlinux
p146
sVsuggests
p147
Vmkvmlinuz
p148
sVconfigs
p149
(lp150
ss(Vdescription
p151
g133
NVocteon
p152
tp153
(dp154
Vhardware
p155
VOcteon
p156
sVhardware-long
p157
VCavium Networks Octeon
p158
ss(g101
g5
g25
tp159
(dp160
g105
I01
sg106
(lp161
Vparisc
p162
aVparisc64-smp
p163
ass(Vbase
p164
g5
tp165
(dp166
g23
(lp167
g25
asVkernel-arch
p168
Vparisc
p169
ss(Vbase
p170
Vmipsn32
p171
tp172
(dp173
Vfeaturesets
p174
(lp175
sVkernel-arch
p176
Vmips
p177
ss(Vdescription
p178
g133
NVloongson-2f
p179
tp180
(dp181
Vhardware
p182
VLoongson 2F
p183
sVhardware-long
p184
VLemote Loongson 2F systems
p185
ss(Vbase
p186
g110
Vrt
p187
tp188
(dp189
Vflavours
p190
(lp191
V686-pae
p192
ass(Vbase
p193
g59
tp194
(dp195
g23
(lp196
g25
asVkernel-arch
p197
Varm
p198
ss(Vdescription
p199
g75
NVloongson-3
p200
tp201
(dp202
Vhardware
p203
VLoongson 3A/3B
p204
sVhardware-long
p205
VLoongson 3A or 3B based systems (e.g. from Loongson or Lemote)
p206
ss(Vbuild
p207
g110
NV686-pae
p208
tp209
(dp210
Vdebug-info
p211
I01
ss(Vdescription
p212
Vmips
p213
NV5kc-malta
p214
tp215
(dp216
Vhardware
p217
VMIPS Malta (64-bit)
p218
sVhardware-long
p219
VMIPS Malta boards (64-bit)
p220
ss(Vbase
p221
Vmips64
p222
tp223
(dp224
g23
(lp225
g25
asVkernel-arch
p226
Vmips
p227
ss(Vdescription
p228
g14
NVpowerpc64
p229
tp230
(dp231
Vhardware
p232
V64-bit PowerPC
p233
ss(Vabi
p234
g59
tp235
(dp236
Vignore-changes
p237
(lp238
Vmodule:drivers/gpu/drm/imx/*
p239
ass(Vimage
p240
g110
tp241
(dp242
Vinstall-stem
p243
Vvmlinuz
p244
sVbootloaders
p245
(lp246
Vgrub-pc
p247
aVextlinux
p248
asVbreaks
p249
Vxserver-xorg-input-vmmouse (<< 1:13.0.99)
p250
ss(Vimage
p251
g222
NV5kc-malta
p252
tp253
(dp254
Vconfigs
p255
(lp256
Vkernelarch-mips/config.malta
p257
aVkernelarch-mips/config.mips64r2
p258
ass(Vimage
p259
g89
NVsparc64-smp
p260
tp261
(dp262
Vconfigs
p263
(lp264
Vkernelarch-sparc/config-smp
p265
ass(Vbuild
p266
tp267
(dp268
Vsigned-modules
p269
I01
ss(Vdescription
p270
g14
NVpowerpc
p271
tp272
(dp273
Vhardware
p274
Vuniprocessor 32-bit PowerPC
p275
ss(Vimage
p276
g75
tp277
(dp278
Vinstall-stem
p279
Vvmlinux
p280
ss(g101
g142
g25
tp281
(dp282
g105
I01
sg106
(lp283
Vpowerpc64
p284
ass(Vbase
p285
g29
tp286
(dp287
Vfeaturesets
p288
(lp289
Vnone
p290
aVrt
p291
asVkernel-arch
p292
Vx86
p293
ss(Vdescription
p294
tp295
(dp296
Vpart-long-xen
p297
VThis kernel also runs on a Xen hypervisor.\u000aIt supports both privileged (dom0) and unprivileged (domU) operation.
p298
sVpart-long-up
p299
VThis kernel is not suitable for SMP (multi-processor,\u000amulti-core or hyper-threaded) systems.
p300
ss(Vbase
p301
Vpowerpcspe
p302
tp303
(dp304
g23
(lp305
g25
asVkernel-arch
p306
Vpowerpc
p307
ss(g101
g302
g25
tp308
(dp309
g105
I01
sg106
(lp310
Vpowerpcspe
p311
ass(Vimage
p312
g133
tp313
(dp314
Vinstall-stem
p315
Vvmlinux
p316
ss(g101
Vsh4
p317
g25
tp318
(dp319
g105
I01
sg106
(lp320
Vsh7751r
p321
aVsh7785lcr
p322
ass(Vdescription
p323
g75
NV5kc-malta
p324
tp325
(dp326
Vhardware
p327
VMIPS Malta
p328
sVhardware-long
p329
VMIPS Malta boards
p330
ss(Vbuild
p331
g317
tp332
(dp333
Vimage-file
p334
Varch/sh/boot/zImage
p335
sVsigned-modules
p336
I00
ss(Vdescription
p337
g68
NVpowerpc64le
p338
tp339
(dp340
Vhardware
p341
VLittle-endian 64-bit PowerPC
p342
ss(Vimage
p343
g38
tp344
(dp345
Vinstall-stem
p346
Vvmlinuz
p347
ss(Vbase
p348
g38
tp349
(dp350
g23
(lp351
g25
asVkernel-arch
p352
Varm
p353
ss(Vimage
p354
g222
NVocteon
p355
tp356
(dp357
Vconfigs
p358
(lp359
Vkernelarch-mips/config.octeon
p360
ass(Vdescription
p361
g133
NVloongson-3
p362
tp363
(dp364
Vhardware
p365
VLoongson 3A/3B
p366
sVhardware-long
p367
VLoongson 3A or 3B based systems (e.g. from Loongson or Lemote)
p368
ss(Vbase
p369
g317
tp370
(dp371
g23
(lp372
g25
asVkernel-arch
p373
Vsh
p374
ss(Vrelations
p375
g110
tp376
(dp377
Vheaders%gcc-5
p378
Vlinux-compiler-gcc-5-x86
p379
ss(Vimage
p380
g89
tp381
(dp382
Vinstall-stem
p383
Vvmlinuz
p384
sVsuggests
p385
Vsilo, fdutils
p386
sVconfigs
p387
(lp388
ss(Vimage
p389
g75
NVloongson-3
p390
tp391
(dp392
Vconfigs
p393
(lp394
Vkernelarch-mips/config.loongson-3
p395
ass(Vbuild
p396
g222
tp397
(dp398
Vimage-file
p399
Vvmlinux
p400
sVsigned-modules
p401
I00
ss(Vbuild
p402
g142
tp403
(dp404
Vimage-file
p405
Vvmlinux
p406
sVsigned-modules
p407
I00
sVvdso
p408
I01
ss(Vdescription
p409
Varm64
p410
NVarm64
p411
tp412
(dp413
Vhardware
p414
V64-bit ARMv8 machines
p415
ss(Vimage
p416
g38
NVmarvell
p417
tp418
(dp419
Vrecommends
p420
Vu-boot-tools
p421
sVcheck-size
p422
L2097080L
sVcheck-size-with-dtb
p423
I01
sVbreaks
p424
Vflash-kernel (<< 3.57~)
p425
ss(Vdescription
p426
g302
tp427
(dp428
Vhardware
p429
V32-bit PowerPC with SPE (instead of AltiVec) with SMP support
p430
ss(Vimage
p431
g102
tp432
(dp433
Vinstall-stem
p434
Vvmlinuz
p435
sVsuggests
p436
Vvmelilo, fdutils
p437
ss(Vdescription
p438
g5
NVparisc
p439
tp440
(dp441
Vhardware
p442
V32-bit PA-RISC
p443
sVhardware-long
p444
VHP PA-RISC 32-bit systems with max 4 GB RAM
p445
ss(Vabi
p446
tp447
(dp448
Vignore-changes
p449
(lp450
Vmodule:drivers/net/wireless/realtek/rtlwifi/*
p451
aVmodule:net/switchdev/*
p452
aVxt_compat_match_from_user
p453
asVabiname
p454
Vkali1
p455
ss(Vrelations
p456
g59
tp457
(dp458
Vheaders%gcc-5
p459
Vlinux-compiler-gcc-5-arm
p460
ss(Vimage
p461
tp462
(dp463
Vinitramfs-generators
p464
(lp465
Vinitramfs-tools
p466
aVinitramfs-fallback
p467
ass(g101
g38
g25
tp468
(dp469
g105
I01
sg106
(lp470
Vmarvell
p471
aVversatile
p472
ass(Vbase
p473
g110
Vnone
p474
tp475
(dp476
Vflavours
p477
(lp478
V686
p479
aV686-pae
p480
ass(Vdescription
p481
g59
NVarmmp
p482
tp483
(dp484
Vhardware
p485
VARMv7 multiplatform compatible SoCs
p486
sVhardware-long
p487
VARMv7 multiplatform kernel. See\u000ahttps://wiki.debian.org/DebianKernel/ARMMP for details of supported\u000aplatforms
p488
ss(Vimage
p489
g133
NVloongson-3
p490
tp491
(dp492
Vconfigs
p493
(lp494
Vkernelarch-mips/config.loongson-3
p495
ass(Vimage
p496
g213
NVocteon
p497
tp498
(dp499
Vconfigs
p500
(lp501
Vkernelarch-mips/config.octeon
p502
ass(Vbuild
p503
g302
tp504
(dp505
Vimage-file
p506
Vvmlinux
p507
sVsigned-modules
p508
I00
sVvdso
p509
I01
ss(Vbase
p510
g75
tp511
(dp512
g23
(lp513
g25
asVkernel-arch
p514
Vmips
p515
ss(Vbase
p516
NVrt
p517
tp518
(dp519
Venabled
p520
I01
ss(Vxen
p521
g29
Vnone
p522
Vamd64
p523
tp524
(dp525
Vflavours
p526
(lp527
Vamd64
p528
ass(Vdescription
p529
g133
NV5kc-malta
p530
tp531
(dp532
Vhardware
p533
VMIPS Malta (64-bit)
p534
sVhardware-long
p535
VMIPS Malta boards (64-bit)
p536
ss(Vimage
p537
g75
NV5kc-malta
p538
tp539
(dp540
Vconfigs
p541
(lp542
Vkernelarch-mips/config.malta
p543
aVkernelarch-mips/config.mips64r2
p544
ass(Vbase
p545
Valpha
p546
tp547
(dp548
g23
(lp549
g25
asVkernel-arch
p550
Valpha
p551
ss(Vbase
p552
tp553
(dp554
Vfeaturesets
p555
(lp556
Vnone
p557
aVrt
p558
asVcompiler
p559
Vgcc-5
p560
sVarches
p561
(lp562
Valpha
p563
aVamd64
p564
aVarm64
p565
aVarmel
p566
aVarmhf
p567
aVhppa
p568
aVi386
p569
aVm68k
p570
aVmips
p571
aVmipsel
p572
aVmipsn32
p573
aVmipsn32el
p574
aVmips64
p575
aVmips64el
p576
aVor1k
p577
aVpowerpc
p578
aVpowerpcspe
p579
aVppc64
p580
aVppc64el
p581
aVs390
p582
aVs390x
p583
aVsh4
p584
aVsparc
p585
aVsparc64
p586
aVtilegx
p587
aVx32
p588
ass(Vdescription
p589
g89
NVsparc64-smp
p590
tp591
(dp592
Vhardware
p593
Vmultiprocessor 64-bit UltraSPARC
p594
ss(Vimage
p595
g59
tp596
(dp597
Vinstall-stem
p598
Vvmlinuz
p599
ss(Vabi
p600
g213
tp601
(dp602
Vignore-changes
p603
(lp604
V__flush_icache_page
p605
ass(Vbase
p606
g410
tp607
(dp608
Vfeaturesets
p609
(lp610
Vnone
p611
asVkernel-arch
p612
Varm64
p613
ss(g101
g68
g25
tp614
(dp615
g105
I01
sg106
(lp616
Vpowerpc64le
p617
ass(Vimage
p618
g142
NVpowerpc64
p619
tp620
(dp621
Vconfigs
p622
(lp623
Vkernelarch-powerpc/config-arch-64
p624
aVkernelarch-powerpc/config-arch-64-be
p625
ass(Vdescription
p626
g222
NV5kc-malta
p627
tp628
(dp629
Vhardware
p630
VMIPS Malta
p631
sVhardware-long
p632
VMIPS Malta boards
p633
ss(Vbuild
p634
g546
tp635
(dp636
Vimage-file
p637
Varch/alpha/boot/vmlinux.gz
p638
sVsigned-modules
p639
I00
ss(Vbuild
p640
g38
NVmarvell
p641
tp642
(dp643
Vsigned-modules
p644
I00
ss(Vbase
p645
Vs390x
p646
tp647
(dp648
g23
(lp649
g25
asVkernel-arch
p650
Vs390
p651
ss(Vimage
p652
g89
NVsparc64
p653
tp654
(dp655
Vconfigs
p656
(lp657
Vkernelarch-sparc/config-up
p658
ass(Vbase
p659
g142
tp660
(dp661
g23
(lp662
g25
asVkernel-arch
p663
Vpowerpc
p664
ss(g101
g89
g25
tp665
(dp666
g105
I01
sg106
(lp667
Vsparc64
p668
aVsparc64-smp
p669
ass(Vdescription
p670
g110
NV686-pae
p671
tp672
(dp673
Vhardware
p674
Vmodern PCs
p675
sVhardware-long
p676
VPCs with one or more processors supporting PAE
p677
sVparts
p678
(lp679
Vpae
p680
ass(Vdescription
p681
g5
NVparisc64-smp
p682
tp683
(dp684
Vhardware
p685
Vmultiprocessor 64-bit PA-RISC
p686
sVhardware-long
p687
VHP PA-RISC 64-bit SMP systems with support for more than 4 GB RAM
p688
ss(g101
g133
g25
tp689
(dp690
g105
I01
sg106
(lp691
V4kc-malta
p692
aV5kc-malta
p693
aVloongson-2e
p694
aVloongson-2f
p695
aVloongson-3
p696
aVocteon
p697
ass(Vimage
p698
g410
tp699
(dp700
Vinstall-stem
p701
Vvmlinuz
p702
ss(Vbase
p703
g29
Vrt
p704
tp705
(dp706
Vflavours
p707
(lp708
Vamd64
p709
ass(Vbuild
p710
g5
tp711
(dp712
Vimage-file
p713
Vvmlinux
p714
sVsigned-modules
p715
I00
ss(Vrelations
p716
g646
tp717
(dp718
Vheaders%gcc-5
p719
Vlinux-compiler-gcc-5-s390
p720
ss(g101
g59
g25
tp721
(dp722
g105
I01
sg106
(lp723
Varmmp
p724
aVarmmp-lpae
p725
ass(Vbuild
p726
g646
tp727
(dp728
Vimage-file
p729
Varch/s390/boot/image
p730
sVvdso
p731
I01
ss(Vimage
p732
g213
NV4kc-malta
p733
tp734
(dp735
Vconfigs
p736
(lp737
Vkernelarch-mips/config.malta
p738
aVkernelarch-mips/config.mips32r2
p739
ass(Vbase
p740
Vx32
p741
tp742
(dp743
Vfeaturesets
p744
(lp745
sVkernel-arch
p746
Vx86
p747
ss(Vimage
p748
g317
NVsh7785lcr
p749
tp750
(dp751
Vrecommends
p752
Vu-boot-tools
p753
sVcheck-size
p754
L4194304L
ss(Vbase
p755
Vmipsn32el
p756
tp757
(dp758
Vfeaturesets
p759
(lp760
sVkernel-arch
p761
Vmips
p762
ss(Vbase
p763
Vtilegx
p764
tp765
(dp766
Vfeaturesets
p767
(lp768
sVkernel-arch
p769
Vtile
p770
ss(Vdescription
p771
g213
NV4kc-malta
p772
tp773
(dp774
Vhardware
p775
VMIPS Malta
p776
sVhardware-long
p777
VMIPS Malta boards
p778
ss(Vbase
p779
g213
tp780
(dp781
g23
(lp782
g25
asVkernel-arch
p783
Vmips
p784
ss(Vdescription
p785
g142
NVpowerpc64
p786
tp787
(dp788
Vhardware
p789
V64-bit PowerPC
p790
ss(g101
g546
g25
tp791
(dp792
g105
I01
sg106
(lp793
Valpha-generic
p794
aValpha-smp
p795
ass(Vdescription
p796
g222
NVocteon
p797
tp798
(dp799
Vhardware
p800
VOcteon
p801
sVhardware-long
p802
VCavium Networks Octeon
p803
ss(Vimage
p804
g68
tp805
(dp806
Vinstall-stem
p807
Vvmlinux
p808
sVsuggests
p809
Vmkvmlinuz
p810
sVconfigs
p811
(lp812
ss(Vbase
p813
g410
Vnone
p814
tp815
(dp816
Vflavours
p817
(lp818
Varm64
p819
ass(Vbuild
p820
g89
tp821
(dp822
Vimage-file
p823
Varch/sparc/boot/zImage
p824
sVsigned-modules
p825
I00
ss(Vbuild
p826
g213
tp827
(dp828
Vimage-file
p829
Vvmlinux
p830
sVsigned-modules
p831
I00
ss(Vimage
p832
g133
NV4kc-malta
p833
tp834
(dp835
Vconfigs
p836
(lp837
Vkernelarch-mips/config.malta
p838
aVkernelarch-mips/config.mips32r1
p839
ass(Vimage
p840
g5
tp841
(dp842
Vinstall-stem
p843
Vvmlinux
p844
sVsuggests
p845
Vpalo
p846
ss(Vbase
p847
Vs390
p848
tp849
(dp850
Vfeaturesets
p851
(lp852
sVkernel-arch
p853
Vs390
p854
ss(Vdescription
p855
g29
g522
Vamd64
p856
tp857
(dp858
Vparts
p859
(lp860
Vxen
p861
ass(Vbase
p862
Vsparc
p863
tp864
(dp865
Vfeaturesets
p866
(lp867
sVkernel-arch
p868
Vsparc
p869
ss(Vbuild
p870
g102
tp871
(dp872
Vimage-file
p873
Vvmlinux.gz
p874
sVsigned-modules
p875
I00
ss(Vdescription
p876
g110
g474
V686-pae
p877
tp878
(dp879
Vparts
p880
(lp881
Vxen
p882
ass(g101
g222
g25
tp883
(dp884
g105
I01
sg106
(lp885
V5kc-malta
p886
aVocteon
p887
ass(g101
g213
g25
tp888
(dp889
g105
I01
sg106
(lp890
V4kc-malta
p891
aV5kc-malta
p892
aVocteon
p893
ass(Vimage
p894
g133
NVloongson-2f
p895
tp896
(dp897
Vrecommends
p898
Vlibc6-loongson2f
p899
sVconfigs
p900
(lp901
Vkernelarch-mips/config.loongson-2f
p902
ass(Vimage
p903
g213
NV5kc-malta
p904
tp905
(dp906
Vconfigs
p907
(lp908
Vkernelarch-mips/config.malta
p909
aVkernelarch-mips/config.mips64r2
p910
ass(Vdescription
p911
g646
NVs390x
p912
tp913
(dp914
Vhardware
p915
VIBM zSeries
p916
ss(Vimage
p917
g410
NVarm64
p918
tp919
(dp920
s(Vbase
p921
g102
tp922
(dp923
g23
(lp924
g25
asVkernel-arch
p925
Vm68k
p926
sVcflags
p927
V-ffreestanding
p928
ss(Vdescription
p929
g213
NVocteon
p930
tp931
(dp932
Vhardware
p933
VOcteon
p934
sVhardware-long
p935
VCavium Networks Octeon
p936
ss(Vrelations
p937
g5
tp938
(dp939
Vgcc-5
p940
Vgcc-5 <!stage1>, binutils-hppa64-linux-gnu <!stage1>, gcc-5-hppa64-linux-gnu <!stage1>
p941
ss(g101
g14
g25
tp942
(dp943
g105
I01
sg106
(lp944
Vpowerpc
p945
aVpowerpc-smp
p946
aVpowerpc64
p947
ass(Vdescription
p948
g317
NVsh7785lcr
p949
tp950
(dp951
Vhardware
p952
Vsh7785lcr
p953
sVhardware-long
p954
VRenesas SH7785 reference board
p955
ss(Vimage
p956
g14
tp957
(dp958
Vinstall-stem
p959
Vvmlinux
p960
sVsuggests
p961
Vmkvmlinuz
p962
sVconfigs
p963
(lp964
ss(Vdescription
p965
g110
tp966
(dp967
Vpart-long-pae
p968
VThis kernel requires PAE (Physical Address Extension).\u000aThis feature is supported by the Intel Pentium Pro/II/III/4/4M/D, Xeon,\u000aCore and Atom; AMD Geode NX, Athlon (K7), Duron, Opteron, Sempron,\u000aTurion or Phenom; Transmeta Efficeon; VIA C7; and some other processors.
p969
ss(Vdescription
p970
g546
NValpha-generic
p971
tp972
(dp973
Vhardware
p974
VAlpha
p975
sVhardware-long
p976
VDEC Alpha systems with extended kernel start address (Wildfire, Titan, Marvel)
p977
ss(Vbuild
p978
g110
tp979
(dp980
Vimage-file
p981
Varch/x86/boot/bzImage
p982
sVvdso
p983
I01
ss(Vabi
p984
g133
tp985
(dp986
Vignore-changes
p987
(lp988
V__flush_icache_page
p989
ass(Vdescription
p990
g102
NVm68k
p991
tp992
(dp993
Vhardware
p994
VMotorola MC68020+ family
p995
ss(Vdescription
p996
g38
NVmarvell
p997
tp998
(dp999
Vhardware
p1000
VMarvell Kirkwood/Orion
p1001
sVhardware-long
p1002
VMarvell Kirkwood based systems (SheevaPlug, QNAP TS-119/TS-219, etc)\u000aand Orion 5181, 5182 and 5281 based systems (QNAP TS-109/TS-209, etc)
p1003
ss(Vbuild
p1004
g38
tp1005
(dp1006
Vimage-file
p1007
Varch/arm/boot/zImage
p1008
ss(Vimage
p1009
g133
NVocteon
p1010
tp1011
(dp1012
Vconfigs
p1013
(lp1014
Vkernelarch-mips/config.octeon
p1015
ass(Vdescription
p1016
g133
NVloongson-2e
p1017
tp1018
(dp1019
Vhardware
p1020
VLoongson 2E
p1021
sVhardware-long
p1022
VLemote Loongson 2E systems
p1023
ss(Vbuild
p1024
g646
NVs390x
p1025
tp1026
(dp1027
Vdebug-info
p1028
I01
ss(Vimage
p1029
g133
NVloongson-2e
p1030
tp1031
(dp1032
Vconfigs
p1033
(lp1034
Vkernelarch-mips/config.loongson-2e
p1035
ass(Vbuild
p1036
g68
tp1037
(dp1038
Vimage-file
p1039
Vvmlinux
p1040
sVvdso
p1041
I01
ss(Vimage
p1042
g646
tp1043
(dp1044
Vinstall-stem
p1045
Vvmlinuz
p1046
sVbootloaders
p1047
(lp1048
Vs390-tools
p1049
ass(Vdescription
p1050
g75
NVocteon
p1051
tp1052
(dp1053
Vhardware
p1054
VOcteon
p1055
sVhardware-long
p1056
VCavium Networks Octeon
p1057
ss(Vimage
p1058
g302
tp1059
(dp1060
Vinstall-stem
p1061
Vvmlinux
p1062
sVsuggests
p1063
Vmkvmlinuz
p1064
ss(Vdescription
p1065
g133
NV4kc-malta
p1066
tp1067
(dp1068
Vhardware
p1069
VMIPS Malta
p1070
sVhardware-long
p1071
VMIPS Malta boards
p1072
ss(Vdescription
p1073
NVrt
p1074
tp1075
(dp1076
Vpart-short-rt
p1077
VPREEMPT_RT
p1078
sVpart-long-rt
p1079
VThis kernel includes the PREEMPT_RT realtime patch set.
p1080
sVparts
p1081
(lp1082
Vrt
p1083
ass(Vimage
p1084
g546
tp1085
(dp1086
Vinstall-stem
p1087
Vvmlinuz
p1088
sVsuggests
p1089
Vaboot, fdutils
p1090
ss(Vbuild
p1091
g133
tp1092
(dp1093
Vimage-file
p1094
Vvmlinux
p1095
sVsigned-modules
p1096
I00
ss(Vbase
p1097
Vor1k
p1098
tp1099
(dp1100
Vfeaturesets
p1101
(lp1102
sVkernel-arch
p1103
Vopenrisc
p1104
ss(Vdescription
p1105
g546
NValpha-smp
p1106
tp1107
(dp1108
Vhardware
p1109
VAlpha SMP
p1110
sVhardware-long
p1111
VDEC Alpha SMP systems with extended kernel start address (Wildfire, Titan, Marvel)
p1112
ss(Vdescription
p1113
g14
NVpowerpc-smp
p1114
tp1115
(dp1116
Vhardware
p1117
Vmultiprocessor 32-bit PowerPC
p1118
ss(g101
g646
g25
tp1119
(dp1120
g105
I01
sg106
(lp1121
Vs390x
p1122
ass(Vbase
p1123
g29
g522
tp1124
(dp1125
Vflavours
p1126
(lp1127
Vamd64
p1128
ass(Vimage
p1129
g29
tp1130
(dp1131
Vinstall-stem
p1132
Vvmlinuz
p1133
sVbootloaders
p1134
(lp1135
Vgrub-pc
p1136
aVgrub-efi
p1137
aVextlinux
p1138
asVbreaks
p1139
Vxserver-xorg-input-vmmouse (<< 1:13.0.99)
p1140
ss(Vbase
p1141
g133
tp1142
(dp1143
g23
(lp1144
g25
asVkernel-arch
p1145
Vmips
p1146
ss(Vabi
p1147
Ng1074
tp1148
(dp1149
Vignore-changes
p1150
(lp1151
V*
p1152
ass(Vimage
p1153
g222
tp1154
(dp1155
Vinstall-stem
p1156
Vvmlinux
p1157
ss(Vbuild
p1158
g59
tp1159
(dp1160
Vimage-file
p1161
Varch/arm/boot/zImage
p1162
sVvdso
p1163
I01
ss(Vrelations
p1164
tp1165
(dp1166
Vgcc-5
p1167
Vgcc-5 <!stage1>
p1168
sVinitramfs-tools
p1169
Vinitramfs-tools (>= 0.110~)
p1170
sVinitramfs-fallback
p1171
Vlinux-initramfs-tool
p1172
ss(g101
g75
g25
tp1173
(dp1174
g105
I01
sg106
(lp1175
V5kc-malta
p1176
aVloongson-3
p1177
aVocteon
p1178
ass(Vbuild
p1179
g410
tp1180
(dp1181
Vimage-file
p1182
Varch/arm64/boot/Image
p1183
sVdebug-info
p1184
I01
sVvdso
p1185
I01
ss(Vbase
p1186
g110
tp1187
(dp1188
Vfeaturesets
p1189
(lp1190
Vnone
p1191
aVrt
p1192
asVkernel-arch
p1193
Vx86
p1194
ss(Vimage
p1195
g317
tp1196
(dp1197
Vinstall-stem
p1198
Vvmlinuz
p1199
ss(Vimage
p1200
g14
NVpowerpc-smp
p1201
tp1202
(dp1203
Vconfigs
p1204
(lp1205
Vpowerpc/config.powerpc
p1206
aVpowerpc/config.powerpc-smp
p1207
ass(Vrelations
p1208
g29
tp1209
(dp1210
Vheaders%gcc-5
p1211
Vlinux-compiler-gcc-5-x86
p1212
ss(Vversion
p1213
tp1214
(dp1215
Vupstream
p1216
V4.6
p1217
sVsource
p1218
V4.6.4-1kali1
p1219
sVabiname_base
p1220
V4.6.0
p1221
sVabiname
p1222
V4.6.0-kali1
p1223
ss(Vdescription
p1224
g317
NVsh7751r
p1225
tp1226
(dp1227
Vhardware
p1228
Vsh7751r
p1229
sVhardware-long
p1230
VRenesas SH7751R R2D plus board
p1231
ss(Vimage
p1232
g14
NVpowerpc64
p1233
tp1234
(dp1235
Vconfigs
p1236
(lp1237
Vkernelarch-powerpc/config-arch-64
p1238
aVkernelarch-powerpc/config-arch-64-be
p1239
ass(Vimage
p1240
g213
tp1241
(dp1242
Vinstall-stem
p1243
Vvmlinux
p1244
sstp1245
Rp1246
.