cdebian_linux.config
ConfigCore
p0
(tRp1
(Vabi
p2
tp3
(dp4
Vabiname
p5
Vkali2
p6
sVignore-changes
p7
(lp8
V__cpuhp_*
p9
aVbpf_analyzer
p10
aVcxl_*
p11
aVdax_flush
p12
aVieee80211_nullfunc_get
p13
aVinet_add_protocol
p14
aVinet_del_protocol
p15
aViommu_device_*
p16
aVmm_iommu_*
p17
aVmv_mbus_*
p18
aVperf_*
p19
aVregister_cxl_calls
p20
aVregister_key_type
p21
aVunregister_cxl_calls
p22
aV*_hw_breakpoint
p23
aVmodule:drivers/crypto/ccp/*
p24
aVmodule:drivers/hv/*
p25
aVmodule:drivers/gpu/drm/sun4i/*
p26
aVmodule:drivers/iio/**
p27
aVmodule:drivers/misc/cxl/*
p28
aVmodule:drivers/mtd/nand/*
p29
aVmodule:drivers/net/ethernet/**
p30
aVmodule:drivers/net/wireless/**
p31
aVmodule:drivers/nvdimm/*
p32
aVmodule:drivers/nvme/**
p33
aVmodule:drivers/power/supply/bq27xxx_battery
p34
aVmodule:drivers/scsi/cxgbi/*
p35
aVmodule:drivers/scsi/libiscs*
p36
aVmodule:drivers/scsi/qla2xxx/qla2xxx
p37
aVmodule:drivers/scsi/ufs/*
p38
aVmodule:drivers/target/**
p39
aVmodule:drivers/usb/chipidea/**
p40
aVmodule:drivers/usb/gadget/**
p41
aVmodule:drivers/usb/host/**
p42
aVmodule:drivers/usb/musb/**
p43
aVmodule:fs/nfs/**
p44
aVmodule:net/ceph/libceph
p45
aVmodule:net/l2tp/**
p46
aVmodule:net/rxrpc/rxrpc
p47
aVmodule:net/sctp/**
p48
aVmodule:sound/core/seq/**
p49
aVmodule:sound/firewire/snd-firewire-lib
p50
aVmodule:sound/pci/hda/*
p51
aVbtree_*
p52
aVvisitor*
p53
aVcan_rx_register
p54
aVip6_xmit
p55
aVmodule:net/dccp/dccp
p56
aVmodule:net/rds/rds
p57
aVdevfreq_*
p58
aVdevm_devfreq_*
p59
aVupdate_devfreq
p60
aVmodule:drivers/infiniband/**
p61
aVacpi_ec_add_query_handler
p62
aVacpi_ec_remove_query_handler
p63
aVfirst_ec
p64
aVdebugfs_create_automount
p65
aVmodule:drivers/iio/imu/inv_mpu6050/*
p66
aVdrm_crtc_accurate_vblank_count
p67
aVacpi_nfit_desc_init
p68
aVacpi_nfit_init
p69
aVloop_register_transfer
p70
aVxen_xlate_*
p71
aVnf_nat_masquerade_ipv4_register_notifier
p72
aVnf_nat_masquerade_ipv6_register_notifier
p73
aVmodule:drivers/scsi/hisi_sas/*
p74
aV__gfn_*
p75
aV__kvmhv_*
p76
aV__kvm_*
p77
aV__xive_vm_h_*
p78
aVgfn_*
p79
aVh_ipi_redirect
p80
aVhalt_poll_ns*
p81
aVkvm_*
p82
aVkvmhv_*
p83
aVkvmppc_*
p84
aVmark_page_dirty
p85
aVvcpu_*
p86
aVmodule:arch/powerpc/kvm/*
p87
aVmodule:arch/s390/kvm/*
p88
aVmodule:arch/x86/kvm/*
p89
ass(Vbase
p90
tp91
(dp92
Varches
p93
(lp94
Valpha
p95
aVamd64
p96
aVarm64
p97
aVarm64ilp32
p98
aVarmel
p99
aVarmhf
p100
aVhppa
p101
aVi386
p102
aVia64
p103
aVm68k
p104
aVmips
p105
aVmips64
p106
aVmips64el
p107
aVmips64r6
p108
aVmips64r6el
p109
aVmipsel
p110
aVmipsn32
p111
aVmipsn32el
p112
aVmipsn32r6
p113
aVmipsn32r6el
p114
aVmipsr6
p115
aVmipsr6el
p116
aVpowerpc
p117
aVppc64
p118
aVppc64el
p119
aVriscv64
p120
aVs390
p121
aVs390x
p122
aVsh3
p123
aVsh4
p124
aVsparc
p125
aVsparc64
p126
aVx32
p127
asVcompiler
p128
Vgcc-10
p129
sVfeaturesets
p130
(lp131
Vnone
p132
aVrt
p133
ass(Vbuild
p134
tp135
(dp136
Vdebug-info
p137
I01
sVsigned-code
p138
I00
ss(Vbase
p139
NVrt
p140
tp141
(dp142
Venabled
p143
I01
ss(Vdescription
p144
tp145
(dp146
Vpart-long-up
p147
VThis kernel is not suitable for SMP (multi-processor,\u000amulti-core or hyper-threaded) systems.
p148
ss(Vimage
p149
tp150
(dp151
Vinitramfs-generators
p152
(lp153
Vinitramfs-tools
p154
aVinitramfs-fallback
p155
asVbreaks
p156
(lp157
Vwireless-regdb (<< 2019.06.03-1~)
p158
asVrecommends
p159
(lp160
Vapparmor
p161
ass(Vrelations
p162
tp163
(dp164
Vgcc-10
p165
Vgcc-10 <!stage1 !cross !pkg.linux.nokernel>, gcc-10-@gnu-type-package@ <!stage1 cross !pkg.linux.nokernel>
p166
sVinitramfs-fallback
p167
Vlinux-initramfs-tool
p168
sVinitramfs-tools
p169
Vinitramfs-tools (>= 0.120+deb8u2)
p170
ss(Vbase
p171
Valpha
p172
tp173
(dp174
Vdefault-flavour
p175
Valpha-smp
p176
sVkernel-arch
p177
Valpha
p178
sVfeaturesets
p179
(lp180
Vnone
p181
ass(Vbuild
p182
g172
tp183
(dp184
Vimage-file
p185
Varch/alpha/boot/vmlinux.gz
p186
ss(Vimage
p187
g172
tp188
(dp189
Vsuggests
p190
(lp191
Vaboot
p192
aVfdutils
p193
asVinstall-stem
p194
Vvmlinuz
p195
ss(Vdescription
p196
g172
NValpha-generic
p197
tp198
(dp199
Vhardware
p200
VAlpha
p201
sVhardware-long
p202
VDEC Alpha systems with extended kernel start address (Wildfire, Titan, Marvel)
p203
ss(Vdescription
p204
g172
NValpha-smp
p205
tp206
(dp207
Vhardware
p208
VAlpha SMP
p209
sVhardware-long
p210
VDEC Alpha SMP systems with extended kernel start address (Wildfire, Titan, Marvel)
p211
ss(Vbase
p212
g172
g181
tp213
(dp214
Vflavours
p215
(lp216
Valpha-generic
p217
aValpha-smp
p218
asVimplicit-flavour
p219
I01
ss(Vbase
p220
Vamd64
p221
tp222
(dp223
Vfeaturesets
p224
(lp225
Vnone
p226
aVrt
p227
asVkernel-arch
p228
Vx86
p229
ss(Vbuild
p230
g221
tp231
(dp232
Vimage-file
p233
Varch/x86/boot/bzImage
p234
sVsigned-code
p235
I00
sVvdso
p236
I01
ss(Vimage
p237
g221
tp238
(dp239
Vbootloaders
p240
(lp241
Vgrub-pc
p242
aVgrub-efi-amd64
p243
aVextlinux
p244
asVinstall-stem
p245
Vvmlinuz
p246
sVbreaks
p247
(lp248
Vxserver-xorg-input-vmmouse (<< 1:13.0.99)
p249
ass(Vrelations
p250
g221
tp251
(dp252
Vheaders%gcc-10
p253
Vlinux-compiler-gcc-10-x86
p254
ss(Vdescription
p255
g221
NVamd64
p256
tp257
(dp258
Vhardware
p259
V64-bit PCs
p260
sVhardware-long
p261
VPCs with AMD64, Intel 64 or VIA Nano processors
p262
ss(Vdescription
p263
g221
NVcloud-amd64
p264
tp265
(dp266
Vhardware
p267
Vx86-64 cloud
p268
sVhardware-long
p269
Vcloud platforms including Amazon EC2, Microsoft Azure, and Google Compute Engine
p270
ss(Vbase
p271
g221
Vnone
p272
tp273
(dp274
Vflavours
p275
(lp276
Vamd64
p277
aVcloud-amd64
p278
asVdefault-flavour
p279
Vamd64
p280
ss(Vimage
p281
g221
g272
Vcloud-amd64
p282
tp283
(dp284
Vconfigs
p285
(lp286
Vconfig.cloud
p287
aVamd64/config.cloud-amd64
p288
ass(Vbase
p289
g221
Vrt
p290
tp291
(dp292
Vflavours
p293
(lp294
Vamd64
p295
ass(Vbase
p296
Varm64
p297
tp298
(dp299
Vcross-compile-compat
p300
Varm-linux-gnueabihf-
p301
sVkernel-arch
p302
Varm64
p303
sVfeaturesets
p304
(lp305
Vnone
p306
aVrt
p307
ass(Vbuild
p308
g297
tp309
(dp310
Vimage-file
p311
Varch/arm64/boot/Image
p312
sVsigned-code
p313
I00
sVvdso
p314
I01
ss(Vimage
p315
g297
tp316
(dp317
Vinstall-stem
p318
Vvmlinuz
p319
sVbreaks
p320
(lp321
Vlibmozjs185-1.0
p322
aVlibmozjs-24-0 (<< 24.2.0-5.1~)
p323
ass(Vdescription
p324
g297
NVarm64
p325
tp326
(dp327
Vhardware
p328
V64-bit ARMv8 machines
p329
ss(Vdescription
p330
g297
NVcloud-arm64
p331
tp332
(dp333
Vhardware
p334
Varm64 cloud
p335
sVhardware-long
p336
Vcloud platforms supporting arm64 virtual machines
p337
ss(Vimage
p338
g297
NVarm64
p339
tp340
(dp341
s(Vrelations
p342
g297
tp343
(dp344
Vgcc-10
p345
Vgcc-10 <!stage1 !cross !pkg.linux.nokernel>, gcc-10-aarch64-linux-gnu <!stage1 cross !pkg.linux.nokernel>, gcc-arm-linux-gnueabihf <!stage1 !pkg.linux.nokernel>
p346
sVheaders%gcc-10
p347
Vgcc-10
p348
ss(Vbase
p349
g297
Vnone
p350
tp351
(dp352
Vflavours
p353
(lp354
Varm64
p355
aVcloud-arm64
p356
asVdefault-flavour
p357
Varm64
p358
ss(Vimage
p359
g297
g350
Vcloud-arm64
p360
tp361
(dp362
Vconfigs
p363
(lp364
Vconfig.cloud
p365
aVarm64/config.cloud-arm64
p366
ass(Vbase
p367
g297
Vrt
p368
tp369
(dp370
Vflavours
p371
(lp372
Varm64
p373
ass(Vbase
p374
Varm64ilp32
p375
tp376
(dp377
Vkernel-arch
p378
Varm64
p379
sVfeaturesets
p380
(lp381
ss(Vbase
p382
Varmel
p383
tp384
(dp385
Vkernel-arch
p386
Varm
p387
sg179
(lp388
g181
ass(Vbuild
p389
g383
tp390
(dp391
Vimage-file
p392
Varch/arm/boot/zImage
p393
sVuncompressed-image-file
p394
Varch/arm/boot/Image
p395
sVsigned-code
p396
I00
ss(Vimage
p397
g383
tp398
(dp399
Vinstall-stem
p400
Vvmlinuz
p401
ss(Vrelations
p402
g383
tp403
(dp404
Vheaders%gcc-10
p405
Vlinux-compiler-gcc-10-arm
p406
ss(Vdescription
p407
g383
NVmarvell
p408
tp409
(dp410
Vhardware
p411
VMarvell Kirkwood/Orion
p412
sVhardware-long
p413
VMarvell Kirkwood and Orion based systems (https://wiki.debian.org/ArmEabiPort#Supported_hardware)
p414
ss(Vdescription
p415
g383
NVrpi
p416
tp417
(dp418
Vhardware
p419
VRaspberry Pi and Pi Zero
p420
sVhardware-long
p421
VRaspberry Pi, Raspberry Pi Zero based systems
p422
ss(Vimage
p423
g383
NVmarvell
p424
tp425
(dp426
Vrecommends
p427
(lp428
Vu-boot-tools
p429
asVcheck-size
p430
I2729712
sVcheck-size-with-dtb
p431
I01
sVcheck-uncompressed-size
p432
I7340032
sVbreaks
p433
(lp434
Vflash-kernel (<< 3.57~)
p435
ass(g212
g383
g181
tp436
(dp437
g215
(lp438
Vmarvell
p439
aVrpi
p440
asg219
I01
ss(Vbase
p441
Varmhf
p442
tp443
(dp444
Vfeaturesets
p445
(lp446
Vnone
p447
aVrt
p448
asVkernel-arch
p449
Varm
p450
ss(Vbuild
p451
g442
tp452
(dp453
Vimage-file
p454
Varch/arm/boot/zImage
p455
sVvdso
p456
I01
sVsigned-code
p457
I00
ss(Vimage
p458
g442
tp459
(dp460
Vinstall-stem
p461
Vvmlinuz
p462
ss(Vrelations
p463
g442
tp464
(dp465
Vheaders%gcc-10
p466
Vlinux-compiler-gcc-10-arm
p467
ss(Vdescription
p468
g442
NVarmmp
p469
tp470
(dp471
Vhardware
p472
VARMv7 multiplatform compatible SoCs
p473
sVhardware-long
p474
VARMv7 multiplatform kernel. See\u000ahttps://wiki.debian.org/DebianKernel/ARMMP for details of supported\u000aplatforms
p475
ss(Vdescription
p476
g442
NVarmmp-lpae
p477
tp478
(dp479
Vhardware
p480
VARMv7 multiplatform compatible SoCs supporting LPAE
p481
sVhardware-long
p482
VARMv7 multiplatform kernel supporting LPAE. See\u000ahttps://wiki.debian.org/DebianKernel/ARMMP for details of supported\u000aplatforms.
p483
ss(Vbase
p484
g442
Vnone
p485
tp486
(dp487
Vflavours
p488
(lp489
Varmmp
p490
aVarmmp-lpae
p491
asVdefault-flavour
p492
Varmmp
p493
ss(Vbase
p494
g442
Vrt
p495
tp496
(dp497
Vflavours
p498
(lp499
Varmmp
p500
ass(Vbase
p501
Vhppa
p502
tp503
(dp504
Vdefault-flavour
p505
Vparisc
p506
sVkernel-arch
p507
Vparisc
p508
sg179
(lp509
g181
ass(Vbuild
p510
g502
tp511
(dp512
Vimage-file
p513
Varch/parisc/boot/bzImage
p514
sVdebug-info
p515
I00
ss(Vimage
p516
g502
tp517
(dp518
Vsuggests
p519
(lp520
Vpalo
p521
asVinstall-stem
p522
Vvmlinuz
p523
ss(Vdescription
p524
g502
NVparisc
p525
tp526
(dp527
Vhardware
p528
V32-bit PA-RISC
p529
sVhardware-long
p530
VHP PA-RISC 32-bit systems with max 4 GB RAM
p531
ss(Vbase
p532
g502
NVparisc64
p533
tp534
(dp535
Vcflags
p536
V-fno-cse-follow-jumps
p537
sVoverride-host-type
p538
Vhppa64-linux-gnu
p539
ss(Vdescription
p540
g502
NVparisc64
p541
tp542
(dp543
Vhardware
p544
V64-bit PA-RISC
p545
sVhardware-long
p546
VHP PA-RISC 64-bit systems with support for more than 4 GB RAM
p547
ss(Vrelations
p548
g502
tp549
(dp550
Vgcc-10
p551
Vgcc-10 <!stage1 !cross !pkg.linux.nokernel>, gcc-10-hppa-linux-gnu <!stage1 cross !pkg.linux.nokernel>, binutils-hppa64-linux-gnu <!stage1 !pkg.linux.nokernel>, gcc-10-hppa64-linux-gnu <!stage1 !pkg.linux.nokernel>
p552
ss(g212
g502
g181
tp553
(dp554
g215
(lp555
Vparisc
p556
aVparisc64
p557
asg219
I01
ss(Vbase
p558
Vi386
p559
tp560
(dp561
Vfeaturesets
p562
(lp563
Vnone
p564
aVrt
p565
asVkernel-arch
p566
Vx86
p567
ss(Vbuild
p568
g559
tp569
(dp570
Vimage-file
p571
Varch/x86/boot/bzImage
p572
sVsigned-code
p573
I00
sVvdso
p574
I01
ss(Vdescription
p575
g559
tp576
(dp577
Vpart-long-pae
p578
VThis kernel requires PAE (Physical Address Extension).\u000aThis feature is supported by the Intel Pentium Pro/II/III/4/4M/D, Xeon,\u000aCore and Atom; AMD Geode NX, Athlon (K7), Duron, Opteron, Sempron,\u000aTurion or Phenom; Transmeta Efficeon; VIA C7; and some other processors.
p579
ss(Vimage
p580
g559
tp581
(dp582
Vbootloaders
p583
(lp584
Vgrub-pc
p585
aVgrub-efi-ia32
p586
aVextlinux
p587
asVinstall-stem
p588
Vvmlinuz
p589
sVbreaks
p590
(lp591
Vxserver-xorg-input-vmmouse (<< 1:13.0.99)
p592
ass(Vrelations
p593
g559
tp594
(dp595
Vheaders%gcc-10
p596
Vlinux-compiler-gcc-10-x86
p597
ss(Vdescription
p598
g559
NV686
p599
tp600
(dp601
Vhardware
p602
Volder PCs
p603
sVhardware-long
p604
VPCs with one or more processors not supporting PAE
p605
ss(Vdescription
p606
g559
NV686-pae
p607
tp608
(dp609
Vhardware
p610
Vmodern PCs
p611
sVhardware-long
p612
VPCs with one or more processors supporting PAE
p613
sVparts
p614
(lp615
Vpae
p616
ass(Vbase
p617
g559
Vnone
p618
tp619
(dp620
Vflavours
p621
(lp622
V686
p623
aV686-pae
p624
asVdefault-flavour
p625
V686-pae
p626
ss(Vbase
p627
g559
Vrt
p628
tp629
(dp630
Vflavours
p631
(lp632
V686-pae
p633
ass(Vbase
p634
Via64
p635
tp636
(dp637
Vdefault-flavour
p638
Vitanium
p639
sVkernel-arch
p640
Via64
p641
sg179
(lp642
g181
ass(Vbuild
p643
g635
tp644
(dp645
Vimage-file
p646
Vvmlinux.gz
p647
ss(Vimage
p648
g635
tp649
(dp650
Vbootloaders
p651
(lp652
Vgrub-efi-ia64
p653
asVinstall-stem
p654
Vvmlinuz
p655
ss(Vdescription
p656
g635
NVitanium
p657
tp658
(dp659
Vhardware
p660
VItanium (Merced)
p661
sVhardware-long
p662
Vsystems with original Itanium (Merced) processors
p663
ss(Vdescription
p664
g635
NVmckinley
p665
tp666
(dp667
Vhardware
p668
VItanium 2+
p669
sVhardware-long
p670
Vsystems with Itanium 2 or 9300/9500/9700-series processors
p671
ss(g212
g635
g181
tp672
(dp673
g215
(lp674
Vitanium
p675
aVmckinley
p676
asg219
I01
ss(Vbase
p677
Vm68k
p678
tp679
(dp680
Vcflags
p681
V-ffreestanding
p682
sVdefault-flavour
p683
Vm68k
p684
sVkernel-arch
p685
Vm68k
p686
sg179
(lp687
g181
ass(Vbuild
p688
g678
tp689
(dp690
Vimage-file
p691
Vvmlinux
p692
ss(Vimage
p693
g678
tp694
(dp695
Vsuggests
p696
(lp697
Vvmelilo
p698
aVfdutils
p699
asVinstall-stem
p700
Vvmlinux
p701
ss(Vdescription
p702
g678
NVm68k
p703
tp704
(dp705
Vhardware
p706
VMotorola MC68020+ family
p707
ss(g212
g678
g181
tp708
(dp709
g215
(lp710
Vm68k
p711
asg219
I01
ss(Vbase
p712
Vmips
p713
tp714
(dp715
Vkernel-arch
p716
Vmips
p717
sg179
(lp718
g181
ass(Vbuild
p719
g713
tp720
(dp721
Vimage-file
p722
Vvmlinuz
p723
ss(Vimage
p724
g713
tp725
(dp726
Vinstall-stem
p727
Vvmlinuz
p728
ss(Vdescription
p729
g713
NV4kc-malta
p730
tp731
(dp732
Vhardware
p733
VMIPS Malta
p734
sVhardware-long
p735
VMIPS Malta boards
p736
ss(Vimage
p737
g713
NV4kc-malta
p738
tp739
(dp740
Vconfigs
p741
(lp742
Vkernelarch-mips/config.malta
p743
aVkernelarch-mips/config.mips32r2
p744
ass(Vdescription
p745
g713
NV5kc-malta
p746
tp747
(dp748
Vhardware
p749
VMIPS Malta (64-bit)
p750
sVhardware-long
p751
VMIPS Malta boards (64-bit)
p752
ss(Vimage
p753
g713
NV5kc-malta
p754
tp755
(dp756
Vconfigs
p757
(lp758
Vkernelarch-mips/config.malta
p759
aVkernelarch-mips/config.mips64r2
p760
ass(Vdescription
p761
g713
NVocteon
p762
tp763
(dp764
Vhardware
p765
VOcteon
p766
sVhardware-long
p767
VCavium Networks Octeon
p768
ss(Vbuild
p769
g713
NVocteon
p770
tp771
(dp772
Vimage-file
p773
Vvmlinux
p774
ss(Vimage
p775
g713
NVocteon
p776
tp777
(dp778
Vinstall-stem
p779
Vvmlinux
p780
sVconfigs
p781
(lp782
Vkernelarch-mips/config.octeon
p783
ass(g212
g713
g181
tp784
(dp785
g215
(lp786
V4kc-malta
p787
aV5kc-malta
p788
aVocteon
p789
asg219
I01
ss(Vbase
p790
Vmips64
p791
tp792
(dp793
Vkernel-arch
p794
Vmips
p795
sg179
(lp796
g181
ass(Vbuild
p797
g791
tp798
(dp799
Vimage-file
p800
Vvmlinuz
p801
ss(Vimage
p802
g791
tp803
(dp804
Vinstall-stem
p805
Vvmlinuz
p806
ss(Vdescription
p807
g791
NV5kc-malta
p808
tp809
(dp810
Vhardware
p811
VMIPS Malta
p812
sVhardware-long
p813
VMIPS Malta boards
p814
ss(Vimage
p815
g791
NV5kc-malta
p816
tp817
(dp818
Vconfigs
p819
(lp820
Vkernelarch-mips/config.malta
p821
aVkernelarch-mips/config.mips64r2
p822
ass(Vdescription
p823
g791
NVocteon
p824
tp825
(dp826
Vhardware
p827
VOcteon
p828
sVhardware-long
p829
VCavium Networks Octeon
p830
ss(Vbuild
p831
g791
NVocteon
p832
tp833
(dp834
Vimage-file
p835
Vvmlinux
p836
ss(Vimage
p837
g791
NVocteon
p838
tp839
(dp840
Vinstall-stem
p841
Vvmlinux
p842
sVconfigs
p843
(lp844
Vkernelarch-mips/config.octeon
p845
ass(g212
g791
g181
tp846
(dp847
g215
(lp848
V5kc-malta
p849
aVocteon
p850
asg219
I01
ss(Vbase
p851
Vmips64el
p852
tp853
(dp854
Vkernel-arch
p855
Vmips
p856
sg179
(lp857
g181
ass(Vbuild
p858
g852
tp859
(dp860
Vimage-file
p861
Vvmlinuz
p862
ss(Vimage
p863
g852
tp864
(dp865
Vinstall-stem
p866
Vvmlinuz
p867
ss(Vdescription
p868
g852
NV5kc-malta
p869
tp870
(dp871
Vhardware
p872
VMIPS Malta
p873
sVhardware-long
p874
VMIPS Malta boards
p875
ss(Vimage
p876
g852
NV5kc-malta
p877
tp878
(dp879
Vconfigs
p880
(lp881
Vkernelarch-mips/config.malta
p882
aVkernelarch-mips/config.mips64r2
p883
ass(Vdescription
p884
g852
NVloongson-3
p885
tp886
(dp887
Vhardware
p888
VLoongson 3A/3B
p889
sVhardware-long
p890
VLoongson 3A or 3B based systems (e.g. from Loongson or Lemote)
p891
ss(Vimage
p892
g852
NVloongson-3
p893
tp894
(dp895
Vconfigs
p896
(lp897
Vkernelarch-mips/config.loongson-3
p898
ass(Vdescription
p899
g852
NVocteon
p900
tp901
(dp902
Vhardware
p903
VOcteon
p904
sVhardware-long
p905
VCavium Networks Octeon
p906
ss(Vbuild
p907
g852
NVocteon
p908
tp909
(dp910
Vimage-file
p911
Vvmlinux
p912
ss(Vimage
p913
g852
NVocteon
p914
tp915
(dp916
Vinstall-stem
p917
Vvmlinux
p918
sVconfigs
p919
(lp920
Vkernelarch-mips/config.octeon
p921
ass(g212
g852
g181
tp922
(dp923
g215
(lp924
V5kc-malta
p925
aVloongson-3
p926
aVocteon
p927
asg219
I01
ss(Vbase
p928
Vmips64r6
p929
tp930
(dp931
Vdefault-flavour
p932
Vmips64r6
p933
sVkernel-arch
p934
Vmips
p935
sg179
(lp936
g181
ass(Vbuild
p937
g929
tp938
(dp939
Vimage-file
p940
Vvmlinux
p941
ss(Vimage
p942
g929
tp943
(dp944
Vinstall-stem
p945
Vvmlinux
p946
ss(Vdescription
p947
g929
NVmips64r6
p948
tp949
(dp950
Vhardware
p951
VMIPS R6 (64 bit, big endian)
p952
sVhardware-long
p953
VMIPS R6 (64 bit, big endian)
p954
ss(Vimage
p955
g929
NVmips64r6
p956
tp957
(dp958
Vconfigs
p959
(lp960
Vkernelarch-mips/config.boston
p961
aVkernelarch-mips/config.mips64r6
p962
ass(g212
g929
g181
tp963
(dp964
g215
(lp965
Vmips64r6
p966
asg219
I01
ss(Vbase
p967
Vmips64r6el
p968
tp969
(dp970
Vdefault-flavour
p971
Vmips64r6el
p972
sVkernel-arch
p973
Vmips
p974
sg179
(lp975
g181
ass(Vbuild
p976
g968
tp977
(dp978
Vimage-file
p979
Vvmlinux
p980
ss(Vimage
p981
g968
tp982
(dp983
Vinstall-stem
p984
Vvmlinux
p985
ss(Vdescription
p986
g968
NVmips64r6el
p987
tp988
(dp989
Vhardware
p990
VMIPS R6 (64 bit, little endian)
p991
sVhardware-long
p992
VMIPS R6 (64 bit, little endian)
p993
ss(Vimage
p994
g968
NVmips64r6el
p995
tp996
(dp997
Vconfigs
p998
(lp999
Vkernelarch-mips/config.boston
p1000
aVkernelarch-mips/config.mips64r6
p1001
ass(g212
g968
g181
tp1002
(dp1003
g215
(lp1004
Vmips64r6el
p1005
asg219
I01
ss(Vbase
p1006
Vmipsel
p1007
tp1008
(dp1009
Vkernel-arch
p1010
Vmips
p1011
sg179
(lp1012
g181
ass(Vbuild
p1013
g1007
tp1014
(dp1015
Vimage-file
p1016
Vvmlinuz
p1017
ss(Vimage
p1018
g1007
tp1019
(dp1020
Vinstall-stem
p1021
Vvmlinuz
p1022
ss(Vdescription
p1023
g1007
NV4kc-malta
p1024
tp1025
(dp1026
Vhardware
p1027
VMIPS Malta
p1028
sVhardware-long
p1029
VMIPS Malta boards
p1030
ss(Vimage
p1031
g1007
NV4kc-malta
p1032
tp1033
(dp1034
Vconfigs
p1035
(lp1036
Vkernelarch-mips/config.malta
p1037
aVkernelarch-mips/config.mips32r2
p1038
ass(Vdescription
p1039
g1007
NV5kc-malta
p1040
tp1041
(dp1042
Vhardware
p1043
VMIPS Malta (64-bit)
p1044
sVhardware-long
p1045
VMIPS Malta boards (64-bit)
p1046
ss(Vimage
p1047
g1007
NV5kc-malta
p1048
tp1049
(dp1050
Vconfigs
p1051
(lp1052
Vkernelarch-mips/config.malta
p1053
aVkernelarch-mips/config.mips64r2
p1054
ass(Vdescription
p1055
g1007
NVloongson-3
p1056
tp1057
(dp1058
Vhardware
p1059
VLoongson 3A/3B
p1060
sVhardware-long
p1061
VLoongson 3A or 3B based systems (e.g. from Loongson or Lemote)
p1062
ss(Vimage
p1063
g1007
NVloongson-3
p1064
tp1065
(dp1066
Vconfigs
p1067
(lp1068
Vkernelarch-mips/config.loongson-3
p1069
ass(Vdescription
p1070
g1007
NVocteon
p1071
tp1072
(dp1073
Vhardware
p1074
VOcteon
p1075
sVhardware-long
p1076
VCavium Networks Octeon
p1077
ss(Vbuild
p1078
g1007
NVocteon
p1079
tp1080
(dp1081
Vimage-file
p1082
Vvmlinux
p1083
ss(Vimage
p1084
g1007
NVocteon
p1085
tp1086
(dp1087
Vinstall-stem
p1088
Vvmlinux
p1089
sVconfigs
p1090
(lp1091
Vkernelarch-mips/config.octeon
p1092
ass(g212
g1007
g181
tp1093
(dp1094
g215
(lp1095
V4kc-malta
p1096
aV5kc-malta
p1097
aVloongson-3
p1098
aVocteon
p1099
asg219
I01
ss(Vbase
p1100
Vmipsn32
p1101
tp1102
(dp1103
Vkernel-arch
p1104
Vmips
p1105
sVfeaturesets
p1106
(lp1107
ss(Vbase
p1108
Vmipsn32el
p1109
tp1110
(dp1111
Vkernel-arch
p1112
Vmips
p1113
sVfeaturesets
p1114
(lp1115
ss(Vbase
p1116
Vmipsn32r6
p1117
tp1118
(dp1119
Vkernel-arch
p1120
Vmips
p1121
sVfeaturesets
p1122
(lp1123
ss(Vbase
p1124
Vmipsn32r6el
p1125
tp1126
(dp1127
Vkernel-arch
p1128
Vmips
p1129
sVfeaturesets
p1130
(lp1131
ss(Vbase
p1132
Vmipsr6
p1133
tp1134
(dp1135
Vdefault-flavour
p1136
Vmips32r6
p1137
sVkernel-arch
p1138
Vmips
p1139
sg179
(lp1140
g181
ass(Vbuild
p1141
g1133
tp1142
(dp1143
Vimage-file
p1144
Vvmlinux
p1145
ss(Vimage
p1146
g1133
tp1147
(dp1148
Vinstall-stem
p1149
Vvmlinux
p1150
ss(Vdescription
p1151
g1133
NVmips32r6
p1152
tp1153
(dp1154
Vhardware
p1155
VMIPS R6 (32 bit, big endian)
p1156
sVhardware-long
p1157
VMIPS R6 (32 bit, big endian)
p1158
ss(Vimage
p1159
g1133
NVmips32r6
p1160
tp1161
(dp1162
Vconfigs
p1163
(lp1164
Vkernelarch-mips/config.boston
p1165
aVkernelarch-mips/config.mips32r6
p1166
ass(Vdescription
p1167
g1133
NVmips64r6
p1168
tp1169
(dp1170
Vhardware
p1171
VMIPS R6 (64 bit, big endian)
p1172
sVhardware-long
p1173
VMIPS R6 (64 bit, big endian)
p1174
ss(Vimage
p1175
g1133
NVmips64r6
p1176
tp1177
(dp1178
Vconfigs
p1179
(lp1180
Vkernelarch-mips/config.boston
p1181
aVkernelarch-mips/config.mips64r6
p1182
ass(g212
g1133
g181
tp1183
(dp1184
g215
(lp1185
Vmips32r6
p1186
aVmips64r6
p1187
asg219
I01
ss(Vbase
p1188
Vmipsr6el
p1189
tp1190
(dp1191
Vdefault-flavour
p1192
Vmips32r6el
p1193
sVkernel-arch
p1194
Vmips
p1195
sg179
(lp1196
g181
ass(Vbuild
p1197
g1189
tp1198
(dp1199
Vimage-file
p1200
Vvmlinux
p1201
ss(Vimage
p1202
g1189
tp1203
(dp1204
Vinstall-stem
p1205
Vvmlinux
p1206
ss(Vdescription
p1207
g1189
NVmips32r6el
p1208
tp1209
(dp1210
Vhardware
p1211
VMIPS R6 (32 bit, little endian)
p1212
sVhardware-long
p1213
VMIPS R6 (32 bit, little endian)
p1214
ss(Vimage
p1215
g1189
NVmips32r6el
p1216
tp1217
(dp1218
Vconfigs
p1219
(lp1220
Vkernelarch-mips/config.boston
p1221
aVkernelarch-mips/config.mips32r6
p1222
ass(Vdescription
p1223
g1189
NVmips64r6el
p1224
tp1225
(dp1226
Vhardware
p1227
VMIPS R6 (64 bit, little endian)
p1228
sVhardware-long
p1229
VMIPS R6 (64 bit, little endian)
p1230
ss(Vimage
p1231
g1189
NVmips64r6el
p1232
tp1233
(dp1234
Vconfigs
p1235
(lp1236
Vkernelarch-mips/config.boston
p1237
aVkernelarch-mips/config.mips64r6
p1238
ass(g212
g1189
g181
tp1239
(dp1240
g215
(lp1241
Vmips32r6el
p1242
aVmips64r6el
p1243
asg219
I01
ss(Vbase
p1244
Vpowerpc
p1245
tp1246
(dp1247
Vkernel-arch
p1248
Vpowerpc
p1249
sg179
(lp1250
g181
ass(Vbuild
p1251
g1245
tp1252
(dp1253
Vimage-file
p1254
Vvmlinux
p1255
sVvdso
p1256
I01
ss(Vimage
p1257
g1245
tp1258
(dp1259
Vconfigs
p1260
(lp1261
sVbootloaders
p1262
(lp1263
Vgrub-ieee1275
p1264
asVsuggests
p1265
(lp1266
Vmkvmlinuz
p1267
asVinstall-stem
p1268
Vvmlinux
p1269
ss(Vdescription
p1270
g1245
NVpowerpc
p1271
tp1272
(dp1273
Vhardware
p1274
Vuniprocessor 32-bit PowerPC
p1275
ss(Vdescription
p1276
g1245
NVpowerpc-smp
p1277
tp1278
(dp1279
Vhardware
p1280
Vmultiprocessor 32-bit PowerPC
p1281
ss(Vimage
p1282
g1245
NVpowerpc-smp
p1283
tp1284
(dp1285
Vconfigs
p1286
(lp1287
Vpowerpc/config.powerpc
p1288
aVpowerpc/config.powerpc-smp
p1289
ass(Vdescription
p1290
g1245
NVpowerpc64
p1291
tp1292
(dp1293
Vhardware
p1294
V64-bit PowerPC
p1295
ss(Vimage
p1296
g1245
NVpowerpc64
p1297
tp1298
(dp1299
Vconfigs
p1300
(lp1301
Vkernelarch-powerpc/config-arch-64
p1302
aVkernelarch-powerpc/config-arch-64-be
p1303
ass(g212
g1245
g181
tp1304
(dp1305
g215
(lp1306
Vpowerpc
p1307
aVpowerpc-smp
p1308
aVpowerpc64
p1309
asg219
I01
ss(Vbase
p1310
Vppc64
p1311
tp1312
(dp1313
Vdefault-flavour
p1314
Vpowerpc64
p1315
sVkernel-arch
p1316
Vpowerpc
p1317
sg179
(lp1318
g181
ass(Vbuild
p1319
g1311
tp1320
(dp1321
Vimage-file
p1322
Vvmlinux
p1323
sVvdso
p1324
I01
ss(Vimage
p1325
g1311
tp1326
(dp1327
Vconfigs
p1328
(lp1329
sVbootloaders
p1330
(lp1331
Vgrub-ieee1275
p1332
asVsuggests
p1333
(lp1334
Vmkvmlinuz
p1335
asVinstall-stem
p1336
Vvmlinux
p1337
ss(Vdescription
p1338
g1311
NVpowerpc64
p1339
tp1340
(dp1341
Vhardware
p1342
V64-bit PowerPC
p1343
ss(Vimage
p1344
g1311
NVpowerpc64
p1345
tp1346
(dp1347
Vconfigs
p1348
(lp1349
Vkernelarch-powerpc/config-arch-64
p1350
aVkernelarch-powerpc/config-arch-64-be
p1351
ass(g212
g1311
g181
tp1352
(dp1353
g215
(lp1354
Vpowerpc64
p1355
asg219
I01
ss(Vbase
p1356
Vppc64el
p1357
tp1358
(dp1359
Vdefault-flavour
p1360
Vpowerpc64le
p1361
sVkernel-arch
p1362
Vpowerpc
p1363
sg179
(lp1364
g181
ass(Vbuild
p1365
g1357
tp1366
(dp1367
Vimage-file
p1368
Vvmlinux
p1369
sVvdso
p1370
I01
ss(Vimage
p1371
g1357
tp1372
(dp1373
Vconfigs
p1374
(lp1375
sVbootloaders
p1376
(lp1377
Vgrub-ieee1275
p1378
asVsuggests
p1379
(lp1380
Vmkvmlinuz
p1381
asVinstall-stem
p1382
Vvmlinux
p1383
ss(Vdescription
p1384
g1357
NVpowerpc64le
p1385
tp1386
(dp1387
Vhardware
p1388
VLittle-endian 64-bit PowerPC
p1389
ss(Vimage
p1390
g1357
NVpowerpc64le
p1391
tp1392
(dp1393
Vconfigs
p1394
(lp1395
Vkernelarch-powerpc/config-arch-64
p1396
aVkernelarch-powerpc/config-arch-64-le
p1397
ass(g212
g1357
g181
tp1398
(dp1399
g215
(lp1400
Vpowerpc64le
p1401
asg219
I01
ss(Vbase
p1402
Vriscv64
p1403
tp1404
(dp1405
Vkernel-arch
p1406
Vriscv
p1407
sVfeaturesets
p1408
(lp1409
Vnone
p1410
ass(Vbuild
p1411
g1403
tp1412
(dp1413
Vimage-file
p1414
Varch/riscv/boot/Image
p1415
sVvdso
p1416
I01
ss(Vimage
p1417
g1403
tp1418
(dp1419
Vinstall-stem
p1420
Vvmlinux
p1421
ss(Vdescription
p1422
g1403
NVriscv64
p1423
tp1424
(dp1425
Vhardware
p1426
V64-bit RISC-V platforms
p1427
sVhardware-long
p1428
V64-bit RISC-V platforms
p1429
ss(Vbase
p1430
g1403
Vnone
p1431
tp1432
(dp1433
Vflavours
p1434
(lp1435
Vriscv64
p1436
asVdefault-flavour
p1437
Vriscv64
p1438
ss(Vbase
p1439
Vs390
p1440
tp1441
(dp1442
Vkernel-arch
p1443
Vs390
p1444
sVfeaturesets
p1445
(lp1446
ss(Vbase
p1447
Vs390x
p1448
tp1449
(dp1450
Vdefault-flavour
p1451
Vs390x
p1452
sVkernel-arch
p1453
Vs390
p1454
sg179
(lp1455
g181
ass(Vbuild
p1456
g1448
tp1457
(dp1458
Vimage-file
p1459
Varch/s390/boot/bzImage
p1460
sVvdso
p1461
I01
ss(Vimage
p1462
g1448
tp1463
(dp1464
Vbootloaders
p1465
(lp1466
Vs390-tools
p1467
asVinstall-stem
p1468
Vvmlinuz
p1469
ss(Vrelations
p1470
g1448
tp1471
(dp1472
Vheaders%gcc-10
p1473
Vlinux-compiler-gcc-10-s390
p1474
ss(Vdescription
p1475
g1448
NVs390x
p1476
tp1477
(dp1478
Vhardware
p1479
VIBM zSeries
p1480
ss(g212
g1448
g181
tp1481
(dp1482
g215
(lp1483
Vs390x
p1484
asg219
I01
ss(Vbase
p1485
Vsh3
p1486
tp1487
(dp1488
Vkernel-arch
p1489
Vsh
p1490
sVfeaturesets
p1491
(lp1492
ss(Vbase
p1493
Vsh4
p1494
tp1495
(dp1496
Vkernel-arch
p1497
Vsh
p1498
sg179
(lp1499
g181
ass(Vbuild
p1500
g1494
tp1501
(dp1502
Vimage-file
p1503
Varch/sh/boot/zImage
p1504
ss(Vimage
p1505
g1494
tp1506
(dp1507
Vinstall-stem
p1508
Vvmlinuz
p1509
ss(Vdescription
p1510
g1494
NVsh7751r
p1511
tp1512
(dp1513
Vhardware
p1514
Vsh7751r
p1515
sVhardware-long
p1516
VRenesas SH7751R R2D plus board
p1517
ss(Vdescription
p1518
g1494
NVsh7785lcr
p1519
tp1520
(dp1521
Vhardware
p1522
Vsh7785lcr
p1523
sVhardware-long
p1524
VRenesas SH7785 reference board
p1525
ss(Vimage
p1526
g1494
NVsh7785lcr
p1527
tp1528
(dp1529
Vrecommends
p1530
(lp1531
Vu-boot-tools
p1532
asVcheck-size
p1533
I4194304
ss(g212
g1494
g181
tp1534
(dp1535
g215
(lp1536
Vsh7751r
p1537
aVsh7785lcr
p1538
asg219
I01
ss(Vbase
p1539
Vsparc
p1540
tp1541
(dp1542
Vkernel-arch
p1543
Vsparc
p1544
sVfeaturesets
p1545
(lp1546
ss(Vbase
p1547
Vsparc64
p1548
tp1549
(dp1550
Vdefault-flavour
p1551
Vsparc64-smp
p1552
sVkernel-arch
p1553
Vsparc
p1554
sg179
(lp1555
g181
ass(Vbuild
p1556
g1548
tp1557
(dp1558
Vimage-file
p1559
Vvmlinux
p1560
ss(Vimage
p1561
g1548
tp1562
(dp1563
Vconfigs
p1564
(lp1565
sVbootloaders
p1566
(lp1567
Vgrub-ieee1275
p1568
asVsuggests
p1569
(lp1570
Vfdutils
p1571
asVinstall-stem
p1572
Vvmlinux
p1573
ss(Vdescription
p1574
g1548
NVsparc64
p1575
tp1576
(dp1577
Vhardware
p1578
Vuniprocessor 64-bit UltraSPARC
p1579
ss(Vimage
p1580
g1548
NVsparc64
p1581
tp1582
(dp1583
Vconfigs
p1584
(lp1585
Vkernelarch-sparc/config-up
p1586
ass(Vdescription
p1587
g1548
NVsparc64-smp
p1588
tp1589
(dp1590
Vhardware
p1591
Vmultiprocessor 64-bit UltraSPARC
p1592
ss(Vimage
p1593
g1548
NVsparc64-smp
p1594
tp1595
(dp1596
Vconfigs
p1597
(lp1598
Vkernelarch-sparc/config-smp
p1599
ass(g212
g1548
g181
tp1600
(dp1601
g215
(lp1602
Vsparc64
p1603
aVsparc64-smp
p1604
asg219
I01
ss(Vbase
p1605
Vx32
p1606
tp1607
(dp1608
Vkernel-arch
p1609
Vx86
p1610
sVfeaturesets
p1611
(lp1612
ss(Vabi
p1613
NVrt
p1614
tp1615
(dp1616
Vignore-changes
p1617
(lp1618
V*
p1619
ass(Vdescription
p1620
Ng1614
tp1621
(dp1622
Vpart-long-rt
p1623
VThis kernel includes the PREEMPT_RT realtime patch set.
p1624
sVpart-short-rt
p1625
VPREEMPT_RT
p1626
sVparts
p1627
(lp1628
Vrt
p1629
ass(Vversion
p1630
tp1631
(dp1632
Vsource
p1633
V5.9.6-1kali1
p1634
sVupstream
p1635
V5.9
p1636
sVabiname_base
p1637
V5.9.0
p1638
sVabiname
p1639
V5.9.0-kali2
p1640
ss.