ccopy_reg
_reconstructor
p0
(cdebian_linux.config
ConfigCore
p1
c__builtin__
dict
p2
(dp3
(Vdescription
p4
Valpha
p5
NValpha-smp
p6
tp7
(dp8
Vhardware
p9
VAlpha SMP
p10
sVhardware-long
p11
VDEC Alpha SMP systems with extended kernel start address (Wildfire, Titan, Marvel)
p12
ss(Vbase
p13
Vmips
p14
Vnone
p15
tp16
(dp17
Vflavours
p18
(lp19
V4kc-malta
p20
aV5kc-malta
p21
aVocteon
p22
asVimplicit-flavour
p23
I01
ss(Vbase
p24
Vhppa
p25
tp26
(dp27
Vkernel-arch
p28
Vparisc
p29
sVfeaturesets
p30
(lp31
g15
ass(Vimage
p32
Vmips64el
p33
NV5kc-malta
p34
tp35
(dp36
Vconfigs
p37
(lp38
Vkernelarch-mips/config.5kc-malta
p39
ass(Vdescription
p40
Vi386
p41
tp42
(dp43
Vpart-long-pae
p44
VThis kernel requires PAE (Physical Address Extension).\u000aThis feature is supported by the Intel Pentium Pro/II/III/4/4M/D, Xeon,\u000aCore and Atom; AMD Geode NX, Athlon (K7), Duron, Opteron, Sempron,\u000aTurion or Phenom; Transmeta Efficeon; VIA C7; and some other processors.
p45
ss(Vbase
p46
g25
NVparisc64-smp
p47
tp48
(dp49
Voverride-host-type
p50
Vhppa64-linux-gnu
p51
sVcflags
p52
V-fno-cse-follow-jumps
p53
ss(Vdescription
p54
g14
NV5kc-malta
p55
tp56
(dp57
Vhardware
p58
VMIPS Malta (64-bit)
p59
sVhardware-long
p60
VMIPS Malta boards (64-bit)
p61
ss(Vdescription
p62
Vmips64
p63
NVocteon
p64
tp65
(dp66
Vhardware
p67
VOcteon
p68
sVhardware-long
p69
VCavium Networks Octeon
p70
ss(Vbuild
p71
g41
NV686-pae
p72
tp73
(dp74
Vdebug-info
p75
I01
ss(Vbase
p76
Vm68k
p77
tp78
(dp79
Vkernel-arch
p80
Vm68k
p81
sVcompiler
p82
Vgcc-4.8
p83
sg30
(lp84
g15
asVcflags
p85
V-ffreestanding
p86
ss(Vimage
p87
g33
NVloongson-3
p88
tp89
(dp90
Vconfigs
p91
(lp92
Vkernelarch-mips/config.loongson-3
p93
ass(Vimage
p94
Vs390x
p95
NVs390x
p96
tp97
(dp98
Vconfigs
p99
(lp100
Vkernelarch-s390/config-arch-64
p101
ass(g13
Varmhf
p102
g15
tp103
(dp104
g18
(lp105
Varmmp
p106
aVarmmp-lpae
p107
asg23
I01
ss(Vbase
p108
g33
tp109
(dp110
Vkernel-arch
p111
Vmips
p112
sg30
(lp113
g15
ass(Vimage
p114
tp115
(dp116
Vinitramfs-generators
p117
(lp118
Vinitramfs-tools
p119
aVinitramfs-fallback
p120
ass(Vbuild
p121
g5
tp122
(dp123
Vimage-file
p124
Varch/alpha/boot/vmlinux.gz
p125
ss(Vimage
p126
Vppc64
p127
NVpowerpc64
p128
tp129
(dp130
Vconfigs
p131
(lp132
Vkernelarch-powerpc/config-arch-64
p133
aVkernelarch-powerpc/config-arch-64-be
p134
ass(Vimage
p135
Vpowerpc
p136
NVpowerpc64
p137
tp138
(dp139
Vconfigs
p140
(lp141
Vkernelarch-powerpc/config-arch-64
p142
aVkernelarch-powerpc/config-arch-64-be
p143
ass(Vbuild
p144
g95
NVs390x
p145
tp146
(dp147
Vdebug-info
p148
I01
ss(Vbase
p149
g5
tp150
(dp151
Vkernel-arch
p152
Valpha
p153
sg30
(lp154
g15
ass(g13
Vmipsel
p155
g15
tp156
(dp157
g18
(lp158
V4kc-malta
p159
aV5kc-malta
p160
aVloongson-2e
p161
aVloongson-2f
p162
aVloongson-3
p163
asg23
I01
ss(Vdescription
p164
Vamd64
p165
Vnone
p166
Vamd64
p167
tp168
(dp169
Vparts
p170
(lp171
Vxen
p172
ass(Vbase
p173
g155
tp174
(dp175
Vkernel-arch
p176
Vmips
p177
sg30
(lp178
g15
ass(Vdescription
p179
g165
NVamd64
p180
tp181
(dp182
Vhardware
p183
V64-bit PCs
p184
sVhardware-long
p185
VPCs with AMD64, Intel 64 or VIA Nano processors
p186
ss(Vbase
p187
Varm64
p188
tp189
(dp190
Vkernel-arch
p191
Varm64
p192
sVfeaturesets
p193
(lp194
Vnone
p195
ass(Vbase
p196
g127
tp197
(dp198
Vkernel-arch
p199
Vpowerpc
p200
sg30
(lp201
g15
ass(Vbase
p202
Vsparc64
p203
tp204
(dp205
Vkernel-arch
p206
Vsparc
p207
sg30
(lp208
g15
ass(Vimage
p209
g14
tp210
(dp211
Vinstall-stem
p212
Vvmlinux
p213
ss(Vimage
p214
g25
tp215
(dp216
Vsuggests
p217
Vpalo
p218
sVinstall-stem
p219
Vvmlinux
p220
ss(Vimage
p221
g95
tp222
(dp223
Vconfigs
p224
(lp225
sVinstall-stem
p226
Vvmlinuz
p227
sVbootloaders
p228
(lp229
Vs390-tools
p230
ass(Vimage
p231
g155
NVloongson-2f
p232
tp233
(dp234
Vconfigs
p235
(lp236
Vkernelarch-mips/config.loongson-2f
p237
asVrecommends
p238
Vlibc6-loongson2f
p239
ss(Vbuild
p240
Vsh4
p241
tp242
(dp243
Vimage-file
p244
Varch/sh/boot/zImage
p245
ss(Vbase
p246
Vor1k
p247
tp248
(dp249
Vkernel-arch
p250
Vopenrisc
p251
sVfeaturesets
p252
(lp253
ss(Vbase
p254
Vppc64el
p255
tp256
(dp257
Vkernel-arch
p258
Vpowerpc
p259
sg30
(lp260
g15
ass(Vdescription
p261
g102
NVarmmp
p262
tp263
(dp264
Vhardware
p265
VARMv7 multiplatform compatible SoCs
p266
sVhardware-long
p267
VARMv7 multiplatform kernel. See\u000ahttps://wiki.debian.org/DebianKernel/ARMMP for details of supported\u000aplatforms
p268
ss(Vdescription
p269
g14
NVocteon
p270
tp271
(dp272
Vhardware
p273
VOcteon
p274
sVhardware-long
p275
VCavium Networks Octeon
p276
ss(Vimage
p277
g241
NVsh7785lcr
p278
tp279
(dp280
Vrecommends
p281
Vu-boot-tools
p282
sVcheck-size
p283
L4194304L
ss(Vbase
p284
Vx32
p285
tp286
(dp287
Vkernel-arch
p288
Vx86
p289
sVfeaturesets
p290
(lp291
ss(g13
g77
g15
tp292
(dp293
g18
(lp294
Vm68k
p295
asg23
I01
ss(Vbuild
p296
g102
tp297
(dp298
Vvdso
p299
I01
sVimage-file
p300
Varch/arm/boot/zImage
p301
ss(Vimage
p302
g33
NVocteon
p303
tp304
(dp305
Vconfigs
p306
(lp307
Vkernelarch-mips/config.octeon
p308
ass(Vdescription
p309
g33
NV5kc-malta
p310
tp311
(dp312
Vhardware
p313
VMIPS Malta
p314
sVhardware-long
p315
VMIPS Malta boards
p316
ss(Vimage
p317
g203
NVsparc64-smp
p318
tp319
(dp320
Vconfigs
p321
(lp322
Vkernelarch-sparc/config-smp
p323
ass(Vdescription
p324
g188
NVarm64
p325
tp326
(dp327
Vhardware
p328
V64-bit ARMv8 machines
p329
ss(g13
Vpowerpcspe
p330
g15
tp331
(dp332
g18
(lp333
Vpowerpcspe
p334
asg23
I01
ss(Vbuild
p335
g127
tp336
(dp337
Vvdso
p338
I01
sVimage-file
p339
Vvmlinux
p340
ss(Vimage
p341
g102
NVarmmp-lpae
p342
tp343
(dp344
Vconfigs
p345
(lp346
Varmhf/config.armmp
p347
aVarmhf/config.lpae
p348
ass(Vdescription
p349
g33
NVocteon
p350
tp351
(dp352
Vhardware
p353
VOcteon
p354
sVhardware-long
p355
VCavium Networks Octeon
p356
ss(Vdescription
p357
g136
NVpowerpc
p358
tp359
(dp360
Vhardware
p361
Vuniprocessor 32-bit PowerPC
p362
ss(Vrelations
p363
g41
tp364
(dp365
Vheaders%gcc-5
p366
Vlinux-compiler-gcc-5-x86
p367
ss(Vbuild
p368
g95
tp369
(dp370
Vvdso
p371
I01
sVimage-file
p372
Varch/s390/boot/image
p373
ss(Vbuild
p374
g203
tp375
(dp376
Vimage-file
p377
Varch/sparc/boot/zImage
p378
ss(g13
g33
g15
tp379
(dp380
g18
(lp381
V5kc-malta
p382
aVloongson-3
p383
aVocteon
p384
asg23
I01
ss(Vimage
p385
g14
NV4kc-malta
p386
tp387
(dp388
Vconfigs
p389
(lp390
Vkernelarch-mips/config.4kc-malta
p391
ass(Vimage
p392
g33
tp393
(dp394
Vinstall-stem
p395
Vvmlinux
p396
ss(Vimage
p397
g155
NVloongson-3
p398
tp399
(dp400
Vconfigs
p401
(lp402
Vkernelarch-mips/config.loongson-3
p403
ass(g13
g203
g15
tp404
(dp405
g18
(lp406
Vsparc64
p407
aVsparc64-smp
p408
asg23
I01
ss(Vrelations
p409
Varmel
p410
tp411
(dp412
Vheaders%gcc-4.9
p413
Vlinux-compiler-gcc-4.9-arm
p414
ss(Vimage
p415
g63
NV5kc-malta
p416
tp417
(dp418
Vconfigs
p419
(lp420
Vkernelarch-mips/config.5kc-malta
p421
ass(Vimage
p422
g155
NVloongson-2e
p423
tp424
(dp425
Vconfigs
p426
(lp427
Vkernelarch-mips/config.loongson-2e
p428
ass(Vbase
p429
g41
Vrt
p430
tp431
(dp432
Vflavours
p433
(lp434
V686-pae
p435
ass(Vbase
p436
g41
tp437
(dp438
Vkernel-arch
p439
Vx86
p440
sVcompiler
p441
Vgcc-5
p442
sVfeaturesets
p443
(lp444
Vnone
p445
aVrt
p446
ass(g13
g95
g15
tp447
(dp448
g18
(lp449
Vs390x
p450
asg23
I01
ss(Vbuild
p451
g410
tp452
(dp453
Vimage-file
p454
Varch/arm/boot/zImage
p455
ss(Vbase
p456
g63
tp457
(dp458
Vkernel-arch
p459
Vmips
p460
sg30
(lp461
g15
ass(Vdescription
p462
g25
NVparisc64-smp
p463
tp464
(dp465
Vhardware
p466
Vmultiprocessor 64-bit PA-RISC
p467
sVhardware-long
p468
VHP PA-RISC 64-bit SMP systems with support for more than 4 GB RAM
p469
ss(Vrelations
p470
g165
tp471
(dp472
Vheaders%gcc-5
p473
Vlinux-compiler-gcc-5-x86
p474
ss(Vbase
p475
g330
tp476
(dp477
Vkernel-arch
p478
Vpowerpc
p479
sg30
(lp480
g15
ass(Vdescription
p481
g410
NVmarvell
p482
tp483
(dp484
Vhardware
p485
VMarvell Kirkwood/Orion
p486
sVhardware-long
p487
VMarvell Kirkwood based systems (SheevaPlug, QNAP TS-119/TS-219, etc)\u000aand Orion 5181, 5182 and 5281 based systems (QNAP TS-109/TS-209, etc)
p488
ss(Vbuild
p489
g25
tp490
(dp491
Vimage-file
p492
Vvmlinux
p493
ss(Vdescription
p494
g330
tp495
(dp496
Vhardware
p497
V32-bit PowerPC with SPE (instead of AltiVec) with SMP support
p498
ss(Vimage
p499
g5
tp500
(dp501
Vsuggests
p502
Vaboot, fdutils
p503
sVinstall-stem
p504
Vvmlinuz
p505
ss(Vimage
p506
g165
NVamd64
p507
tp508
(dp509
Vconfigs
p510
(lp511
Vkernelarch-x86/config-arch-64
p512
ass(Vimage
p513
g410
NVmarvell
p514
tp515
(dp516
Vcheck-size-with-dtb
p517
I01
sVrecommends
p518
Vu-boot-tools
p519
sVbreaks
p520
Vflash-kernel (<< 3.57~)
p521
sVcheck-size
p522
L2097080L
ss(g13
g5
g15
tp523
(dp524
g18
(lp525
Valpha-generic
p526
aValpha-smp
p527
asg23
I01
ss(g13
g410
g15
tp528
(dp529
g18
(lp530
Vmarvell
p531
aVversatile
p532
asg23
I01
ss(Vdescription
p533
g241
NVsh7751r
p534
tp535
(dp536
Vhardware
p537
Vsh7751r
p538
sVhardware-long
p539
VRenesas SH7751R R2D plus board
p540
ss(Vimage
p541
g41
NV686-pae
p542
tp543
(dp544
Vconfigs
p545
(lp546
Vkernelarch-x86/config-arch-32
p547
aVi386/config.686-pae
p548
asVrecommends
p549
Vlibc6-i686
p550
ss(Vimage
p551
g63
NVocteon
p552
tp553
(dp554
Vconfigs
p555
(lp556
Vkernelarch-mips/config.octeon
p557
ass(Vabi
p558
NVrt
p559
tp560
(dp561
Vignore-changes
p562
(lp563
V*
p564
ass(Vdescription
p565
tp566
(dp567
Vpart-long-up
p568
VThis kernel is not suitable for SMP (multi-processor,\u000amulti-core or hyper-threaded) systems.
p569
sVpart-long-xen
p570
VThis kernel also runs on a Xen hypervisor.\u000aIt supports both privileged (dom0) and unprivileged (domU) operation.
p571
ss(Vbuild
p572
g14
tp573
(dp574
Vimage-file
p575
Vvmlinux
p576
ss(Vimage
p577
g165
tp578
(dp579
Vconfigs
p580
(lp581
sVbreaks
p582
Vxserver-xorg-input-vmmouse (<< 1:13.0.99)
p583
sVinstall-stem
p584
Vvmlinuz
p585
sVbootloaders
p586
(lp587
Vgrub-pc
p588
aVgrub-efi
p589
aVextlinux
p590
ass(Vimage
p591
g63
tp592
(dp593
Vinstall-stem
p594
Vvmlinux
p595
ss(g13
g255
g15
tp596
(dp597
g18
(lp598
Vpowerpc64le
p599
asg23
I01
ss(Vimage
p600
g136
NVpowerpc-smp
p601
tp602
(dp603
Vconfigs
p604
(lp605
Vpowerpc/config.powerpc
p606
aVpowerpc/config.powerpc-smp
p607
ass(Vrelations
p608
g102
tp609
(dp610
Vheaders%gcc-4.9
p611
Vlinux-compiler-gcc-4.9-arm
p612
ss(Vimage
p613
g41
tp614
(dp615
Vconfigs
p616
(lp617
sVbreaks
p618
Vxserver-xorg-input-vmmouse (<< 1:13.0.99)
p619
sVinstall-stem
p620
Vvmlinuz
p621
sVbootloaders
p622
(lp623
Vgrub-pc
p624
aVextlinux
p625
ass(Vbase
p626
tp627
(dp628
Varches
p629
(lp630
Valpha
p631
aVamd64
p632
aVarm64
p633
aVarmel
p634
aVarmhf
p635
aVhppa
p636
aVi386
p637
aVm68k
p638
aVmips
p639
aVmipsel
p640
aVmips64
p641
aVmips64el
p642
aVor1k
p643
aVpowerpc
p644
aVpowerpcspe
p645
aVppc64
p646
aVppc64el
p647
aVs390
p648
aVs390x
p649
aVsh4
p650
aVsparc
p651
aVsparc64
p652
aVx32
p653
asVcompiler
p654
Vgcc-4.9
p655
sVfeaturesets
p656
(lp657
Vnone
p658
aVrt
p659
ass(Vdescription
p660
g77
NVm68k
p661
tp662
(dp663
Vhardware
p664
VMotorola MC68020+ family
p665
ss(Vdescription
p666
g203
NVsparc64-smp
p667
tp668
(dp669
Vhardware
p670
Vmultiprocessor 64-bit UltraSPARC
p671
ss(Vdescription
p672
g33
NVloongson-3
p673
tp674
(dp675
Vhardware
p676
VLoongson 3A/3B
p677
sVhardware-long
p678
VLoongson 3A or 3B based systems (e.g. from Loongson or Lemote)
p679
ss(Vbase
p680
g241
tp681
(dp682
Vkernel-arch
p683
Vsh
p684
sg30
(lp685
g15
ass(Vdescription
p686
g410
NVversatile
p687
tp688
(dp689
Vhardware
p690
VVersatile
p691
sVhardware-long
p692
VVersatile systems (PB, AB, Qemu)
p693
ss(Vdescription
p694
g136
NVpowerpc-smp
p695
tp696
(dp697
Vhardware
p698
Vmultiprocessor 32-bit PowerPC
p699
ss(Vbuild
p700
g41
tp701
(dp702
Vvdso
p703
I01
sVimage-file
p704
Varch/x86/boot/bzImage
p705
ss(Vdescription
p706
g63
NV5kc-malta
p707
tp708
(dp709
Vhardware
p710
VMIPS Malta
p711
sVhardware-long
p712
VMIPS Malta boards
p713
ss(Vdescription
p714
g25
NVparisc
p715
tp716
(dp717
Vhardware
p718
V32-bit PA-RISC
p719
sVhardware-long
p720
VHP PA-RISC 32-bit systems with max 4 GB RAM
p721
ss(Vdescription
p722
g255
NVpowerpc64le
p723
tp724
(dp725
Vhardware
p726
VLittle-endian 64-bit PowerPC
p727
ss(g13
g63
g15
tp728
(dp729
g18
(lp730
V5kc-malta
p731
aVocteon
p732
asg23
I01
ss(Vbuild
p733
g165
tp734
(dp735
Vvdso
p736
I01
sVimage-file
p737
Varch/x86/boot/bzImage
p738
sVdebug-info
p739
I01
ss(Vimage
p740
g188
NVarm64
p741
tp742
(dp743
s(Vdescription
p744
g41
Vnone
p745
V686-pae
p746
tp747
(dp748
Vparts
p749
(lp750
Vxen
p751
ass(Vversion
p752
tp753
(dp754
Vabiname
p755
V4.4.0-kali1
p756
sVabiname_base
p757
V4.4.0
p758
sVsource
p759
V4.4.4-2kali1
p760
sVupstream
p761
V4.4
p762
ss(Vdescription
p763
g41
NV686
p764
tp765
(dp766
Vhardware
p767
Volder PCs
p768
sVhardware-long
p769
VPCs with one or more processors not supporting PAE
p770
ss(Vdescription
p771
g41
NV686-pae
p772
tp773
(dp774
Vparts
p775
(lp776
Vpae
p777
asVhardware
p778
Vmodern PCs
p779
sVhardware-long
p780
VPCs with one or more processors supporting PAE
p781
ss(Vbuild
p782
g136
tp783
(dp784
Vvdso
p785
I01
sVimage-file
p786
Vvmlinux
p787
ss(Vbase
p788
g102
tp789
(dp790
Vkernel-arch
p791
Varm
p792
sg30
(lp793
g15
ass(Vdescription
p794
g155
NVloongson-3
p795
tp796
(dp797
Vhardware
p798
VLoongson 3A/3B
p799
sVhardware-long
p800
VLoongson 3A or 3B based systems (e.g. from Loongson or Lemote)
p801
ss(Vdescription
p802
g14
NV4kc-malta
p803
tp804
(dp805
Vhardware
p806
VMIPS Malta
p807
sVhardware-long
p808
VMIPS Malta boards
p809
ss(Vdescription
p810
g136
NVpowerpc64
p811
tp812
(dp813
Vhardware
p814
V64-bit PowerPC
p815
ss(Vbuild
p816
g63
tp817
(dp818
Vimage-file
p819
Vvmlinux
p820
ss(Vbase
p821
g410
tp822
(dp823
Vkernel-arch
p824
Varm
p825
sg30
(lp826
g15
ass(Vrelations
p827
g25
tp828
(dp829
Vgcc-4.9
p830
Vgcc-4.9 <!stage1>, binutils-hppa64 <!stage1>, gcc-4.9-hppa64 <!stage1>
p831
ss(Vbase
p832
NVrt
p833
tp834
(dp835
Venabled
p836
I00
ss(Vimage
p837
g155
NV5kc-malta
p838
tp839
(dp840
Vconfigs
p841
(lp842
Vkernelarch-mips/config.5kc-malta
p843
ass(Vdescription
p844
g155
NV5kc-malta
p845
tp846
(dp847
Vhardware
p848
VMIPS Malta (64-bit)
p849
sVhardware-long
p850
VMIPS Malta boards (64-bit)
p851
ss(g13
g127
g15
tp852
(dp853
g18
(lp854
Vpowerpc64
p855
asg23
I01
ss(Vbase
p856
g41
g745
tp857
(dp858
Vflavours
p859
(lp860
V686
p861
aV686-pae
p862
ass(Vbase
p863
g136
tp864
(dp865
Vkernel-arch
p866
Vpowerpc
p867
sg30
(lp868
g15
ass(Vabi
p869
g95
tp870
(dp871
Vignore-changes
p872
(lp873
Vmodule:arch/s390/kvm/kvm
p874
ass(Vbase
p875
Vs390
p876
tp877
(dp878
Vkernel-arch
p879
Vs390
p880
sVfeaturesets
p881
(lp882
ss(Vbase
p883
g95
tp884
(dp885
Vkernel-arch
p886
Vs390
p887
sg30
(lp888
g15
ass(Vabi
p889
g25
tp890
(dp891
Vignore-changes
p892
(lp893
Vdrm_dp_*
p894
ass(Vxen
p895
g165
g166
Vamd64
p896
tp897
(dp898
Vflavours
p899
(lp900
Vamd64
p901
ass(Vbuild
p902
g155
tp903
(dp904
Vimage-file
p905
Vvmlinux
p906
ss(Vdescription
p907
g155
NVloongson-2e
p908
tp909
(dp910
Vhardware
p911
VLoongson 2E
p912
sVhardware-long
p913
VLemote Loongson 2E systems
p914
ss(Vdescription
p915
Ng559
tp916
(dp917
Vparts
p918
(lp919
Vrt
p920
asVpart-short-rt
p921
VPREEMPT_RT
p922
sVpart-long-rt
p923
VThis kernel includes the PREEMPT_RT realtime patch set.
p924
ss(Vimage
p925
g330
tp926
(dp927
Vsuggests
p928
Vmkvmlinuz
p929
sVinstall-stem
p930
Vvmlinux
p931
ss(Vimage
p932
g155
NV4kc-malta
p933
tp934
(dp935
Vconfigs
p936
(lp937
Vkernelarch-mips/config.4kc-malta
p938
ass(g13
g136
g15
tp939
(dp940
g18
(lp941
Vpowerpc
p942
aVpowerpc-smp
p943
aVpowerpc64
p944
asg23
I01
ss(Vimage
p945
g77
tp946
(dp947
Vsuggests
p948
Vvmelilo, fdutils
p949
sVinstall-stem
p950
Vvmlinuz
p951
ss(Vimage
p952
g14
NVocteon
p953
tp954
(dp955
Vconfigs
p956
(lp957
Vkernelarch-mips/config.octeon
p958
ass(Vdescription
p959
g95
NVs390x
p960
tp961
(dp962
Vhardware
p963
VIBM zSeries
p964
ss(Vdescription
p965
g155
NVloongson-2f
p966
tp967
(dp968
Vhardware
p969
VLoongson 2F
p970
sVhardware-long
p971
VLemote Loongson 2F systems
p972
ss(Vbuild
p973
g33
tp974
(dp975
Vimage-file
p976
Vvmlinux
p977
ss(Vbase
p978
Vsparc
p979
tp980
(dp981
Vkernel-arch
p982
Vsparc
p983
sVfeaturesets
p984
(lp985
ss(Vbase
p986
g165
tp987
(dp988
Vkernel-arch
p989
Vx86
p990
sVcompiler
p991
Vgcc-5
p992
sVfeaturesets
p993
(lp994
Vnone
p995
aVrt
p996
ass(Vbuild
p997
g188
tp998
(dp999
Vvdso
p1000
I01
sVimage-file
p1001
Varch/arm64/boot/Image
p1002
sVdebug-info
p1003
I01
ss(Vimage
p1004
g155
tp1005
(dp1006
Vinstall-stem
p1007
Vvmlinux
p1008
ss(Vimage
p1009
g14
NV5kc-malta
p1010
tp1011
(dp1012
Vconfigs
p1013
(lp1014
Vkernelarch-mips/config.5kc-malta
p1015
ass(Vimage
p1016
g255
tp1017
(dp1018
Vsuggests
p1019
Vmkvmlinuz
p1020
sVconfigs
p1021
(lp1022
sVinstall-stem
p1023
Vvmlinux
p1024
ss(Vdescription
p1025
g127
NVpowerpc64
p1026
tp1027
(dp1028
Vhardware
p1029
V64-bit PowerPC
p1030
ss(Vimage
p1031
g102
tp1032
(dp1033
Vsuggests
p1034
Vfdutils
p1035
sVconfigs
p1036
(lp1037
Vkernelarch-arm/config
p1038
asVinstall-stem
p1039
Vvmlinuz
p1040
ss(Vbase
p1041
g165
g166
tp1042
(dp1043
Vflavours
p1044
(lp1045
Vamd64
p1046
ass(Vbase
p1047
g165
Vrt
p1048
tp1049
(dp1050
Vflavours
p1051
(lp1052
Vamd64
p1053
ass(Vimage
p1054
g136
tp1055
(dp1056
Vsuggests
p1057
Vmkvmlinuz
p1058
sVconfigs
p1059
(lp1060
sVinstall-stem
p1061
Vvmlinux
p1062
ss(Vabi
p1063
tp1064
(dp1065
Vabiname
p1066
Vkali1
p1067
sVignore-changes
p1068
(lp1069
V__scm_destroy
p1070
aV__scm_send
p1071
aVscm_detach_fds
p1072
aVscm_fp_dup
p1073
aVefivar_validate
p1074
aVget_thermal_instance
p1075
aVinet_csk_reqsk_queue_add
p1076
aVtcp_req_err
p1077
aVmodule:drivers/gpu/drm/drm_kms_helper
p1078
aVmodule:drivers/hv/hv_vmbus
p1079
aVmodule:drivers/md/dm-snapshot
p1080
aVmodule:drivers/mmc/host/sdhci
p1081
aVmodule:drivers/mmc/host/sdhci*
p1082
aVmodule:net/ceph/libceph
p1083
ass(Vbase
p1084
g14
tp1085
(dp1086
Vkernel-arch
p1087
Vmips
p1088
sg30
(lp1089
g15
ass(Vimage
p1090
g410
tp1091
(dp1092
Vsuggests
p1093
Vfdutils
p1094
sVconfigs
p1095
(lp1096
Vkernelarch-arm/config
p1097
aVarmel/config
p1098
asVinstall-stem
p1099
Vvmlinuz
p1100
ss(Vimage
p1101
g41
NV686
p1102
tp1103
(dp1104
Vconfigs
p1105
(lp1106
Vkernelarch-x86/config-arch-32
p1107
aVi386/config.686
p1108
asVrecommends
p1109
Vlibc6-i686
p1110
ss(g13
g241
g15
tp1111
(dp1112
g18
(lp1113
Vsh7751r
p1114
aVsh7785lcr
p1115
asg23
I01
ss(Vimage
p1116
g203
tp1117
(dp1118
Vsuggests
p1119
Vsilo, fdutils
p1120
sVconfigs
p1121
(lp1122
sVinstall-stem
p1123
Vvmlinuz
p1124
ss(Vrelations
p1125
tp1126
(dp1127
Vgcc-4.8
p1128
Vgcc-4.8 <!stage1>
p1129
sVinitramfs-fallback
p1130
Vlinux-initramfs-tool
p1131
sVinitramfs-tools
p1132
Vinitramfs-tools (>= 0.110~)
p1133
sVgcc-5
p1134
Vgcc-5 <!stage1>
p1135
sVgcc-4.9
p1136
Vgcc-4.9 <!stage1>
p1137
ss(Vimage
p1138
g188
tp1139
(dp1140
Vinstall-stem
p1141
Vvmlinuz
p1142
ss(Vbase
p1143
g188
Vnone
p1144
tp1145
(dp1146
Vflavours
p1147
(lp1148
Varm64
p1149
ass(Vrelations
p1150
g95
tp1151
(dp1152
Vheaders%gcc-4.9
p1153
Vlinux-compiler-gcc-4.9-s390
p1154
ss(Vimage
p1155
g127
tp1156
(dp1157
Vsuggests
p1158
Vmkvmlinuz
p1159
sVconfigs
p1160
(lp1161
sVinstall-stem
p1162
Vvmlinux
p1163
ss(Vimage
p1164
g255
NVpowerpc64le
p1165
tp1166
(dp1167
Vconfigs
p1168
(lp1169
Vkernelarch-powerpc/config-arch-64
p1170
aVkernelarch-powerpc/config-arch-64-le
p1171
ass(Vdescription
p1172
g102
NVarmmp-lpae
p1173
tp1174
(dp1175
Vhardware
p1176
VARMv7 multiplatform compatible SoCs supporting LPAE
p1177
sVhardware-long
p1178
VARMv7 multiplatform kernel supporting LPAE. See\u000ahttps://wiki.debian.org/DebianKernel/ARMMP for details of supported\u000aplatforms.
p1179
ss(Vbuild
p1180
g77
tp1181
(dp1182
Vimage-file
p1183
Vvmlinux.gz
p1184
ss(Vdescription
p1185
g241
NVsh7785lcr
p1186
tp1187
(dp1188
Vhardware
p1189
Vsh7785lcr
p1190
sVhardware-long
p1191
VRenesas SH7785 reference board
p1192
ss(Vbuild
p1193
g255
tp1194
(dp1195
Vvdso
p1196
I01
sVimage-file
p1197
Vvmlinux
p1198
ss(g13
g25
g15
tp1199
(dp1200
g18
(lp1201
Vparisc
p1202
aVparisc64-smp
p1203
asg23
I01
ss(Vbuild
p1204
g330
tp1205
(dp1206
Vvdso
p1207
I01
sVimage-file
p1208
Vvmlinux
p1209
ss(Vimage
p1210
g241
tp1211
(dp1212
Vsuggests
p1213
Vfdutils
p1214
sVinstall-stem
p1215
Vvmlinuz
p1216
ss(Vdescription
p1217
g155
NV4kc-malta
p1218
tp1219
(dp1220
Vhardware
p1221
VMIPS Malta
p1222
sVhardware-long
p1223
VMIPS Malta boards
p1224
ss(Vdescription
p1225
g5
NValpha-generic
p1226
tp1227
(dp1228
Vhardware
p1229
VAlpha
p1230
sVhardware-long
p1231
VDEC Alpha systems with extended kernel start address (Wildfire, Titan, Marvel)
p1232
ss(Vimage
p1233
g203
NVsparc64
p1234
tp1235
(dp1236
Vconfigs
p1237
(lp1238
Vkernelarch-sparc/config-up
p1239
ass(Vdescription
p1240
g203
NVsparc64
p1241
tp1242
(dp1243
Vhardware
p1244
Vuniprocessor 64-bit UltraSPARC
p1245
sstp1246
Rp1247
.