ccopy_reg
_reconstructor
p0
(cdebian_linux.config
ConfigCore
p1
c__builtin__
dict
p2
(dp3
(Vxen
p4
Vamd64
p5
Vnone
p6
Vamd64
p7
tp8
(dp9
Vflavours
p10
(lp11
Vamd64
p12
ass(Vbuild
p13
g5
tp14
(dp15
Vvdso
p16
I01
sVdebug-info
p17
I01
sVimage-file
p18
Varch/x86/boot/bzImage
p19
ss(Vrelations
p20
g5
tp21
(dp22
Vheaders%gcc-5
p23
Vlinux-compiler-gcc-5-x86
p24
ss(Vdescription
p25
Vsh4
p26
NVsh7751r
p27
tp28
(dp29
Vhardware
p30
Vsh7751r
p31
sVhardware-long
p32
VRenesas SH7751R R2D plus board
p33
ss(Vdescription
p34
Valpha
p35
NValpha-generic
p36
tp37
(dp38
Vhardware
p39
VAlpha
p40
sVhardware-long
p41
VDEC Alpha systems with extended kernel start address (Wildfire, Titan, Marvel)
p42
ss(Vbase
p43
Varm64
p44
Vnone
p45
tp46
(dp47
Vflavours
p48
(lp49
Varm64
p50
ass(Vbase
p51
Vppc64
p52
tp53
(dp54
Vkernel-arch
p55
Vpowerpc
p56
sVfeaturesets
p57
(lp58
Vnone
p59
ass(Vimage
p60
Vpowerpcspe
p61
tp62
(dp63
Vsuggests
p64
Vmkvmlinuz
p65
sVinstall-stem
p66
Vvmlinux
p67
ss(Vimage
p68
Vi386
p69
NV686-pae
p70
tp71
(dp72
Vrecommends
p73
Vlibc6-i686
p74
sVconfigs
p75
(lp76
Vkernelarch-x86/config-arch-32
p77
aVi386/config.686-pae
p78
ass(Vimage
p79
Vpowerpc
p80
tp81
(dp82
Vsuggests
p83
Vmkvmlinuz
p84
sVinstall-stem
p85
Vvmlinux
p86
sVconfigs
p87
(lp88
ss(Vbase
p89
g69
tp90
(dp91
Vkernel-arch
p92
Vx86
p93
sVfeaturesets
p94
(lp95
Vnone
p96
aVrt
p97
asVcompiler
p98
Vgcc-5
p99
ss(Vbase
p100
Vs390x
p101
tp102
(dp103
Vkernel-arch
p104
Vs390
p105
sg57
(lp106
g59
ass(Vimage
p107
g69
tp108
(dp109
Vbreaks
p110
Vxserver-xorg-input-vmmouse (<< 1:13.0.99)
p111
sVbootloaders
p112
(lp113
Vgrub-pc
p114
aVextlinux
p115
asVinstall-stem
p116
Vvmlinuz
p117
sVconfigs
p118
(lp119
ss(Vimage
p120
Vmipsel
p121
NV4kc-malta
p122
tp123
(dp124
Vconfigs
p125
(lp126
Vkernelarch-mips/config.4kc-malta
p127
ass(Vimage
p128
Vmips64el
p129
tp130
(dp131
Vinstall-stem
p132
Vvmlinux
p133
ss(Vdescription
p134
g69
NV686
p135
tp136
(dp137
Vhardware
p138
Volder PCs
p139
sVhardware-long
p140
VPCs with one or more processors not supporting PAE
p141
ss(Vbuild
p142
g26
tp143
(dp144
Vimage-file
p145
Varch/sh/boot/zImage
p146
ss(Vbase
p147
tp148
(dp149
Varches
p150
(lp151
Valpha
p152
aVamd64
p153
aVarm64
p154
aVarmel
p155
aVarmhf
p156
aVhppa
p157
aVi386
p158
aVm68k
p159
aVmips
p160
aVmipsel
p161
aVmips64
p162
aVmips64el
p163
aVor1k
p164
aVpowerpc
p165
aVpowerpcspe
p166
aVppc64
p167
aVppc64el
p168
aVs390
p169
aVs390x
p170
aVsh4
p171
aVsparc
p172
aVsparc64
p173
aVx32
p174
asVfeaturesets
p175
(lp176
Vnone
p177
aVrt
p178
asVcompiler
p179
Vgcc-4.9
p180
ss(Vbuild
p181
Vm68k
p182
tp183
(dp184
Vimage-file
p185
Vvmlinux.gz
p186
ss(Vimage
p187
g80
NVpowerpc64
p188
tp189
(dp190
Vconfigs
p191
(lp192
Vkernelarch-powerpc/config-arch-64
p193
aVkernelarch-powerpc/config-arch-64-be
p194
ass(Vimage
p195
g69
NV686
p196
tp197
(dp198
Vrecommends
p199
Vlibc6-i686
p200
sVconfigs
p201
(lp202
Vkernelarch-x86/config-arch-32
p203
aVi386/config.686
p204
ass(Vbase
p205
g52
g59
tp206
(dp207
Vimplicit-flavour
p208
I01
sVflavours
p209
(lp210
Vpowerpc64
p211
ass(Vdescription
p212
g80
NVpowerpc-smp
p213
tp214
(dp215
Vhardware
p216
Vmultiprocessor 32-bit PowerPC
p217
ss(Vdescription
p218
g26
NVsh7785lcr
p219
tp220
(dp221
Vhardware
p222
Vsh7785lcr
p223
sVhardware-long
p224
VRenesas SH7785 reference board
p225
ss(Vdescription
p226
g101
NVs390x
p227
tp228
(dp229
Vhardware
p230
VIBM zSeries
p231
ss(Vdescription
p232
g129
NVocteon
p233
tp234
(dp235
Vhardware
p236
VOcteon
p237
sVhardware-long
p238
VCavium Networks Octeon
p239
ss(Vimage
p240
g44
NVarm64
p241
tp242
(dp243
s(Vdescription
p244
g69
Vnone
p245
V686-pae
p246
tp247
(dp248
Vparts
p249
(lp250
Vxen
p251
ass(Vimage
p252
Vmips64
p253
tp254
(dp255
Vinstall-stem
p256
Vvmlinux
p257
ss(Vimage
p258
g121
NVloongson-2e
p259
tp260
(dp261
Vconfigs
p262
(lp263
Vkernelarch-mips/config.loongson-2e
p264
ass(Vbuild
p265
g80
tp266
(dp267
Vvdso
p268
I01
sVimage-file
p269
Vvmlinux
p270
ss(Vimage
p271
g253
NVocteon
p272
tp273
(dp274
Vconfigs
p275
(lp276
Vkernelarch-mips/config.octeon
p277
ass(Vdescription
p278
g52
NVpowerpc64
p279
tp280
(dp281
Vhardware
p282
V64-bit PowerPC
p283
ss(Vdescription
p284
g121
NVloongson-2f
p285
tp286
(dp287
Vhardware
p288
VLoongson 2F
p289
sVhardware-long
p290
VLemote Loongson 2F systems
p291
ss(Vbase
p292
Vx32
p293
tp294
(dp295
Vkernel-arch
p296
Vx86
p297
sVfeaturesets
p298
(lp299
ss(Vimage
p300
g121
NV5kc-malta
p301
tp302
(dp303
Vconfigs
p304
(lp305
Vkernelarch-mips/config.5kc-malta
p306
ass(Vdescription
p307
Vsparc64
p308
NVsparc64-smp
p309
tp310
(dp311
Vhardware
p312
Vmultiprocessor 64-bit UltraSPARC
p313
ss(Vdescription
p314
Vmips
p315
NV5kc-malta
p316
tp317
(dp318
Vhardware
p319
VMIPS Malta (64-bit)
p320
sVhardware-long
p321
VMIPS Malta boards (64-bit)
p322
ss(Vdescription
p323
g308
NVsparc64
p324
tp325
(dp326
Vhardware
p327
Vuniprocessor 64-bit UltraSPARC
p328
ss(Vimage
p329
g308
NVsparc64-smp
p330
tp331
(dp332
Vconfigs
p333
(lp334
Vkernelarch-sparc/config-smp
p335
ass(Vbase
p336
Vsparc
p337
tp338
(dp339
Vkernel-arch
p340
Vsparc
p341
sVfeaturesets
p342
(lp343
ss(Vimage
p344
g101
tp345
(dp346
Vbootloaders
p347
(lp348
Vs390-tools
p349
asVinstall-stem
p350
Vvmlinuz
p351
sVconfigs
p352
(lp353
ss(Vimage
p354
Varmel
p355
tp356
(dp357
Vsuggests
p358
Vfdutils
p359
sVinstall-stem
p360
Vvmlinuz
p361
sVconfigs
p362
(lp363
Vkernelarch-arm/config
p364
aVarmel/config
p365
ass(Vbuild
p366
g101
NVs390x
p367
tp368
(dp369
Vdebug-info
p370
I01
ss(Vbuild
p371
g44
tp372
(dp373
Vvdso
p374
I01
sVdebug-info
p375
I01
sVimage-file
p376
Varch/arm64/boot/Image
p377
ss(Vbuild
p378
Vppc64el
p379
tp380
(dp381
Vvdso
p382
I01
sVimage-file
p383
Vvmlinux
p384
ss(g205
g355
g59
tp385
(dp386
g208
I01
sg209
(lp387
Vmarvell
p388
aVversatile
p389
ass(Vdescription
p390
g44
NVarm64
p391
tp392
(dp393
Vhardware
p394
V64-bit ARMv8 machines
p395
ss(Vimage
p396
g5
NVamd64
p397
tp398
(dp399
Vconfigs
p400
(lp401
Vkernelarch-x86/config-arch-64
p402
ass(Vbase
p403
g253
tp404
(dp405
Vkernel-arch
p406
Vmips
p407
sg57
(lp408
g59
ass(Vimage
p409
g308
NVsparc64
p410
tp411
(dp412
Vconfigs
p413
(lp414
Vkernelarch-sparc/config-up
p415
ass(Vdescription
p416
g129
NVloongson-3
p417
tp418
(dp419
Vhardware
p420
VLoongson 3A/3B
p421
sVhardware-long
p422
VLoongson 3A or 3B based systems (e.g. from Loongson or Lemote)
p423
ss(Vbuild
p424
g69
NV686-pae
p425
tp426
(dp427
Vdebug-info
p428
I01
ss(Vimage
p429
g52
NVpowerpc64
p430
tp431
(dp432
Vconfigs
p433
(lp434
Vkernelarch-powerpc/config-arch-64
p435
aVkernelarch-powerpc/config-arch-64-be
p436
ass(Vdescription
p437
Varmhf
p438
NVarmmp-lpae
p439
tp440
(dp441
Vhardware
p442
VARMv7 multiplatform compatible SoCs supporting LPAE
p443
sVhardware-long
p444
VARMv7 multiplatform kernel supporting LPAE. See\u000ahttps://wiki.debian.org/DebianKernel/ARMMP for details of supported\u000aplatforms.
p445
ss(Vbase
p446
NVrt
p447
tp448
(dp449
Venabled
p450
I00
ss(Vbase
p451
g182
tp452
(dp453
Vkernel-arch
p454
Vm68k
p455
sVcflags
p456
V-ffreestanding
p457
sg57
(lp458
g59
asVcompiler
p459
Vgcc-4.8
p460
ss(Vdescription
p461
g355
NVmarvell
p462
tp463
(dp464
Vhardware
p465
VMarvell Kirkwood/Orion
p466
sVhardware-long
p467
VMarvell Kirkwood based systems (SheevaPlug, QNAP TS-119/TS-219, etc)\u000aand Orion 5181, 5182 and 5281 based systems (QNAP TS-109/TS-209, etc)
p468
ss(Vbuild
p469
g438
tp470
(dp471
Vvdso
p472
I01
sVimage-file
p473
Varch/arm/boot/zImage
p474
ss(Vbase
p475
g26
tp476
(dp477
Vkernel-arch
p478
Vsh
p479
sg57
(lp480
g59
ass(Vdescription
p481
g121
NVloongson-3
p482
tp483
(dp484
Vhardware
p485
VLoongson 3A/3B
p486
sVhardware-long
p487
VLoongson 3A or 3B based systems (e.g. from Loongson or Lemote)
p488
ss(g205
g101
g59
tp489
(dp490
g208
I01
sg209
(lp491
Vs390x
p492
ass(g205
g182
g59
tp493
(dp494
g208
I01
sg209
(lp495
Vm68k
p496
ass(Vrelations
p497
tp498
(dp499
Vinitramfs-tools
p500
Vinitramfs-tools (>= 0.110~)
p501
sVgcc-4.8
p502
Vgcc-4.8 <!stage1>
p503
sVgcc-5
p504
Vgcc-5 <!stage1>
p505
sVinitramfs-fallback
p506
Vlinux-initramfs-tool
p507
sVgcc-4.9
p508
Vgcc-4.9 <!stage1>
p509
ss(Vdescription
p510
g438
NVarmmp
p511
tp512
(dp513
Vhardware
p514
VARMv7 multiplatform compatible SoCs
p515
sVhardware-long
p516
VARMv7 multiplatform kernel. See\u000ahttps://wiki.debian.org/DebianKernel/ARMMP for details of supported\u000aplatforms
p517
ss(Vbuild
p518
g52
tp519
(dp520
Vvdso
p521
I01
sVimage-file
p522
Vvmlinux
p523
ss(Vbuild
p524
g253
tp525
(dp526
Vimage-file
p527
Vvmlinux
p528
ss(Vbase
p529
g355
tp530
(dp531
Vkernel-arch
p532
Varm
p533
sg57
(lp534
g59
ass(g205
g80
g59
tp535
(dp536
g208
I01
sg209
(lp537
Vpowerpc
p538
aVpowerpc-smp
p539
aVpowerpc64
p540
ass(Vbuild
p541
g355
tp542
(dp543
Vimage-file
p544
Varch/arm/boot/zImage
p545
ss(Vdescription
p546
g121
NV4kc-malta
p547
tp548
(dp549
Vhardware
p550
VMIPS Malta
p551
sVhardware-long
p552
VMIPS Malta boards
p553
ss(Vimage
p554
g26
NVsh7785lcr
p555
tp556
(dp557
Vrecommends
p558
Vu-boot-tools
p559
sVcheck-size
p560
L4194304L
ss(Vdescription
p561
g69
tp562
(dp563
Vpart-long-pae
p564
VThis kernel requires PAE (Physical Address Extension).\u000aThis feature is supported by the Intel Pentium Pro/II/III/4/4M/D, Xeon,\u000aCore and Atom; AMD Geode NX, Athlon (K7), Duron, Opteron, Sempron,\u000aTurion or Phenom; Transmeta Efficeon; VIA C7; and some other processors.
p565
ss(Vimage
p566
g121
NVloongson-3
p567
tp568
(dp569
Vconfigs
p570
(lp571
Vkernelarch-mips/config.loongson-3
p572
ass(Vabi
p573
NVrt
p574
tp575
(dp576
Vignore-changes
p577
(lp578
V*
p579
ass(Vdescription
p580
g69
NV686-pae
p581
tp582
(dp583
Vhardware
p584
Vmodern PCs
p585
sVparts
p586
(lp587
Vpae
p588
asVhardware-long
p589
VPCs with one or more processors supporting PAE
p590
ss(Vbase
p591
g438
tp592
(dp593
Vkernel-arch
p594
Varm
p595
sg57
(lp596
g59
ass(Vbase
p597
g5
Vrt
p598
tp599
(dp600
Vflavours
p601
(lp602
Vamd64
p603
ass(Vimage
p604
g355
NVmarvell
p605
tp606
(dp607
Vrecommends
p608
Vu-boot-tools
p609
sVcheck-size
p610
L2097080L
sVcheck-size-with-dtb
p611
I01
sVbreaks
p612
Vflash-kernel (<< 3.57~)
p613
ss(Vbuild
p614
g315
tp615
(dp616
Vimage-file
p617
Vvmlinux
p618
ss(Vversion
p619
tp620
(dp621
Vabiname_base
p622
V4.4.0
p623
sVsource
p624
V4.4.2-3kali1
p625
sVabiname
p626
V4.4.0-kali1
p627
sVupstream
p628
V4.4
p629
ss(Vbase
p630
g308
tp631
(dp632
Vkernel-arch
p633
Vsparc
p634
sg57
(lp635
g59
ass(Vrelations
p636
g101
tp637
(dp638
Vheaders%gcc-4.9
p639
Vlinux-compiler-gcc-4.9-s390
p640
ss(g205
g26
g59
tp641
(dp642
g208
I01
sg209
(lp643
Vsh7751r
p644
aVsh7785lcr
p645
ass(Vimage
p646
g52
tp647
(dp648
Vsuggests
p649
Vmkvmlinuz
p650
sVinstall-stem
p651
Vvmlinux
p652
sVconfigs
p653
(lp654
ss(g205
g315
g59
tp655
(dp656
g208
I01
sg209
(lp657
V4kc-malta
p658
aV5kc-malta
p659
aVocteon
p660
ass(Vbuild
p661
Vhppa
p662
tp663
(dp664
Vimage-file
p665
Vvmlinux
p666
ss(Vdescription
p667
g5
g6
Vamd64
p668
tp669
(dp670
Vparts
p671
(lp672
Vxen
p673
ass(Vbase
p674
g662
NVparisc64-smp
p675
tp676
(dp677
Voverride-host-type
p678
Vhppa64-linux-gnu
p679
sVcflags
p680
V-fno-cse-follow-jumps
p681
ss(g205
g662
g59
tp682
(dp683
g208
I01
sg209
(lp684
Vparisc
p685
aVparisc64-smp
p686
ass(Vbase
p687
g315
tp688
(dp689
Vkernel-arch
p690
Vmips
p691
sg57
(lp692
g59
ass(Vbuild
p693
g308
tp694
(dp695
Vimage-file
p696
Varch/sparc/boot/zImage
p697
ss(Vdescription
p698
g182
NVm68k
p699
tp700
(dp701
Vhardware
p702
VMotorola MC68020+ family
p703
ss(Vimage
p704
g315
tp705
(dp706
Vinstall-stem
p707
Vvmlinux
p708
ss(Vbuild
p709
g129
tp710
(dp711
Vimage-file
p712
Vvmlinux
p713
ss(Vbase
p714
g5
tp715
(dp716
Vkernel-arch
p717
Vx86
p718
sVfeaturesets
p719
(lp720
Vnone
p721
aVrt
p722
asVcompiler
p723
Vgcc-5
p724
ss(Vbase
p725
g121
tp726
(dp727
Vkernel-arch
p728
Vmips
p729
sg57
(lp730
g59
ass(Vimage
p731
g662
tp732
(dp733
Vsuggests
p734
Vpalo
p735
sVinstall-stem
p736
Vvmlinux
p737
ss(Vdescription
p738
g253
NVocteon
p739
tp740
(dp741
Vhardware
p742
VOcteon
p743
sVhardware-long
p744
VCavium Networks Octeon
p745
ss(Vimage
p746
tp747
(dp748
Vinitramfs-generators
p749
(lp750
Vinitramfs-tools
p751
aVinitramfs-fallback
p752
ass(Vdescription
p753
g121
NV5kc-malta
p754
tp755
(dp756
Vhardware
p757
VMIPS Malta (64-bit)
p758
sVhardware-long
p759
VMIPS Malta boards (64-bit)
p760
ss(Vdescription
p761
g662
NVparisc
p762
tp763
(dp764
Vhardware
p765
V32-bit PA-RISC
p766
sVhardware-long
p767
VHP PA-RISC 32-bit systems with max 4 GB RAM
p768
ss(Vimage
p769
g121
NVloongson-2f
p770
tp771
(dp772
Vrecommends
p773
Vlibc6-loongson2f
p774
sVconfigs
p775
(lp776
Vkernelarch-mips/config.loongson-2f
p777
ass(Vrelations
p778
g438
tp779
(dp780
Vheaders%gcc-4.9
p781
Vlinux-compiler-gcc-4.9-arm
p782
ss(Vimage
p783
g35
tp784
(dp785
Vsuggests
p786
Vaboot, fdutils
p787
sVinstall-stem
p788
Vvmlinuz
p789
ss(g205
g438
g59
tp790
(dp791
g208
I01
sg209
(lp792
Varmmp
p793
aVarmmp-lpae
p794
ass(Vdescription
p795
g35
NValpha-smp
p796
tp797
(dp798
Vhardware
p799
VAlpha SMP
p800
sVhardware-long
p801
VDEC Alpha SMP systems with extended kernel start address (Wildfire, Titan, Marvel)
p802
ss(Vabi
p803
tp804
(dp805
Vabiname
p806
Vkali1
p807
ss(Vbase
p808
Vor1k
p809
tp810
(dp811
Vkernel-arch
p812
Vopenrisc
p813
sVfeaturesets
p814
(lp815
ss(Vimage
p816
g315
NV4kc-malta
p817
tp818
(dp819
Vconfigs
p820
(lp821
Vkernelarch-mips/config.4kc-malta
p822
ass(Vimage
p823
g379
tp824
(dp825
Vsuggests
p826
Vmkvmlinuz
p827
sVinstall-stem
p828
Vvmlinux
p829
sVconfigs
p830
(lp831
ss(Vdescription
p832
g129
NV5kc-malta
p833
tp834
(dp835
Vhardware
p836
VMIPS Malta
p837
sVhardware-long
p838
VMIPS Malta boards
p839
ss(Vdescription
p840
g121
NVloongson-2e
p841
tp842
(dp843
Vhardware
p844
VLoongson 2E
p845
sVhardware-long
p846
VLemote Loongson 2E systems
p847
ss(Vdescription
p848
g80
NVpowerpc
p849
tp850
(dp851
Vhardware
p852
Vuniprocessor 32-bit PowerPC
p853
ss(Vdescription
p854
g253
NV5kc-malta
p855
tp856
(dp857
Vhardware
p858
VMIPS Malta
p859
sVhardware-long
p860
VMIPS Malta boards
p861
ss(Vdescription
p862
g355
NVversatile
p863
tp864
(dp865
Vhardware
p866
VVersatile
p867
sVhardware-long
p868
VVersatile systems (PB, AB, Qemu)
p869
ss(Vdescription
p870
g315
NV4kc-malta
p871
tp872
(dp873
Vhardware
p874
VMIPS Malta
p875
sVhardware-long
p876
VMIPS Malta boards
p877
ss(Vbuild
p878
g121
tp879
(dp880
Vimage-file
p881
Vvmlinux
p882
ss(g205
g308
g59
tp883
(dp884
g208
I01
sg209
(lp885
Vsparc64
p886
aVsparc64-smp
p887
ass(Vbase
p888
g69
Vrt
p889
tp890
(dp891
Vflavours
p892
(lp893
V686-pae
p894
ass(Vimage
p895
g26
tp896
(dp897
Vsuggests
p898
Vfdutils
p899
sVinstall-stem
p900
Vvmlinuz
p901
ss(Vdescription
p902
g379
NVpowerpc64le
p903
tp904
(dp905
Vhardware
p906
VLittle-endian 64-bit PowerPC
p907
ss(g205
g129
g59
tp908
(dp909
g208
I01
sg209
(lp910
V5kc-malta
p911
aVloongson-3
p912
aVocteon
p913
ass(Vbuild
p914
g61
tp915
(dp916
Vvdso
p917
I01
sVimage-file
p918
Vvmlinux
p919
ss(Vimage
p920
g80
NVpowerpc-smp
p921
tp922
(dp923
Vconfigs
p924
(lp925
Vpowerpc/config.powerpc
p926
aVpowerpc/config.powerpc-smp
p927
ass(Vbuild
p928
g69
tp929
(dp930
Vvdso
p931
I01
sVimage-file
p932
Varch/x86/boot/bzImage
p933
ss(g205
g253
g59
tp934
(dp935
g208
I01
sg209
(lp936
V5kc-malta
p937
aVocteon
p938
ass(Vbuild
p939
g35
tp940
(dp941
Vimage-file
p942
Varch/alpha/boot/vmlinux.gz
p943
ss(Vbase
p944
g35
tp945
(dp946
Vkernel-arch
p947
Valpha
p948
sg57
(lp949
g59
ass(Vimage
p950
g315
NV5kc-malta
p951
tp952
(dp953
Vconfigs
p954
(lp955
Vkernelarch-mips/config.5kc-malta
p956
ass(Vimage
p957
g129
NV5kc-malta
p958
tp959
(dp960
Vconfigs
p961
(lp962
Vkernelarch-mips/config.5kc-malta
p963
ass(Vimage
p964
g379
NVpowerpc64le
p965
tp966
(dp967
Vconfigs
p968
(lp969
Vkernelarch-powerpc/config-arch-64
p970
aVkernelarch-powerpc/config-arch-64-le
p971
ass(Vbase
p972
Vs390
p973
tp974
(dp975
Vkernel-arch
p976
Vs390
p977
sVfeaturesets
p978
(lp979
ss(Vrelations
p980
g662
tp981
(dp982
Vgcc-4.9
p983
Vgcc-4.9 <!stage1>, binutils-hppa64 <!stage1>, gcc-4.9-hppa64 <!stage1>
p984
ss(g205
g379
g59
tp985
(dp986
g208
I01
sg209
(lp987
Vpowerpc64le
p988
ass(Vimage
p989
g5
tp990
(dp991
Vbreaks
p992
Vxserver-xorg-input-vmmouse (<< 1:13.0.99)
p993
sVbootloaders
p994
(lp995
Vgrub-pc
p996
aVgrub-efi
p997
aVextlinux
p998
asVinstall-stem
p999
Vvmlinuz
p1000
sVconfigs
p1001
(lp1002
ss(Vbase
p1003
g379
tp1004
(dp1005
Vkernel-arch
p1006
Vpowerpc
p1007
sg57
(lp1008
g59
ass(g205
g121
g59
tp1009
(dp1010
g208
I01
sg209
(lp1011
V4kc-malta
p1012
aV5kc-malta
p1013
aVloongson-2e
p1014
aVloongson-2f
p1015
aVloongson-3
p1016
ass(Vimage
p1017
g308
tp1018
(dp1019
Vsuggests
p1020
Vsilo, fdutils
p1021
sVinstall-stem
p1022
Vvmlinuz
p1023
sVconfigs
p1024
(lp1025
ss(Vimage
p1026
g129
NVloongson-3
p1027
tp1028
(dp1029
Vconfigs
p1030
(lp1031
Vkernelarch-mips/config.loongson-3
p1032
ass(Vimage
p1033
g438
tp1034
(dp1035
Vsuggests
p1036
Vfdutils
p1037
sVinstall-stem
p1038
Vvmlinuz
p1039
sVconfigs
p1040
(lp1041
Vkernelarch-arm/config
p1042
ass(Vbase
p1043
g129
tp1044
(dp1045
Vkernel-arch
p1046
Vmips
p1047
sg57
(lp1048
g59
ass(Vrelations
p1049
g69
tp1050
(dp1051
Vheaders%gcc-5
p1052
Vlinux-compiler-gcc-5-x86
p1053
ss(Vimage
p1054
g315
NVocteon
p1055
tp1056
(dp1057
Vconfigs
p1058
(lp1059
Vkernelarch-mips/config.octeon
p1060
ass(Vimage
p1061
g101
NVs390x
p1062
tp1063
(dp1064
Vconfigs
p1065
(lp1066
Vkernelarch-s390/config-arch-64
p1067
ass(Vimage
p1068
g438
NVarmmp-lpae
p1069
tp1070
(dp1071
Vconfigs
p1072
(lp1073
Varmhf/config.armmp
p1074
aVarmhf/config.lpae
p1075
ass(Vdescription
p1076
tp1077
(dp1078
Vpart-long-xen
p1079
VThis kernel also runs on a Xen hypervisor.\u000aIt supports both privileged (dom0) and unprivileged (domU) operation.
p1080
sVpart-long-up
p1081
VThis kernel is not suitable for SMP (multi-processor,\u000amulti-core or hyper-threaded) systems.
p1082
ss(Vbase
p1083
g80
tp1084
(dp1085
Vkernel-arch
p1086
Vpowerpc
p1087
sg57
(lp1088
g59
ass(Vdescription
p1089
g315
NVocteon
p1090
tp1091
(dp1092
Vhardware
p1093
VOcteon
p1094
sVhardware-long
p1095
VCavium Networks Octeon
p1096
ss(Vdescription
p1097
Ng574
tp1098
(dp1099
Vpart-long-rt
p1100
VThis kernel includes the PREEMPT_RT realtime patch set.
p1101
sVparts
p1102
(lp1103
Vrt
p1104
asVpart-short-rt
p1105
VPREEMPT_RT
p1106
ss(Vdescription
p1107
g662
NVparisc64-smp
p1108
tp1109
(dp1110
Vhardware
p1111
Vmultiprocessor 64-bit PA-RISC
p1112
sVhardware-long
p1113
VHP PA-RISC 64-bit SMP systems with support for more than 4 GB RAM
p1114
ss(g205
g35
g59
tp1115
(dp1116
g208
I01
sg209
(lp1117
Valpha-generic
p1118
aValpha-smp
p1119
ass(Vdescription
p1120
g5
NVamd64
p1121
tp1122
(dp1123
Vhardware
p1124
V64-bit PCs
p1125
sVhardware-long
p1126
VPCs with AMD64, Intel 64 or VIA Nano processors
p1127
ss(Vimage
p1128
g44
tp1129
(dp1130
Vinstall-stem
p1131
Vvmlinuz
p1132
ss(Vbase
p1133
g44
tp1134
(dp1135
Vkernel-arch
p1136
Varm64
p1137
sVfeaturesets
p1138
(lp1139
Vnone
p1140
ass(g205
g61
g59
tp1141
(dp1142
g208
I01
sg209
(lp1143
Vpowerpcspe
p1144
ass(Vbase
p1145
g61
tp1146
(dp1147
Vkernel-arch
p1148
Vpowerpc
p1149
sg57
(lp1150
g59
ass(Vbase
p1151
g69
g245
tp1152
(dp1153
Vflavours
p1154
(lp1155
V686
p1156
aV686-pae
p1157
ass(Vrelations
p1158
g355
tp1159
(dp1160
Vheaders%gcc-4.9
p1161
Vlinux-compiler-gcc-4.9-arm
p1162
ss(Vimage
p1163
g182
tp1164
(dp1165
Vsuggests
p1166
Vvmelilo, fdutils
p1167
sVinstall-stem
p1168
Vvmlinuz
p1169
ss(Vbuild
p1170
g101
tp1171
(dp1172
Vvdso
p1173
I01
sVimage-file
p1174
Varch/s390/boot/image
p1175
ss(Vdescription
p1176
g61
tp1177
(dp1178
Vhardware
p1179
V32-bit PowerPC with SPE (instead of AltiVec) with SMP support
p1180
ss(Vimage
p1181
g121
tp1182
(dp1183
Vinstall-stem
p1184
Vvmlinux
p1185
ss(Vbase
p1186
g662
tp1187
(dp1188
Vkernel-arch
p1189
Vparisc
p1190
sg57
(lp1191
g59
ass(Vimage
p1192
g253
NV5kc-malta
p1193
tp1194
(dp1195
Vconfigs
p1196
(lp1197
Vkernelarch-mips/config.5kc-malta
p1198
ass(Vbase
p1199
g5
g6
tp1200
(dp1201
Vflavours
p1202
(lp1203
Vamd64
p1204
ass(Vdescription
p1205
g80
NVpowerpc64
p1206
tp1207
(dp1208
Vhardware
p1209
V64-bit PowerPC
p1210
ss(Vimage
p1211
g129
NVocteon
p1212
tp1213
(dp1214
Vconfigs
p1215
(lp1216
Vkernelarch-mips/config.octeon
p1217
asstp1218
Rp1219
.