ccopy_reg
_reconstructor
p0
(cdebian_linux.config
ConfigCore
p1
c__builtin__
dict
p2
(dp3
(S'image'
p4
S'amd64'
p5
tp6
(dp7
S'install-stem'
p8
S'vmlinuz'
p9
sS'configs'
p10
(lp11
sS'bootloaders'
p12
(lp13
S'grub-pc'
p14
aS'grub-efi'
p15
aS'extlinux'
p16
ass(S'description'
p17
S'i386'
p18
NS'686-pae'
p19
tp20
(dp21
S'hardware'
p22
S'modern PCs'
p23
sS'parts'
p24
(lp25
S'pae'
p26
asS'hardware-long'
p27
S'PCs with one or more processors supporting PAE'
p28
ss(S'base'
p29
g5
S'none'
p30
tp31
(dp32
S'flavours'
p33
(lp34
S'amd64'
p35
ass(S'image'
p36
S'mipsel'
p37
NS'loongson-2f'
p38
tp39
(dp40
S'configs'
p41
(lp42
S'kernelarch-mips/config.loongson-2f'
p43
asS'recommends'
p44
S'libc6-loongson2f'
p45
ss(S'description'
p46
g37
NS'loongson-2f'
p47
tp48
(dp49
S'hardware'
p50
S'Loongson 2F'
p51
sS'hardware-long'
p52
S'Lemote Loongson 2F systems'
p53
ss(S'image'
p54
S'mips'
p55
NS'octeon'
p56
tp57
(dp58
S'configs'
p59
(lp60
S'kernelarch-mips/config.octeon'
p61
ass(S'image'
p62
S'mips64'
p63
NS'5kc-malta'
p64
tp65
(dp66
S'configs'
p67
(lp68
S'kernelarch-mips/config.5kc-malta'
p69
ass(S'image'
p70
S'ia64'
p71
tp72
(dp73
S'suggests'
p74
S'fdutils'
p75
sS'bootloaders'
p76
(lp77
S'elilo'
p78
asS'install-stem'
p79
S'vmlinuz'
p80
ss(S'image'
p81
g55
NS'r5k-ip32'
p82
tp83
(dp84
S'configs'
p85
(lp86
S'kernelarch-mips/config.r5k-ip32'
p87
ass(S'description'
p88
S'sparc64'
p89
NS'sparc64'
p90
tp91
(dp92
S'hardware'
p93
S'uniprocessor 64-bit UltraSPARC'
p94
ss(S'description'
p95
S'armhf'
p96
NS'armmp'
p97
tp98
(dp99
S'hardware'
p100
S'ARMv7 multiplatform compatible SoCs'
p101
sS'hardware-long'
p102
S'ARMv7 multiplatform kernel. See\nhttps://wiki.debian.org/DebianKernel/ARMMP for details of supported\nplatforms'
p103
ss(S'version'
p104
tp105
(dp106
S'abiname'
p107
S'3.16.0-4'
p108
sS'source'
p109
V3.16.7-2
p110
sS'upstream'
p111
S'3.16'
p112
ss(S'description'
p113
g5
g30
S'amd64'
p114
tp115
(dp116
S'parts'
p117
(lp118
S'xen'
p119
ass(S'description'
p120
S'mips64el'
p121
NS'octeon'
p122
tp123
(dp124
S'hardware'
p125
S'Octeon'
p126
sS'hardware-long'
p127
S'Cavium Networks Octeon'
p128
ss(S'description'
p129
g71
NS'mckinley'
p130
tp131
(dp132
S'hardware'
p133
S'Itanium II'
p134
ss(S'base'
p135
S'ppc64'
p136
S'none'
p137
tp138
(dp139
S'implicit-flavour'
p140
I01
sS'flavours'
p141
(lp142
S'powerpc64'
p143
ass(S'image'
p144
S'sparc'
p145
NS'sparc64'
p146
tp147
(dp148
S'configs'
p149
(lp150
S'kernelarch-sparc/config-up'
p151
ass(S'image'
p152
g55
NS'5kc-malta'
p153
tp154
(dp155
S'configs'
p156
(lp157
S'kernelarch-mips/config.5kc-malta'
p158
ass(S'description'
p159
S'armel'
p160
NS'orion5x'
p161
tp162
(dp163
S'hardware'
p164
S'Marvell Orion'
p165
sS'hardware-long'
p166
S'Marvell Orion 5181, 5182 and 5281 based systems (QNAP TS-109/TS-209, etc)'
p167
ss(S'description'
p168
g63
NS'octeon'
p169
tp170
(dp171
S'hardware'
p172
S'Octeon'
p173
sS'hardware-long'
p174
S'Cavium Networks Octeon'
p175
ss(S'base'
p176
S'alpha'
p177
tp178
(dp179
S'kernel-arch'
p180
S'alpha'
p181
sS'featuresets'
p182
(lp183
g137
ass(S'description'
p184
S'powerpc'
p185
NS'powerpc64'
p186
tp187
(dp188
S'hardware'
p189
S'64-bit PowerPC'
p190
ss(S'description'
p191
g177
NS'alpha-generic'
p192
tp193
(dp194
S'hardware'
p195
S'Alpha'
p196
sS'hardware-long'
p197
S'DEC Alpha systems with extended kernel start address (Wildfire, Titan, Marvel)'
p198
ss(g135
g96
g137
tp199
(dp200
g140
I01
sg141
(lp201
S'armmp'
p202
aS'armmp-lpae'
p203
ass(S'description'
p204
g160
NS'ixp4xx'
p205
tp206
(dp207
S'hardware'
p208
S'IXP4xx'
p209
sS'hardware-long'
p210
S'IXP4xx based systems (Linksys NSLU2, etc)'
p211
ss(S'base'
p212
g18
S'rt'
p213
tp214
(dp215
S'flavours'
p216
(lp217
S'686-pae'
p218
ass(S'image'
p219
g160
NS'orion5x'
p220
tp221
(dp222
S'check-size'
p223
S'1572792'
p224
sS'configs'
p225
(lp226
S'armel/config-reduced'
p227
aS'armel/config.orion5x'
p228
asS'recommends'
p229
S'uboot-mkimage'
p230
ss(S'image'
p231
S'ppc64el'
p232
tp233
(dp234
S'suggests'
p235
S'mkvmlinuz'
p236
sS'configs'
p237
(lp238
sS'install-stem'
p239
S'vmlinux'
p240
ss(S'image'
p241
g37
NS'sb1-bcm91250a'
p242
tp243
(dp244
S'configs'
p245
(lp246
S'kernelarch-mips/config.sb1-bcm91250a'
p247
ass(S'description'
p248
g55
NS'r5k-ip32'
p249
tp250
(dp251
S'hardware'
p252
S'SGI IP32'
p253
sS'hardware-long'
p254
S'SGI IP32 systems (O2)'
p255
ss(S'relations'
p256
g18
tp257
(dp258
S'headers%gcc-4.8'
p259
S'linux-compiler-gcc-4.8-x86'
p260
ss(S'description'
p261
S'm68k'
p262
NS'm68k'
p263
tp264
(dp265
S'hardware'
p266
S'Motorola MC68020+ family'
p267
ss(S'image'
p268
g121
NS'sb1-bcm91250a'
p269
tp270
(dp271
S'configs'
p272
(lp273
S'kernelarch-mips/config.sb1-bcm91250a'
p274
ass(S'image'
p275
g185
tp276
(dp277
S'suggests'
p278
S'mkvmlinuz'
p279
sS'configs'
p280
(lp281
sS'install-stem'
p282
S'vmlinux'
p283
ss(S'build'
p284
S's390'
p285
NS's390x'
p286
tp287
(dp288
S'debug-info'
p289
I01
ss(S'base'
p290
g5
S'rt'
p291
tp292
(dp293
S'flavours'
p294
(lp295
S'amd64'
p296
ass(S'description'
p297
g55
NS'octeon'
p298
tp299
(dp300
S'hardware'
p301
S'Octeon'
p302
sS'hardware-long'
p303
S'Cavium Networks Octeon'
p304
ss(S'build'
p305
g136
tp306
(dp307
S'image-file'
p308
S'vmlinux'
p309
ss(S'description'
p310
g37
NS'5kc-malta'
p311
tp312
(dp313
S'hardware'
p314
S'MIPS Malta (64-bit)'
p315
sS'hardware-long'
p316
S'MIPS Malta boards (64-bit)'
p317
ss(S'description'
p318
g18
S'none'
p319
S'amd64'
p320
tp321
(dp322
S'parts'
p323
(lp324
S'xen'
p325
ass(S'description'
p326
NS'rt'
p327
tp328
(dp329
S'part-long-rt'
p330
S'This kernel includes the PREEMPT_RT realtime patch set.'
p331
sS'parts'
p332
(lp333
S'rt'
p334
asS'part-short-rt'
p335
S'PREEMPT_RT'
p336
ss(S'base'
p337
S'arm64'
p338
tp339
(dp340
S'kernel-arch'
p341
S'arm64'
p342
sS'featuresets'
p343
(lp344
S'none'
p345
ass(S'image'
p346
g37
NS'5kc-malta'
p347
tp348
(dp349
S'configs'
p350
(lp351
S'kernelarch-mips/config.5kc-malta'
p352
ass(S'base'
p353
g18
tp354
(dp355
S'kernel-arch'
p356
S'x86'
p357
sS'featuresets'
p358
(lp359
S'none'
p360
aS'rt'
p361
ass(S'description'
p362
g55
NS'4kc-malta'
p363
tp364
(dp365
S'hardware'
p366
S'MIPS Malta'
p367
sS'hardware-long'
p368
S'MIPS Malta boards'
p369
ss(S'description'
p370
S'hppa'
p371
NS'parisc64-smp'
p372
tp373
(dp374
S'hardware'
p375
S'multiprocessor 64-bit PA-RISC'
p376
sS'hardware-long'
p377
S'HP PA-RISC 64-bit SMP systems with support for more than 4 GB RAM'
p378
ss(S'relations'
p379
g5
tp380
(dp381
S'headers%gcc-4.8'
p382
S'linux-compiler-gcc-4.8-x86'
p383
ss(S'description'
p384
g371
NS'parisc'
p385
tp386
(dp387
S'hardware'
p388
S'32-bit PA-RISC'
p389
sS'hardware-long'
p390
S'HP PA-RISC 32-bit systems with max 4 GB RAM'
p391
ss(S'image'
p392
g185
NS'powerpc64'
p393
tp394
(dp395
S'configs'
p396
(lp397
S'kernelarch-powerpc/config-arch-64'
p398
aS'kernelarch-powerpc/config-arch-64-be'
p399
ass(S'image'
p400
g160
NS'ixp4xx'
p401
tp402
(dp403
S'check-size'
p404
S'1441760'
p405
sS'configs'
p406
(lp407
S'armel/config-reduced'
p408
aS'armel/config.ixp4xx'
p409
ass(g135
g37
g137
tp410
(dp411
g140
I01
sg141
(lp412
S'sb1-bcm91250a'
p413
aS'4kc-malta'
p414
aS'5kc-malta'
p415
aS'loongson-2e'
p416
aS'loongson-2f'
p417
aS'loongson-3'
p418
ass(S'build'
p419
g18
NS'686-pae'
p420
tp421
(dp422
S'debug-info'
p423
I01
ss(S'description'
p424
S'powerpcspe'
p425
tp426
(dp427
S'hardware'
p428
S'32-bit PowerPC with SPE (instead of AltiVec) with SMP support'
p429
ss(S'relations'
p430
tp431
(dp432
S'gcc-4.8'
p433
S'gcc-4.8'
p434
sS'initramfs-fallback'
p435
S'linux-initramfs-tool'
p436
sS'gcc-4.7'
p437
S'gcc-4.7'
p438
sS'gcc-4.6'
p439
S'gcc-4.6'
p440
sS'gcc-4.4'
p441
S'gcc-4.4'
p442
sS'initramfs-tools'
p443
S'initramfs-tools (>= 0.110~)'
p444
ss(S'build'
p445
g177
tp446
(dp447
S'image-file'
p448
S'arch/alpha/boot/vmlinux.gz'
p449
ss(S'description'
p450
g89
NS'sparc64-smp'
p451
tp452
(dp453
S'hardware'
p454
S'multiprocessor 64-bit UltraSPARC'
p455
ss(S'image'
p456
g121
NS'loongson-3'
p457
tp458
(dp459
S'configs'
p460
(lp461
S'kernelarch-mips/config.loongson-3'
p462
ass(S'image'
p463
g63
NS'sb1-bcm91250a'
p464
tp465
(dp466
S'configs'
p467
(lp468
S'kernelarch-mips/config.sb1-bcm91250a'
p469
ass(S'image'
p470
g145
NS'sparc64-smp'
p471
tp472
(dp473
S'configs'
p474
(lp475
S'kernelarch-sparc/config-smp'
p476
ass(S'image'
p477
g96
tp478
(dp479
S'suggests'
p480
S'fdutils'
p481
sS'configs'
p482
(lp483
S'kernelarch-arm/config'
p484
aS'armhf/config'
p485
asS'install-stem'
p486
S'vmlinuz'
p487
ss(S'build'
p488
g425
tp489
(dp490
S'image-file'
p491
S'vmlinux'
p492
ss(g135
S'sh4'
p493
g137
tp494
(dp495
g140
I01
sg141
(lp496
S'sh7751r'
p497
aS'sh7785lcr'
p498
ass(S'build'
p499
g371
tp500
(dp501
S'image-file'
p502
S'vmlinux'
p503
ss(S'description'
p504
g96
NS'armmp-lpae'
p505
tp506
(dp507
S'hardware'
p508
S'ARMv7 multiplatform compatible SoCs supporting LPAE'
p509
sS'hardware-long'
p510
S'ARMv7 multiplatform kernel supporting LPAE. See\nhttps://wiki.debian.org/DebianKernel/ARMMP for details of supported\nplatforms.'
p511
ss(S'image'
p512
g493
NS'sh7785lcr'
p513
tp514
(dp515
S'check-size'
p516
S'4194304'
p517
sS'recommends'
p518
S'uboot-mkimage'
p519
ss(S'base'
p520
g160
tp521
(dp522
S'kernel-arch'
p523
S'arm'
p524
sg182
(lp525
g137
ass(S'build'
p526
g96
tp527
(dp528
S'image-file'
p529
S'arch/arm/boot/zImage'
p530
ss(S'base'
p531
NS'rt'
p532
tp533
(dp534
S'enabled'
p535
I00
ss(S'base'
p536
g145
tp537
(dp538
S'kernel-arch'
p539
S'sparc'
p540
sg182
(lp541
g137
ass(S'base'
p542
g425
tp543
(dp544
S'kernel-arch'
p545
S'powerpc'
p546
sg182
(lp547
g137
ass(S'build'
p548
g37
tp549
(dp550
S'image-file'
p551
S'vmlinux'
p552
ss(g135
g285
g137
tp553
(dp554
g140
I01
sg141
(lp555
S's390x'
p556
ass(S'image'
p557
g55
NS'4kc-malta'
p558
tp559
(dp560
S'configs'
p561
(lp562
S'kernelarch-mips/config.4kc-malta'
p563
ass(g135
S's390x'
p564
g137
tp565
(dp566
g140
I01
sg141
(lp567
S's390x'
p568
ass(S'base'
p569
g55
tp570
(dp571
S'kernel-arch'
p572
S'mips'
p573
sg182
(lp574
g137
ass(S'build'
p575
g5
tp576
(dp577
S'debug-info'
p578
I01
sS'image-file'
p579
S'arch/x86/boot/bzImage'
p580
ss(S'build'
p581
g145
tp582
(dp583
S'image-file'
p584
S'arch/sparc/boot/zImage'
p585
ss(S'image'
p586
g37
tp587
(dp588
S'install-stem'
p589
S'vmlinux'
p590
ss(S'build'
p591
g185
tp592
(dp593
S'image-file'
p594
S'vmlinux'
p595
ss(S'build'
p596
g338
tp597
(dp598
S'debug-info'
p599
I01
sS'image-file'
p600
S'arch/arm64/boot/Image'
p601
ss(S'image'
p602
g160
NS'kirkwood'
p603
tp604
(dp605
S'check-size'
p606
S'2097080'
p607
sS'recommends'
p608
S'uboot-mkimage'
p609
ss(S'image'
p610
g145
NS'sparc32'
p611
tp612
(dp613
S'image-postproc'
p614
S'sparc32-image-postproc'
p615
ss(S'base'
p616
g63
tp617
(dp618
S'kernel-arch'
p619
S'mips'
p620
sg182
(lp621
g137
ass(S'description'
p622
g121
NS'sb1-bcm91250a'
p623
tp624
(dp625
S'hardware'
p626
S'BCM91250A'
p627
sS'hardware-long'
p628
S'Broadcom BCM91250A systems (aka SWARM)'
p629
ss(S'image'
p630
g564
NS's390x'
p631
tp632
(dp633
S'configs'
p634
(lp635
S'kernelarch-s390/config-arch-64'
p636
ass(S'description'
p637
g160
NS'versatile'
p638
tp639
(dp640
S'hardware'
p641
S'Versatile'
p642
sS'hardware-long'
p643
S'Versatile systems (PB, AB, Qemu)'
p644
ss(S'description'
p645
g63
NS'sb1-bcm91250a'
p646
tp647
(dp648
S'hardware'
p649
S'BCM91250A'
p650
sS'hardware-long'
p651
S'Broadcom BCM91250A systems (aka SWARM)'
p652
ss(S'base'
p653
g5
tp654
(dp655
S'kernel-arch'
p656
S'x86'
p657
sS'featuresets'
p658
(lp659
S'none'
p660
aS'rt'
p661
ass(g135
g160
g137
tp662
(dp663
g140
I01
sg141
(lp664
S'ixp4xx'
p665
aS'kirkwood'
p666
aS'orion5x'
p667
aS'versatile'
p668
ass(S'build'
p669
g564
NS's390x'
p670
tp671
(dp672
S'debug-info'
p673
I01
ss(S'base'
p674
g71
tp675
(dp676
S'kernel-arch'
p677
S'ia64'
p678
sg182
(lp679
g137
asS'compiler'
p680
S'gcc-4.6'
p681
ss(S'base'
p682
g37
tp683
(dp684
S'kernel-arch'
p685
S'mips'
p686
sg182
(lp687
g137
ass(S'description'
p688
g37
NS'4kc-malta'
p689
tp690
(dp691
S'hardware'
p692
S'MIPS Malta'
p693
sS'hardware-long'
p694
S'MIPS Malta boards'
p695
ss(S'image'
p696
g55
NS'r4k-ip22'
p697
tp698
(dp699
S'configs'
p700
(lp701
S'kernelarch-mips/config.r4k-ip22'
p702
ass(S'description'
p703
g18
NS'586'
p704
tp705
(dp706
S'hardware'
p707
S'older PCs'
p708
sS'parts'
p709
(lp710
S'up'
p711
asS'hardware-long'
p712
S'PCs with a single processor not supporting PAE'
p713
ss(S'description'
p714
g18
tp715
(dp716
S'part-long-pae'
p717
S'This kernel requires PAE (Physical Address Extension).\nThis feature is supported by the Intel Pentium Pro/II/III/4/4M/D, Xeon,\nCore and Atom; AMD Geode NX, Athlon (K7), Duron, Opteron, Sempron,\nTurion or Phenom; Transmeta Efficeon; VIA C7; and some other processors.'
p718
ss(S'description'
p719
g177
NS'alpha-smp'
p720
tp721
(dp722
S'hardware'
p723
S'Alpha SMP'
p724
sS'hardware-long'
p725
S'DEC Alpha SMP systems with extended kernel start address (Wildfire, Titan, Marvel)'
p726
ss(S'build'
p727
g121
tp728
(dp729
S'image-file'
p730
S'vmlinux'
p731
ss(S'xen'
p732
g5
g30
S'amd64'
p733
tp734
(dp735
S'flavours'
p736
(lp737
S'amd64'
p738
ass(S'description'
p739
g121
NS'5kc-malta'
p740
tp741
(dp742
S'hardware'
p743
S'MIPS Malta'
p744
sS'hardware-long'
p745
S'MIPS Malta boards'
p746
ss(S'image'
p747
g160
tp748
(dp749
S'suggests'
p750
S'fdutils'
p751
sS'configs'
p752
(lp753
S'kernelarch-arm/config'
p754
aS'armel/config'
p755
asS'install-stem'
p756
S'vmlinuz'
p757
ss(S'image'
p758
g285
tp759
(dp760
S'install-stem'
p761
S'vmlinuz'
p762
sS'configs'
p763
(lp764
sS'bootloaders'
p765
(lp766
S's390-tools'
p767
ass(S'relations'
p768
g285
tp769
(dp770
S'headers%gcc-4.8'
p771
S'linux-compiler-gcc-4.8-s390'
p772
ss(S'relations'
p773
g160
tp774
(dp775
S'headers%gcc-4.8'
p776
S'linux-compiler-gcc-4.8-arm'
p777
ss(S'image'
p778
g371
tp779
(dp780
S'suggests'
p781
S'palo'
p782
sS'install-stem'
p783
S'vmlinux'
p784
ss(g135
g63
g137
tp785
(dp786
g140
I01
sg141
(lp787
S'sb1-bcm91250a'
p788
aS'5kc-malta'
p789
aS'octeon'
p790
ass(S'relations'
p791
g371
tp792
(dp793
S'gcc-4.8'
p794
S'gcc-4.8, binutils-hppa64, gcc-4.8-hppa64'
p795
ss(S'base'
p796
g371
NS'parisc64-smp'
p797
tp798
(dp799
S'override-host-type'
p800
S'hppa64-linux-gnu'
p801
sS'cflags'
p802
S'-fno-cse-follow-jumps'
p803
ss(S'abi'
p804
Ng327
tp805
(dp806
S'ignore-changes'
p807
(lp808
S'*'
p809
ass(S'image'
p810
g18
NS'586'
p811
tp812
(dp813
S'configs'
p814
(lp815
S'kernelarch-x86/config-arch-32'
p816
aS'i386/config.586'
p817
ass(S'base'
p818
g185
tp819
(dp820
S'kernel-arch'
p821
S'powerpc'
p822
sg182
(lp823
g137
ass(g135
g371
g137
tp824
(dp825
g140
I01
sg141
(lp826
S'parisc'
p827
aS'parisc64-smp'
p828
ass(S'description'
p829
g63
NS'5kc-malta'
p830
tp831
(dp832
S'hardware'
p833
S'MIPS Malta'
p834
sS'hardware-long'
p835
S'MIPS Malta boards'
p836
ss(S'base'
p837
g89
tp838
(dp839
S'kernel-arch'
p840
S'sparc'
p841
sg182
(lp842
g137
ass(S'image'
p843
g37
NS'loongson-3'
p844
tp845
(dp846
S'configs'
p847
(lp848
S'kernelarch-mips/config.loongson-3'
p849
ass(S'base'
p850
S'or1k'
p851
tp852
(dp853
S'kernel-arch'
p854
S'openrisc'
p855
sS'featuresets'
p856
(lp857
ss(S'image'
p858
g89
NS'sparc64'
p859
tp860
(dp861
S'configs'
p862
(lp863
S'kernelarch-sparc/config-up'
p864
ass(S'description'
p865
g37
NS'loongson-3'
p866
tp867
(dp868
S'hardware'
p869
S'Loongson 3A/3B'
p870
sS'hardware-long'
p871
S'Loongson 3A or 3B based systems (e.g. from Loongson or Lemote)'
p872
ss(S'base'
p873
g564
tp874
(dp875
S'kernel-arch'
p876
S's390'
p877
sg182
(lp878
g137
ass(S'base'
p879
g285
tp880
(dp881
S'kernel-arch'
p882
S's390'
p883
sg182
(lp884
g137
ass(S'description'
p885
g185
NS'powerpc'
p886
tp887
(dp888
S'hardware'
p889
S'uniprocessor 32-bit PowerPC'
p890
ss(g135
g121
g137
tp891
(dp892
g140
I01
sg141
(lp893
S'sb1-bcm91250a'
p894
aS'5kc-malta'
p895
aS'loongson-3'
p896
aS'octeon'
p897
ass(S'description'
p898
g55
NS'5kc-malta'
p899
tp900
(dp901
S'hardware'
p902
S'MIPS Malta (64-bit)'
p903
sS'hardware-long'
p904
S'MIPS Malta boards (64-bit)'
p905
ss(S'image'
p906
g55
NS'sb1-bcm91250a'
p907
tp908
(dp909
S'configs'
p910
(lp911
S'kernelarch-mips/config.sb1-bcm91250a'
p912
ass(S'image'
p913
g18
tp914
(dp915
S'install-stem'
p916
S'vmlinuz'
p917
sS'configs'
p918
(lp919
sS'bootloaders'
p920
(lp921
S'grub-pc'
p922
aS'extlinux'
p923
ass(g135
g145
g137
tp924
(dp925
g140
I01
sg141
(lp926
S'sparc64'
p927
aS'sparc64-smp'
p928
ass(S'relations'
p929
g185
tp930
(dp931
S'gcc-4.8'
p932
S'gcc-4.8 (>= 4.8.2-21)'
p933
ss(g135
g177
g137
tp934
(dp935
g140
I01
sg141
(lp936
S'alpha-generic'
p937
aS'alpha-smp'
p938
aS'alpha-legacy'
p939
ass(S'description'
p940
g18
g319
S'686-pae'
p941
tp942
(dp943
S'parts'
p944
(lp945
S'xen'
p946
ass(g135
g71
g137
tp947
(dp948
g140
I01
sg141
(lp949
S'itanium'
p950
aS'mckinley'
p951
ass(S'base'
p952
g136
tp953
(dp954
S'kernel-arch'
p955
S'powerpc'
p956
sg182
(lp957
g137
ass(S'build'
p958
g564
tp959
(dp960
S'image-file'
p961
S'arch/s390/boot/image'
p962
ss(g135
g55
g137
tp963
(dp964
g140
I01
sg141
(lp965
S'r4k-ip22'
p966
aS'r5k-ip32'
p967
aS'sb1-bcm91250a'
p968
aS'4kc-malta'
p969
aS'5kc-malta'
p970
aS'octeon'
p971
ass(S'image'
p972
g285
NS's390x'
p973
tp974
(dp975
S'configs'
p976
(lp977
S'kernelarch-s390/config-arch-64'
p978
ass(S'build'
p979
g55
tp980
(dp981
S'image-file'
p982
S'vmlinux'
p983
ss(S'image'
p984
g63
tp985
(dp986
S'install-stem'
p987
S'vmlinux'
p988
ss(S'description'
p989
g177
NS'alpha-legacy'
p990
tp991
(dp992
S'hardware'
p993
S'Alpha Legacy'
p994
sS'hardware-long'
p995
S'DEC Alpha systems with legacy kernel start address'
p996
ss(S'image'
p997
g18
NS'amd64'
p998
tp999
(dp1000
S'configs'
p1001
(lp1002
S'kernelarch-x86/config-arch-64'
p1003
asS'recommends'
p1004
S'libc6-i686'
p1005
ss(S'description'
p1006
g185
NS'powerpc-smp'
p1007
tp1008
(dp1009
S'hardware'
p1010
S'multiprocessor 32-bit PowerPC'
p1011
ss(S'base'
p1012
S'x32'
p1013
tp1014
(dp1015
S'kernel-arch'
p1016
S'x86'
p1017
sS'featuresets'
p1018
(lp1019
ss(S'build'
p1020
g493
tp1021
(dp1022
S'image-file'
p1023
S'arch/sh/boot/zImage'
p1024
ss(S'image'
p1025
g262
tp1026
(dp1027
S'suggests'
p1028
S'vmelilo, fdutils'
p1029
sS'install-stem'
p1030
S'vmlinuz'
p1031
ss(S'base'
p1032
g338
S'none'
p1033
tp1034
(dp1035
S'flavours'
p1036
(lp1037
S'arm64'
p1038
ass(S'build'
p1039
g63
tp1040
(dp1041
S'image-file'
p1042
S'vmlinux'
p1043
ss(S'description'
p1044
g37
NS'loongson-2e'
p1045
tp1046
(dp1047
S'hardware'
p1048
S'Loongson 2E'
p1049
sS'hardware-long'
p1050
S'Lemote Loongson 2E systems'
p1051
ss(S'image'
p1052
g55
tp1053
(dp1054
S'install-stem'
p1055
S'vmlinux'
p1056
ss(S'build'
p1057
g71
tp1058
(dp1059
S'image-file'
p1060
S'vmlinux.gz'
p1061
ss(S'base'
p1062
g96
tp1063
(dp1064
S'kernel-arch'
p1065
S'arm'
p1066
sg182
(lp1067
g137
ass(S'image'
p1068
g37
NS'loongson-2e'
p1069
tp1070
(dp1071
S'configs'
p1072
(lp1073
S'kernelarch-mips/config.loongson-2e'
p1074
ass(S'description'
p1075
g145
NS'sparc64'
p1076
tp1077
(dp1078
S'hardware'
p1079
S'uniprocessor 64-bit UltraSPARC'
p1080
ss(S'image'
p1081
g338
NS'arm64'
p1082
tp1083
(dp1084
s(S'description'
p1085
g160
NS'kirkwood'
p1086
tp1087
(dp1088
S'hardware'
p1089
S'Marvell Kirkwood'
p1090
sS'hardware-long'
p1091
S'Marvell Kirkwood based systems (SheevaPlug, QNAP TS-119/TS-219, etc)'
p1092
ss(S'image'
p1093
g493
tp1094
(dp1095
S'suggests'
p1096
S'fdutils'
p1097
sS'install-stem'
p1098
S'vmlinuz'
p1099
ss(S'base'
p1100
g371
tp1101
(dp1102
S'kernel-arch'
p1103
S'parisc'
p1104
sg182
(lp1105
g137
ass(S'base'
p1106
g493
tp1107
(dp1108
S'kernel-arch'
p1109
S'sh'
p1110
sg182
(lp1111
g137
asS'compiler'
p1112
S'gcc-4.7'
p1113
ss(S'image'
p1114
g145
tp1115
(dp1116
S'suggests'
p1117
S'silo, fdutils'
p1118
sS'configs'
p1119
(lp1120
sS'install-stem'
p1121
S'vmlinuz'
p1122
ss(S'description'
p1123
tp1124
(dp1125
S'part-long-up'
p1126
S'This kernel is not suitable for SMP (multi-processor,\nmulti-core or hyper-threaded) systems.'
p1127
sS'part-long-xen'
p1128
S'This kernel also runs on a Xen hypervisor.\nIt supports both privileged (dom0) and unprivileged (domU) operation.'
p1129
ss(S'build'
p1130
g89
tp1131
(dp1132
S'image-file'
p1133
S'arch/sparc/boot/zImage'
p1134
ss(S'image'
p1135
g136
tp1136
(dp1137
S'suggests'
p1138
S'mkvmlinuz'
p1139
sS'configs'
p1140
(lp1141
sS'install-stem'
p1142
S'vmlinux'
p1143
ss(S'relations'
p1144
g96
tp1145
(dp1146
S'headers%gcc-4.8'
p1147
S'linux-compiler-gcc-4.8-arm'
p1148
ss(S'description'
p1149
g55
NS'sb1-bcm91250a'
p1150
tp1151
(dp1152
S'hardware'
p1153
S'BCM91250A'
p1154
sS'hardware-long'
p1155
S'Broadcom BCM91250A systems (aka SWARM)'
p1156
ss(S'image'
p1157
g5
NS'amd64'
p1158
tp1159
(dp1160
S'configs'
p1161
(lp1162
S'kernelarch-x86/config-arch-64'
p1163
ass(S'description'
p1164
g285
NS's390x'
p1165
tp1166
(dp1167
S'hardware'
p1168
S'IBM zSeries'
p1169
ss(S'image'
p1170
g232
NS'powerpc64le'
p1171
tp1172
(dp1173
S'configs'
p1174
(lp1175
S'kernelarch-powerpc/config-arch-64'
p1176
aS'kernelarch-powerpc/config-arch-64-le'
p1177
ass(S'image'
p1178
g89
tp1179
(dp1180
S'suggests'
p1181
S'silo, fdutils'
p1182
sS'configs'
p1183
(lp1184
sS'install-stem'
p1185
S'vmlinuz'
p1186
ss(S'image'
p1187
g177
tp1188
(dp1189
S'suggests'
p1190
S'aboot, fdutils'
p1191
sS'install-stem'
p1192
S'vmlinuz'
p1193
ss(S'description'
p1194
g564
NS's390x'
p1195
tp1196
(dp1197
S'hardware'
p1198
S'IBM zSeries'
p1199
ss(S'relations'
p1200
g564
tp1201
(dp1202
S'headers%gcc-4.8'
p1203
S'linux-compiler-gcc-4.8-s390'
p1204
ss(S'description'
p1205
g18
NS'amd64'
p1206
tp1207
(dp1208
S'hardware'
p1209
S'64-bit PCs'
p1210
sS'parts'
p1211
(lp1212
S'xen'
p1213
asS'hardware-long'
p1214
S'PCs with AMD64, Intel 64 or VIA Nano processors'
p1215
ss(S'description'
p1216
g145
NS'sparc32'
p1217
tp1218
(dp1219
S'hardware'
p1220
S'uniprocessor sparc32 (sun4m)'
p1221
ss(S'relations'
p1222
g136
tp1223
(dp1224
S'gcc-4.8'
p1225
S'gcc-4.8 (>= 4.8.2-21)'
p1226
ss(S'image'
p1227
g18
NS'686-pae'
p1228
tp1229
(dp1230
S'configs'
p1231
(lp1232
S'kernelarch-x86/config-arch-32'
p1233
aS'i386/config.686-pae'
p1234
asS'recommends'
p1235
S'libc6-i686'
p1236
ss(S'image'
p1237
g37
NS'4kc-malta'
p1238
tp1239
(dp1240
S'configs'
p1241
(lp1242
S'kernelarch-mips/config.4kc-malta'
p1243
ass(S'image'
p1244
g185
NS'powerpc-smp'
p1245
tp1246
(dp1247
S'configs'
p1248
(lp1249
S'powerpc/config.powerpc'
p1250
aS'powerpc/config.powerpc-smp'
p1251
ass(S'image'
p1252
g96
NS'armmp-lpae'
p1253
tp1254
(dp1255
S'configs'
p1256
(lp1257
S'armhf/config.armmp'
p1258
aS'armhf/config.lpae'
p1259
ass(S'build'
p1260
g285
tp1261
(dp1262
S'image-file'
p1263
S'arch/s390/boot/image'
p1264
ss(S'image'
p1265
g425
tp1266
(dp1267
S'suggests'
p1268
S'mkvmlinuz'
p1269
sS'install-stem'
p1270
S'vmlinux'
p1271
ss(S'image'
p1272
g121
NS'octeon'
p1273
tp1274
(dp1275
S'configs'
p1276
(lp1277
S'kernelarch-mips/config.octeon'
p1278
ass(S'abi'
p1279
tp1280
(dp1281
S'abiname'
p1282
S'4'
p1283
ss(S'description'
p1284
g71
NS'itanium'
p1285
tp1286
(dp1287
S'hardware'
p1288
S'Itanium'
p1289
ss(S'description'
p1290
g338
NS'arm64'
p1291
tp1292
(dp1293
S'hardware'
p1294
S'64-bit ARMv8 machines'
p1295
ss(g135
g425
g137
tp1296
(dp1297
g140
I01
sg141
(lp1298
S'powerpcspe'
p1299
ass(g135
g262
g137
tp1300
(dp1301
g140
I01
sg141
(lp1302
S'm68k'
p1303
ass(S'description'
p1304
g121
NS'loongson-3'
p1305
tp1306
(dp1307
S'hardware'
p1308
S'Loongson 3A/3B'
p1309
sS'hardware-long'
p1310
S'Loongson 3A or 3B based systems (e.g. from Loongson or Lemote)'
p1311
ss(S'description'
p1312
g136
NS'powerpc64'
p1313
tp1314
(dp1315
S'hardware'
p1316
S'64-bit PowerPC'
p1317
ss(S'base'
p1318
g18
g319
tp1319
(dp1320
S'flavours'
p1321
(lp1322
S'586'
p1323
aS'686-pae'
p1324
aS'amd64'
p1325
ass(S'base'
p1326
tp1327
(dp1328
S'arches'
p1329
(lp1330
S'alpha'
p1331
aS'amd64'
p1332
aS'arm64'
p1333
aS'armel'
p1334
aS'armhf'
p1335
aS'hppa'
p1336
aS'i386'
p1337
aS'ia64'
p1338
aS'm68k'
p1339
aS'mips'
p1340
aS'mipsel'
p1341
aS'mips64'
p1342
aS'mips64el'
p1343
aS'or1k'
p1344
aS'powerpc'
p1345
aS'powerpcspe'
p1346
aS'ppc64'
p1347
aS'ppc64el'
p1348
aS's390'
p1349
aS's390x'
p1350
aS'sh4'
p1351
aS'sparc'
p1352
aS'sparc64'
p1353
aS'x32'
p1354
asS'featuresets'
p1355
(lp1356
S'none'
p1357
aS'rt'
p1358
asS'compiler'
p1359
S'gcc-4.8'
p1360
ss(S'build'
p1361
g262
tp1362
(dp1363
S'image-file'
p1364
S'vmlinux.gz'
p1365
ss(S'build'
p1366
g160
tp1367
(dp1368
S'image-file'
p1369
S'arch/arm/boot/zImage'
p1370
ss(g135
g185
g137
tp1371
(dp1372
g140
I01
sg141
(lp1373
S'powerpc'
p1374
aS'powerpc-smp'
p1375
aS'powerpc64'
p1376
ass(S'description'
p1377
g493
NS'sh7751r'
p1378
tp1379
(dp1380
S'hardware'
p1381
S'sh7751r'
p1382
sS'hardware-long'
p1383
S'Renesas SH7751R R2D plus board'
p1384
ss(S'image'
p1385
g121
tp1386
(dp1387
S'install-stem'
p1388
S'vmlinux'
p1389
ss(S'base'
p1390
g232
tp1391
(dp1392
S'kernel-arch'
p1393
S'powerpc'
p1394
sg182
(lp1395
g137
ass(S'base'
p1396
g121
tp1397
(dp1398
S'kernel-arch'
p1399
S'mips'
p1400
sg182
(lp1401
g137
ass(S'description'
p1402
g145
NS'sparc64-smp'
p1403
tp1404
(dp1405
S'hardware'
p1406
S'multiprocessor 64-bit UltraSPARC'
p1407
ss(S'base'
p1408
g262
tp1409
(dp1410
S'kernel-arch'
p1411
S'm68k'
p1412
sg182
(lp1413
g137
asS'cflags'
p1414
S'-ffreestanding'
p1415
sS'compiler'
p1416
S'gcc-4.8'
p1417
ss(S'image'
p1418
tp1419
(dp1420
S'initramfs-generators'
p1421
(lp1422
S'initramfs-tools'
p1423
aS'initramfs-fallback'
p1424
asS'type'
p1425
S'plain'
p1426
ss(S'description'
p1427
g232
NS'powerpc64le'
p1428
tp1429
(dp1430
S'hardware'
p1431
S'Little-endian 64-bit PowerPC'
p1432
ss(S'build'
p1433
g232
tp1434
(dp1435
S'image-file'
p1436
S'vmlinux'
p1437
ss(S'image'
p1438
g121
NS'5kc-malta'
p1439
tp1440
(dp1441
S'configs'
p1442
(lp1443
S'kernelarch-mips/config.5kc-malta'
p1444
ass(g135
g89
g137
tp1445
(dp1446
g140
I01
sg141
(lp1447
S'sparc64'
p1448
aS'sparc64-smp'
p1449
ass(S'description'
p1450
g37
NS'sb1-bcm91250a'
p1451
tp1452
(dp1453
S'hardware'
p1454
S'BCM91250A'
p1455
sS'hardware-long'
p1456
S'Broadcom BCM91250A systems (aka SWARM)'
p1457
ss(S'description'
p1458
g493
NS'sh7785lcr'
p1459
tp1460
(dp1461
S'hardware'
p1462
S'sh7785lcr'
p1463
sS'hardware-long'
p1464
S'Renesas SH7785 reference board'
p1465
ss(S'image'
p1466
g136
NS'powerpc64'
p1467
tp1468
(dp1469
S'configs'
p1470
(lp1471
S'kernelarch-powerpc/config-arch-64'
p1472
aS'kernelarch-powerpc/config-arch-64-be'
p1473
ass(S'description'
p1474
g55
NS'r4k-ip22'
p1475
tp1476
(dp1477
S'hardware'
p1478
S'SGI IP22'
p1479
sS'hardware-long'
p1480
S'SGI IP22 systems (Indy, Indigo2)'
p1481
ss(S'image'
p1482
g63
NS'octeon'
p1483
tp1484
(dp1485
S'configs'
p1486
(lp1487
S'kernelarch-mips/config.octeon'
p1488
ass(S'description'
p1489
g5
NS'amd64'
p1490
tp1491
(dp1492
S'hardware'
p1493
S'64-bit PCs'
p1494
sS'hardware-long'
p1495
S'PCs with AMD64, Intel 64 or VIA Nano processors'
p1496
ss(S'image'
p1497
g564
tp1498
(dp1499
S'install-stem'
p1500
S'vmlinuz'
p1501
sS'configs'
p1502
(lp1503
sS'bootloaders'
p1504
(lp1505
S's390-tools'
p1506
ass(S'image'
p1507
g89
NS'sparc64-smp'
p1508
tp1509
(dp1510
S'configs'
p1511
(lp1512
S'kernelarch-sparc/config-smp'
p1513
ass(S'image'
p1514
g338
tp1515
(dp1516
S'install-stem'
p1517
S'vmlinuz'
p1518
ss(S'build'
p1519
g18
tp1520
(dp1521
S'image-file'
p1522
S'arch/x86/boot/bzImage'
p1523
ss(g135
g232
g137
tp1524
(dp1525
g140
I01
sg141
(lp1526
S'powerpc64le'
p1527
asstp1528
Rp1529
.