ccopy_reg
_reconstructor
p0
(cdebian_linux.config
ConfigCore
p1
c__builtin__
dict
p2
(dp3
(Vimage
p4
Vppc64el
p5
tp6
(dp7
Vsuggests
p8
Vmkvmlinuz
p9
sVinstall-stem
p10
Vvmlinux
p11
sVconfigs
p12
(lp13
ss(Vdescription
p14
Vi386
p15
Vnone
p16
V686-pae
p17
tp18
(dp19
Vparts
p20
(lp21
Vxen
p22
ass(Vimage
p23
Vmipsel
p24
NVocteon
p25
tp26
(dp27
Vconfigs
p28
(lp29
Vkernelarch-mips/config.octeon
p30
ass(Vimage
p31
Varm64
p32
NVarm64
p33
tp34
(dp35
s(Vbase
p36
g24
Vnone
p37
tp38
(dp39
Vflavours
p40
(lp41
V4kc-malta
p42
aV5kc-malta
p43
aVloongson-3
p44
aVocteon
p45
asVimplicit-flavour
p46
I01
ss(Vdescription
p47
Vmips64
p48
NVocteon
p49
tp50
(dp51
Vhardware
p52
VOcteon
p53
sVhardware-long
p54
VCavium Networks Octeon
p55
ss(g36
Vppc64
p56
g37
tp57
(dp58
g40
(lp59
Vpowerpc64
p60
asg46
I01
ss(Vbase
p61
Vpowerpc
p62
tp63
(dp64
Vkernel-arch
p65
Vpowerpc
p66
sVfeaturesets
p67
(lp68
g37
ass(Vbase
p69
Vamd64
p70
Vrt
p71
tp72
(dp73
Vflavours
p74
(lp75
Vamd64
p76
ass(Vimage
p77
tp78
(dp79
Vinitramfs-generators
p80
(lp81
Vinitramfs-tools
p82
aVinitramfs-fallback
p83
ass(Vimage
p84
Vmips
p85
NVocteon
p86
tp87
(dp88
Vconfigs
p89
(lp90
Vkernelarch-mips/config.octeon
p91
ass(Vdescription
p92
Vsh4
p93
NVsh7751r
p94
tp95
(dp96
Vhardware
p97
Vsh7751r
p98
sVhardware-long
p99
VRenesas SH7751R R2D plus board
p100
ss(Vbase
p101
Vpowerpcspe
p102
tp103
(dp104
Vkernel-arch
p105
Vpowerpc
p106
sg67
(lp107
g37
ass(Vdescription
p108
Vmips64el
p109
NVloongson-3
p110
tp111
(dp112
Vhardware
p113
VLoongson 3A/3B
p114
sVhardware-long
p115
VLoongson 3A or 3B based systems (e.g. from Loongson or Lemote)
p116
ss(g36
g85
g37
tp117
(dp118
g40
(lp119
V4kc-malta
p120
aV5kc-malta
p121
aVocteon
p122
asg46
I01
ss(Vbase
p123
g70
Vnone
p124
tp125
(dp126
Vflavours
p127
(lp128
Vamd64
p129
ass(Vdescription
p130
Varmhf
p131
NVarmmp-lpae
p132
tp133
(dp134
Vhardware
p135
VARMv7 multiplatform compatible SoCs supporting LPAE
p136
sVhardware-long
p137
VARMv7 multiplatform kernel supporting LPAE. See\u000ahttps://wiki.debian.org/DebianKernel/ARMMP for details of supported\u000aplatforms.
p138
ss(Vdescription
p139
g56
NVpowerpc64
p140
tp141
(dp142
Vhardware
p143
V64-bit PowerPC
p144
ss(g36
Valpha
p145
g37
tp146
(dp147
g40
(lp148
Valpha-generic
p149
aValpha-smp
p150
asg46
I01
ss(g36
g62
g37
tp151
(dp152
g40
(lp153
Vpowerpc
p154
aVpowerpc-smp
p155
aVpowerpc64
p156
asg46
I01
ss(Vbuild
p157
tp158
(dp159
Vsigned-modules
p160
I01
sVdebug-info
p161
I01
ss(Vrelations
p162
g70
tp163
(dp164
Vheaders%gcc-5
p165
Vlinux-compiler-gcc-5-x86
p166
ss(Vdescription
p167
Vm68k
p168
NVm68k
p169
tp170
(dp171
Vhardware
p172
VMotorola MC68020+ family
p173
ss(g36
g48
g37
tp174
(dp175
g40
(lp176
V5kc-malta
p177
aVocteon
p178
asg46
I01
ss(Vimage
p179
g70
tp180
(dp181
Vinstall-stem
p182
Vvmlinuz
p183
sVbreaks
p184
Vxserver-xorg-input-vmmouse (<< 1:13.0.99)
p185
sVbootloaders
p186
(lp187
Vgrub-pc
p188
aVgrub-efi-amd64
p189
aVextlinux
p190
ass(Vimage
p191
g85
NV4kc-malta
p192
tp193
(dp194
Vconfigs
p195
(lp196
Vkernelarch-mips/config.malta
p197
aVkernelarch-mips/config.mips32r2
p198
ass(Vrelations
p199
Vs390x
p200
tp201
(dp202
Vheaders%gcc-5
p203
Vlinux-compiler-gcc-5-s390
p204
ss(Vdescription
p205
g109
NV5kc-malta
p206
tp207
(dp208
Vhardware
p209
VMIPS Malta
p210
sVhardware-long
p211
VMIPS Malta boards
p212
ss(Vbuild
p213
g56
tp214
(dp215
Vimage-file
p216
Vvmlinux
p217
sVsigned-modules
p218
I00
sVvdso
p219
I01
ss(Vdescription
p220
g145
NValpha-generic
p221
tp222
(dp223
Vhardware
p224
VAlpha
p225
sVhardware-long
p226
VDEC Alpha systems with extended kernel start address (Wildfire, Titan, Marvel)
p227
ss(Vbase
p228
g15
g16
tp229
(dp230
Vflavours
p231
(lp232
V686
p233
aV686-pae
p234
ass(Vbase
p235
Varmel
p236
tp237
(dp238
Vkernel-arch
p239
Varm
p240
sg67
(lp241
g37
ass(Vdescription
p242
g5
NVpowerpc64le
p243
tp244
(dp245
Vhardware
p246
VLittle-endian 64-bit PowerPC
p247
ss(Vimage
p248
g145
tp249
(dp250
Vsuggests
p251
Vaboot, fdutils
p252
sVinstall-stem
p253
Vvmlinuz
p254
ss(Vimage
p255
Vsparc64
p256
NVsparc64
p257
tp258
(dp259
Vconfigs
p260
(lp261
Vkernelarch-sparc/config-up
p262
ass(Vbase
p263
Vhppa
p264
NVparisc64-smp
p265
tp266
(dp267
Voverride-host-type
p268
Vhppa64-linux-gnu
p269
sVcflags
p270
V-fno-cse-follow-jumps
p271
ss(Vdescription
p272
g200
NVs390x
p273
tp274
(dp275
Vhardware
p276
VIBM zSeries
p277
ss(Vimage
p278
g85
tp279
(dp280
Vinstall-stem
p281
Vvmlinux
p282
ss(Vbuild
p283
g145
tp284
(dp285
Vimage-file
p286
Varch/alpha/boot/vmlinux.gz
p287
sVsigned-modules
p288
I00
ss(g36
g102
g37
tp289
(dp290
g40
(lp291
Vpowerpcspe
p292
asg46
I01
ss(Vrelations
p293
g236
tp294
(dp295
Vheaders%gcc-5
p296
Vlinux-compiler-gcc-5-arm
p297
ss(Vrelations
p298
tp299
(dp300
Vgcc-5
p301
Vgcc-5 <!stage1 !cross>, gcc-5-@gnu-type-package@:native <!stage1 cross>
p302
sVinitramfs-fallback
p303
Vlinux-initramfs-tool
p304
sVinitramfs-tools
p305
Vinitramfs-tools (>= 0.110~)
p306
ss(Vimage
p307
g236
NVmarvell
p308
tp309
(dp310
Vrecommends
p311
Vu-boot-tools
p312
sVcheck-size-with-dtb
p313
I01
sVbreaks
p314
Vflash-kernel (<< 3.57~)
p315
sVcheck-size
p316
L2097080L
ss(Vdescription
p317
tp318
(dp319
Vpart-long-up
p320
VThis kernel is not suitable for SMP (multi-processor,\u000amulti-core or hyper-threaded) systems.
p321
sVpart-long-xen
p322
VThis kernel also runs on a Xen hypervisor.\u000aIt supports both privileged (dom0) and unprivileged (domU) operation.
p323
ss(Vdescription
p324
g24
NV5kc-malta
p325
tp326
(dp327
Vhardware
p328
VMIPS Malta (64-bit)
p329
sVhardware-long
p330
VMIPS Malta boards (64-bit)
p331
ss(Vbase
p332
g15
Vrt
p333
tp334
(dp335
Vflavours
p336
(lp337
V686-pae
p338
ass(Vbase
p339
g256
tp340
(dp341
Vkernel-arch
p342
Vsparc
p343
sg67
(lp344
g37
ass(g36
g256
g37
tp345
(dp346
g40
(lp347
Vsparc64
p348
aVsparc64-smp
p349
asg46
I01
ss(Vbase
p350
tp351
(dp352
Varches
p353
(lp354
Valpha
p355
aVamd64
p356
aVarm64
p357
aVarmel
p358
aVarmhf
p359
aVhppa
p360
aVi386
p361
aVm68k
p362
aVmips
p363
aVmipsel
p364
aVmipsn32
p365
aVmipsn32el
p366
aVmips64
p367
aVmips64el
p368
aVor1k
p369
aVpowerpc
p370
aVpowerpcspe
p371
aVppc64
p372
aVppc64el
p373
aVs390
p374
aVs390x
p375
aVsh4
p376
aVsparc
p377
aVsparc64
p378
aVtilegx
p379
aVx32
p380
asVcompiler
p381
Vgcc-5
p382
sVfeaturesets
p383
(lp384
Vnone
p385
aVrt
p386
ass(g36
g109
g37
tp387
(dp388
g40
(lp389
V5kc-malta
p390
aVloongson-3
p391
aVocteon
p392
asg46
I01
ss(Vbase
p393
Vs390
p394
tp395
(dp396
Vkernel-arch
p397
Vs390
p398
sVfeaturesets
p399
(lp400
ss(Vdescription
p401
g85
NVocteon
p402
tp403
(dp404
Vhardware
p405
VOcteon
p406
sVhardware-long
p407
VCavium Networks Octeon
p408
ss(Vbase
p409
Vx32
p410
tp411
(dp412
Vkernel-arch
p413
Vx86
p414
sVfeaturesets
p415
(lp416
ss(Vbase
p417
g48
tp418
(dp419
Vkernel-arch
p420
Vmips
p421
sg67
(lp422
g37
ass(Vimage
p423
g85
NV5kc-malta
p424
tp425
(dp426
Vconfigs
p427
(lp428
Vkernelarch-mips/config.malta
p429
aVkernelarch-mips/config.mips64r2
p430
ass(Vbase
p431
g32
tp432
(dp433
Vkernel-arch
p434
Varm64
p435
sVfeaturesets
p436
(lp437
Vnone
p438
ass(Vdescription
p439
g62
NVpowerpc-smp
p440
tp441
(dp442
Vhardware
p443
Vmultiprocessor 32-bit PowerPC
p444
ss(Vrelations
p445
g131
tp446
(dp447
Vheaders%gcc-5
p448
Vlinux-compiler-gcc-5-arm
p449
ss(Vdescription
p450
g85
NV5kc-malta
p451
tp452
(dp453
Vhardware
p454
VMIPS Malta (64-bit)
p455
sVhardware-long
p456
VMIPS Malta boards (64-bit)
p457
ss(Vbase
p458
Vor1k
p459
tp460
(dp461
Vkernel-arch
p462
Vopenrisc
p463
sVfeaturesets
p464
(lp465
ss(Vdescription
p466
g62
NVpowerpc64
p467
tp468
(dp469
Vhardware
p470
V64-bit PowerPC
p471
ss(Vdescription
p472
g109
NVocteon
p473
tp474
(dp475
Vhardware
p476
VOcteon
p477
sVhardware-long
p478
VCavium Networks Octeon
p479
ss(g36
g264
g37
tp480
(dp481
g40
(lp482
Vparisc
p483
aVparisc64-smp
p484
asg46
I01
ss(g36
g200
g37
tp485
(dp486
g40
(lp487
Vs390x
p488
asg46
I01
ss(Vimage
p489
g109
NVocteon
p490
tp491
(dp492
Vconfigs
p493
(lp494
Vkernelarch-mips/config.octeon
p495
ass(Vbase
p496
g15
tp497
(dp498
Vkernel-arch
p499
Vx86
p500
sVfeaturesets
p501
(lp502
Vnone
p503
aVrt
p504
ass(Vdescription
p505
NVrt
p506
tp507
(dp508
Vparts
p509
(lp510
Vrt
p511
asVpart-long-rt
p512
VThis kernel includes the PREEMPT_RT realtime patch set.
p513
sVpart-short-rt
p514
VPREEMPT_RT
p515
ss(Vbuild
p516
g24
tp517
(dp518
Vimage-file
p519
Vvmlinux
p520
sVsigned-modules
p521
I00
ss(Vimage
p522
g62
NVpowerpc64
p523
tp524
(dp525
Vconfigs
p526
(lp527
Vkernelarch-powerpc/config-arch-64
p528
aVkernelarch-powerpc/config-arch-64-be
p529
ass(Vversion
p530
tp531
(dp532
Vabiname
p533
V4.8.0-kali1
p534
sVsource
p535
V4.8.7-1kali1
p536
sVupstream
p537
V4.8
p538
sVabiname_base
p539
V4.8.0
p540
ss(Vimage
p541
g109
NV5kc-malta
p542
tp543
(dp544
Vconfigs
p545
(lp546
Vkernelarch-mips/config.malta
p547
aVkernelarch-mips/config.mips64r2
p548
ass(Vimage
p549
g62
tp550
(dp551
Vsuggests
p552
Vmkvmlinuz
p553
sVinstall-stem
p554
Vvmlinux
p555
sVconfigs
p556
(lp557
ss(Vdescription
p558
g32
NVarm64
p559
tp560
(dp561
Vhardware
p562
V64-bit ARMv8 machines
p563
ss(Vbase
p564
g93
tp565
(dp566
Vkernel-arch
p567
Vsh
p568
sg67
(lp569
g37
ass(Vdescription
p570
g264
NVparisc
p571
tp572
(dp573
Vhardware
p574
V32-bit PA-RISC
p575
sVhardware-long
p576
VHP PA-RISC 32-bit systems with max 4 GB RAM
p577
ss(Vbuild
p578
g256
tp579
(dp580
Vimage-file
p581
Varch/sparc/boot/zImage
p582
sVsigned-modules
p583
I00
ss(Vbuild
p584
g5
tp585
(dp586
Vimage-file
p587
Vvmlinux
p588
sVvdso
p589
I01
ss(Vbase
p590
g200
tp591
(dp592
Vkernel-arch
p593
Vs390
p594
sg67
(lp595
g37
ass(Vdescription
p596
g24
NVocteon
p597
tp598
(dp599
Vhardware
p600
VOcteon
p601
sVhardware-long
p602
VCavium Networks Octeon
p603
ss(g36
g5
g37
tp604
(dp605
g40
(lp606
Vpowerpc64le
p607
asg46
I01
ss(Vdescription
p608
g93
NVsh7785lcr
p609
tp610
(dp611
Vhardware
p612
Vsh7785lcr
p613
sVhardware-long
p614
VRenesas SH7785 reference board
p615
ss(Vdescription
p616
g102
tp617
(dp618
Vhardware
p619
V32-bit PowerPC with SPE (instead of AltiVec) with SMP support
p620
ss(Vimage
p621
g168
tp622
(dp623
Vsuggests
p624
Vvmelilo, fdutils
p625
sVinstall-stem
p626
Vvmlinuz
p627
ss(Vdescription
p628
g15
NV686
p629
tp630
(dp631
Vhardware
p632
Volder PCs
p633
sVhardware-long
p634
VPCs with one or more processors not supporting PAE
p635
ss(Vdescription
p636
g15
NV686-pae
p637
tp638
(dp639
Vhardware
p640
Vmodern PCs
p641
sVhardware-long
p642
VPCs with one or more processors supporting PAE
p643
sVparts
p644
(lp645
Vpae
p646
ass(Vbuild
p647
g62
tp648
(dp649
Vimage-file
p650
Vvmlinux
p651
sVvdso
p652
I01
ss(Vbuild
p653
g109
tp654
(dp655
Vimage-file
p656
Vvmlinux
p657
sVsigned-modules
p658
I00
ss(Vimage
p659
g15
tp660
(dp661
Vinstall-stem
p662
Vvmlinuz
p663
sVbreaks
p664
Vxserver-xorg-input-vmmouse (<< 1:13.0.99)
p665
sVbootloaders
p666
(lp667
Vgrub-pc
p668
aVextlinux
p669
ass(Vbuild
p670
g168
tp671
(dp672
Vimage-file
p673
Vvmlinux.gz
p674
sVsigned-modules
p675
I00
ss(Vbase
p676
Vsparc
p677
tp678
(dp679
Vkernel-arch
p680
Vsparc
p681
sVfeaturesets
p682
(lp683
ss(Vbuild
p684
g70
tp685
(dp686
Vimage-file
p687
Varch/x86/boot/bzImage
p688
sVsigned-modules
p689
I00
sVvdso
p690
I01
sVdebug-info
p691
I01
ss(Vbuild
p692
g236
tp693
(dp694
Vimage-file
p695
Varch/arm/boot/zImage
p696
sVsigned-modules
p697
I00
ss(g36
g168
g37
tp698
(dp699
g40
(lp700
Vm68k
p701
asg46
I01
ss(Vbase
p702
g168
tp703
(dp704
g67
(lp705
g37
asVkernel-arch
p706
Vm68k
p707
sVcflags
p708
V-ffreestanding
p709
ss(Vdescription
p710
g70
NVamd64
p711
tp712
(dp713
Vhardware
p714
V64-bit PCs
p715
sVhardware-long
p716
VPCs with AMD64, Intel 64 or VIA Nano processors
p717
ss(Vdescription
p718
g70
g124
Vamd64
p719
tp720
(dp721
Vparts
p722
(lp723
Vxen
p724
ass(Vbase
p725
g109
tp726
(dp727
Vkernel-arch
p728
Vmips
p729
sg67
(lp730
g37
ass(g36
g236
g37
tp731
(dp732
g40
(lp733
Vmarvell
p734
aVversatile
p735
asg46
I01
ss(Vimage
p736
g56
tp737
(dp738
Vsuggests
p739
Vmkvmlinuz
p740
sVinstall-stem
p741
Vvmlinux
p742
sVconfigs
p743
(lp744
ss(g36
g93
g37
tp745
(dp746
g40
(lp747
Vsh7751r
p748
aVsh7785lcr
p749
asg46
I01
ss(Vimage
p750
g24
NV5kc-malta
p751
tp752
(dp753
Vconfigs
p754
(lp755
Vkernelarch-mips/config.malta
p756
aVkernelarch-mips/config.mips64r2
p757
ass(Vbase
p758
g5
tp759
(dp760
Vkernel-arch
p761
Vpowerpc
p762
sg67
(lp763
g37
ass(g36
g131
g37
tp764
(dp765
g40
(lp766
Varmmp
p767
aVarmmp-lpae
p768
asg46
I01
ss(Vimage
p769
g200
tp770
(dp771
Vinstall-stem
p772
Vvmlinuz
p773
sVbootloaders
p774
(lp775
Vs390-tools
p776
ass(Vdescription
p777
g62
NVpowerpc
p778
tp779
(dp780
Vhardware
p781
Vuniprocessor 32-bit PowerPC
p782
ss(Vimage
p783
g93
tp784
(dp785
Vinstall-stem
p786
Vvmlinuz
p787
ss(Vbuild
p788
g200
tp789
(dp790
Vimage-file
p791
Varch/s390/boot/image
p792
sVvdso
p793
I01
ss(Vdescription
p794
g145
NValpha-smp
p795
tp796
(dp797
Vhardware
p798
VAlpha SMP
p799
sVhardware-long
p800
VDEC Alpha SMP systems with extended kernel start address (Wildfire, Titan, Marvel)
p801
ss(Vdescription
p802
g24
NVloongson-3
p803
tp804
(dp805
Vhardware
p806
VLoongson 3A/3B
p807
sVhardware-long
p808
VLoongson 3A or 3B based systems (e.g. from Loongson or Lemote)
p809
ss(Vdescription
p810
g85
NV4kc-malta
p811
tp812
(dp813
Vhardware
p814
VMIPS Malta
p815
sVhardware-long
p816
VMIPS Malta boards
p817
ss(Vimage
p818
g56
NVpowerpc64
p819
tp820
(dp821
Vconfigs
p822
(lp823
Vkernelarch-powerpc/config-arch-64
p824
aVkernelarch-powerpc/config-arch-64-be
p825
ass(Vimage
p826
g256
NVsparc64-smp
p827
tp828
(dp829
Vconfigs
p830
(lp831
Vkernelarch-sparc/config-smp
p832
ass(Vimage
p833
g48
NVocteon
p834
tp835
(dp836
Vconfigs
p837
(lp838
Vkernelarch-mips/config.octeon
p839
ass(Vbase
p840
NVrt
p841
tp842
(dp843
Venabled
p844
I01
ss(Vdescription
p845
g24
NV4kc-malta
p846
tp847
(dp848
Vhardware
p849
VMIPS Malta
p850
sVhardware-long
p851
VMIPS Malta boards
p852
ss(Vdescription
p853
g264
NVparisc64-smp
p854
tp855
(dp856
Vhardware
p857
Vmultiprocessor 64-bit PA-RISC
p858
sVhardware-long
p859
VHP PA-RISC 64-bit SMP systems with support for more than 4 GB RAM
p860
ss(Vbuild
p861
g264
tp862
(dp863
Vimage-file
p864
Vvmlinux
p865
sVsigned-modules
p866
I00
ss(Vbuild
p867
g131
tp868
(dp869
Vimage-file
p870
Varch/arm/boot/zImage
p871
sVsigned-modules
p872
I00
sVvdso
p873
I01
ss(Vbase
p874
g32
Vnone
p875
tp876
(dp877
Vflavours
p878
(lp879
Varm64
p880
ass(Vimage
p881
g48
NV5kc-malta
p882
tp883
(dp884
Vconfigs
p885
(lp886
Vkernelarch-mips/config.malta
p887
aVkernelarch-mips/config.mips64r2
p888
ass(Vbase
p889
g24
tp890
(dp891
Vkernel-arch
p892
Vmips
p893
sg67
(lp894
g37
ass(Vimage
p895
g32
tp896
(dp897
Vinstall-stem
p898
Vvmlinuz
p899
ss(Vabi
p900
Ng506
tp901
(dp902
Vignore-changes
p903
(lp904
V*
p905
ass(Vdescription
p906
g256
NVsparc64-smp
p907
tp908
(dp909
Vhardware
p910
Vmultiprocessor 64-bit UltraSPARC
p911
ss(Vbuild
p912
g93
tp913
(dp914
Vimage-file
p915
Varch/sh/boot/zImage
p916
sVsigned-modules
p917
I00
ss(Vimage
p918
g109
NVloongson-3
p919
tp920
(dp921
Vconfigs
p922
(lp923
Vkernelarch-mips/config.loongson-3
p924
ass(Vbuild
p925
g32
tp926
(dp927
Vimage-file
p928
Varch/arm64/boot/Image
p929
sVsigned-modules
p930
I00
sVvdso
p931
I01
sVdebug-info
p932
I01
ss(Vbuild
p933
g102
tp934
(dp935
Vimage-file
p936
Vvmlinux
p937
sVsigned-modules
p938
I00
sVvdso
p939
I01
ss(Vimage
p940
g24
tp941
(dp942
Vinstall-stem
p943
Vvmlinux
p944
ss(Vimage
p945
g102
tp946
(dp947
Vsuggests
p948
Vmkvmlinuz
p949
sVinstall-stem
p950
Vvmlinux
p951
ss(Vimage
p952
g5
NVpowerpc64le
p953
tp954
(dp955
Vconfigs
p956
(lp957
Vkernelarch-powerpc/config-arch-64
p958
aVkernelarch-powerpc/config-arch-64-le
p959
ass(Vabi
p960
tp961
(dp962
Vabiname
p963
Vkali1
p964
sVignore-changes
p965
(lp966
Vmodule:drivers/net/wireless/ath/*
p967
ass(Vbase
p968
g85
tp969
(dp970
Vkernel-arch
p971
Vmips
p972
sg67
(lp973
g37
ass(Vimage
p974
g24
NV4kc-malta
p975
tp976
(dp977
Vconfigs
p978
(lp979
Vkernelarch-mips/config.malta
p980
aVkernelarch-mips/config.mips32r2
p981
ass(Vimage
p982
g62
NVpowerpc-smp
p983
tp984
(dp985
Vconfigs
p986
(lp987
Vpowerpc/config.powerpc
p988
aVpowerpc/config.powerpc-smp
p989
ass(Vdescription
p990
g48
NV5kc-malta
p991
tp992
(dp993
Vhardware
p994
VMIPS Malta
p995
sVhardware-long
p996
VMIPS Malta boards
p997
ss(Vbuild
p998
g85
tp999
(dp1000
Vimage-file
p1001
Vvmlinux
p1002
sVsigned-modules
p1003
I00
ss(Vbuild
p1004
g48
tp1005
(dp1006
Vimage-file
p1007
Vvmlinux
p1008
sVsigned-modules
p1009
I00
ss(Vdescription
p1010
g256
NVsparc64
p1011
tp1012
(dp1013
Vhardware
p1014
Vuniprocessor 64-bit UltraSPARC
p1015
ss(Vrelations
p1016
g264
tp1017
(dp1018
Vgcc-5
p1019
Vgcc-5 <!stage1 !cross>, binutils-hppa64-linux-gnu <!stage1 !cross>, gcc-5-hppa64-linux-gnu <!stage1 !cross>, gcc-5-hppa-linux-gnu:native <!stage1 cross>, binutils-hppa64-linux-gnu:native <!stage1 cross>, gcc-5-hppa64-linux-gnu:native <!stage1 cross>
p1020
ss(Vdescription
p1021
g15
tp1022
(dp1023
Vpart-long-pae
p1024
VThis kernel requires PAE (Physical Address Extension).\u000aThis feature is supported by the Intel Pentium Pro/II/III/4/4M/D, Xeon,\u000aCore and Atom; AMD Geode NX, Athlon (K7), Duron, Opteron, Sempron,\u000aTurion or Phenom; Transmeta Efficeon; VIA C7; and some other processors.
p1025
ss(Vbuild
p1026
g15
tp1027
(dp1028
Vimage-file
p1029
Varch/x86/boot/bzImage
p1030
sVsigned-modules
p1031
I00
sVvdso
p1032
I01
ss(Vbuild
p1033
g15
NV686-pae
p1034
tp1035
(dp1036
Vdebug-info
p1037
I01
ss(Vbase
p1038
Vmipsn32el
p1039
tp1040
(dp1041
Vkernel-arch
p1042
Vmips
p1043
sVfeaturesets
p1044
(lp1045
ss(Vdescription
p1046
g236
NVmarvell
p1047
tp1048
(dp1049
Vhardware
p1050
VMarvell Kirkwood/Orion
p1051
sVhardware-long
p1052
VMarvell Kirkwood based systems (SheevaPlug, QNAP TS-119/TS-219, etc)\u000aand Orion 5181, 5182 and 5281 based systems (QNAP TS-109/TS-209, etc)
p1053
ss(Vbase
p1054
g131
tp1055
(dp1056
Vkernel-arch
p1057
Varm
p1058
sg67
(lp1059
g37
ass(Vbase
p1060
g264
tp1061
(dp1062
Vkernel-arch
p1063
Vparisc
p1064
sg67
(lp1065
g37
ass(Vbase
p1066
Vtilegx
p1067
tp1068
(dp1069
Vkernel-arch
p1070
Vtile
p1071
sVfeaturesets
p1072
(lp1073
ss(Vbase
p1074
Vmipsn32
p1075
tp1076
(dp1077
Vkernel-arch
p1078
Vmips
p1079
sVfeaturesets
p1080
(lp1081
ss(Vbase
p1082
g56
tp1083
(dp1084
Vkernel-arch
p1085
Vpowerpc
p1086
sg67
(lp1087
g37
ass(Vimage
p1088
g109
tp1089
(dp1090
Vinstall-stem
p1091
Vvmlinux
p1092
ss(Vimage
p1093
g236
tp1094
(dp1095
Vinstall-stem
p1096
Vvmlinuz
p1097
ss(Vbase
p1098
g145
tp1099
(dp1100
Vkernel-arch
p1101
Valpha
p1102
sg67
(lp1103
g37
ass(Vimage
p1104
g48
tp1105
(dp1106
Vinstall-stem
p1107
Vvmlinux
p1108
ss(Vrelations
p1109
g15
tp1110
(dp1111
Vheaders%gcc-5
p1112
Vlinux-compiler-gcc-5-x86
p1113
ss(Vdescription
p1114
g131
NVarmmp
p1115
tp1116
(dp1117
Vhardware
p1118
VARMv7 multiplatform compatible SoCs
p1119
sVhardware-long
p1120
VARMv7 multiplatform kernel. See\u000ahttps://wiki.debian.org/DebianKernel/ARMMP for details of supported\u000aplatforms
p1121
ss(Vimage
p1122
g24
NVloongson-3
p1123
tp1124
(dp1125
Vconfigs
p1126
(lp1127
Vkernelarch-mips/config.loongson-3
p1128
ass(Vimage
p1129
g256
tp1130
(dp1131
Vsuggests
p1132
Vsilo, fdutils
p1133
sVinstall-stem
p1134
Vvmlinuz
p1135
sVconfigs
p1136
(lp1137
ss(Vimage
p1138
g264
tp1139
(dp1140
Vsuggests
p1141
Vpalo
p1142
sVinstall-stem
p1143
Vvmlinux
p1144
ss(Vimage
p1145
g131
tp1146
(dp1147
Vinstall-stem
p1148
Vvmlinuz
p1149
ss(Vbuild
p1150
g200
NVs390x
p1151
tp1152
(dp1153
Vdebug-info
p1154
I01
ss(Vimage
p1155
g93
NVsh7785lcr
p1156
tp1157
(dp1158
Vrecommends
p1159
Vu-boot-tools
p1160
sVcheck-size
p1161
L4194304L
ss(Vdescription
p1162
g236
NVversatile
p1163
tp1164
(dp1165
Vhardware
p1166
VVersatile
p1167
sVhardware-long
p1168
VVersatile systems (PB, AB, Qemu)
p1169
ss(Vxen
p1170
g70
g124
Vamd64
p1171
tp1172
(dp1173
Vflavours
p1174
(lp1175
Vamd64
p1176
ass(Vbase
p1177
g70
tp1178
(dp1179
Vkernel-arch
p1180
Vx86
p1181
sVfeaturesets
p1182
(lp1183
Vnone
p1184
aVrt
p1185
asstp1186
Rp1187
.