ccopy_reg
_reconstructor
p0
(cdebian_linux.config
ConfigCore
p1
c__builtin__
dict
p2
(dp3
(Vdescription
p4
Varmel
p5
NVkirkwood
p6
tp7
(dp8
Vhardware-long
p9
VMarvell Kirkwood based systems (SheevaPlug, QNAP TS-119/TS-219, etc)
p10
sVhardware
p11
VMarvell Kirkwood
p12
ss(Vbase
p13
Vppc64el
p14
Vnone
p15
tp16
(dp17
Vflavours
p18
(lp19
Vpowerpc64le
p20
asVimplicit-flavour
p21
I01
ss(Vdescription
p22
Vamd64
p23
Vnone
p24
Vamd64
p25
tp26
(dp27
Vparts
p28
(lp29
Vxen
p30
ass(Vrelations
p31
g5
tp32
(dp33
Vheaders%gcc-4.9
p34
Vlinux-compiler-gcc-4.9-arm
p35
ss(g13
g5
g15
tp36
(dp37
g18
(lp38
Vkirkwood
p39
aVorion5x
p40
aVversatile
p41
asg21
I01
ss(Vbase
p42
Vs390x
p43
tp44
(dp45
Vkernel-arch
p46
Vs390
p47
sVfeaturesets
p48
(lp49
g15
ass(Vdescription
p50
Vi386
p51
NV686
p52
tp53
(dp54
Vhardware-long
p55
VPCs with one or more processors not supporting PAE
p56
sVhardware
p57
Volder PCs
p58
ss(Vbase
p59
g51
tp60
(dp61
Vkernel-arch
p62
Vx86
p63
sVfeaturesets
p64
(lp65
Vnone
p66
aVrt
p67
asVcompiler
p68
Vgcc-5
p69
ss(Vdescription
p70
Vsh4
p71
NVsh7751r
p72
tp73
(dp74
Vhardware-long
p75
VRenesas SH7751R R2D plus board
p76
sVhardware
p77
Vsh7751r
p78
ss(Vbuild
p79
Vm68k
p80
tp81
(dp82
Vimage-file
p83
Vvmlinux.gz
p84
ss(Vbase
p85
g23
tp86
(dp87
Vkernel-arch
p88
Vx86
p89
sVfeaturesets
p90
(lp91
Vnone
p92
aVrt
p93
asVcompiler
p94
Vgcc-5
p95
ss(Vbuild
p96
Vppc64
p97
tp98
(dp99
Vimage-file
p100
Vvmlinux
p101
ss(Vbuild
p102
Valpha
p103
tp104
(dp105
Vimage-file
p106
Varch/alpha/boot/vmlinux.gz
p107
ss(g13
Varmhf
p108
g15
tp109
(dp110
g18
(lp111
Varmmp
p112
aVarmmp-lpae
p113
asg21
I01
ss(Vimage
p114
Vmips
p115
NVocteon
p116
tp117
(dp118
Vconfigs
p119
(lp120
Vkernelarch-mips/config.octeon
p121
ass(Vimage
p122
Vsparc64
p123
tp124
(dp125
Vinstall-stem
p126
Vvmlinuz
p127
sVsuggests
p128
Vsilo, fdutils
p129
sVconfigs
p130
(lp131
ss(Vbase
p132
NVrt
p133
tp134
(dp135
Venabled
p136
I00
ss(g13
Vpowerpc
p137
g15
tp138
(dp139
g18
(lp140
Vpowerpc
p141
aVpowerpc-smp
p142
aVpowerpc64
p143
asg21
I01
ss(Vdescription
p144
g123
NVsparc64
p145
tp146
(dp147
Vhardware
p148
Vuniprocessor 64-bit UltraSPARC
p149
ss(Vbuild
p150
Vpowerpcspe
p151
tp152
(dp153
Vimage-file
p154
Vvmlinux
p155
ss(Vimage
p156
Vhppa
p157
tp158
(dp159
Vinstall-stem
p160
Vvmlinux
p161
sVsuggests
p162
Vpalo
p163
ss(Vdescription
p164
g5
NVorion5x
p165
tp166
(dp167
Vhardware-long
p168
VMarvell Orion 5181, 5182 and 5281 based systems (QNAP TS-109/TS-209, etc)
p169
sVhardware
p170
VMarvell Orion
p171
ss(Vdescription
p172
NVrt
p173
tp174
(dp175
Vpart-long-rt
p176
VThis kernel includes the PREEMPT_RT realtime patch set.
p177
sVpart-short-rt
p178
VPREEMPT_RT
p179
sVparts
p180
(lp181
Vrt
p182
ass(Vbuild
p183
g5
tp184
(dp185
Vimage-file
p186
Varch/arm/boot/zImage
p187
ss(Vimage
p188
g151
tp189
(dp190
Vinstall-stem
p191
Vvmlinux
p192
sVsuggests
p193
Vmkvmlinuz
p194
ss(g13
g97
g15
tp195
(dp196
g18
(lp197
Vpowerpc64
p198
asg21
I01
ss(Vbase
p199
Vs390
p200
tp201
(dp202
Vkernel-arch
p203
Vs390
p204
sVfeaturesets
p205
(lp206
ss(Vxen
p207
g23
g24
Vamd64
p208
tp209
(dp210
Vflavours
p211
(lp212
Vamd64
p213
ass(Vrelations
p214
tp215
(dp216
Vinitramfs-tools
p217
Vinitramfs-tools (>= 0.110~)
p218
sVinitramfs-fallback
p219
Vlinux-initramfs-tool
p220
sVgcc-4.9
p221
Vgcc-4.9 <!stage1>
p222
sVgcc-5
p223
Vgcc-5 <!stage1>
p224
sVgcc-4.8
p225
Vgcc-4.8 <!stage1>
p226
ss(Vdescription
p227
g23
NVamd64
p228
tp229
(dp230
Vhardware-long
p231
VPCs with AMD64, Intel 64 or VIA Nano processors
p232
sVhardware
p233
V64-bit PCs
p234
ss(Vdescription
p235
g51
tp236
(dp237
Vpart-long-pae
p238
VThis kernel requires PAE (Physical Address Extension).\u000aThis feature is supported by the Intel Pentium Pro/II/III/4/4M/D, Xeon,\u000aCore and Atom; AMD Geode NX, Athlon (K7), Duron, Opteron, Sempron,\u000aTurion or Phenom; Transmeta Efficeon; VIA C7; and some other processors.
p239
ss(Vdescription
p240
Vmips64
p241
NV5kc-malta
p242
tp243
(dp244
Vhardware-long
p245
VMIPS Malta boards
p246
sVhardware
p247
VMIPS Malta
p248
ss(Vbase
p249
g51
Vnone
p250
tp251
(dp252
Vflavours
p253
(lp254
V686
p255
aV686-pae
p256
ass(Vdescription
p257
g80
NVm68k
p258
tp259
(dp260
Vhardware
p261
VMotorola MC68020+ family
p262
ss(Vbuild
p263
g14
tp264
(dp265
Vimage-file
p266
Vvmlinux
p267
ss(Vimage
p268
g5
tp269
(dp270
Vinstall-stem
p271
Vvmlinuz
p272
sVconfigs
p273
(lp274
Vkernelarch-arm/config
p275
aVarmel/config
p276
asVsuggests
p277
Vfdutils
p278
ss(g13
g80
g15
tp279
(dp280
g18
(lp281
Vm68k
p282
asg21
I01
ss(Vimage
p283
g51
tp284
(dp285
Vbreaks
p286
Vxserver-xorg-input-vmmouse (<< 1:13.0.99)
p287
sVinstall-stem
p288
Vvmlinuz
p289
sVconfigs
p290
(lp291
sVbootloaders
p292
(lp293
Vgrub-pc
p294
aVextlinux
p295
ass(Vbase
p296
g51
Vrt
p297
tp298
(dp299
Vflavours
p300
(lp301
V686-pae
p302
ass(Vbuild
p303
Vmipsel
p304
tp305
(dp306
Vimage-file
p307
Vvmlinux
p308
ss(Vdescription
p309
g43
NVs390x
p310
tp311
(dp312
Vhardware
p313
VIBM zSeries
p314
ss(Vdescription
p315
g115
NV4kc-malta
p316
tp317
(dp318
Vhardware-long
p319
VMIPS Malta boards
p320
sVhardware
p321
VMIPS Malta
p322
ss(Vimage
p323
g14
tp324
(dp325
Vinstall-stem
p326
Vvmlinux
p327
sVsuggests
p328
Vmkvmlinuz
p329
sVconfigs
p330
(lp331
ss(Vdescription
p332
g137
NVpowerpc64
p333
tp334
(dp335
Vhardware
p336
V64-bit PowerPC
p337
ss(Vbase
p338
g123
tp339
(dp340
Vkernel-arch
p341
Vsparc
p342
sg48
(lp343
g15
ass(g13
g43
g15
tp344
(dp345
g18
(lp346
Vs390x
p347
asg21
I01
ss(Vdescription
p348
g157
NVparisc
p349
tp350
(dp351
Vhardware-long
p352
VHP PA-RISC 32-bit systems with max 4 GB RAM
p353
sVhardware
p354
V32-bit PA-RISC
p355
ss(Vdescription
p356
g51
NV686-pae
p357
tp358
(dp359
Vhardware-long
p360
VPCs with one or more processors supporting PAE
p361
sVhardware
p362
Vmodern PCs
p363
sVparts
p364
(lp365
Vpae
p366
ass(Vbuild
p367
Varm64
p368
tp369
(dp370
Vdebug-info
p371
I01
sVimage-file
p372
Varch/arm64/boot/Image
p373
ss(Vimage
p374
g51
NV686
p375
tp376
(dp377
Vrecommends
p378
Vlibc6-i686
p379
sVconfigs
p380
(lp381
Vkernelarch-x86/config-arch-32
p382
aVi386/config.686
p383
ass(Vimage
p384
g80
tp385
(dp386
Vinstall-stem
p387
Vvmlinuz
p388
sVsuggests
p389
Vvmelilo, fdutils
p390
ss(Vbase
p391
g157
tp392
(dp393
Vkernel-arch
p394
Vparisc
p395
sg48
(lp396
g15
ass(Vdescription
p397
g108
NVarmmp-lpae
p398
tp399
(dp400
Vhardware-long
p401
VARMv7 multiplatform kernel supporting LPAE. See\u000ahttps://wiki.debian.org/DebianKernel/ARMMP for details of supported\u000aplatforms.
p402
sVhardware
p403
VARMv7 multiplatform compatible SoCs supporting LPAE
p404
ss(Vimage
p405
g14
NVpowerpc64le
p406
tp407
(dp408
Vconfigs
p409
(lp410
Vkernelarch-powerpc/config-arch-64
p411
aVkernelarch-powerpc/config-arch-64-le
p412
ass(Vbase
p413
g304
tp414
(dp415
Vkernel-arch
p416
Vmips
p417
sg48
(lp418
g15
ass(Vimage
p419
g137
NVpowerpc64
p420
tp421
(dp422
Vconfigs
p423
(lp424
Vkernelarch-powerpc/config-arch-64
p425
aVkernelarch-powerpc/config-arch-64-be
p426
ass(Vrelations
p427
g157
tp428
(dp429
Vgcc-4.9
p430
Vgcc-4.9 <!stage1>, binutils-hppa64 <!stage1>, gcc-4.9-hppa64 <!stage1>
p431
ss(Vimage
p432
g137
tp433
(dp434
Vinstall-stem
p435
Vvmlinux
p436
sVsuggests
p437
Vmkvmlinuz
p438
sVconfigs
p439
(lp440
ss(Vbase
p441
g14
tp442
(dp443
Vkernel-arch
p444
Vpowerpc
p445
sg48
(lp446
g15
ass(Vdescription
p447
g115
NVocteon
p448
tp449
(dp450
Vhardware-long
p451
VCavium Networks Octeon
p452
sVhardware
p453
VOcteon
p454
ss(Vdescription
p455
tp456
(dp457
Vpart-long-xen
p458
VThis kernel also runs on a Xen hypervisor.\u000aIt supports both privileged (dom0) and unprivileged (domU) operation.
p459
sVpart-long-up
p460
VThis kernel is not suitable for SMP (multi-processor,\u000amulti-core or hyper-threaded) systems.
p461
ss(Vimage
p462
g368
tp463
(dp464
Vinstall-stem
p465
Vvmlinuz
p466
ss(Vimage
p467
g5
NVorion5x
p468
tp469
(dp470
Vconfigs
p471
(lp472
Varmel/config-reduced
p473
aVarmel/config.orion5x
p474
asVrecommends
p475
Vu-boot-tools
p476
sVcheck-size
p477
L2097080L
sVcheck-size-with-dtb
p478
I01
ss(Vimage
p479
g51
NV686-pae
p480
tp481
(dp482
Vrecommends
p483
Vlibc6-i686
p484
sVconfigs
p485
(lp486
Vkernelarch-x86/config-arch-32
p487
aVi386/config.686-pae
p488
ass(Vbuild
p489
g51
tp490
(dp491
Vimage-file
p492
Varch/x86/boot/bzImage
p493
ss(Vbuild
p494
g123
tp495
(dp496
Vimage-file
p497
Varch/sparc/boot/zImage
p498
ss(Vimage
p499
g115
tp500
(dp501
Vinstall-stem
p502
Vvmlinux
p503
ss(Vdescription
p504
g304
NVloongson-2f
p505
tp506
(dp507
Vhardware-long
p508
VLemote Loongson 2F systems
p509
sVhardware
p510
VLoongson 2F
p511
ss(Vimage
p512
g108
tp513
(dp514
Vinstall-stem
p515
Vvmlinuz
p516
sVconfigs
p517
(lp518
Vkernelarch-arm/config
p519
asVsuggests
p520
Vfdutils
p521
ss(Vimage
p522
g43
NVs390x
p523
tp524
(dp525
Vconfigs
p526
(lp527
Vkernelarch-s390/config-arch-64
p528
ass(Vbuild
p529
g43
tp530
(dp531
Vimage-file
p532
Varch/s390/boot/image
p533
ss(Vrelations
p534
g51
tp535
(dp536
Vheaders%gcc-5
p537
Vlinux-compiler-gcc-5-x86
p538
ss(Vbase
p539
g241
tp540
(dp541
Vkernel-arch
p542
Vmips
p543
sg48
(lp544
g15
ass(Vimage
p545
g304
NV4kc-malta
p546
tp547
(dp548
Vconfigs
p549
(lp550
Vkernelarch-mips/config.4kc-malta
p551
ass(Vimage
p552
g304
NV5kc-malta
p553
tp554
(dp555
Vconfigs
p556
(lp557
Vkernelarch-mips/config.5kc-malta
p558
ass(Vimage
p559
g368
NVarm64
p560
tp561
(dp562
s(g13
g241
g15
tp563
(dp564
g18
(lp565
V5kc-malta
p566
aVocteon
p567
asg21
I01
ss(Vimage
p568
g137
NVpowerpc-smp
p569
tp570
(dp571
Vconfigs
p572
(lp573
Vpowerpc/config.powerpc
p574
aVpowerpc/config.powerpc-smp
p575
ass(Vversion
p576
tp577
(dp578
Vabiname
p579
V4.3.0-kali1
p580
sVsource
p581
V4.3.3-5kali3
p582
sVupstream
p583
V4.3
p584
sVabiname_base
p585
V4.3.0
p586
ss(Vbuild
p587
Vmips64el
p588
tp589
(dp590
Vimage-file
p591
Vvmlinux
p592
ss(Vbase
p593
g368
tp594
(dp595
Vkernel-arch
p596
Varm64
p597
sVfeaturesets
p598
(lp599
Vnone
p600
ass(g13
g151
g15
tp601
(dp602
g18
(lp603
Vpowerpcspe
p604
asg21
I01
ss(Vbase
p605
g151
tp606
(dp607
Vkernel-arch
p608
Vpowerpc
p609
sg48
(lp610
g15
ass(Vbase
p611
g23
Vrt
p612
tp613
(dp614
Vflavours
p615
(lp616
Vamd64
p617
ass(g13
g123
g15
tp618
(dp619
g18
(lp620
Vsparc64
p621
aVsparc64-smp
p622
asg21
I01
ss(Vdescription
p623
g137
NVpowerpc-smp
p624
tp625
(dp626
Vhardware
p627
Vmultiprocessor 32-bit PowerPC
p628
ss(Vimage
p629
g241
NV5kc-malta
p630
tp631
(dp632
Vconfigs
p633
(lp634
Vkernelarch-mips/config.5kc-malta
p635
ass(Vimage
p636
g588
NVloongson-3
p637
tp638
(dp639
Vconfigs
p640
(lp641
Vkernelarch-mips/config.loongson-3
p642
ass(g13
g103
g15
tp643
(dp644
g18
(lp645
Valpha-generic
p646
aValpha-smp
p647
asg21
I01
ss(Vimage
p648
g103
tp649
(dp650
Vinstall-stem
p651
Vvmlinuz
p652
sVsuggests
p653
Vaboot, fdutils
p654
ss(Vdescription
p655
g14
NVpowerpc64le
p656
tp657
(dp658
Vhardware
p659
VLittle-endian 64-bit PowerPC
p660
ss(Vdescription
p661
g368
NVarm64
p662
tp663
(dp664
Vhardware
p665
V64-bit ARMv8 machines
p666
ss(Vimage
p667
g304
NVloongson-3
p668
tp669
(dp670
Vconfigs
p671
(lp672
Vkernelarch-mips/config.loongson-3
p673
ass(Vbase
p674
g71
tp675
(dp676
Vkernel-arch
p677
Vsh
p678
sg48
(lp679
g15
ass(Vdescription
p680
g304
NVloongson-3
p681
tp682
(dp683
Vhardware-long
p684
VLoongson 3A or 3B based systems (e.g. from Loongson or Lemote)
p685
sVhardware
p686
VLoongson 3A/3B
p687
ss(Vbase
p688
g115
tp689
(dp690
Vkernel-arch
p691
Vmips
p692
sg48
(lp693
g15
ass(Vbase
p694
g137
tp695
(dp696
Vkernel-arch
p697
Vpowerpc
p698
sg48
(lp699
g15
ass(Vbuild
p700
g51
NV686-pae
p701
tp702
(dp703
Vdebug-info
p704
I01
ss(Vimage
p705
g97
NVpowerpc64
p706
tp707
(dp708
Vconfigs
p709
(lp710
Vkernelarch-powerpc/config-arch-64
p711
aVkernelarch-powerpc/config-arch-64-be
p712
ass(Vabi
p713
tp714
(dp715
Vabiname
p716
Vkali1
p717
sVignore-changes
p718
(lp719
Vmodule:net/dccp/dccp
p720
aVfl6_*
p721
aVinet_sk_diag_fill
p722
aVip6_append_data
p723
aVip6_datagram_send_ctl
p724
aVip6_xmit
p725
aVipv6_dup_options
p726
aVipv6_fixup_options
p727
aVipv6_push_nfrag_opts
p728
aVtcp_cong_avoid_ai
p729
aVtcp_slow_start
p730
aVpin_is_valid
p731
aVpinctrl_*
p732
ass(Vbase
p733
g588
tp734
(dp735
Vkernel-arch
p736
Vmips
p737
sg48
(lp738
g15
ass(Vbase
p739
g108
tp740
(dp741
Vkernel-arch
p742
Varm
p743
sg48
(lp744
g15
ass(g13
g588
g15
tp745
(dp746
g18
(lp747
V5kc-malta
p748
aVloongson-3
p749
aVocteon
p750
asg21
I01
ss(Vimage
p751
g71
NVsh7785lcr
p752
tp753
(dp754
Vrecommends
p755
Vu-boot-tools
p756
sVcheck-size
p757
L4194304L
ss(Vdescription
p758
g103
NValpha-generic
p759
tp760
(dp761
Vhardware-long
p762
VDEC Alpha systems with extended kernel start address (Wildfire, Titan, Marvel)
p763
sVhardware
p764
VAlpha
p765
ss(Vdescription
p766
g115
NV5kc-malta
p767
tp768
(dp769
Vhardware-long
p770
VMIPS Malta boards (64-bit)
p771
sVhardware
p772
VMIPS Malta (64-bit)
p773
ss(Vbase
p774
g157
NVparisc64-smp
p775
tp776
(dp777
Voverride-host-type
p778
Vhppa64-linux-gnu
p779
sVcflags
p780
V-fno-cse-follow-jumps
p781
ss(Vimage
p782
g241
tp783
(dp784
Vinstall-stem
p785
Vvmlinux
p786
ss(Vrelations
p787
g108
tp788
(dp789
Vheaders%gcc-4.9
p790
Vlinux-compiler-gcc-4.9-arm
p791
ss(Vdescription
p792
g241
NVocteon
p793
tp794
(dp795
Vhardware-long
p796
VCavium Networks Octeon
p797
sVhardware
p798
VOcteon
p799
ss(Vimage
p800
g241
NVocteon
p801
tp802
(dp803
Vconfigs
p804
(lp805
Vkernelarch-mips/config.octeon
p806
ass(Vimage
p807
g588
NVocteon
p808
tp809
(dp810
Vconfigs
p811
(lp812
Vkernelarch-mips/config.octeon
p813
ass(Vimage
p814
g115
NV5kc-malta
p815
tp816
(dp817
Vconfigs
p818
(lp819
Vkernelarch-mips/config.5kc-malta
p820
ass(Vimage
p821
g23
tp822
(dp823
Vbreaks
p824
Vxserver-xorg-input-vmmouse (<< 1:13.0.99)
p825
sVinstall-stem
p826
Vvmlinuz
p827
sVconfigs
p828
(lp829
sVbootloaders
p830
(lp831
Vgrub-pc
p832
aVgrub-efi
p833
aVextlinux
p834
ass(Vdescription
p835
g304
NV4kc-malta
p836
tp837
(dp838
Vhardware-long
p839
VMIPS Malta boards
p840
sVhardware
p841
VMIPS Malta
p842
ss(g13
g71
g15
tp843
(dp844
g18
(lp845
Vsh7751r
p846
aVsh7785lcr
p847
asg21
I01
ss(Vdescription
p848
g588
NVocteon
p849
tp850
(dp851
Vhardware-long
p852
VCavium Networks Octeon
p853
sVhardware
p854
VOcteon
p855
ss(Vrelations
p856
g23
tp857
(dp858
Vheaders%gcc-5
p859
Vlinux-compiler-gcc-5-x86
p860
ss(Vbuild
p861
g71
tp862
(dp863
Vimage-file
p864
Varch/sh/boot/zImage
p865
ss(Vdescription
p866
g137
NVpowerpc
p867
tp868
(dp869
Vhardware
p870
Vuniprocessor 32-bit PowerPC
p871
ss(g13
g304
g15
tp872
(dp873
g18
(lp874
V4kc-malta
p875
aV5kc-malta
p876
aVloongson-2e
p877
aVloongson-2f
p878
aVloongson-3
p879
asg21
I01
ss(Vdescription
p880
g123
NVsparc64-smp
p881
tp882
(dp883
Vhardware
p884
Vmultiprocessor 64-bit UltraSPARC
p885
ss(Vbase
p886
tp887
(dp888
Varches
p889
(lp890
Valpha
p891
aVamd64
p892
aVarm64
p893
aVarmel
p894
aVarmhf
p895
aVhppa
p896
aVi386
p897
aVm68k
p898
aVmips
p899
aVmipsel
p900
aVmips64
p901
aVmips64el
p902
aVor1k
p903
aVpowerpc
p904
aVpowerpcspe
p905
aVppc64
p906
aVppc64el
p907
aVs390
p908
aVs390x
p909
aVsh4
p910
aVsparc
p911
aVsparc64
p912
aVx32
p913
asVfeaturesets
p914
(lp915
Vnone
p916
aVrt
p917
asVcompiler
p918
Vgcc-4.9
p919
ss(Vimage
p920
g123
NVsparc64-smp
p921
tp922
(dp923
Vconfigs
p924
(lp925
Vkernelarch-sparc/config-smp
p926
ass(Vimage
p927
g108
NVarmmp-lpae
p928
tp929
(dp930
Vconfigs
p931
(lp932
Varmhf/config.armmp
p933
aVarmhf/config.lpae
p934
ass(Vimage
p935
tp936
(dp937
Vtype
p938
Vplain
p939
sVinitramfs-generators
p940
(lp941
Vinitramfs-tools
p942
aVinitramfs-fallback
p943
ass(Vimage
p944
g43
tp945
(dp946
Vinstall-stem
p947
Vvmlinuz
p948
sVconfigs
p949
(lp950
sVbootloaders
p951
(lp952
Vs390-tools
p953
ass(Vbase
p954
Vx32
p955
tp956
(dp957
Vkernel-arch
p958
Vx86
p959
sVfeaturesets
p960
(lp961
ss(g13
g115
g15
tp962
(dp963
g18
(lp964
V4kc-malta
p965
aV5kc-malta
p966
aVocteon
p967
asg21
I01
ss(Vabi
p968
Ng173
tp969
(dp970
Vignore-changes
p971
(lp972
V*
p973
ass(Vbase
p974
g23
g24
tp975
(dp976
Vflavours
p977
(lp978
Vamd64
p979
ass(Vbuild
p980
g108
tp981
(dp982
Vimage-file
p983
Varch/arm/boot/zImage
p984
ss(Vdescription
p985
g304
NV5kc-malta
p986
tp987
(dp988
Vhardware-long
p989
VMIPS Malta boards (64-bit)
p990
sVhardware
p991
VMIPS Malta (64-bit)
p992
ss(Vbuild
p993
g23
tp994
(dp995
Vdebug-info
p996
I01
sVimage-file
p997
Varch/x86/boot/bzImage
p998
ss(Vimage
p999
g115
NV4kc-malta
p1000
tp1001
(dp1002
Vconfigs
p1003
(lp1004
Vkernelarch-mips/config.4kc-malta
p1005
ass(Vbase
p1006
g103
tp1007
(dp1008
Vkernel-arch
p1009
Valpha
p1010
sg48
(lp1011
g15
ass(Vdescription
p1012
g108
NVarmmp
p1013
tp1014
(dp1015
Vhardware-long
p1016
VARMv7 multiplatform kernel. See\u000ahttps://wiki.debian.org/DebianKernel/ARMMP for details of supported\u000aplatforms
p1017
sVhardware
p1018
VARMv7 multiplatform compatible SoCs
p1019
ss(Vbase
p1020
Vsparc
p1021
tp1022
(dp1023
Vkernel-arch
p1024
Vsparc
p1025
sVfeaturesets
p1026
(lp1027
ss(Vimage
p1028
g304
tp1029
(dp1030
Vinstall-stem
p1031
Vvmlinux
p1032
ss(Vdescription
p1033
g97
NVpowerpc64
p1034
tp1035
(dp1036
Vhardware
p1037
V64-bit PowerPC
p1038
ss(Vdescription
p1039
g51
g250
V686-pae
p1040
tp1041
(dp1042
Vparts
p1043
(lp1044
Vxen
p1045
ass(Vdescription
p1046
g588
NVloongson-3
p1047
tp1048
(dp1049
Vhardware-long
p1050
VLoongson 3A or 3B based systems (e.g. from Loongson or Lemote)
p1051
sVhardware
p1052
VLoongson 3A/3B
p1053
ss(Vdescription
p1054
g157
NVparisc64-smp
p1055
tp1056
(dp1057
Vhardware-long
p1058
VHP PA-RISC 64-bit SMP systems with support for more than 4 GB RAM
p1059
sVhardware
p1060
Vmultiprocessor 64-bit PA-RISC
p1061
ss(Vbuild
p1062
g241
tp1063
(dp1064
Vimage-file
p1065
Vvmlinux
p1066
ss(Vimage
p1067
g304
NVloongson-2e
p1068
tp1069
(dp1070
Vconfigs
p1071
(lp1072
Vkernelarch-mips/config.loongson-2e
p1073
ass(Vimage
p1074
g23
NVamd64
p1075
tp1076
(dp1077
Vconfigs
p1078
(lp1079
Vkernelarch-x86/config-arch-64
p1080
ass(Vimage
p1081
g97
tp1082
(dp1083
Vinstall-stem
p1084
Vvmlinux
p1085
sVsuggests
p1086
Vmkvmlinuz
p1087
sVconfigs
p1088
(lp1089
ss(Vbase
p1090
g5
tp1091
(dp1092
Vkernel-arch
p1093
Varm
p1094
sg48
(lp1095
g15
ass(g13
g157
g15
tp1096
(dp1097
g18
(lp1098
Vparisc
p1099
aVparisc64-smp
p1100
asg21
I01
ss(Vdescription
p1101
g588
NV5kc-malta
p1102
tp1103
(dp1104
Vhardware-long
p1105
VMIPS Malta boards
p1106
sVhardware
p1107
VMIPS Malta
p1108
ss(Vbuild
p1109
g115
tp1110
(dp1111
Vimage-file
p1112
Vvmlinux
p1113
ss(Vbuild
p1114
g43
NVs390x
p1115
tp1116
(dp1117
Vdebug-info
p1118
I01
ss(Vdescription
p1119
g304
NVloongson-2e
p1120
tp1121
(dp1122
Vhardware-long
p1123
VLemote Loongson 2E systems
p1124
sVhardware
p1125
VLoongson 2E
p1126
ss(Vdescription
p1127
g103
NValpha-smp
p1128
tp1129
(dp1130
Vhardware-long
p1131
VDEC Alpha SMP systems with extended kernel start address (Wildfire, Titan, Marvel)
p1132
sVhardware
p1133
VAlpha SMP
p1134
ss(Vbase
p1135
g80
tp1136
(dp1137
Vkernel-arch
p1138
Vm68k
p1139
sg48
(lp1140
g15
asVcompiler
p1141
Vgcc-4.8
p1142
sVcflags
p1143
V-ffreestanding
p1144
ss(Vdescription
p1145
g5
NVversatile
p1146
tp1147
(dp1148
Vhardware-long
p1149
VVersatile systems (PB, AB, Qemu)
p1150
sVhardware
p1151
VVersatile
p1152
ss(Vbase
p1153
Vor1k
p1154
tp1155
(dp1156
Vkernel-arch
p1157
Vopenrisc
p1158
sVfeaturesets
p1159
(lp1160
ss(Vdescription
p1161
g71
NVsh7785lcr
p1162
tp1163
(dp1164
Vhardware-long
p1165
VRenesas SH7785 reference board
p1166
sVhardware
p1167
Vsh7785lcr
p1168
ss(Vrelations
p1169
g43
tp1170
(dp1171
Vheaders%gcc-4.9
p1172
Vlinux-compiler-gcc-4.9-s390
p1173
ss(Vbase
p1174
g368
Vnone
p1175
tp1176
(dp1177
Vflavours
p1178
(lp1179
Varm64
p1180
ass(Vimage
p1181
g588
NV5kc-malta
p1182
tp1183
(dp1184
Vconfigs
p1185
(lp1186
Vkernelarch-mips/config.5kc-malta
p1187
ass(Vbuild
p1188
g137
tp1189
(dp1190
Vimage-file
p1191
Vvmlinux
p1192
ss(Vimage
p1193
g71
tp1194
(dp1195
Vinstall-stem
p1196
Vvmlinuz
p1197
sVsuggests
p1198
Vfdutils
p1199
ss(Vimage
p1200
g5
NVkirkwood
p1201
tp1202
(dp1203
Vbreaks
p1204
Vflash-kernel (<< 3.37~)
p1205
sVconfigs
p1206
(lp1207
Varmel/config-reduced
p1208
aVarmel/config.kirkwood
p1209
asVcheck-size-with-dtb
p1210
I01
sVcheck-size
p1211
L2097080L
sVrecommends
p1212
Vu-boot-tools
p1213
ss(Vimage
p1214
g123
NVsparc64
p1215
tp1216
(dp1217
Vconfigs
p1218
(lp1219
Vkernelarch-sparc/config-up
p1220
ass(Vimage
p1221
g588
tp1222
(dp1223
Vinstall-stem
p1224
Vvmlinux
p1225
ss(Vimage
p1226
g304
NVloongson-2f
p1227
tp1228
(dp1229
Vrecommends
p1230
Vlibc6-loongson2f
p1231
sVconfigs
p1232
(lp1233
Vkernelarch-mips/config.loongson-2f
p1234
ass(Vbuild
p1235
g157
tp1236
(dp1237
Vimage-file
p1238
Vvmlinux
p1239
ss(Vdescription
p1240
g151
tp1241
(dp1242
Vhardware
p1243
V32-bit PowerPC with SPE (instead of AltiVec) with SMP support
p1244
ss(Vbase
p1245
g97
tp1246
(dp1247
Vkernel-arch
p1248
Vpowerpc
p1249
sg48
(lp1250
g15
asstp1251
Rp1252
.