cdebian_linux.config
ConfigCore
p0
(tRp1
(Vabi
p2
tp3
(dp4
Vabiname
p5
Vkali3
p6
sVignore-changes
p7
(lp8
V__cpuhp_*
p9
aV__xive_vm_h_*
p10
aVbpf_analyzer
p11
aVcxl_*
p12
aVdax_flush
p13
aVieee80211_nullfunc_get
p14
aVinet_add_protocol
p15
aVinet_del_protocol
p16
aViommu_device_*
p17
aVkvm_async_pf_task_wait
p18
aVkvmppc_*
p19
aVmm_iommu_*
p20
aVmv_mbus_*
p21
aVperf_*
p22
aVregister_cxl_calls
p23
aVregister_key_type
p24
aVunregister_cxl_calls
p25
aV*_hw_breakpoint
p26
aVmodule:arch/x86/kvm/*
p27
aVmodule:drivers/crypto/ccp/*
p28
aVmodule:drivers/hv/*
p29
aVmodule:drivers/iio/common/hid-sensors/*
p30
aVmodule:drivers/iio/common/st_sensors/**
p31
aVmodule:drivers/mtd/nand/*
p32
aVmodule:drivers/net/wireless/**
p33
aVmodule:drivers/nvdimm/*
p34
aVmodule:drivers/power/supply/bq27xxx_battery
p35
aVmodule:drivers/scsi/cxgbi/*
p36
aVmodule:drivers/scsi/libiscs*
p37
aVmodule:drivers/scsi/qla2xxx/qla2xxx
p38
aVmodule:drivers/scsi/ufs/*
p39
aVmodule:drivers/target/**
p40
aVmodule:drivers/usb/chipidea/**
p41
aVmodule:drivers/usb/gadget/**
p42
aVmodule:drivers/usb/host/**
p43
aVmodule:drivers/usb/musb/**
p44
aVmodule:fs/nfs/**
p45
aVmodule:net/ceph/libceph
p46
aVmodule:net/l2tp/**
p47
aVmodule:net/rxrpc/rxrpc
p48
aVmodule:sound/core/seq/**
p49
aVmodule:sound/firewire/snd-firewire-lib
p50
aVbtree_*
p51
aVvisitor*
p52
aVcan_rx_register
p53
aVip6_xmit
p54
aVmodule:net/dccp/dccp
p55
aVmodule:net/rds/rds
p56
aVdevfreq_*
p57
aVdevm_devfreq_*
p58
aVupdate_devfreq
p59
aVmodule:drivers/infiniband/**
p60
aVacpi_ec_add_query_handler
p61
aVacpi_ec_remove_query_handler
p62
aVfirst_ec
p63
aVdebugfs_create_automount
p64
aVmodule:drivers/iio/imu/inv_mpu6050/*
p65
ass(Vbase
p66
tp67
(dp68
Varches
p69
(lp70
Valpha
p71
aVamd64
p72
aVarm64
p73
aVarm64ilp32
p74
aVarmel
p75
aVarmhf
p76
aVhppa
p77
aVi386
p78
aVm68k
p79
aVmips
p80
aVmips64
p81
aVmips64el
p82
aVmips64r6
p83
aVmips64r6el
p84
aVmipsel
p85
aVmipsn32
p86
aVmipsn32el
p87
aVmipsn32r6
p88
aVmipsn32r6el
p89
aVmipsr6
p90
aVmipsr6el
p91
aVpowerpc
p92
aVpowerpcspe
p93
aVppc64
p94
aVppc64el
p95
aVs390
p96
aVs390x
p97
aVsh3
p98
aVsh4
p99
aVsparc
p100
aVsparc64
p101
aVtilegx
p102
aVx32
p103
asVcompiler
p104
Vgcc-7
p105
sVfeaturesets
p106
(lp107
Vnone
p108
aVrt
p109
ass(Vbuild
p110
tp111
(dp112
Vdebug-info
p113
I01
sVsigned-modules
p114
I00
ss(Vbase
p115
NVrt
p116
tp117
(dp118
Venabled
p119
I01
ss(Vdescription
p120
tp121
(dp122
Vpart-long-up
p123
VThis kernel is not suitable for SMP (multi-processor,\u000amulti-core or hyper-threaded) systems.
p124
sVpart-long-xen
p125
VThis kernel also runs on a Xen hypervisor.\u000aIt supports both privileged (dom0) and unprivileged (domU) operation.
p126
ss(Vimage
p127
tp128
(dp129
Vinitramfs-generators
p130
(lp131
Vinitramfs-tools
p132
aVinitramfs-fallback
p133
asVrecommends
p134
Vapparmor
p135
ss(Vrelations
p136
tp137
(dp138
Vgcc-7
p139
Vgcc-7 <!stage1 !cross>, gcc-7-@gnu-type-package@ <!stage1 cross>
p140
sVinitramfs-fallback
p141
Vlinux-initramfs-tool
p142
sVinitramfs-tools
p143
Vinitramfs-tools (>= 0.120+deb8u2)
p144
ss(Vbase
p145
Valpha
p146
tp147
(dp148
Vkernel-arch
p149
Valpha
p150
sVfeaturesets
p151
(lp152
Vnone
p153
ass(Vbuild
p154
g146
tp155
(dp156
Vimage-file
p157
Varch/alpha/boot/vmlinux.gz
p158
sVsigned-modules
p159
I00
ss(Vimage
p160
g146
tp161
(dp162
Vsuggests
p163
Vaboot, fdutils
p164
sVinstall-stem
p165
Vvmlinuz
p166
ss(Vdescription
p167
g146
NValpha-generic
p168
tp169
(dp170
Vhardware
p171
VAlpha
p172
sVhardware-long
p173
VDEC Alpha systems with extended kernel start address (Wildfire, Titan, Marvel)
p174
ss(Vdescription
p175
g146
NValpha-smp
p176
tp177
(dp178
Vhardware
p179
VAlpha SMP
p180
sVhardware-long
p181
VDEC Alpha SMP systems with extended kernel start address (Wildfire, Titan, Marvel)
p182
ss(Vbase
p183
g146
g153
tp184
(dp185
Vflavours
p186
(lp187
Valpha-generic
p188
aValpha-smp
p189
asVimplicit-flavour
p190
I01
ss(Vbase
p191
Vamd64
p192
tp193
(dp194
Vfeaturesets
p195
(lp196
Vnone
p197
aVrt
p198
asVkernel-arch
p199
Vx86
p200
ss(Vbuild
p201
g192
tp202
(dp203
Vdebug-info
p204
I01
sVimage-file
p205
Varch/x86/boot/bzImage
p206
sVvdso
p207
I01
sVsigned-modules
p208
I00
ss(Vimage
p209
g192
tp210
(dp211
Vbootloaders
p212
(lp213
Vgrub-pc
p214
aVgrub-efi-amd64
p215
aVextlinux
p216
asVinstall-stem
p217
Vvmlinuz
p218
sVbreaks
p219
Vxserver-xorg-input-vmmouse (<< 1:13.0.99)
p220
ss(Vrelations
p221
g192
tp222
(dp223
Vgcc-7
p224
Vgcc-7 (>= 7.2.0-20~) <!stage1 !cross>, gcc-7-x86-64-linux-gnu (>= 7.2.0-20~) <!stage1 cross>
p225
sVheaders%gcc-7
p226
Vlinux-compiler-gcc-7-x86 (>= 4.14.17-1~)
p227
ss(Vdescription
p228
g192
NVamd64
p229
tp230
(dp231
Vhardware
p232
V64-bit PCs
p233
sVhardware-long
p234
VPCs with AMD64, Intel 64 or VIA Nano processors
p235
ss(Vbase
p236
g192
Vnone
p237
tp238
(dp239
Vflavours
p240
(lp241
Vamd64
p242
ass(Vdescription
p243
g192
g237
Vamd64
p244
tp245
(dp246
Vparts
p247
(lp248
Vxen
p249
ass(Vbase
p250
g192
Vrt
p251
tp252
(dp253
Vflavours
p254
(lp255
Vamd64
p256
ass(Vbase
p257
Varm64
p258
tp259
(dp260
Vkernel-arch
p261
Varm64
p262
sVfeaturesets
p263
(lp264
Vnone
p265
ass(Vbuild
p266
g258
tp267
(dp268
Vdebug-info
p269
I01
sVimage-file
p270
Varch/arm64/boot/Image
p271
sVvdso
p272
I01
sVsigned-modules
p273
I00
ss(Vimage
p274
g258
tp275
(dp276
Vinstall-stem
p277
Vvmlinuz
p278
sVbreaks
p279
Vlibmozjs185-1.0, libmozjs-24-0 (<< 24.2.0-5.1~)
p280
ss(Vdescription
p281
g258
NVarm64
p282
tp283
(dp284
Vhardware
p285
V64-bit ARMv8 machines
p286
ss(Vimage
p287
g258
NVarm64
p288
tp289
(dp290
s(Vbase
p291
g258
Vnone
p292
tp293
(dp294
Vflavours
p295
(lp296
Varm64
p297
ass(Vbase
p298
Varm64ilp32
p299
tp300
(dp301
Vkernel-arch
p302
Varm64
p303
sVfeaturesets
p304
(lp305
ss(Vbase
p306
Varmel
p307
tp308
(dp309
Vkernel-arch
p310
Varm
p311
sg151
(lp312
g153
ass(Vbuild
p313
g307
tp314
(dp315
Vimage-file
p316
Varch/arm/boot/zImage
p317
sVsigned-modules
p318
I00
sVuncompressed-image-file
p319
Varch/arm/boot/Image
p320
ss(Vimage
p321
g307
tp322
(dp323
Vinstall-stem
p324
Vvmlinuz
p325
ss(Vrelations
p326
g307
tp327
(dp328
Vheaders%gcc-7
p329
Vlinux-compiler-gcc-7-arm
p330
ss(Vdescription
p331
g307
NVmarvell
p332
tp333
(dp334
Vhardware
p335
VMarvell Kirkwood/Orion
p336
sVhardware-long
p337
VMarvell Kirkwood based systems (SheevaPlug, QNAP TS-119/TS-219, etc)\u000aand Orion 5181, 5182 and 5281 based systems (QNAP TS-109/TS-209, etc)
p338
ss(Vimage
p339
g307
NVmarvell
p340
tp341
(dp342
Vrecommends
p343
Vu-boot-tools
p344
sVcheck-size
p345
L2097080L
sVcheck-size-with-dtb
p346
I01
sVcheck-uncompressed-size
p347
L7340032L
sVbreaks
p348
Vflash-kernel (<< 3.57~)
p349
ss(g183
g307
g153
tp350
(dp351
g186
(lp352
Vmarvell
p353
asg190
I01
ss(Vbase
p354
Varmhf
p355
tp356
(dp357
Vkernel-arch
p358
Varm
p359
sg151
(lp360
g153
ass(Vbuild
p361
g355
tp362
(dp363
Vimage-file
p364
Varch/arm/boot/zImage
p365
sVvdso
p366
I01
sVsigned-modules
p367
I00
ss(Vimage
p368
g355
tp369
(dp370
Vinstall-stem
p371
Vvmlinuz
p372
ss(Vrelations
p373
g355
tp374
(dp375
Vheaders%gcc-7
p376
Vlinux-compiler-gcc-7-arm
p377
ss(Vdescription
p378
g355
NVarmmp
p379
tp380
(dp381
Vhardware
p382
VARMv7 multiplatform compatible SoCs
p383
sVhardware-long
p384
VARMv7 multiplatform kernel. See\u000ahttps://wiki.debian.org/DebianKernel/ARMMP for details of supported\u000aplatforms
p385
ss(Vdescription
p386
g355
NVarmmp-lpae
p387
tp388
(dp389
Vhardware
p390
VARMv7 multiplatform compatible SoCs supporting LPAE
p391
sVhardware-long
p392
VARMv7 multiplatform kernel supporting LPAE. See\u000ahttps://wiki.debian.org/DebianKernel/ARMMP for details of supported\u000aplatforms.
p393
ss(g183
g355
g153
tp394
(dp395
g186
(lp396
Varmmp
p397
aVarmmp-lpae
p398
asg190
I01
ss(Vbase
p399
Vhppa
p400
tp401
(dp402
Vkernel-arch
p403
Vparisc
p404
sg151
(lp405
g153
ass(Vbuild
p406
g400
tp407
(dp408
Vimage-file
p409
Vvmlinux
p410
sVsigned-modules
p411
I00
ss(Vimage
p412
g400
tp413
(dp414
Vsuggests
p415
Vpalo
p416
sVinstall-stem
p417
Vvmlinux
p418
ss(Vdescription
p419
g400
NVparisc
p420
tp421
(dp422
Vhardware
p423
V32-bit PA-RISC
p424
sVhardware-long
p425
VHP PA-RISC 32-bit systems with max 4 GB RAM
p426
ss(Vbase
p427
g400
NVparisc64-smp
p428
tp429
(dp430
Vcflags
p431
V-fno-cse-follow-jumps
p432
sVoverride-host-type
p433
Vhppa64-linux-gnu
p434
ss(Vdescription
p435
g400
NVparisc64-smp
p436
tp437
(dp438
Vhardware
p439
Vmultiprocessor 64-bit PA-RISC
p440
sVhardware-long
p441
VHP PA-RISC 64-bit SMP systems with support for more than 4 GB RAM
p442
ss(Vrelations
p443
g400
tp444
(dp445
Vgcc-7
p446
Vgcc-7 <!stage1 !cross>, binutils-hppa64-linux-gnu <!stage1 !cross>, gcc-7-hppa64-linux-gnu <!stage1 !cross>, gcc-7-hppa-linux-gnu <!stage1 cross>, binutils-hppa64-linux-gnu <!stage1 cross>, gcc-7-hppa64-linux-gnu <!stage1 cross>
p447
ss(g183
g400
g153
tp448
(dp449
g186
(lp450
Vparisc
p451
aVparisc64-smp
p452
asg190
I01
ss(Vbase
p453
Vi386
p454
tp455
(dp456
Vfeaturesets
p457
(lp458
Vnone
p459
aVrt
p460
asVkernel-arch
p461
Vx86
p462
ss(Vbuild
p463
g454
tp464
(dp465
Vimage-file
p466
Varch/x86/boot/bzImage
p467
sVvdso
p468
I01
sVsigned-modules
p469
I00
ss(Vdescription
p470
g454
tp471
(dp472
Vpart-long-pae
p473
VThis kernel requires PAE (Physical Address Extension).\u000aThis feature is supported by the Intel Pentium Pro/II/III/4/4M/D, Xeon,\u000aCore and Atom; AMD Geode NX, Athlon (K7), Duron, Opteron, Sempron,\u000aTurion or Phenom; Transmeta Efficeon; VIA C7; and some other processors.
p474
ss(Vimage
p475
g454
tp476
(dp477
Vbootloaders
p478
(lp479
Vgrub-pc
p480
aVextlinux
p481
asVinstall-stem
p482
Vvmlinuz
p483
sVbreaks
p484
Vxserver-xorg-input-vmmouse (<< 1:13.0.99)
p485
ss(Vrelations
p486
g454
tp487
(dp488
Vgcc-7
p489
Vgcc-7 (>= 7.2.0-20~) <!stage1 !cross>, gcc-7-i686-linux-gnu (>= 7.2.0-20~) <!stage1 cross>
p490
sVheaders%gcc-7
p491
Vlinux-compiler-gcc-7-x86 (>= 4.14.17-1~)
p492
ss(Vdescription
p493
g454
NV686
p494
tp495
(dp496
Vhardware
p497
Volder PCs
p498
sVhardware-long
p499
VPCs with one or more processors not supporting PAE
p500
ss(Vbuild
p501
g454
NV686-pae
p502
tp503
(dp504
Vdebug-info
p505
I01
ss(Vdescription
p506
g454
NV686-pae
p507
tp508
(dp509
Vhardware
p510
Vmodern PCs
p511
sVhardware-long
p512
VPCs with one or more processors supporting PAE
p513
sVparts
p514
(lp515
Vpae
p516
ass(Vbase
p517
g454
Vnone
p518
tp519
(dp520
Vflavours
p521
(lp522
V686
p523
aV686-pae
p524
ass(Vdescription
p525
g454
g518
V686-pae
p526
tp527
(dp528
Vparts
p529
(lp530
Vxen
p531
ass(Vbase
p532
g454
Vrt
p533
tp534
(dp535
Vflavours
p536
(lp537
V686-pae
p538
ass(Vbase
p539
Vm68k
p540
tp541
(dp542
Vcflags
p543
V-ffreestanding
p544
sVkernel-arch
p545
Vm68k
p546
sg151
(lp547
g153
ass(Vbuild
p548
g540
tp549
(dp550
Vimage-file
p551
Vvmlinux
p552
sVsigned-modules
p553
I00
ss(Vimage
p554
g540
tp555
(dp556
Vsuggests
p557
Vvmelilo, fdutils
p558
sVinstall-stem
p559
Vvmlinux
p560
ss(Vdescription
p561
g540
NVm68k
p562
tp563
(dp564
Vhardware
p565
VMotorola MC68020+ family
p566
ss(g183
g540
g153
tp567
(dp568
g186
(lp569
Vm68k
p570
asg190
I01
ss(Vbase
p571
Vmips
p572
tp573
(dp574
Vkernel-arch
p575
Vmips
p576
sg151
(lp577
g153
ass(Vbuild
p578
g572
tp579
(dp580
Vimage-file
p581
Vvmlinux
p582
sVsigned-modules
p583
I00
ss(Vimage
p584
g572
tp585
(dp586
Vinstall-stem
p587
Vvmlinux
p588
ss(Vdescription
p589
g572
NV4kc-malta
p590
tp591
(dp592
Vhardware
p593
VMIPS Malta
p594
sVhardware-long
p595
VMIPS Malta boards
p596
ss(Vimage
p597
g572
NV4kc-malta
p598
tp599
(dp600
Vconfigs
p601
(lp602
Vkernelarch-mips/config.malta
p603
aVkernelarch-mips/config.mips32r2
p604
ass(Vdescription
p605
g572
NV5kc-malta
p606
tp607
(dp608
Vhardware
p609
VMIPS Malta (64-bit)
p610
sVhardware-long
p611
VMIPS Malta boards (64-bit)
p612
ss(Vimage
p613
g572
NV5kc-malta
p614
tp615
(dp616
Vconfigs
p617
(lp618
Vkernelarch-mips/config.malta
p619
aVkernelarch-mips/config.mips64r2
p620
ass(Vdescription
p621
g572
NVocteon
p622
tp623
(dp624
Vhardware
p625
VOcteon
p626
sVhardware-long
p627
VCavium Networks Octeon
p628
ss(Vimage
p629
g572
NVocteon
p630
tp631
(dp632
Vconfigs
p633
(lp634
Vkernelarch-mips/config.octeon
p635
ass(g183
g572
g153
tp636
(dp637
g186
(lp638
V4kc-malta
p639
aV5kc-malta
p640
aVocteon
p641
asg190
I01
ss(Vbase
p642
Vmips64
p643
tp644
(dp645
Vkernel-arch
p646
Vmips
p647
sg151
(lp648
g153
ass(Vbuild
p649
g643
tp650
(dp651
Vimage-file
p652
Vvmlinux
p653
sVsigned-modules
p654
I00
ss(Vimage
p655
g643
tp656
(dp657
Vinstall-stem
p658
Vvmlinux
p659
ss(Vdescription
p660
g643
NV5kc-malta
p661
tp662
(dp663
Vhardware
p664
VMIPS Malta
p665
sVhardware-long
p666
VMIPS Malta boards
p667
ss(Vimage
p668
g643
NV5kc-malta
p669
tp670
(dp671
Vconfigs
p672
(lp673
Vkernelarch-mips/config.malta
p674
aVkernelarch-mips/config.mips64r2
p675
ass(Vdescription
p676
g643
NVocteon
p677
tp678
(dp679
Vhardware
p680
VOcteon
p681
sVhardware-long
p682
VCavium Networks Octeon
p683
ss(Vimage
p684
g643
NVocteon
p685
tp686
(dp687
Vconfigs
p688
(lp689
Vkernelarch-mips/config.octeon
p690
ass(g183
g643
g153
tp691
(dp692
g186
(lp693
V5kc-malta
p694
aVocteon
p695
asg190
I01
ss(Vbase
p696
Vmips64el
p697
tp698
(dp699
Vkernel-arch
p700
Vmips
p701
sg151
(lp702
g153
ass(Vbuild
p703
g697
tp704
(dp705
Vimage-file
p706
Vvmlinux
p707
sVsigned-modules
p708
I00
ss(Vimage
p709
g697
tp710
(dp711
Vinstall-stem
p712
Vvmlinux
p713
ss(Vdescription
p714
g697
NV5kc-malta
p715
tp716
(dp717
Vhardware
p718
VMIPS Malta
p719
sVhardware-long
p720
VMIPS Malta boards
p721
ss(Vimage
p722
g697
NV5kc-malta
p723
tp724
(dp725
Vconfigs
p726
(lp727
Vkernelarch-mips/config.malta
p728
aVkernelarch-mips/config.mips64r2
p729
ass(Vdescription
p730
g697
NVloongson-3
p731
tp732
(dp733
Vhardware
p734
VLoongson 3A/3B
p735
sVhardware-long
p736
VLoongson 3A or 3B based systems (e.g. from Loongson or Lemote)
p737
ss(Vimage
p738
g697
NVloongson-3
p739
tp740
(dp741
Vconfigs
p742
(lp743
Vkernelarch-mips/config.loongson-3
p744
ass(Vdescription
p745
g697
NVocteon
p746
tp747
(dp748
Vhardware
p749
VOcteon
p750
sVhardware-long
p751
VCavium Networks Octeon
p752
ss(Vimage
p753
g697
NVocteon
p754
tp755
(dp756
Vconfigs
p757
(lp758
Vkernelarch-mips/config.octeon
p759
ass(g183
g697
g153
tp760
(dp761
g186
(lp762
V5kc-malta
p763
aVloongson-3
p764
aVocteon
p765
asg190
I01
ss(Vbase
p766
Vmips64r6
p767
tp768
(dp769
Vkernel-arch
p770
Vmips
p771
sg151
(lp772
g153
ass(Vbuild
p773
g767
tp774
(dp775
Vimage-file
p776
Vvmlinux
p777
sVsigned-modules
p778
I00
ss(Vimage
p779
g767
tp780
(dp781
Vinstall-stem
p782
Vvmlinux
p783
ss(Vdescription
p784
g767
NVmips64r6
p785
tp786
(dp787
Vhardware
p788
VMIPS R6 (64 bit, big endian)
p789
sVhardware-long
p790
VMIPS R6 (64 bit, big endian)
p791
ss(Vimage
p792
g767
NVmips64r6
p793
tp794
(dp795
Vconfigs
p796
(lp797
Vkernelarch-mips/config.malta
p798
aVkernelarch-mips/config.mips64r6
p799
ass(g183
g767
g153
tp800
(dp801
g186
(lp802
Vmips64r6
p803
asg190
I01
ss(Vbase
p804
Vmips64r6el
p805
tp806
(dp807
Vkernel-arch
p808
Vmips
p809
sg151
(lp810
g153
ass(Vbuild
p811
g805
tp812
(dp813
Vimage-file
p814
Vvmlinux
p815
sVsigned-modules
p816
I00
ss(Vimage
p817
g805
tp818
(dp819
Vinstall-stem
p820
Vvmlinux
p821
ss(Vdescription
p822
g805
NVmips64r6el
p823
tp824
(dp825
Vhardware
p826
VMIPS R6 (64 bit, little endian)
p827
sVhardware-long
p828
VMIPS R6 (64 bit, little endian)
p829
ss(Vimage
p830
g805
NVmips64r6el
p831
tp832
(dp833
Vconfigs
p834
(lp835
Vkernelarch-mips/config.malta
p836
aVkernelarch-mips/config.mips64r6
p837
ass(g183
g805
g153
tp838
(dp839
g186
(lp840
Vmips64r6el
p841
asg190
I01
ss(Vbase
p842
Vmipsel
p843
tp844
(dp845
Vkernel-arch
p846
Vmips
p847
sg151
(lp848
g153
ass(Vbuild
p849
g843
tp850
(dp851
Vimage-file
p852
Vvmlinux
p853
sVsigned-modules
p854
I00
ss(Vimage
p855
g843
tp856
(dp857
Vinstall-stem
p858
Vvmlinux
p859
ss(Vdescription
p860
g843
NV4kc-malta
p861
tp862
(dp863
Vhardware
p864
VMIPS Malta
p865
sVhardware-long
p866
VMIPS Malta boards
p867
ss(Vimage
p868
g843
NV4kc-malta
p869
tp870
(dp871
Vconfigs
p872
(lp873
Vkernelarch-mips/config.malta
p874
aVkernelarch-mips/config.mips32r2
p875
ass(Vdescription
p876
g843
NV5kc-malta
p877
tp878
(dp879
Vhardware
p880
VMIPS Malta (64-bit)
p881
sVhardware-long
p882
VMIPS Malta boards (64-bit)
p883
ss(Vimage
p884
g843
NV5kc-malta
p885
tp886
(dp887
Vconfigs
p888
(lp889
Vkernelarch-mips/config.malta
p890
aVkernelarch-mips/config.mips64r2
p891
ass(Vdescription
p892
g843
NVloongson-3
p893
tp894
(dp895
Vhardware
p896
VLoongson 3A/3B
p897
sVhardware-long
p898
VLoongson 3A or 3B based systems (e.g. from Loongson or Lemote)
p899
ss(Vimage
p900
g843
NVloongson-3
p901
tp902
(dp903
Vconfigs
p904
(lp905
Vkernelarch-mips/config.loongson-3
p906
ass(Vdescription
p907
g843
NVocteon
p908
tp909
(dp910
Vhardware
p911
VOcteon
p912
sVhardware-long
p913
VCavium Networks Octeon
p914
ss(Vimage
p915
g843
NVocteon
p916
tp917
(dp918
Vconfigs
p919
(lp920
Vkernelarch-mips/config.octeon
p921
ass(g183
g843
g153
tp922
(dp923
g186
(lp924
V4kc-malta
p925
aV5kc-malta
p926
aVloongson-3
p927
aVocteon
p928
asg190
I01
ss(Vbase
p929
Vmipsn32
p930
tp931
(dp932
Vkernel-arch
p933
Vmips
p934
sVfeaturesets
p935
(lp936
ss(Vbase
p937
Vmipsn32el
p938
tp939
(dp940
Vkernel-arch
p941
Vmips
p942
sVfeaturesets
p943
(lp944
ss(Vbase
p945
Vmipsn32r6
p946
tp947
(dp948
Vkernel-arch
p949
Vmips
p950
sVfeaturesets
p951
(lp952
ss(Vbase
p953
Vmipsn32r6el
p954
tp955
(dp956
Vkernel-arch
p957
Vmips
p958
sVfeaturesets
p959
(lp960
ss(Vbase
p961
Vmipsr6
p962
tp963
(dp964
Vkernel-arch
p965
Vmips
p966
sg151
(lp967
g153
ass(Vbuild
p968
g962
tp969
(dp970
Vimage-file
p971
Vvmlinux
p972
sVsigned-modules
p973
I00
ss(Vimage
p974
g962
tp975
(dp976
Vinstall-stem
p977
Vvmlinux
p978
ss(Vdescription
p979
g962
NVmips32r6
p980
tp981
(dp982
Vhardware
p983
VMIPS R6 (32 bit, big endian)
p984
sVhardware-long
p985
VMIPS R6 (32 bit, big endian)
p986
ss(Vimage
p987
g962
NVmips32r6
p988
tp989
(dp990
Vconfigs
p991
(lp992
Vkernelarch-mips/config.malta
p993
aVkernelarch-mips/config.mips32r6
p994
ass(Vdescription
p995
g962
NVmips64r6
p996
tp997
(dp998
Vhardware
p999
VMIPS R6 (64 bit, big endian)
p1000
sVhardware-long
p1001
VMIPS R6 (64 bit, big endian)
p1002
ss(Vimage
p1003
g962
NVmips64r6
p1004
tp1005
(dp1006
Vconfigs
p1007
(lp1008
Vkernelarch-mips/config.malta
p1009
aVkernelarch-mips/config.mips64r6
p1010
ass(g183
g962
g153
tp1011
(dp1012
g186
(lp1013
Vmips32r6
p1014
aVmips64r6
p1015
asg190
I01
ss(Vbase
p1016
Vmipsr6el
p1017
tp1018
(dp1019
Vkernel-arch
p1020
Vmips
p1021
sg151
(lp1022
g153
ass(Vbuild
p1023
g1017
tp1024
(dp1025
Vimage-file
p1026
Vvmlinux
p1027
sVsigned-modules
p1028
I00
ss(Vimage
p1029
g1017
tp1030
(dp1031
Vinstall-stem
p1032
Vvmlinux
p1033
ss(Vdescription
p1034
g1017
NVmips32r6el
p1035
tp1036
(dp1037
Vhardware
p1038
VMIPS R6 (32 bit, little endian)
p1039
sVhardware-long
p1040
VMIPS R6 (32 bit, little endian)
p1041
ss(Vimage
p1042
g1017
NVmips32r6el
p1043
tp1044
(dp1045
Vconfigs
p1046
(lp1047
Vkernelarch-mips/config.malta
p1048
aVkernelarch-mips/config.mips32r6
p1049
ass(Vdescription
p1050
g1017
NVmips64r6el
p1051
tp1052
(dp1053
Vhardware
p1054
VMIPS R6 (64 bit, little endian)
p1055
sVhardware-long
p1056
VMIPS R6 (64 bit, little endian)
p1057
ss(Vimage
p1058
g1017
NVmips64r6el
p1059
tp1060
(dp1061
Vconfigs
p1062
(lp1063
Vkernelarch-mips/config.malta
p1064
aVkernelarch-mips/config.mips64r6
p1065
ass(g183
g1017
g153
tp1066
(dp1067
g186
(lp1068
Vmips32r6el
p1069
aVmips64r6el
p1070
asg190
I01
ss(Vbase
p1071
Vpowerpc
p1072
tp1073
(dp1074
Vkernel-arch
p1075
Vpowerpc
p1076
sg151
(lp1077
g153
ass(Vbuild
p1078
g1072
tp1079
(dp1080
Vimage-file
p1081
Vvmlinux
p1082
sVvdso
p1083
I01
ss(Vimage
p1084
g1072
tp1085
(dp1086
Vconfigs
p1087
(lp1088
sVsuggests
p1089
Vmkvmlinuz
p1090
sVinstall-stem
p1091
Vvmlinux
p1092
ss(Vdescription
p1093
g1072
NVpowerpc
p1094
tp1095
(dp1096
Vhardware
p1097
Vuniprocessor 32-bit PowerPC
p1098
ss(Vdescription
p1099
g1072
NVpowerpc-smp
p1100
tp1101
(dp1102
Vhardware
p1103
Vmultiprocessor 32-bit PowerPC
p1104
ss(Vimage
p1105
g1072
NVpowerpc-smp
p1106
tp1107
(dp1108
Vconfigs
p1109
(lp1110
Vpowerpc/config.powerpc
p1111
aVpowerpc/config.powerpc-smp
p1112
ass(Vdescription
p1113
g1072
NVpowerpc64
p1114
tp1115
(dp1116
Vhardware
p1117
V64-bit PowerPC
p1118
ss(Vimage
p1119
g1072
NVpowerpc64
p1120
tp1121
(dp1122
Vconfigs
p1123
(lp1124
Vkernelarch-powerpc/config-arch-64
p1125
aVkernelarch-powerpc/config-arch-64-be
p1126
ass(g183
g1072
g153
tp1127
(dp1128
g186
(lp1129
Vpowerpc
p1130
aVpowerpc-smp
p1131
aVpowerpc64
p1132
asg190
I01
ss(Vbase
p1133
Vpowerpcspe
p1134
tp1135
(dp1136
Vkernel-arch
p1137
Vpowerpc
p1138
sg151
(lp1139
g153
ass(Vbuild
p1140
g1134
tp1141
(dp1142
Vimage-file
p1143
Vvmlinux
p1144
sVsigned-modules
p1145
I00
sVvdso
p1146
I01
ss(Vimage
p1147
g1134
tp1148
(dp1149
Vsuggests
p1150
Vmkvmlinuz
p1151
sVinstall-stem
p1152
Vvmlinux
p1153
ss(Vdescription
p1154
g1134
tp1155
(dp1156
Vhardware
p1157
V32-bit PowerPC with SPE (instead of AltiVec) with SMP support
p1158
ss(g183
g1134
g153
tp1159
(dp1160
g186
(lp1161
Vpowerpcspe
p1162
asg190
I01
ss(Vbase
p1163
Vppc64
p1164
tp1165
(dp1166
Vkernel-arch
p1167
Vpowerpc
p1168
sg151
(lp1169
g153
ass(Vbuild
p1170
g1164
tp1171
(dp1172
Vimage-file
p1173
Vvmlinux
p1174
sVsigned-modules
p1175
I00
sVvdso
p1176
I01
ss(Vimage
p1177
g1164
tp1178
(dp1179
Vconfigs
p1180
(lp1181
sVsuggests
p1182
Vmkvmlinuz
p1183
sVinstall-stem
p1184
Vvmlinux
p1185
ss(Vdescription
p1186
g1164
NVpowerpc64
p1187
tp1188
(dp1189
Vhardware
p1190
V64-bit PowerPC
p1191
ss(Vimage
p1192
g1164
NVpowerpc64
p1193
tp1194
(dp1195
Vconfigs
p1196
(lp1197
Vkernelarch-powerpc/config-arch-64
p1198
aVkernelarch-powerpc/config-arch-64-be
p1199
ass(g183
g1164
g153
tp1200
(dp1201
g186
(lp1202
Vpowerpc64
p1203
asg190
I01
ss(Vbase
p1204
Vppc64el
p1205
tp1206
(dp1207
Vkernel-arch
p1208
Vpowerpc
p1209
sg151
(lp1210
g153
ass(Vbuild
p1211
g1205
tp1212
(dp1213
Vimage-file
p1214
Vvmlinux
p1215
sVvdso
p1216
I01
ss(Vimage
p1217
g1205
tp1218
(dp1219
Vconfigs
p1220
(lp1221
sVsuggests
p1222
Vmkvmlinuz
p1223
sVinstall-stem
p1224
Vvmlinux
p1225
ss(Vdescription
p1226
g1205
NVpowerpc64le
p1227
tp1228
(dp1229
Vhardware
p1230
VLittle-endian 64-bit PowerPC
p1231
ss(Vimage
p1232
g1205
NVpowerpc64le
p1233
tp1234
(dp1235
Vconfigs
p1236
(lp1237
Vkernelarch-powerpc/config-arch-64
p1238
aVkernelarch-powerpc/config-arch-64-le
p1239
ass(g183
g1205
g153
tp1240
(dp1241
g186
(lp1242
Vpowerpc64le
p1243
asg190
I01
ss(Vbase
p1244
Vs390
p1245
tp1246
(dp1247
Vkernel-arch
p1248
Vs390
p1249
sVfeaturesets
p1250
(lp1251
ss(Vbase
p1252
Vs390x
p1253
tp1254
(dp1255
Vkernel-arch
p1256
Vs390
p1257
sg151
(lp1258
g153
ass(Vbuild
p1259
g1253
tp1260
(dp1261
Vimage-file
p1262
Varch/s390/boot/image
p1263
sVvdso
p1264
I01
ss(Vimage
p1265
g1253
tp1266
(dp1267
Vbootloaders
p1268
(lp1269
Vs390-tools
p1270
asVinstall-stem
p1271
Vvmlinuz
p1272
ss(Vrelations
p1273
g1253
tp1274
(dp1275
Vheaders%gcc-7
p1276
Vlinux-compiler-gcc-7-s390
p1277
ss(Vbuild
p1278
g1253
NVs390x
p1279
tp1280
(dp1281
Vdebug-info
p1282
I01
ss(Vdescription
p1283
g1253
NVs390x
p1284
tp1285
(dp1286
Vhardware
p1287
VIBM zSeries
p1288
ss(g183
g1253
g153
tp1289
(dp1290
g186
(lp1291
Vs390x
p1292
asg190
I01
ss(Vbase
p1293
Vsh3
p1294
tp1295
(dp1296
Vkernel-arch
p1297
Vsh
p1298
sVfeaturesets
p1299
(lp1300
ss(Vbase
p1301
Vsh4
p1302
tp1303
(dp1304
Vkernel-arch
p1305
Vsh
p1306
sg151
(lp1307
g153
ass(Vbuild
p1308
g1302
tp1309
(dp1310
Vimage-file
p1311
Varch/sh/boot/zImage
p1312
sVsigned-modules
p1313
I00
ss(Vimage
p1314
g1302
tp1315
(dp1316
Vinstall-stem
p1317
Vvmlinuz
p1318
ss(Vdescription
p1319
g1302
NVsh7751r
p1320
tp1321
(dp1322
Vhardware
p1323
Vsh7751r
p1324
sVhardware-long
p1325
VRenesas SH7751R R2D plus board
p1326
ss(Vdescription
p1327
g1302
NVsh7785lcr
p1328
tp1329
(dp1330
Vhardware
p1331
Vsh7785lcr
p1332
sVhardware-long
p1333
VRenesas SH7785 reference board
p1334
ss(Vimage
p1335
g1302
NVsh7785lcr
p1336
tp1337
(dp1338
Vrecommends
p1339
Vu-boot-tools
p1340
sVcheck-size
p1341
L4194304L
ss(g183
g1302
g153
tp1342
(dp1343
g186
(lp1344
Vsh7751r
p1345
aVsh7785lcr
p1346
asg190
I01
ss(Vbase
p1347
Vsparc
p1348
tp1349
(dp1350
Vkernel-arch
p1351
Vsparc
p1352
sVfeaturesets
p1353
(lp1354
ss(Vbase
p1355
Vsparc64
p1356
tp1357
(dp1358
Vkernel-arch
p1359
Vsparc
p1360
sg151
(lp1361
g153
ass(Vbuild
p1362
g1356
tp1363
(dp1364
Vimage-file
p1365
Varch/sparc/boot/zImage
p1366
sVsigned-modules
p1367
I00
ss(Vimage
p1368
g1356
tp1369
(dp1370
Vconfigs
p1371
(lp1372
sVsuggests
p1373
Vsilo, fdutils
p1374
sVinstall-stem
p1375
Vvmlinuz
p1376
ss(Vdescription
p1377
g1356
NVsparc64
p1378
tp1379
(dp1380
Vhardware
p1381
Vuniprocessor 64-bit UltraSPARC
p1382
ss(Vimage
p1383
g1356
NVsparc64
p1384
tp1385
(dp1386
Vconfigs
p1387
(lp1388
Vkernelarch-sparc/config-up
p1389
ass(Vdescription
p1390
g1356
NVsparc64-smp
p1391
tp1392
(dp1393
Vhardware
p1394
Vmultiprocessor 64-bit UltraSPARC
p1395
ss(Vimage
p1396
g1356
NVsparc64-smp
p1397
tp1398
(dp1399
Vconfigs
p1400
(lp1401
Vkernelarch-sparc/config-smp
p1402
ass(g183
g1356
g153
tp1403
(dp1404
g186
(lp1405
Vsparc64
p1406
aVsparc64-smp
p1407
asg190
I01
ss(Vbase
p1408
Vtilegx
p1409
tp1410
(dp1411
Vkernel-arch
p1412
Vtile
p1413
sVfeaturesets
p1414
(lp1415
ss(Vbase
p1416
Vx32
p1417
tp1418
(dp1419
Vkernel-arch
p1420
Vx86
p1421
sVfeaturesets
p1422
(lp1423
ss(Vabi
p1424
NVrt
p1425
tp1426
(dp1427
Vignore-changes
p1428
(lp1429
V*
p1430
ass(Vdescription
p1431
Ng1425
tp1432
(dp1433
Vpart-long-rt
p1434
VThis kernel includes the PREEMPT_RT realtime patch set.
p1435
sVpart-short-rt
p1436
VPREEMPT_RT
p1437
sVparts
p1438
(lp1439
Vrt
p1440
ass(Vversion
p1441
tp1442
(dp1443
Vsource
p1444
V4.14.17-1kali1
p1445
sVupstream
p1446
V4.14
p1447
sVabiname_base
p1448
V4.14.0
p1449
sVabiname
p1450
V4.14.0-kali3
p1451
ss.