ccopy_reg
_reconstructor
p0
(cdebian_linux.config
ConfigCore
p1
c__builtin__
dict
p2
(dp3
(Vimage
p4
Vmipsel
p5
NV4kc-malta
p6
tp7
(dp8
Vconfigs
p9
(lp10
Vkernelarch-mips/config.4kc-malta
p11
ass(Vimage
p12
Vhppa
p13
tp14
(dp15
Vinstall-stem
p16
Vvmlinux
p17
sVsuggests
p18
Vpalo
p19
ss(Vimage
p20
Vmips64el
p21
tp22
(dp23
Vinstall-stem
p24
Vvmlinux
p25
ss(Vdescription
p26
g5
NVloongson-2e
p27
tp28
(dp29
Vhardware-long
p30
VLemote Loongson 2E systems
p31
sVhardware
p32
VLoongson 2E
p33
ss(Vimage
p34
Vamd64
p35
tp36
(dp37
Vinstall-stem
p38
Vvmlinuz
p39
sVbootloaders
p40
(lp41
Vgrub-pc
p42
aVgrub-efi
p43
aVextlinux
p44
asVconfigs
p45
(lp46
sVbreaks
p47
Vxserver-xorg-input-vmmouse (<< 1:13.0.99)
p48
ss(Vrelations
p49
Vs390x
p50
tp51
(dp52
Vheaders%gcc-4.9
p53
Vlinux-compiler-gcc-4.9-s390
p54
ss(Vbase
p55
Valpha
p56
Vnone
p57
tp58
(dp59
Vimplicit-flavour
p60
I01
sVflavours
p61
(lp62
Valpha-generic
p63
aValpha-smp
p64
ass(g55
Vpowerpc
p65
g57
tp66
(dp67
g60
I01
sg61
(lp68
Vpowerpc
p69
aVpowerpc-smp
p70
aVpowerpc64
p71
ass(Vimage
p72
g5
NVloongson-2f
p73
tp74
(dp75
Vrecommends
p76
Vlibc6-loongson2f
p77
sVconfigs
p78
(lp79
Vkernelarch-mips/config.loongson-2f
p80
ass(Vimage
p81
Vmips64
p82
tp83
(dp84
Vinstall-stem
p85
Vvmlinux
p86
ss(g55
Varmhf
p87
g57
tp88
(dp89
g60
I01
sg61
(lp90
Varmmp
p91
aVarmmp-lpae
p92
ass(Vimage
p93
g82
NV5kc-malta
p94
tp95
(dp96
Vconfigs
p97
(lp98
Vkernelarch-mips/config.5kc-malta
p99
ass(Vrelations
p100
g13
tp101
(dp102
Vgcc-4.9
p103
Vgcc-4.9 <!stage1>, binutils-hppa64 <!stage1>, gcc-4.9-hppa64 <!stage1>
p104
ss(Vbase
p105
Vppc64
p106
tp107
(dp108
Vfeaturesets
p109
(lp110
g57
asVkernel-arch
p111
Vpowerpc
p112
ss(Vbase
p113
Vsparc
p114
tp115
(dp116
Vfeaturesets
p117
(lp118
sVkernel-arch
p119
Vsparc
p120
ss(Vbuild
p121
g106
tp122
(dp123
Vvdso
p124
I01
sVimage-file
p125
Vvmlinux
p126
ss(Vdescription
p127
g5
NVloongson-3
p128
tp129
(dp130
Vhardware-long
p131
VLoongson 3A or 3B based systems (e.g. from Loongson or Lemote)
p132
sVhardware
p133
VLoongson 3A/3B
p134
ss(Vdescription
p135
Vsparc64
p136
NVsparc64
p137
tp138
(dp139
Vhardware
p140
Vuniprocessor 64-bit UltraSPARC
p141
ss(Vdescription
p142
Vppc64el
p143
NVpowerpc64le
p144
tp145
(dp146
Vhardware
p147
VLittle-endian 64-bit PowerPC
p148
ss(Vbase
p149
g35
tp150
(dp151
Vcompiler
p152
Vgcc-5
p153
sVfeaturesets
p154
(lp155
Vnone
p156
aVrt
p157
asVkernel-arch
p158
Vx86
p159
ss(Vbuild
p160
Vmips
p161
tp162
(dp163
Vimage-file
p164
Vvmlinux
p165
ss(Vbuild
p166
g65
tp167
(dp168
Vvdso
p169
I01
sVimage-file
p170
Vvmlinux
p171
ss(Vdescription
p172
g56
NValpha-generic
p173
tp174
(dp175
Vhardware-long
p176
VDEC Alpha systems with extended kernel start address (Wildfire, Titan, Marvel)
p177
sVhardware
p178
VAlpha
p179
ss(Vimage
p180
g35
NVamd64
p181
tp182
(dp183
Vconfigs
p184
(lp185
Vkernelarch-x86/config-arch-64
p186
ass(Vbase
p187
g87
tp188
(dp189
g109
(lp190
g57
asVkernel-arch
p191
Varm
p192
ss(Vbase
p193
g21
tp194
(dp195
g109
(lp196
g57
asVkernel-arch
p197
Vmips
p198
ss(Vbuild
p199
Varm64
p200
tp201
(dp202
Vdebug-info
p203
I01
sVimage-file
p204
Varch/arm64/boot/Image
p205
sVvdso
p206
I01
ss(Vdescription
p207
Vm68k
p208
NVm68k
p209
tp210
(dp211
Vhardware
p212
VMotorola MC68020+ family
p213
ss(Vimage
p214
g50
NVs390x
p215
tp216
(dp217
Vconfigs
p218
(lp219
Vkernelarch-s390/config-arch-64
p220
ass(Vdescription
p221
Vsh4
p222
NVsh7751r
p223
tp224
(dp225
Vhardware-long
p226
VRenesas SH7751R R2D plus board
p227
sVhardware
p228
Vsh7751r
p229
ss(Vdescription
p230
Vi386
p231
NV686
p232
tp233
(dp234
Vhardware-long
p235
VPCs with one or more processors not supporting PAE
p236
sVhardware
p237
Volder PCs
p238
ss(Vrelations
p239
Varmel
p240
tp241
(dp242
Vheaders%gcc-4.9
p243
Vlinux-compiler-gcc-4.9-arm
p244
ss(Vbase
p245
Vx32
p246
tp247
(dp248
Vfeaturesets
p249
(lp250
sVkernel-arch
p251
Vx86
p252
ss(g55
g106
g57
tp253
(dp254
g60
I01
sg61
(lp255
Vpowerpc64
p256
ass(Vimage
p257
g82
NVocteon
p258
tp259
(dp260
Vconfigs
p261
(lp262
Vkernelarch-mips/config.octeon
p263
ass(Vimage
p264
g222
NVsh7785lcr
p265
tp266
(dp267
Vcheck-size
p268
L4194304L
sVrecommends
p269
Vu-boot-tools
p270
ss(Vbuild
p271
g56
tp272
(dp273
Vimage-file
p274
Varch/alpha/boot/vmlinux.gz
p275
ss(Vbase
p276
g35
Vrt
p277
tp278
(dp279
Vflavours
p280
(lp281
Vamd64
p282
ass(Vbase
p283
Vs390
p284
tp285
(dp286
Vfeaturesets
p287
(lp288
sVkernel-arch
p289
Vs390
p290
ss(Vbase
p291
g13
NVparisc64-smp
p292
tp293
(dp294
Voverride-host-type
p295
Vhppa64-linux-gnu
p296
sVcflags
p297
V-fno-cse-follow-jumps
p298
ss(g55
g136
g57
tp299
(dp300
g60
I01
sg61
(lp301
Vsparc64
p302
aVsparc64-smp
p303
ass(Vbase
p304
g208
tp305
(dp306
Vcompiler
p307
Vgcc-4.8
p308
sg109
(lp309
g57
asVkernel-arch
p310
Vm68k
p311
sVcflags
p312
V-ffreestanding
p313
ss(Vimage
p314
g161
tp315
(dp316
Vinstall-stem
p317
Vvmlinux
p318
ss(Vimage
p319
g5
NVloongson-3
p320
tp321
(dp322
Vconfigs
p323
(lp324
Vkernelarch-mips/config.loongson-3
p325
ass(Vdescription
p326
g21
NVocteon
p327
tp328
(dp329
Vhardware-long
p330
VCavium Networks Octeon
p331
sVhardware
p332
VOcteon
p333
ss(Vimage
p334
g87
NVarmmp-lpae
p335
tp336
(dp337
Vconfigs
p338
(lp339
Varmhf/config.armmp
p340
aVarmhf/config.lpae
p341
ass(Vbuild
p342
g82
tp343
(dp344
Vimage-file
p345
Vvmlinux
p346
ss(Vversion
p347
tp348
(dp349
Vupstream
p350
V4.3
p351
sVsource
p352
V4.3.5-1kali1
p353
sVabiname
p354
V4.3.0-kali1
p355
sVabiname_base
p356
V4.3.0
p357
ss(Vdescription
p358
g35
Vnone
p359
Vamd64
p360
tp361
(dp362
Vparts
p363
(lp364
Vxen
p365
ass(Vbase
p366
g231
Vrt
p367
tp368
(dp369
Vflavours
p370
(lp371
V686-pae
p372
ass(Vdescription
p373
g136
NVsparc64-smp
p374
tp375
(dp376
Vhardware
p377
Vmultiprocessor 64-bit UltraSPARC
p378
ss(g55
g21
g57
tp379
(dp380
g60
I01
sg61
(lp381
V5kc-malta
p382
aVloongson-3
p383
aVocteon
p384
ass(Vimage
p385
g65
NVpowerpc-smp
p386
tp387
(dp388
Vconfigs
p389
(lp390
Vpowerpc/config.powerpc
p391
aVpowerpc/config.powerpc-smp
p392
ass(Vdescription
p393
Vpowerpcspe
p394
tp395
(dp396
Vhardware
p397
V32-bit PowerPC with SPE (instead of AltiVec) with SMP support
p398
ss(Vimage
p399
g231
tp400
(dp401
Vinstall-stem
p402
Vvmlinuz
p403
sVbootloaders
p404
(lp405
Vgrub-pc
p406
aVextlinux
p407
asVconfigs
p408
(lp409
sVbreaks
p410
Vxserver-xorg-input-vmmouse (<< 1:13.0.99)
p411
ss(g55
g208
g57
tp412
(dp413
g60
I01
sg61
(lp414
Vm68k
p415
ass(Vbuild
p416
g87
tp417
(dp418
Vvdso
p419
I01
sVimage-file
p420
Varch/arm/boot/zImage
p421
ss(Vimage
p422
g65
tp423
(dp424
Vinstall-stem
p425
Vvmlinux
p426
sVsuggests
p427
Vmkvmlinuz
p428
sVconfigs
p429
(lp430
ss(Vdescription
p431
g240
NVversatile
p432
tp433
(dp434
Vhardware-long
p435
VVersatile systems (PB, AB, Qemu)
p436
sVhardware
p437
VVersatile
p438
ss(Vbase
p439
g161
tp440
(dp441
g109
(lp442
g57
asVkernel-arch
p443
Vmips
p444
ss(Vdescription
p445
g231
tp446
(dp447
Vpart-long-pae
p448
VThis kernel requires PAE (Physical Address Extension).\u000aThis feature is supported by the Intel Pentium Pro/II/III/4/4M/D, Xeon,\u000aCore and Atom; AMD Geode NX, Athlon (K7), Duron, Opteron, Sempron,\u000aTurion or Phenom; Transmeta Efficeon; VIA C7; and some other processors.
p449
ss(Vimage
p450
g208
tp451
(dp452
Vinstall-stem
p453
Vvmlinuz
p454
sVsuggests
p455
Vvmelilo, fdutils
p456
ss(Vdescription
p457
g50
NVs390x
p458
tp459
(dp460
Vhardware
p461
VIBM zSeries
p462
ss(Vbase
p463
g35
g359
tp464
(dp465
Vflavours
p466
(lp467
Vamd64
p468
ass(g55
g5
g57
tp469
(dp470
g60
I01
sg61
(lp471
V4kc-malta
p472
aV5kc-malta
p473
aVloongson-2e
p474
aVloongson-2f
p475
aVloongson-3
p476
ass(Vbuild
p477
g231
tp478
(dp479
Vvdso
p480
I01
sVimage-file
p481
Varch/x86/boot/bzImage
p482
ss(Vdescription
p483
g56
NValpha-smp
p484
tp485
(dp486
Vhardware-long
p487
VDEC Alpha SMP systems with extended kernel start address (Wildfire, Titan, Marvel)
p488
sVhardware
p489
VAlpha SMP
p490
ss(Vdescription
p491
g13
NVparisc64-smp
p492
tp493
(dp494
Vhardware-long
p495
VHP PA-RISC 64-bit SMP systems with support for more than 4 GB RAM
p496
sVhardware
p497
Vmultiprocessor 64-bit PA-RISC
p498
ss(Vbuild
p499
g143
tp500
(dp501
Vvdso
p502
I01
sVimage-file
p503
Vvmlinux
p504
ss(Vimage
p505
g231
NV686
p506
tp507
(dp508
Vrecommends
p509
Vlibc6-i686
p510
sVconfigs
p511
(lp512
Vkernelarch-x86/config-arch-32
p513
aVi386/config.686
p514
ass(Vbase
p515
g222
tp516
(dp517
g109
(lp518
g57
asVkernel-arch
p519
Vsh
p520
ss(Vdescription
p521
g5
NV4kc-malta
p522
tp523
(dp524
Vhardware-long
p525
VMIPS Malta boards
p526
sVhardware
p527
VMIPS Malta
p528
ss(Vimage
p529
g161
NV5kc-malta
p530
tp531
(dp532
Vconfigs
p533
(lp534
Vkernelarch-mips/config.5kc-malta
p535
ass(Vdescription
p536
g82
NV5kc-malta
p537
tp538
(dp539
Vhardware-long
p540
VMIPS Malta boards
p541
sVhardware
p542
VMIPS Malta
p543
ss(Vrelations
p544
g231
tp545
(dp546
Vheaders%gcc-5
p547
Vlinux-compiler-gcc-5-x86
p548
ss(Vbase
p549
NVrt
p550
tp551
(dp552
Venabled
p553
I00
ss(Vbuild
p554
g35
tp555
(dp556
Vdebug-info
p557
I01
sVimage-file
p558
Varch/x86/boot/bzImage
p559
sVvdso
p560
I01
ss(Vbase
p561
Vor1k
p562
tp563
(dp564
Vfeaturesets
p565
(lp566
sVkernel-arch
p567
Vopenrisc
p568
ss(g55
g222
g57
tp569
(dp570
g60
I01
sg61
(lp571
Vsh7751r
p572
aVsh7785lcr
p573
ass(Vbuild
p574
g50
NVs390x
p575
tp576
(dp577
Vdebug-info
p578
I01
ss(Vimage
p579
g21
NVloongson-3
p580
tp581
(dp582
Vconfigs
p583
(lp584
Vkernelarch-mips/config.loongson-3
p585
ass(g55
g82
g57
tp586
(dp587
g60
I01
sg61
(lp588
V5kc-malta
p589
aVocteon
p590
ass(Vimage
p591
g5
NV5kc-malta
p592
tp593
(dp594
Vconfigs
p595
(lp596
Vkernelarch-mips/config.5kc-malta
p597
ass(Vabi
p598
NVrt
p599
tp600
(dp601
Vignore-changes
p602
(lp603
V*
p604
ass(Vimage
p605
g50
tp606
(dp607
Vinstall-stem
p608
Vvmlinuz
p609
sVbootloaders
p610
(lp611
Vs390-tools
p612
asVconfigs
p613
(lp614
ss(g55
g13
g57
tp615
(dp616
g60
I01
sg61
(lp617
Vparisc
p618
aVparisc64-smp
p619
ass(Vbuild
p620
g5
tp621
(dp622
Vimage-file
p623
Vvmlinux
p624
ss(Vdescription
p625
g231
Vnone
p626
V686-pae
p627
tp628
(dp629
Vparts
p630
(lp631
Vxen
p632
ass(Vbuild
p633
g50
tp634
(dp635
Vvdso
p636
I01
sVimage-file
p637
Varch/s390/boot/image
p638
ss(Vbase
p639
g136
tp640
(dp641
g109
(lp642
g57
asVkernel-arch
p643
Vsparc
p644
ss(Vimage
p645
g161
NV4kc-malta
p646
tp647
(dp648
Vconfigs
p649
(lp650
Vkernelarch-mips/config.4kc-malta
p651
ass(Vimage
p652
g21
NVocteon
p653
tp654
(dp655
Vconfigs
p656
(lp657
Vkernelarch-mips/config.octeon
p658
ass(Vimage
p659
g240
NVkirkwood
p660
tp661
(dp662
Vcheck-size
p663
L2097080L
sVrecommends
p664
Vu-boot-tools
p665
sVbreaks
p666
Vflash-kernel (<< 3.37~)
p667
sVcheck-size-with-dtb
p668
I01
sVconfigs
p669
(lp670
Varmel/config-reduced
p671
aVarmel/config.kirkwood
p672
ass(Vimage
p673
g136
NVsparc64
p674
tp675
(dp676
Vconfigs
p677
(lp678
Vkernelarch-sparc/config-up
p679
ass(Vbase
p680
g82
tp681
(dp682
g109
(lp683
g57
asVkernel-arch
p684
Vmips
p685
ss(Vbuild
p686
g231
NV686-pae
p687
tp688
(dp689
Vdebug-info
p690
I01
ss(Vimage
p691
g5
NVloongson-2e
p692
tp693
(dp694
Vconfigs
p695
(lp696
Vkernelarch-mips/config.loongson-2e
p697
ass(Vdescription
p698
g222
NVsh7785lcr
p699
tp700
(dp701
Vhardware-long
p702
VRenesas SH7785 reference board
p703
sVhardware
p704
Vsh7785lcr
p705
ss(Vbase
p706
tp707
(dp708
Vcompiler
p709
Vgcc-4.9
p710
sVarches
p711
(lp712
Valpha
p713
aVamd64
p714
aVarm64
p715
aVarmel
p716
aVarmhf
p717
aVhppa
p718
aVi386
p719
aVm68k
p720
aVmips
p721
aVmipsel
p722
aVmips64
p723
aVmips64el
p724
aVor1k
p725
aVpowerpc
p726
aVpowerpcspe
p727
aVppc64
p728
aVppc64el
p729
aVs390
p730
aVs390x
p731
aVsh4
p732
aVsparc
p733
aVsparc64
p734
aVx32
p735
asVfeaturesets
p736
(lp737
Vnone
p738
aVrt
p739
ass(Vdescription
p740
g21
NVloongson-3
p741
tp742
(dp743
Vhardware-long
p744
VLoongson 3A or 3B based systems (e.g. from Loongson or Lemote)
p745
sVhardware
p746
VLoongson 3A/3B
p747
ss(Vbase
p748
g240
tp749
(dp750
g109
(lp751
g57
asVkernel-arch
p752
Varm
p753
ss(Vbuild
p754
g240
tp755
(dp756
Vimage-file
p757
Varch/arm/boot/zImage
p758
ss(Vimage
p759
g87
tp760
(dp761
Vinstall-stem
p762
Vvmlinuz
p763
sVsuggests
p764
Vfdutils
p765
sVconfigs
p766
(lp767
Vkernelarch-arm/config
p768
ass(g55
g143
g57
tp769
(dp770
g60
I01
sg61
(lp771
Vpowerpc64le
p772
ass(Vdescription
p773
g106
NVpowerpc64
p774
tp775
(dp776
Vhardware
p777
V64-bit PowerPC
p778
ss(Vdescription
p779
g161
NVocteon
p780
tp781
(dp782
Vhardware-long
p783
VCavium Networks Octeon
p784
sVhardware
p785
VOcteon
p786
ss(Vbase
p787
g200
tp788
(dp789
Vfeaturesets
p790
(lp791
Vnone
p792
asVkernel-arch
p793
Varm64
p794
ss(Vimage
p795
g106
tp796
(dp797
Vinstall-stem
p798
Vvmlinux
p799
sVsuggests
p800
Vmkvmlinuz
p801
sVconfigs
p802
(lp803
ss(Vbuild
p804
g222
tp805
(dp806
Vimage-file
p807
Varch/sh/boot/zImage
p808
ss(Vdescription
p809
g65
NVpowerpc-smp
p810
tp811
(dp812
Vhardware
p813
Vmultiprocessor 32-bit PowerPC
p814
ss(Vimage
p815
g106
NVpowerpc64
p816
tp817
(dp818
Vconfigs
p819
(lp820
Vkernelarch-powerpc/config-arch-64
p821
aVkernelarch-powerpc/config-arch-64-be
p822
ass(Vbuild
p823
g136
tp824
(dp825
Vimage-file
p826
Varch/sparc/boot/zImage
p827
ss(Vdescription
p828
tp829
(dp830
Vpart-long-xen
p831
VThis kernel also runs on a Xen hypervisor.\u000aIt supports both privileged (dom0) and unprivileged (domU) operation.
p832
sVpart-long-up
p833
VThis kernel is not suitable for SMP (multi-processor,\u000amulti-core or hyper-threaded) systems.
p834
ss(Vabi
p835
tp836
(dp837
Vignore-changes
p838
(lp839
Vmodule:net/dccp/dccp
p840
aVfl6_*
p841
aVinet_sk_diag_fill
p842
aVip6_append_data
p843
aVip6_datagram_send_ctl
p844
aVip6_xmit
p845
aVipv6_dup_options
p846
aVipv6_fixup_options
p847
aVipv6_push_nfrag_opts
p848
aVtcp_cong_avoid_ai
p849
aVtcp_slow_start
p850
aVpin_is_valid
p851
aVpinctrl_*
p852
aVmodule:drivers/net/ethernet/mellanox/**
p853
aVpv_info
p854
asVabiname
p855
Vkali1
p856
ss(Vdescription
p857
g35
NVamd64
p858
tp859
(dp860
Vhardware-long
p861
VPCs with AMD64, Intel 64 or VIA Nano processors
p862
sVhardware
p863
V64-bit PCs
p864
ss(Vimage
p865
g5
tp866
(dp867
Vinstall-stem
p868
Vvmlinux
p869
ss(g55
g394
g57
tp870
(dp871
g60
I01
sg61
(lp872
Vpowerpcspe
p873
ass(Vbase
p874
g5
tp875
(dp876
g109
(lp877
g57
asVkernel-arch
p878
Vmips
p879
ss(g55
g50
g57
tp880
(dp881
g60
I01
sg61
(lp882
Vs390x
p883
ass(Vrelations
p884
g87
tp885
(dp886
Vheaders%gcc-4.9
p887
Vlinux-compiler-gcc-4.9-arm
p888
ss(Vdescription
p889
g87
NVarmmp
p890
tp891
(dp892
Vhardware-long
p893
VARMv7 multiplatform kernel. See\u000ahttps://wiki.debian.org/DebianKernel/ARMMP for details of supported\u000aplatforms
p894
sVhardware
p895
VARMv7 multiplatform compatible SoCs
p896
ss(Vbuild
p897
g13
tp898
(dp899
Vimage-file
p900
Vvmlinux
p901
ss(Vdescription
p902
g13
NVparisc
p903
tp904
(dp905
Vhardware-long
p906
VHP PA-RISC 32-bit systems with max 4 GB RAM
p907
sVhardware
p908
V32-bit PA-RISC
p909
ss(Vimage
p910
g394
tp911
(dp912
Vinstall-stem
p913
Vvmlinux
p914
sVsuggests
p915
Vmkvmlinuz
p916
ss(Vbase
p917
g13
tp918
(dp919
g109
(lp920
g57
asVkernel-arch
p921
Vparisc
p922
ss(Vrelations
p923
tp924
(dp925
Vgcc-4.8
p926
Vgcc-4.8 <!stage1>
p927
sVinitramfs-fallback
p928
Vlinux-initramfs-tool
p929
sVgcc-4.9
p930
Vgcc-4.9 <!stage1>
p931
sVgcc-5
p932
Vgcc-5 <!stage1>
p933
sVinitramfs-tools
p934
Vinitramfs-tools (>= 0.110~)
p935
ss(Vimage
p936
g240
NVorion5x
p937
tp938
(dp939
Vcheck-size
p940
L2097080L
sVrecommends
p941
Vu-boot-tools
p942
sVcheck-size-with-dtb
p943
I01
sVconfigs
p944
(lp945
Varmel/config-reduced
p946
aVarmel/config.orion5x
p947
ass(Vimage
p948
g200
tp949
(dp950
Vinstall-stem
p951
Vvmlinuz
p952
ss(g55
g161
g57
tp953
(dp954
g60
I01
sg61
(lp955
V4kc-malta
p956
aV5kc-malta
p957
aVocteon
p958
ass(Vimage
p959
g65
NVpowerpc64
p960
tp961
(dp962
Vconfigs
p963
(lp964
Vkernelarch-powerpc/config-arch-64
p965
aVkernelarch-powerpc/config-arch-64-be
p966
ass(Vdescription
p967
g200
NVarm64
p968
tp969
(dp970
Vhardware
p971
V64-bit ARMv8 machines
p972
ss(Vbuild
p973
g21
tp974
(dp975
Vimage-file
p976
Vvmlinux
p977
ss(Vimage
p978
g56
tp979
(dp980
Vinstall-stem
p981
Vvmlinuz
p982
sVsuggests
p983
Vaboot, fdutils
p984
ss(Vdescription
p985
g240
NVkirkwood
p986
tp987
(dp988
Vhardware-long
p989
VMarvell Kirkwood based systems (SheevaPlug, QNAP TS-119/TS-219, etc)
p990
sVhardware
p991
VMarvell Kirkwood
p992
ss(Vimage
p993
g240
tp994
(dp995
Vinstall-stem
p996
Vvmlinuz
p997
sVsuggests
p998
Vfdutils
p999
sVconfigs
p1000
(lp1001
Vkernelarch-arm/config
p1002
aVarmel/config
p1003
ass(Vxen
p1004
g35
g359
Vamd64
p1005
tp1006
(dp1007
Vflavours
p1008
(lp1009
Vamd64
p1010
ass(Vbase
p1011
g200
Vnone
p1012
tp1013
(dp1014
Vflavours
p1015
(lp1016
Varm64
p1017
ass(Vimage
p1018
g200
NVarm64
p1019
tp1020
(dp1021
s(Vimage
p1022
g161
NVocteon
p1023
tp1024
(dp1025
Vconfigs
p1026
(lp1027
Vkernelarch-mips/config.octeon
p1028
ass(Vrelations
p1029
g35
tp1030
(dp1031
Vheaders%gcc-5
p1032
Vlinux-compiler-gcc-5-x86
p1033
ss(Vimage
p1034
tp1035
(dp1036
Vinitramfs-generators
p1037
(lp1038
Vinitramfs-tools
p1039
aVinitramfs-fallback
p1040
asVtype
p1041
Vplain
p1042
ss(Vdescription
p1043
Ng599
tp1044
(dp1045
Vpart-short-rt
p1046
VPREEMPT_RT
p1047
sVpart-long-rt
p1048
VThis kernel includes the PREEMPT_RT realtime patch set.
p1049
sVparts
p1050
(lp1051
Vrt
p1052
ass(Vbase
p1053
g394
tp1054
(dp1055
g109
(lp1056
g57
asVkernel-arch
p1057
Vpowerpc
p1058
ss(Vdescription
p1059
g5
NV5kc-malta
p1060
tp1061
(dp1062
Vhardware-long
p1063
VMIPS Malta boards (64-bit)
p1064
sVhardware
p1065
VMIPS Malta (64-bit)
p1066
ss(Vdescription
p1067
g240
NVorion5x
p1068
tp1069
(dp1070
Vhardware-long
p1071
VMarvell Orion 5181, 5182 and 5281 based systems (QNAP TS-109/TS-209, etc)
p1072
sVhardware
p1073
VMarvell Orion
p1074
ss(Vbase
p1075
g143
tp1076
(dp1077
g109
(lp1078
g57
asVkernel-arch
p1079
Vpowerpc
p1080
ss(Vdescription
p1081
g87
NVarmmp-lpae
p1082
tp1083
(dp1084
Vhardware-long
p1085
VARMv7 multiplatform kernel supporting LPAE. See\u000ahttps://wiki.debian.org/DebianKernel/ARMMP for details of supported\u000aplatforms.
p1086
sVhardware
p1087
VARMv7 multiplatform compatible SoCs supporting LPAE
p1088
ss(g55
g240
g57
tp1089
(dp1090
g60
I01
sg61
(lp1091
Vkirkwood
p1092
aVorion5x
p1093
aVversatile
p1094
ass(Vimage
p1095
g222
tp1096
(dp1097
Vinstall-stem
p1098
Vvmlinuz
p1099
sVsuggests
p1100
Vfdutils
p1101
ss(Vdescription
p1102
g161
NV4kc-malta
p1103
tp1104
(dp1105
Vhardware-long
p1106
VMIPS Malta boards
p1107
sVhardware
p1108
VMIPS Malta
p1109
ss(Vimage
p1110
g136
tp1111
(dp1112
Vinstall-stem
p1113
Vvmlinuz
p1114
sVsuggests
p1115
Vsilo, fdutils
p1116
sVconfigs
p1117
(lp1118
ss(Vimage
p1119
g143
NVpowerpc64le
p1120
tp1121
(dp1122
Vconfigs
p1123
(lp1124
Vkernelarch-powerpc/config-arch-64
p1125
aVkernelarch-powerpc/config-arch-64-le
p1126
ass(Vbase
p1127
g231
g626
tp1128
(dp1129
Vflavours
p1130
(lp1131
V686
p1132
aV686-pae
p1133
ass(Vdescription
p1134
g231
NV686-pae
p1135
tp1136
(dp1137
Vhardware-long
p1138
VPCs with one or more processors supporting PAE
p1139
sVhardware
p1140
Vmodern PCs
p1141
sVparts
p1142
(lp1143
Vpae
p1144
ass(Vdescription
p1145
g65
NVpowerpc64
p1146
tp1147
(dp1148
Vhardware
p1149
V64-bit PowerPC
p1150
ss(Vbase
p1151
g56
tp1152
(dp1153
g109
(lp1154
g57
asVkernel-arch
p1155
Valpha
p1156
ss(Vimage
p1157
g21
NV5kc-malta
p1158
tp1159
(dp1160
Vconfigs
p1161
(lp1162
Vkernelarch-mips/config.5kc-malta
p1163
ass(Vdescription
p1164
g5
NVloongson-2f
p1165
tp1166
(dp1167
Vhardware-long
p1168
VLemote Loongson 2F systems
p1169
sVhardware
p1170
VLoongson 2F
p1171
ss(Vbase
p1172
g65
tp1173
(dp1174
g109
(lp1175
g57
asVkernel-arch
p1176
Vpowerpc
p1177
ss(Vimage
p1178
g136
NVsparc64-smp
p1179
tp1180
(dp1181
Vconfigs
p1182
(lp1183
Vkernelarch-sparc/config-smp
p1184
ass(Vbuild
p1185
g394
tp1186
(dp1187
Vvdso
p1188
I01
sVimage-file
p1189
Vvmlinux
p1190
ss(Vdescription
p1191
g82
NVocteon
p1192
tp1193
(dp1194
Vhardware-long
p1195
VCavium Networks Octeon
p1196
sVhardware
p1197
VOcteon
p1198
ss(Vbase
p1199
g231
tp1200
(dp1201
Vcompiler
p1202
Vgcc-5
p1203
sVfeaturesets
p1204
(lp1205
Vnone
p1206
aVrt
p1207
asVkernel-arch
p1208
Vx86
p1209
ss(Vdescription
p1210
g65
NVpowerpc
p1211
tp1212
(dp1213
Vhardware
p1214
Vuniprocessor 32-bit PowerPC
p1215
ss(Vdescription
p1216
g21
NV5kc-malta
p1217
tp1218
(dp1219
Vhardware-long
p1220
VMIPS Malta boards
p1221
sVhardware
p1222
VMIPS Malta
p1223
ss(Vbuild
p1224
g208
tp1225
(dp1226
Vimage-file
p1227
Vvmlinux.gz
p1228
ss(Vdescription
p1229
g161
NV5kc-malta
p1230
tp1231
(dp1232
Vhardware-long
p1233
VMIPS Malta boards (64-bit)
p1234
sVhardware
p1235
VMIPS Malta (64-bit)
p1236
ss(Vimage
p1237
g231
NV686-pae
p1238
tp1239
(dp1240
Vrecommends
p1241
Vlibc6-i686
p1242
sVconfigs
p1243
(lp1244
Vkernelarch-x86/config-arch-32
p1245
aVi386/config.686-pae
p1246
ass(Vimage
p1247
g143
tp1248
(dp1249
Vinstall-stem
p1250
Vvmlinux
p1251
sVsuggests
p1252
Vmkvmlinuz
p1253
sVconfigs
p1254
(lp1255
ss(Vbase
p1256
g50
tp1257
(dp1258
g109
(lp1259
g57
asVkernel-arch
p1260
Vs390
p1261
sstp1262
Rp1263
.