ccopy_reg
_reconstructor
p0
(cdebian_linux.config
ConfigCore
p1
c__builtin__
dict
p2
(dp3
(Vdescription
p4
Vmipsel
p5
NV5kc-malta
p6
tp7
(dp8
Vhardware-long
p9
VMIPS Malta boards (64-bit)
p10
sVhardware
p11
VMIPS Malta (64-bit)
p12
ss(Vdescription
p13
Varmhf
p14
NVarmmp
p15
tp16
(dp17
Vhardware-long
p18
VARMv7 multiplatform kernel. See\u000ahttps://wiki.debian.org/DebianKernel/ARMMP for details of supported\u000aplatforms
p19
sVhardware
p20
VARMv7 multiplatform compatible SoCs
p21
ss(Vimage
p22
Vsh4
p23
NVsh7785lcr
p24
tp25
(dp26
Vcheck-size
p27
L4194304L
sVrecommends
p28
Vu-boot-tools
p29
ss(Vimage
p30
Vsparc64
p31
NVsparc64-smp
p32
tp33
(dp34
Vconfigs
p35
(lp36
Vkernelarch-sparc/config-smp
p37
ass(Vbuild
p38
g5
tp39
(dp40
Vsigned-modules
p41
I00
sVimage-file
p42
Vvmlinux
p43
ss(Vbase
p44
Vi386
p45
Vnone
p46
tp47
(dp48
Vflavours
p49
(lp50
V686
p51
aV686-pae
p52
ass(Vimage
p53
Vmips
p54
NV4kc-malta
p55
tp56
(dp57
Vconfigs
p58
(lp59
Vkernelarch-mips/config.malta
p60
aVkernelarch-mips/config.mips32r2
p61
ass(Vbuild
p62
Valpha
p63
tp64
(dp65
Vsigned-modules
p66
I00
sVimage-file
p67
Varch/alpha/boot/vmlinux.gz
p68
ss(Vdescription
p69
Vamd64
p70
Vnone
p71
Vamd64
p72
tp73
(dp74
Vparts
p75
(lp76
Vxen
p77
ass(Vimage
p78
Vmips64el
p79
tp80
(dp81
Vinstall-stem
p82
Vvmlinux
p83
ss(Vbase
p84
Vpowerpcspe
p85
tp86
(dp87
Vkernel-arch
p88
Vpowerpc
p89
sVfeaturesets
p90
(lp91
Vnone
p92
ass(Vbuild
p93
Vs390x
p94
tp95
(dp96
Vvdso
p97
I01
sVimage-file
p98
Varch/s390/boot/image
p99
ss(Vdescription
p100
g23
NVsh7751r
p101
tp102
(dp103
Vhardware-long
p104
VRenesas SH7751R R2D plus board
p105
sVhardware
p106
Vsh7751r
p107
ss(Vdescription
p108
g5
NVocteon
p109
tp110
(dp111
Vhardware-long
p112
VCavium Networks Octeon
p113
sVhardware
p114
VOcteon
p115
ss(Vbuild
p116
tp117
(dp118
Vsigned-modules
p119
I01
ss(Vbase
p120
g23
tp121
(dp122
Vkernel-arch
p123
Vsh
p124
sg90
(lp125
g92
ass(Vbuild
p126
g14
tp127
(dp128
Vvdso
p129
I01
sVimage-file
p130
Varch/arm/boot/zImage
p131
ss(Vrelations
p132
g14
tp133
(dp134
Vheaders%gcc-5
p135
Vlinux-compiler-gcc-5-arm
p136
ss(Vdescription
p137
Vm68k
p138
NVm68k
p139
tp140
(dp141
Vhardware
p142
VMotorola MC68020+ family
p143
ss(Vdescription
p144
g23
NVsh7785lcr
p145
tp146
(dp147
Vhardware-long
p148
VRenesas SH7785 reference board
p149
sVhardware
p150
Vsh7785lcr
p151
ss(Vdescription
p152
g79
NVloongson-3
p153
tp154
(dp155
Vhardware-long
p156
VLoongson 3A or 3B based systems (e.g. from Loongson or Lemote)
p157
sVhardware
p158
VLoongson 3A/3B
p159
ss(Vbuild
p160
g70
tp161
(dp162
Vvdso
p163
I01
sVdebug-info
p164
I01
sVimage-file
p165
Varch/x86/boot/bzImage
p166
ss(Vdescription
p167
g5
NV4kc-malta
p168
tp169
(dp170
Vhardware-long
p171
VMIPS Malta boards
p172
sVhardware
p173
VMIPS Malta
p174
ss(Vbase
p175
Varmel
p176
tp177
(dp178
Vkernel-arch
p179
Varm
p180
sg90
(lp181
g92
ass(Vdescription
p182
Vhppa
p183
NVparisc64-smp
p184
tp185
(dp186
Vhardware-long
p187
VHP PA-RISC 64-bit SMP systems with support for more than 4 GB RAM
p188
sVhardware
p189
Vmultiprocessor 64-bit PA-RISC
p190
ss(Vbase
p191
g54
tp192
(dp193
Vkernel-arch
p194
Vmips
p195
sg90
(lp196
g92
ass(Vbase
p197
g70
Vrt
p198
tp199
(dp200
Vflavours
p201
(lp202
Vamd64
p203
ass(Vdescription
p204
Vpowerpc
p205
NVpowerpc-smp
p206
tp207
(dp208
Vhardware
p209
Vmultiprocessor 32-bit PowerPC
p210
ss(Vbuild
p211
Vppc64el
p212
tp213
(dp214
Vvdso
p215
I01
sVimage-file
p216
Vvmlinux
p217
ss(Vdescription
p218
g176
NVmarvell
p219
tp220
(dp221
Vhardware-long
p222
VMarvell Kirkwood based systems (SheevaPlug, QNAP TS-119/TS-219, etc)\u000aand Orion 5181, 5182 and 5281 based systems (QNAP TS-109/TS-209, etc)
p223
sVhardware
p224
VMarvell Kirkwood/Orion
p225
ss(Vimage
p226
g138
tp227
(dp228
Vinstall-stem
p229
Vvmlinuz
p230
sVsuggests
p231
Vvmelilo, fdutils
p232
ss(Vbase
p233
g183
NVparisc64-smp
p234
tp235
(dp236
Voverride-host-type
p237
Vhppa64-linux-gnu
p238
sVcflags
p239
V-fno-cse-follow-jumps
p240
ss(Vimage
p241
g14
tp242
(dp243
Vinstall-stem
p244
Vvmlinuz
p245
ss(Vbase
p246
Vmipsn32
p247
tp248
(dp249
Vkernel-arch
p250
Vmips
p251
sVfeaturesets
p252
(lp253
ss(Vimage
p254
g5
NVocteon
p255
tp256
(dp257
Vconfigs
p258
(lp259
Vkernelarch-mips/config.octeon
p260
ass(Vbase
p261
g183
g92
tp262
(dp263
Vflavours
p264
(lp265
Vparisc
p266
aVparisc64-smp
p267
asVimplicit-flavour
p268
I01
ss(Vbase
p269
g205
tp270
(dp271
Vkernel-arch
p272
Vpowerpc
p273
sg90
(lp274
g92
ass(Vimage
p275
Varm64
p276
NVarm64
p277
tp278
(dp279
s(Vbase
p280
g31
tp281
(dp282
Vkernel-arch
p283
Vsparc
p284
sg90
(lp285
g92
ass(Vxen
p286
g70
g71
Vamd64
p287
tp288
(dp289
Vflavours
p290
(lp291
Vamd64
p292
ass(Vbase
p293
g70
g71
tp294
(dp295
Vflavours
p296
(lp297
Vamd64
p298
ass(Vdescription
p299
g31
NVsparc64-smp
p300
tp301
(dp302
Vhardware
p303
Vmultiprocessor 64-bit UltraSPARC
p304
ss(g261
g63
g92
tp305
(dp306
g264
(lp307
Valpha-generic
p308
aValpha-smp
p309
asg268
I01
ss(Vimage
p310
g183
tp311
(dp312
Vinstall-stem
p313
Vvmlinux
p314
sVsuggests
p315
Vpalo
p316
ss(Vabi
p317
g54
tp318
(dp319
Vignore-changes
p320
(lp321
V__flush_icache_page
p322
ass(Vimage
p323
g176
NVmarvell
p324
tp325
(dp326
Vcheck-size-with-dtb
p327
I01
sVcheck-size
p328
L2097080L
sVrecommends
p329
Vu-boot-tools
p330
sVbreaks
p331
Vflash-kernel (<< 3.57~)
p332
ss(Vimage
p333
g45
tp334
(dp335
Vbootloaders
p336
(lp337
Vgrub-pc
p338
aVextlinux
p339
asVinstall-stem
p340
Vvmlinuz
p341
sVbreaks
p342
Vxserver-xorg-input-vmmouse (<< 1:13.0.99)
p343
ss(g261
g205
g92
tp344
(dp345
g264
(lp346
Vpowerpc
p347
aVpowerpc-smp
p348
aVpowerpc64
p349
asg268
I01
ss(Vimage
p350
Vmips64
p351
NVocteon
p352
tp353
(dp354
Vconfigs
p355
(lp356
Vkernelarch-mips/config.octeon
p357
ass(Vimage
p358
g5
NV5kc-malta
p359
tp360
(dp361
Vconfigs
p362
(lp363
Vkernelarch-mips/config.malta
p364
aVkernelarch-mips/config.mips64r1
p365
ass(Vbuild
p366
g351
tp367
(dp368
Vsigned-modules
p369
I00
sVimage-file
p370
Vvmlinux
p371
ss(Vimage
p372
g70
tp373
(dp374
Vbootloaders
p375
(lp376
Vgrub-pc
p377
aVgrub-efi
p378
aVextlinux
p379
asVinstall-stem
p380
Vvmlinuz
p381
sVbreaks
p382
Vxserver-xorg-input-vmmouse (<< 1:13.0.99)
p383
ss(Vbase
p384
NVrt
p385
tp386
(dp387
Venabled
p388
I01
ss(Vbase
p389
Vx32
p390
tp391
(dp392
Vkernel-arch
p393
Vx86
p394
sVfeaturesets
p395
(lp396
ss(g261
g94
g92
tp397
(dp398
g264
(lp399
Vs390x
p400
asg268
I01
ss(g261
Vppc64
p401
g92
tp402
(dp403
g264
(lp404
Vpowerpc64
p405
asg268
I01
ss(Vbase
p406
g14
tp407
(dp408
Vkernel-arch
p409
Varm
p410
sg90
(lp411
g92
ass(Vbuild
p412
g79
tp413
(dp414
Vsigned-modules
p415
I00
sVimage-file
p416
Vvmlinux
p417
ss(Vdescription
p418
tp419
(dp420
Vpart-long-up
p421
VThis kernel is not suitable for SMP (multi-processor,\u000amulti-core or hyper-threaded) systems.
p422
sVpart-long-xen
p423
VThis kernel also runs on a Xen hypervisor.\u000aIt supports both privileged (dom0) and unprivileged (domU) operation.
p424
ss(Vbase
p425
Vtilegx
p426
tp427
(dp428
Vkernel-arch
p429
Vtile
p430
sVfeaturesets
p431
(lp432
ss(Vbase
p433
g79
tp434
(dp435
Vkernel-arch
p436
Vmips
p437
sg90
(lp438
g92
ass(Vimage
p439
g85
tp440
(dp441
Vinstall-stem
p442
Vvmlinux
p443
sVsuggests
p444
Vmkvmlinuz
p445
ss(g261
g351
g92
tp446
(dp447
g264
(lp448
V5kc-malta
p449
aVocteon
p450
asg268
I01
ss(Vdescription
p451
g351
NV5kc-malta
p452
tp453
(dp454
Vhardware-long
p455
VMIPS Malta boards
p456
sVhardware
p457
VMIPS Malta
p458
ss(g261
g31
g92
tp459
(dp460
g264
(lp461
Vsparc64
p462
aVsparc64-smp
p463
asg268
I01
ss(Vbuild
p464
g45
NV686-pae
p465
tp466
(dp467
Vdebug-info
p468
I01
ss(Vdescription
p469
g79
NVocteon
p470
tp471
(dp472
Vhardware-long
p473
VCavium Networks Octeon
p474
sVhardware
p475
VOcteon
p476
ss(Vimage
p477
g5
NV4kc-malta
p478
tp479
(dp480
Vconfigs
p481
(lp482
Vkernelarch-mips/config.malta
p483
aVkernelarch-mips/config.mips32r1
p484
ass(Vimage
p485
g5
tp486
(dp487
Vinstall-stem
p488
Vvmlinux
p489
ss(g261
g54
g92
tp490
(dp491
g264
(lp492
V4kc-malta
p493
aV5kc-malta
p494
aVocteon
p495
asg268
I01
ss(Vimage
p496
tp497
(dp498
Vinitramfs-generators
p499
(lp500
Vinitramfs-tools
p501
aVinitramfs-fallback
p502
ass(Vrelations
p503
g45
tp504
(dp505
Vheaders%gcc-5
p506
Vlinux-compiler-gcc-5-x86
p507
ss(Vdescription
p508
g54
NVocteon
p509
tp510
(dp511
Vhardware-long
p512
VCavium Networks Octeon
p513
sVhardware
p514
VOcteon
p515
ss(Vimage
p516
g79
NVocteon
p517
tp518
(dp519
Vconfigs
p520
(lp521
Vkernelarch-mips/config.octeon
p522
ass(Vbase
p523
g351
tp524
(dp525
Vkernel-arch
p526
Vmips
p527
sg90
(lp528
g92
ass(Vimage
p529
g176
tp530
(dp531
Vinstall-stem
p532
Vvmlinuz
p533
ss(Vimage
p534
g5
NVloongson-3
p535
tp536
(dp537
Vconfigs
p538
(lp539
Vkernelarch-mips/config.loongson-3
p540
ass(Vimage
p541
g212
NVpowerpc64le
p542
tp543
(dp544
Vconfigs
p545
(lp546
Vkernelarch-powerpc/config-arch-64
p547
aVkernelarch-powerpc/config-arch-64-le
p548
ass(Vimage
p549
g401
tp550
(dp551
Vinstall-stem
p552
Vvmlinux
p553
sVconfigs
p554
(lp555
sVsuggests
p556
Vmkvmlinuz
p557
ss(Vbuild
p558
g176
NVmarvell
p559
tp560
(dp561
Vsigned-modules
p562
I00
ss(Vdescription
p563
g276
NVarm64
p564
tp565
(dp566
Vhardware
p567
V64-bit ARMv8 machines
p568
ss(Vdescription
p569
g401
NVpowerpc64
p570
tp571
(dp572
Vhardware
p573
V64-bit PowerPC
p574
ss(Vdescription
p575
g45
NV686
p576
tp577
(dp578
Vhardware-long
p579
VPCs with one or more processors not supporting PAE
p580
sVhardware
p581
Volder PCs
p582
ss(Vbuild
p583
g205
tp584
(dp585
Vvdso
p586
I01
sVimage-file
p587
Vvmlinux
p588
ss(Vimage
p589
g31
NVsparc64
p590
tp591
(dp592
Vconfigs
p593
(lp594
Vkernelarch-sparc/config-up
p595
ass(Vimage
p596
g276
tp597
(dp598
Vinstall-stem
p599
Vvmlinuz
p600
ss(Vbase
p601
g276
Vnone
p602
tp603
(dp604
Vflavours
p605
(lp606
Varm64
p607
ass(Vbase
p608
g212
tp609
(dp610
Vkernel-arch
p611
Vpowerpc
p612
sg90
(lp613
g92
ass(Vimage
p614
g54
NVocteon
p615
tp616
(dp617
Vconfigs
p618
(lp619
Vkernelarch-mips/config.octeon
p620
ass(Vbuild
p621
g54
tp622
(dp623
Vsigned-modules
p624
I00
sVimage-file
p625
Vvmlinux
p626
ss(Vbuild
p627
g176
tp628
(dp629
Vimage-file
p630
Varch/arm/boot/zImage
p631
ss(Vdescription
p632
g176
NVversatile
p633
tp634
(dp635
Vhardware-long
p636
VVersatile systems (PB, AB, Qemu)
p637
sVhardware
p638
VVersatile
p639
ss(Vbuild
p640
g138
tp641
(dp642
Vsigned-modules
p643
I00
sVimage-file
p644
Vvmlinux.gz
p645
ss(Vbase
p646
g70
tp647
(dp648
Vkernel-arch
p649
Vx86
p650
sVfeaturesets
p651
(lp652
Vnone
p653
aVrt
p654
ass(Vbase
p655
Vor1k
p656
tp657
(dp658
Vkernel-arch
p659
Vopenrisc
p660
sVfeaturesets
p661
(lp662
ss(Vdescription
p663
g205
NVpowerpc64
p664
tp665
(dp666
Vhardware
p667
V64-bit PowerPC
p668
ss(Vbuild
p669
g23
tp670
(dp671
Vsigned-modules
p672
I00
sVimage-file
p673
Varch/sh/boot/zImage
p674
ss(Vdescription
p675
g63
NValpha-smp
p676
tp677
(dp678
Vhardware-long
p679
VDEC Alpha SMP systems with extended kernel start address (Wildfire, Titan, Marvel)
p680
sVhardware
p681
VAlpha SMP
p682
ss(Vbase
p683
g45
Vrt
p684
tp685
(dp686
Vflavours
p687
(lp688
V686-pae
p689
ass(Vbase
p690
g94
tp691
(dp692
Vkernel-arch
p693
Vs390
p694
sg90
(lp695
g92
ass(Vbuild
p696
g85
tp697
(dp698
Vvdso
p699
I01
sVsigned-modules
p700
I00
sVimage-file
p701
Vvmlinux
p702
ss(Vdescription
p703
g45
NV686-pae
p704
tp705
(dp706
Vparts
p707
(lp708
Vpae
p709
asVhardware-long
p710
VPCs with one or more processors supporting PAE
p711
sVhardware
p712
Vmodern PCs
p713
ss(Vimage
p714
g54
NV5kc-malta
p715
tp716
(dp717
Vconfigs
p718
(lp719
Vkernelarch-mips/config.malta
p720
aVkernelarch-mips/config.mips64r2
p721
ass(Vdescription
p722
g5
NVloongson-2f
p723
tp724
(dp725
Vhardware-long
p726
VLemote Loongson 2F systems
p727
sVhardware
p728
VLoongson 2F
p729
ss(g261
g85
g92
tp730
(dp731
g264
(lp732
Vpowerpcspe
p733
asg268
I01
ss(Vimage
p734
g5
NVloongson-2f
p735
tp736
(dp737
Vrecommends
p738
Vlibc6-loongson2f
p739
sVconfigs
p740
(lp741
Vkernelarch-mips/config.loongson-2f
p742
ass(Vdescription
p743
g63
NValpha-generic
p744
tp745
(dp746
Vhardware-long
p747
VDEC Alpha systems with extended kernel start address (Wildfire, Titan, Marvel)
p748
sVhardware
p749
VAlpha
p750
ss(Vbase
p751
Vsparc
p752
tp753
(dp754
Vkernel-arch
p755
Vsparc
p756
sVfeaturesets
p757
(lp758
ss(Vbase
p759
g63
tp760
(dp761
Vkernel-arch
p762
Valpha
p763
sg90
(lp764
g92
ass(Vbuild
p765
g31
tp766
(dp767
Vsigned-modules
p768
I00
sVimage-file
p769
Varch/sparc/boot/zImage
p770
ss(g261
g5
g92
tp771
(dp772
g264
(lp773
V4kc-malta
p774
aV5kc-malta
p775
aVloongson-2e
p776
aVloongson-2f
p777
aVloongson-3
p778
aVocteon
p779
asg268
I01
ss(Vimage
p780
g79
NVloongson-3
p781
tp782
(dp783
Vconfigs
p784
(lp785
Vkernelarch-mips/config.loongson-3
p786
ass(Vbase
p787
g5
tp788
(dp789
Vkernel-arch
p790
Vmips
p791
sg90
(lp792
g92
ass(Vimage
p793
g205
NVpowerpc64
p794
tp795
(dp796
Vconfigs
p797
(lp798
Vkernelarch-powerpc/config-arch-64
p799
aVkernelarch-powerpc/config-arch-64-be
p800
ass(Vimage
p801
g351
tp802
(dp803
Vinstall-stem
p804
Vvmlinux
p805
ss(Vimage
p806
g401
NVpowerpc64
p807
tp808
(dp809
Vconfigs
p810
(lp811
Vkernelarch-powerpc/config-arch-64
p812
aVkernelarch-powerpc/config-arch-64-be
p813
ass(g261
g23
g92
tp814
(dp815
g264
(lp816
Vsh7751r
p817
aVsh7785lcr
p818
asg268
I01
ss(Vbuild
p819
g45
tp820
(dp821
Vvdso
p822
I01
sVimage-file
p823
Varch/x86/boot/bzImage
p824
ss(Vdescription
p825
g54
NV4kc-malta
p826
tp827
(dp828
Vhardware-long
p829
VMIPS Malta boards
p830
sVhardware
p831
VMIPS Malta
p832
ss(Vbuild
p833
g94
NVs390x
p834
tp835
(dp836
Vdebug-info
p837
I01
ss(Vbuild
p838
g183
tp839
(dp840
Vsigned-modules
p841
I00
sVimage-file
p842
Vvmlinux
p843
ss(Vbase
p844
g401
tp845
(dp846
Vkernel-arch
p847
Vpowerpc
p848
sg90
(lp849
g92
ass(Vrelations
p850
g176
tp851
(dp852
Vheaders%gcc-5
p853
Vlinux-compiler-gcc-5-arm
p854
ss(Vabi
p855
tp856
(dp857
Vabiname
p858
V1
p859
sVignore-changes
p860
(lp861
Vmodule:drivers/net/wireless/realtek/rtlwifi/*
p862
aVmodule:net/switchdev/*
p863
aVxt_compat_match_from_user
p864
ass(Vdescription
p865
g85
tp866
(dp867
Vhardware
p868
V32-bit PowerPC with SPE (instead of AltiVec) with SMP support
p869
ss(Vabi
p870
g5
tp871
(dp872
Vignore-changes
p873
(lp874
V__flush_icache_page
p875
ass(Vabi
p876
NVrt
p877
tp878
(dp879
Vignore-changes
p880
(lp881
V*
p882
ass(Vdescription
p883
g94
NVs390x
p884
tp885
(dp886
Vhardware
p887
VIBM zSeries
p888
ss(Vimage
p889
g31
tp890
(dp891
Vinstall-stem
p892
Vvmlinuz
p893
sVconfigs
p894
(lp895
sVsuggests
p896
Vsilo, fdutils
p897
ss(Vbase
p898
g276
tp899
(dp900
Vkernel-arch
p901
Varm64
p902
sVfeaturesets
p903
(lp904
Vnone
p905
ass(g261
g212
g92
tp906
(dp907
g264
(lp908
Vpowerpc64le
p909
asg268
I01
ss(Vbase
p910
Vs390
p911
tp912
(dp913
Vkernel-arch
p914
Vs390
p915
sVfeaturesets
p916
(lp917
ss(Vimage
p918
g212
tp919
(dp920
Vinstall-stem
p921
Vvmlinux
p922
sVconfigs
p923
(lp924
sVsuggests
p925
Vmkvmlinuz
p926
ss(Vdescription
p927
g45
g46
V686-pae
p928
tp929
(dp930
Vparts
p931
(lp932
Vxen
p933
ass(Vabi
p934
g14
tp935
(dp936
Vignore-changes
p937
(lp938
Vmodule:drivers/gpu/drm/imx/*
p939
ass(Vbase
p940
g138
tp941
(dp942
Vkernel-arch
p943
Vm68k
p944
sVcflags
p945
V-ffreestanding
p946
sg90
(lp947
g92
ass(Vdescription
p948
g54
NV5kc-malta
p949
tp950
(dp951
Vhardware-long
p952
VMIPS Malta boards (64-bit)
p953
sVhardware
p954
VMIPS Malta (64-bit)
p955
ss(Vimage
p956
g79
NV5kc-malta
p957
tp958
(dp959
Vconfigs
p960
(lp961
Vkernelarch-mips/config.malta
p962
aVkernelarch-mips/config.mips64r2
p963
ass(Vimage
p964
g23
tp965
(dp966
Vinstall-stem
p967
Vvmlinuz
p968
ss(Vdescription
p969
g5
NVloongson-2e
p970
tp971
(dp972
Vhardware-long
p973
VLemote Loongson 2E systems
p974
sVhardware
p975
VLoongson 2E
p976
ss(Vimage
p977
g351
NV5kc-malta
p978
tp979
(dp980
Vconfigs
p981
(lp982
Vkernelarch-mips/config.malta
p983
aVkernelarch-mips/config.mips64r2
p984
ass(Vdescription
p985
g5
NVloongson-3
p986
tp987
(dp988
Vhardware-long
p989
VLoongson 3A or 3B based systems (e.g. from Loongson or Lemote)
p990
sVhardware
p991
VLoongson 3A/3B
p992
ss(Vdescription
p993
Ng877
tp994
(dp995
Vpart-short-rt
p996
VPREEMPT_RT
p997
sVpart-long-rt
p998
VThis kernel includes the PREEMPT_RT realtime patch set.
p999
sVparts
p1000
(lp1001
Vrt
p1002
ass(Vimage
p1003
g205
NVpowerpc-smp
p1004
tp1005
(dp1006
Vconfigs
p1007
(lp1008
Vpowerpc/config.powerpc
p1009
aVpowerpc/config.powerpc-smp
p1010
ass(g261
g14
g92
tp1011
(dp1012
g264
(lp1013
Varmmp
p1014
aVarmmp-lpae
p1015
asg268
I01
ss(Vimage
p1016
g94
tp1017
(dp1018
Vbootloaders
p1019
(lp1020
Vs390-tools
p1021
asVinstall-stem
p1022
Vvmlinuz
p1023
ss(Vimage
p1024
g54
tp1025
(dp1026
Vinstall-stem
p1027
Vvmlinux
p1028
ss(Vdescription
p1029
g212
NVpowerpc64le
p1030
tp1031
(dp1032
Vhardware
p1033
VLittle-endian 64-bit PowerPC
p1034
ss(Vbase
p1035
tp1036
(dp1037
Varches
p1038
(lp1039
Valpha
p1040
aVamd64
p1041
aVarm64
p1042
aVarmel
p1043
aVarmhf
p1044
aVhppa
p1045
aVi386
p1046
aVm68k
p1047
aVmips
p1048
aVmipsel
p1049
aVmipsn32
p1050
aVmipsn32el
p1051
aVmips64
p1052
aVmips64el
p1053
aVor1k
p1054
aVpowerpc
p1055
aVpowerpcspe
p1056
aVppc64
p1057
aVppc64el
p1058
aVs390
p1059
aVs390x
p1060
aVsh4
p1061
aVsparc
p1062
aVsparc64
p1063
aVtilegx
p1064
aVx32
p1065
asVcompiler
p1066
Vgcc-5
p1067
sVfeaturesets
p1068
(lp1069
Vnone
p1070
aVrt
p1071
ass(Vbuild
p1072
g276
tp1073
(dp1074
Vvdso
p1075
I01
sVdebug-info
p1076
I01
sVimage-file
p1077
Varch/arm64/boot/Image
p1078
ss(Vimage
p1079
g63
tp1080
(dp1081
Vinstall-stem
p1082
Vvmlinuz
p1083
sVsuggests
p1084
Vaboot, fdutils
p1085
ss(Vbase
p1086
Vmipsn32el
p1087
tp1088
(dp1089
Vkernel-arch
p1090
Vmips
p1091
sVfeaturesets
p1092
(lp1093
ss(g261
g176
g92
tp1094
(dp1095
g264
(lp1096
Vmarvell
p1097
aVversatile
p1098
asg268
I01
ss(g261
g79
g92
tp1099
(dp1100
g264
(lp1101
V5kc-malta
p1102
aVloongson-3
p1103
aVocteon
p1104
asg268
I01
ss(Vimage
p1105
g205
tp1106
(dp1107
Vinstall-stem
p1108
Vvmlinux
p1109
sVconfigs
p1110
(lp1111
sVsuggests
p1112
Vmkvmlinuz
p1113
ss(Vdescription
p1114
g70
NVamd64
p1115
tp1116
(dp1117
Vhardware-long
p1118
VPCs with AMD64, Intel 64 or VIA Nano processors
p1119
sVhardware
p1120
V64-bit PCs
p1121
ss(Vimage
p1122
g5
NVloongson-2e
p1123
tp1124
(dp1125
Vconfigs
p1126
(lp1127
Vkernelarch-mips/config.loongson-2e
p1128
ass(Vversion
p1129
tp1130
(dp1131
Vsource
p1132
V4.6.3-1
p1133
sVupstream
p1134
V4.6
p1135
sVabiname
p1136
V4.6.0-1
p1137
sVabiname_base
p1138
V4.6.0
p1139
ss(Vdescription
p1140
g351
NVocteon
p1141
tp1142
(dp1143
Vhardware-long
p1144
VCavium Networks Octeon
p1145
sVhardware
p1146
VOcteon
p1147
ss(g261
g138
g92
tp1148
(dp1149
g264
(lp1150
Vm68k
p1151
asg268
I01
ss(Vrelations
p1152
g70
tp1153
(dp1154
Vheaders%gcc-5
p1155
Vlinux-compiler-gcc-5-x86
p1156
ss(Vdescription
p1157
g205
NVpowerpc
p1158
tp1159
(dp1160
Vhardware
p1161
Vuniprocessor 32-bit PowerPC
p1162
ss(Vdescription
p1163
g183
NVparisc
p1164
tp1165
(dp1166
Vhardware-long
p1167
VHP PA-RISC 32-bit systems with max 4 GB RAM
p1168
sVhardware
p1169
V32-bit PA-RISC
p1170
ss(Vdescription
p1171
g79
NV5kc-malta
p1172
tp1173
(dp1174
Vhardware-long
p1175
VMIPS Malta boards
p1176
sVhardware
p1177
VMIPS Malta
p1178
ss(Vabi
p1179
g79
tp1180
(dp1181
Vignore-changes
p1182
(lp1183
V__flush_icache_page
p1184
ass(Vbuild
p1185
g401
tp1186
(dp1187
Vvdso
p1188
I01
sVsigned-modules
p1189
I00
sVimage-file
p1190
Vvmlinux
p1191
ss(Vbase
p1192
g183
tp1193
(dp1194
Vkernel-arch
p1195
Vparisc
p1196
sg90
(lp1197
g92
ass(Vdescription
p1198
g14
NVarmmp-lpae
p1199
tp1200
(dp1201
Vhardware-long
p1202
VARMv7 multiplatform kernel supporting LPAE. See\u000ahttps://wiki.debian.org/DebianKernel/ARMMP for details of supported\u000aplatforms.
p1203
sVhardware
p1204
VARMv7 multiplatform compatible SoCs supporting LPAE
p1205
ss(Vbase
p1206
g45
tp1207
(dp1208
Vkernel-arch
p1209
Vx86
p1210
sVfeaturesets
p1211
(lp1212
Vnone
p1213
aVrt
p1214
ass(Vrelations
p1215
tp1216
(dp1217
Vinitramfs-tools
p1218
Vinitramfs-tools (>= 0.110~)
p1219
sVgcc-5
p1220
Vgcc-5 <!stage1>
p1221
sVinitramfs-fallback
p1222
Vlinux-initramfs-tool
p1223
ss(Vdescription
p1224
g31
NVsparc64
p1225
tp1226
(dp1227
Vhardware
p1228
Vuniprocessor 64-bit UltraSPARC
p1229
ss(Vrelations
p1230
g183
tp1231
(dp1232
Vgcc-5
p1233
Vgcc-5 <!stage1>, binutils-hppa64-linux-gnu <!stage1>, gcc-5-hppa64-linux-gnu <!stage1>
p1234
ss(Vdescription
p1235
g45
tp1236
(dp1237
Vpart-long-pae
p1238
VThis kernel requires PAE (Physical Address Extension).\u000aThis feature is supported by the Intel Pentium Pro/II/III/4/4M/D, Xeon,\u000aCore and Atom; AMD Geode NX, Athlon (K7), Duron, Opteron, Sempron,\u000aTurion or Phenom; Transmeta Efficeon; VIA C7; and some other processors.
p1239
ss(Vrelations
p1240
g94
tp1241
(dp1242
Vheaders%gcc-5
p1243
Vlinux-compiler-gcc-5-s390
p1244
sstp1245
Rp1246
.