cdebian_linux.config
ConfigCore
p0
(tRp1
(Vabi
p2
tp3
(dp4
Vabiname
p5
Vkali5
p6
sVignore-changes
p7
(lp8
V__cpuhp_*
p9
aV__xive_vm_h_*
p10
aVbpf_analyzer
p11
aVcxl_*
p12
aVdax_flush
p13
aVieee80211_nullfunc_get
p14
aVinet_add_protocol
p15
aVinet_del_protocol
p16
aViommu_device_*
p17
aVkvm_async_pf_task_wait
p18
aVkvmppc_*
p19
aVmm_iommu_*
p20
aVmv_mbus_*
p21
aVperf_*
p22
aVregister_cxl_calls
p23
aVregister_key_type
p24
aVunregister_cxl_calls
p25
aV*_hw_breakpoint
p26
aVmodule:arch/x86/kvm/*
p27
aVmodule:drivers/crypto/ccp/*
p28
aVmodule:drivers/hv/*
p29
aVmodule:drivers/gpu/drm/sun4i/*
p30
aVmodule:drivers/iio/**
p31
aVmodule:drivers/misc/cxl/*
p32
aVmodule:drivers/mtd/nand/*
p33
aVmodule:drivers/net/ethernet/**
p34
aVmodule:drivers/net/wireless/**
p35
aVmodule:drivers/nvdimm/*
p36
aVmodule:drivers/power/supply/bq27xxx_battery
p37
aVmodule:drivers/scsi/cxgbi/*
p38
aVmodule:drivers/scsi/libiscs*
p39
aVmodule:drivers/scsi/qla2xxx/qla2xxx
p40
aVmodule:drivers/scsi/ufs/*
p41
aVmodule:drivers/target/**
p42
aVmodule:drivers/usb/chipidea/**
p43
aVmodule:drivers/usb/gadget/**
p44
aVmodule:drivers/usb/host/**
p45
aVmodule:drivers/usb/musb/**
p46
aVmodule:fs/nfs/**
p47
aVmodule:net/ceph/libceph
p48
aVmodule:net/l2tp/**
p49
aVmodule:net/rxrpc/rxrpc
p50
aVmodule:net/sctp/**
p51
aVmodule:sound/core/seq/**
p52
aVmodule:sound/firewire/snd-firewire-lib
p53
aVmodule:sound/pci/hda/*
p54
aVbtree_*
p55
aVvisitor*
p56
aVcan_rx_register
p57
aVip6_xmit
p58
aVmodule:net/dccp/dccp
p59
aVmodule:net/rds/rds
p60
aVdevfreq_*
p61
aVdevm_devfreq_*
p62
aVupdate_devfreq
p63
aVmodule:drivers/infiniband/**
p64
aVacpi_ec_add_query_handler
p65
aVacpi_ec_remove_query_handler
p66
aVfirst_ec
p67
aVdebugfs_create_automount
p68
aVmodule:drivers/iio/imu/inv_mpu6050/*
p69
aVdrm_crtc_accurate_vblank_count
p70
aVacpi_nfit_desc_init
p71
aVacpi_nfit_init
p72
aVloop_register_transfer
p73
aVxen_xlate_*
p74
aVnf_nat_masquerade_ipv4_register_notifier
p75
aVnf_nat_masquerade_ipv6_register_notifier
p76
aVmodule:drivers/scsi/hisi_sas/*
p77
ass(Vbase
p78
tp79
(dp80
Varches
p81
(lp82
Valpha
p83
aVamd64
p84
aVarm64
p85
aVarm64ilp32
p86
aVarmel
p87
aVarmhf
p88
aVhppa
p89
aVi386
p90
aVia64
p91
aVm68k
p92
aVmips
p93
aVmips64
p94
aVmips64el
p95
aVmips64r6
p96
aVmips64r6el
p97
aVmipsel
p98
aVmipsn32
p99
aVmipsn32el
p100
aVmipsn32r6
p101
aVmipsn32r6el
p102
aVmipsr6
p103
aVmipsr6el
p104
aVpowerpc
p105
aVpowerpcspe
p106
aVppc64
p107
aVppc64el
p108
aVriscv64
p109
aVs390
p110
aVs390x
p111
aVsh3
p112
aVsh4
p113
aVsparc
p114
aVsparc64
p115
aVx32
p116
asVcompiler
p117
Vgcc-8
p118
sVfeaturesets
p119
(lp120
Vnone
p121
aVrt
p122
ass(Vbuild
p123
tp124
(dp125
Vdebug-info
p126
I01
sVsigned-code
p127
I00
ss(Vbase
p128
NVrt
p129
tp130
(dp131
Venabled
p132
I01
ss(Vdescription
p133
tp134
(dp135
Vpart-long-up
p136
VThis kernel is not suitable for SMP (multi-processor,\u000amulti-core or hyper-threaded) systems.
p137
ss(Vimage
p138
tp139
(dp140
Vinitramfs-generators
p141
(lp142
Vinitramfs-tools
p143
aVinitramfs-fallback
p144
asVrecommends
p145
(lp146
Vapparmor
p147
ass(Vrelations
p148
tp149
(dp150
Vgcc-8
p151
Vgcc-8 <!stage1 !cross !pkg.linux.nokernel>, gcc-8-@gnu-type-package@ <!stage1 cross !pkg.linux.nokernel>
p152
sVinitramfs-fallback
p153
Vlinux-initramfs-tool
p154
sVinitramfs-tools
p155
Vinitramfs-tools (>= 0.120+deb8u2)
p156
ss(Vbase
p157
Valpha
p158
tp159
(dp160
Vkernel-arch
p161
Valpha
p162
sVfeaturesets
p163
(lp164
Vnone
p165
ass(Vbuild
p166
g158
tp167
(dp168
Vimage-file
p169
Varch/alpha/boot/vmlinux.gz
p170
ss(Vimage
p171
g158
tp172
(dp173
Vsuggests
p174
(lp175
Vaboot
p176
aVfdutils
p177
asVinstall-stem
p178
Vvmlinuz
p179
ss(Vdescription
p180
g158
NValpha-generic
p181
tp182
(dp183
Vhardware
p184
VAlpha
p185
sVhardware-long
p186
VDEC Alpha systems with extended kernel start address (Wildfire, Titan, Marvel)
p187
ss(Vdescription
p188
g158
NValpha-smp
p189
tp190
(dp191
Vhardware
p192
VAlpha SMP
p193
sVhardware-long
p194
VDEC Alpha SMP systems with extended kernel start address (Wildfire, Titan, Marvel)
p195
ss(Vbase
p196
g158
g165
tp197
(dp198
Vflavours
p199
(lp200
Valpha-generic
p201
aValpha-smp
p202
asVimplicit-flavour
p203
I01
ss(Vbase
p204
Vamd64
p205
tp206
(dp207
Vfeaturesets
p208
(lp209
Vnone
p210
aVrt
p211
asVkernel-arch
p212
Vx86
p213
ss(Vbuild
p214
g205
tp215
(dp216
Vdebug-info
p217
I01
sVimage-file
p218
Varch/x86/boot/bzImage
p219
sVsigned-code
p220
I00
sVvdso
p221
I01
ss(Vimage
p222
g205
tp223
(dp224
Vbootloaders
p225
(lp226
Vgrub-pc
p227
aVgrub-efi-amd64
p228
aVextlinux
p229
asVinstall-stem
p230
Vvmlinuz
p231
sVbreaks
p232
(lp233
Vxserver-xorg-input-vmmouse (<< 1:13.0.99)
p234
ass(Vrelations
p235
g205
tp236
(dp237
Vgcc-8
p238
Vgcc-8 (>= 8-20180123-1~) <!stage1 !cross !pkg.linux.nokernel>, gcc-8-x86-64-linux-gnu (>= 8-20180123-1~) <!stage1 cross !pkg.linux.nokernel>
p239
sVheaders%gcc-8
p240
Vlinux-compiler-gcc-8-x86
p241
ss(Vdescription
p242
g205
NVamd64
p243
tp244
(dp245
Vhardware
p246
V64-bit PCs
p247
sVhardware-long
p248
VPCs with AMD64, Intel 64 or VIA Nano processors
p249
ss(Vdescription
p250
g205
NVcloud-amd64
p251
tp252
(dp253
Vhardware
p254
Vx86-64 cloud
p255
sVhardware-long
p256
VAmazon EC2, Google Compute Engine and Microsoft Azure cloud platforms
p257
ss(Vbase
p258
g205
Vnone
p259
tp260
(dp261
Vflavours
p262
(lp263
Vamd64
p264
aVcloud-amd64
p265
ass(Vbase
p266
g205
Vrt
p267
tp268
(dp269
Vflavours
p270
(lp271
Vamd64
p272
ass(Vbase
p273
Varm64
p274
tp275
(dp276
Vkernel-arch
p277
Varm64
p278
sVfeaturesets
p279
(lp280
Vnone
p281
aVrt
p282
ass(Vbuild
p283
g274
tp284
(dp285
Vdebug-info
p286
I01
sVimage-file
p287
Varch/arm64/boot/Image
p288
sVsigned-code
p289
I00
sVvdso
p290
I01
ss(Vimage
p291
g274
tp292
(dp293
Vinstall-stem
p294
Vvmlinuz
p295
sVbreaks
p296
(lp297
Vlibmozjs185-1.0
p298
aVlibmozjs-24-0 (<< 24.2.0-5.1~)
p299
ass(Vdescription
p300
g274
NVarm64
p301
tp302
(dp303
Vhardware
p304
V64-bit ARMv8 machines
p305
ss(Vimage
p306
g274
NVarm64
p307
tp308
(dp309
s(Vbase
p310
g274
Vnone
p311
tp312
(dp313
Vflavours
p314
(lp315
Varm64
p316
ass(Vbase
p317
g274
Vrt
p318
tp319
(dp320
Vflavours
p321
(lp322
Varm64
p323
ass(Vbase
p324
Varm64ilp32
p325
tp326
(dp327
Vkernel-arch
p328
Varm64
p329
sVfeaturesets
p330
(lp331
ss(Vbase
p332
Varmel
p333
tp334
(dp335
Vkernel-arch
p336
Varm
p337
sg163
(lp338
g165
ass(Vbuild
p339
g333
tp340
(dp341
Vimage-file
p342
Varch/arm/boot/zImage
p343
sVuncompressed-image-file
p344
Varch/arm/boot/Image
p345
sVsigned-code
p346
I00
ss(Vimage
p347
g333
tp348
(dp349
Vinstall-stem
p350
Vvmlinuz
p351
ss(Vrelations
p352
g333
tp353
(dp354
Vheaders%gcc-8
p355
Vlinux-compiler-gcc-8-arm
p356
ss(Vdescription
p357
g333
NVmarvell
p358
tp359
(dp360
Vhardware
p361
VMarvell Kirkwood/Orion
p362
sVhardware-long
p363
VMarvell Kirkwood and Orion based systems (https://wiki.debian.org/ArmEabiPort#Supported_hardware)
p364
ss(Vdescription
p365
g333
NVrpi
p366
tp367
(dp368
Vhardware
p369
VRaspberry Pi and Pi Zero
p370
sVhardware-long
p371
VRaspberry Pi, Raspberry Pi Zero based systems
p372
ss(Vimage
p373
g333
NVmarvell
p374
tp375
(dp376
Vrecommends
p377
(lp378
Vu-boot-tools
p379
asVcheck-size
p380
I2097080
sVcheck-size-with-dtb
p381
I01
sVcheck-uncompressed-size
p382
I7340032
sVbreaks
p383
(lp384
Vflash-kernel (<< 3.57~)
p385
ass(g196
g333
g165
tp386
(dp387
g199
(lp388
Vmarvell
p389
aVrpi
p390
asg203
I01
ss(Vbase
p391
Varmhf
p392
tp393
(dp394
Vfeaturesets
p395
(lp396
Vnone
p397
aVrt
p398
asVkernel-arch
p399
Varm
p400
ss(Vbuild
p401
g392
tp402
(dp403
Vimage-file
p404
Varch/arm/boot/zImage
p405
sVvdso
p406
I01
sVsigned-code
p407
I00
ss(Vimage
p408
g392
tp409
(dp410
Vinstall-stem
p411
Vvmlinuz
p412
ss(Vrelations
p413
g392
tp414
(dp415
Vheaders%gcc-8
p416
Vlinux-compiler-gcc-8-arm
p417
ss(Vdescription
p418
g392
NVarmmp
p419
tp420
(dp421
Vhardware
p422
VARMv7 multiplatform compatible SoCs
p423
sVhardware-long
p424
VARMv7 multiplatform kernel. See\u000ahttps://wiki.debian.org/DebianKernel/ARMMP for details of supported\u000aplatforms
p425
ss(Vdescription
p426
g392
NVarmmp-lpae
p427
tp428
(dp429
Vhardware
p430
VARMv7 multiplatform compatible SoCs supporting LPAE
p431
sVhardware-long
p432
VARMv7 multiplatform kernel supporting LPAE. See\u000ahttps://wiki.debian.org/DebianKernel/ARMMP for details of supported\u000aplatforms.
p433
ss(Vbase
p434
g392
Vnone
p435
tp436
(dp437
Vflavours
p438
(lp439
Varmmp
p440
aVarmmp-lpae
p441
ass(Vbase
p442
g392
Vrt
p443
tp444
(dp445
Vflavours
p446
(lp447
Varmmp
p448
ass(Vbase
p449
Vhppa
p450
tp451
(dp452
Vkernel-arch
p453
Vparisc
p454
sg163
(lp455
g165
ass(Vbuild
p456
g450
tp457
(dp458
Vimage-file
p459
Varch/parisc/boot/bzImage
p460
sVdebug-info
p461
I00
ss(Vimage
p462
g450
tp463
(dp464
Vsuggests
p465
(lp466
Vpalo
p467
asVinstall-stem
p468
Vvmlinuz
p469
ss(Vdescription
p470
g450
NVparisc
p471
tp472
(dp473
Vhardware
p474
V32-bit PA-RISC
p475
sVhardware-long
p476
VHP PA-RISC 32-bit systems with max 4 GB RAM
p477
ss(Vdescription
p478
g450
NVparisc-smp
p479
tp480
(dp481
Vhardware
p482
Vmultiprocessor 32-bit PA-RISC
p483
sVhardware-long
p484
VHP PA-RISC 32-bit SMP systems with max 4 GB RAM
p485
ss(Vbase
p486
g450
NVparisc64-smp
p487
tp488
(dp489
Vcflags
p490
V-fno-cse-follow-jumps
p491
sVoverride-host-type
p492
Vhppa64-linux-gnu
p493
ss(Vdescription
p494
g450
NVparisc64-smp
p495
tp496
(dp497
Vhardware
p498
Vmultiprocessor 64-bit PA-RISC
p499
sVhardware-long
p500
VHP PA-RISC 64-bit SMP systems with support for more than 4 GB RAM
p501
ss(Vrelations
p502
g450
tp503
(dp504
Vgcc-8
p505
Vgcc-8 <!stage1 !cross !pkg.linux.nokernel>, gcc-8-hppa-linux-gnu <!stage1 cross !pkg.linux.nokernel>, binutils-hppa64-linux-gnu <!stage1 !pkg.linux.nokernel>, gcc-8-hppa64-linux-gnu <!stage1 !pkg.linux.nokernel>
p506
ss(g196
g450
g165
tp507
(dp508
g199
(lp509
Vparisc
p510
aVparisc-smp
p511
aVparisc64-smp
p512
asg203
I01
ss(Vbase
p513
Vi386
p514
tp515
(dp516
Vfeaturesets
p517
(lp518
Vnone
p519
aVrt
p520
asVkernel-arch
p521
Vx86
p522
ss(Vbuild
p523
g514
tp524
(dp525
Vimage-file
p526
Varch/x86/boot/bzImage
p527
sVsigned-code
p528
I00
sVvdso
p529
I01
ss(Vdescription
p530
g514
tp531
(dp532
Vpart-long-pae
p533
VThis kernel requires PAE (Physical Address Extension).\u000aThis feature is supported by the Intel Pentium Pro/II/III/4/4M/D, Xeon,\u000aCore and Atom; AMD Geode NX, Athlon (K7), Duron, Opteron, Sempron,\u000aTurion or Phenom; Transmeta Efficeon; VIA C7; and some other processors.
p534
ss(Vimage
p535
g514
tp536
(dp537
Vbootloaders
p538
(lp539
Vgrub-pc
p540
aVgrub-efi-ia32
p541
aVextlinux
p542
asVinstall-stem
p543
Vvmlinuz
p544
sVbreaks
p545
(lp546
Vxserver-xorg-input-vmmouse (<< 1:13.0.99)
p547
ass(Vrelations
p548
g514
tp549
(dp550
Vgcc-8
p551
Vgcc-8 (>= 8-20180123-1~) <!stage1 !cross !pkg.linux.nokernel>, gcc-8-i686-linux-gnu (>= 8-20180123-1~) <!stage1 cross !pkg.linux.nokernel>
p552
sVheaders%gcc-8
p553
Vlinux-compiler-gcc-8-x86
p554
ss(Vdescription
p555
g514
NV686
p556
tp557
(dp558
Vhardware
p559
Volder PCs
p560
sVhardware-long
p561
VPCs with one or more processors not supporting PAE
p562
ss(Vbuild
p563
g514
NV686-pae
p564
tp565
(dp566
Vdebug-info
p567
I01
ss(Vdescription
p568
g514
NV686-pae
p569
tp570
(dp571
Vhardware
p572
Vmodern PCs
p573
sVhardware-long
p574
VPCs with one or more processors supporting PAE
p575
sVparts
p576
(lp577
Vpae
p578
ass(Vbase
p579
g514
Vnone
p580
tp581
(dp582
Vflavours
p583
(lp584
V686
p585
aV686-pae
p586
ass(Vbase
p587
g514
Vrt
p588
tp589
(dp590
Vflavours
p591
(lp592
V686-pae
p593
ass(Vbase
p594
Via64
p595
tp596
(dp597
Vkernel-arch
p598
Via64
p599
sg163
(lp600
g165
ass(Vbuild
p601
g595
tp602
(dp603
Vimage-file
p604
Vvmlinux.gz
p605
ss(Vimage
p606
g595
tp607
(dp608
Vbootloaders
p609
(lp610
Vgrub-efi-ia64
p611
asVinstall-stem
p612
Vvmlinuz
p613
ss(Vdescription
p614
g595
NVitanium
p615
tp616
(dp617
Vhardware
p618
VItanium (Merced)
p619
sVhardware-long
p620
Vsystems with original Itanium (Merced) processors
p621
ss(Vdescription
p622
g595
NVmckinley
p623
tp624
(dp625
Vhardware
p626
VItanium 2+
p627
sVhardware-long
p628
Vsystems with Itanium 2 or 9300/9500/9700-series processors
p629
ss(g196
g595
g165
tp630
(dp631
g199
(lp632
Vitanium
p633
aVmckinley
p634
asg203
I01
ss(Vbase
p635
Vm68k
p636
tp637
(dp638
Vcflags
p639
V-ffreestanding
p640
sVkernel-arch
p641
Vm68k
p642
sg163
(lp643
g165
ass(Vbuild
p644
g636
tp645
(dp646
Vimage-file
p647
Vvmlinux
p648
ss(Vimage
p649
g636
tp650
(dp651
Vsuggests
p652
(lp653
Vvmelilo
p654
aVfdutils
p655
asVinstall-stem
p656
Vvmlinux
p657
ss(Vdescription
p658
g636
NVm68k
p659
tp660
(dp661
Vhardware
p662
VMotorola MC68020+ family
p663
ss(g196
g636
g165
tp664
(dp665
g199
(lp666
Vm68k
p667
asg203
I01
ss(Vbase
p668
Vmips
p669
tp670
(dp671
Vkernel-arch
p672
Vmips
p673
sg163
(lp674
g165
ass(Vbuild
p675
g669
tp676
(dp677
Vimage-file
p678
Vvmlinux
p679
ss(Vimage
p680
g669
tp681
(dp682
Vinstall-stem
p683
Vvmlinux
p684
ss(Vdescription
p685
g669
NV4kc-malta
p686
tp687
(dp688
Vhardware
p689
VMIPS Malta
p690
sVhardware-long
p691
VMIPS Malta boards
p692
ss(Vimage
p693
g669
NV4kc-malta
p694
tp695
(dp696
Vconfigs
p697
(lp698
Vkernelarch-mips/config.malta
p699
aVkernelarch-mips/config.mips32r2
p700
ass(Vdescription
p701
g669
NV5kc-malta
p702
tp703
(dp704
Vhardware
p705
VMIPS Malta (64-bit)
p706
sVhardware-long
p707
VMIPS Malta boards (64-bit)
p708
ss(Vimage
p709
g669
NV5kc-malta
p710
tp711
(dp712
Vconfigs
p713
(lp714
Vkernelarch-mips/config.malta
p715
aVkernelarch-mips/config.mips64r2
p716
ass(Vdescription
p717
g669
NVocteon
p718
tp719
(dp720
Vhardware
p721
VOcteon
p722
sVhardware-long
p723
VCavium Networks Octeon
p724
ss(Vimage
p725
g669
NVocteon
p726
tp727
(dp728
Vconfigs
p729
(lp730
Vkernelarch-mips/config.octeon
p731
ass(g196
g669
g165
tp732
(dp733
g199
(lp734
V4kc-malta
p735
aV5kc-malta
p736
aVocteon
p737
asg203
I01
ss(Vbase
p738
Vmips64
p739
tp740
(dp741
Vkernel-arch
p742
Vmips
p743
sg163
(lp744
g165
ass(Vbuild
p745
g739
tp746
(dp747
Vimage-file
p748
Vvmlinux
p749
ss(Vimage
p750
g739
tp751
(dp752
Vinstall-stem
p753
Vvmlinux
p754
ss(Vdescription
p755
g739
NV5kc-malta
p756
tp757
(dp758
Vhardware
p759
VMIPS Malta
p760
sVhardware-long
p761
VMIPS Malta boards
p762
ss(Vimage
p763
g739
NV5kc-malta
p764
tp765
(dp766
Vconfigs
p767
(lp768
Vkernelarch-mips/config.malta
p769
aVkernelarch-mips/config.mips64r2
p770
ass(Vdescription
p771
g739
NVocteon
p772
tp773
(dp774
Vhardware
p775
VOcteon
p776
sVhardware-long
p777
VCavium Networks Octeon
p778
ss(Vimage
p779
g739
NVocteon
p780
tp781
(dp782
Vconfigs
p783
(lp784
Vkernelarch-mips/config.octeon
p785
ass(g196
g739
g165
tp786
(dp787
g199
(lp788
V5kc-malta
p789
aVocteon
p790
asg203
I01
ss(Vbase
p791
Vmips64el
p792
tp793
(dp794
Vkernel-arch
p795
Vmips
p796
sg163
(lp797
g165
ass(Vbuild
p798
g792
tp799
(dp800
Vimage-file
p801
Vvmlinux
p802
ss(Vimage
p803
g792
tp804
(dp805
Vinstall-stem
p806
Vvmlinux
p807
ss(Vdescription
p808
g792
NV5kc-malta
p809
tp810
(dp811
Vhardware
p812
VMIPS Malta
p813
sVhardware-long
p814
VMIPS Malta boards
p815
ss(Vimage
p816
g792
NV5kc-malta
p817
tp818
(dp819
Vconfigs
p820
(lp821
Vkernelarch-mips/config.malta
p822
aVkernelarch-mips/config.mips64r2
p823
ass(Vdescription
p824
g792
NVloongson-3
p825
tp826
(dp827
Vhardware
p828
VLoongson 3A/3B
p829
sVhardware-long
p830
VLoongson 3A or 3B based systems (e.g. from Loongson or Lemote)
p831
ss(Vimage
p832
g792
NVloongson-3
p833
tp834
(dp835
Vconfigs
p836
(lp837
Vkernelarch-mips/config.loongson-3
p838
ass(Vdescription
p839
g792
NVocteon
p840
tp841
(dp842
Vhardware
p843
VOcteon
p844
sVhardware-long
p845
VCavium Networks Octeon
p846
ss(Vimage
p847
g792
NVocteon
p848
tp849
(dp850
Vconfigs
p851
(lp852
Vkernelarch-mips/config.octeon
p853
ass(g196
g792
g165
tp854
(dp855
g199
(lp856
V5kc-malta
p857
aVloongson-3
p858
aVocteon
p859
asg203
I01
ss(Vbase
p860
Vmips64r6
p861
tp862
(dp863
Vkernel-arch
p864
Vmips
p865
sg163
(lp866
g165
ass(Vbuild
p867
g861
tp868
(dp869
Vimage-file
p870
Vvmlinux
p871
ss(Vimage
p872
g861
tp873
(dp874
Vinstall-stem
p875
Vvmlinux
p876
ss(Vdescription
p877
g861
NVmips64r6
p878
tp879
(dp880
Vhardware
p881
VMIPS R6 (64 bit, big endian)
p882
sVhardware-long
p883
VMIPS R6 (64 bit, big endian)
p884
ss(Vimage
p885
g861
NVmips64r6
p886
tp887
(dp888
Vconfigs
p889
(lp890
Vkernelarch-mips/config.boston
p891
aVkernelarch-mips/config.mips64r6
p892
ass(g196
g861
g165
tp893
(dp894
g199
(lp895
Vmips64r6
p896
asg203
I01
ss(Vbase
p897
Vmips64r6el
p898
tp899
(dp900
Vkernel-arch
p901
Vmips
p902
sg163
(lp903
g165
ass(Vbuild
p904
g898
tp905
(dp906
Vimage-file
p907
Vvmlinux
p908
ss(Vimage
p909
g898
tp910
(dp911
Vinstall-stem
p912
Vvmlinux
p913
ss(Vdescription
p914
g898
NVmips64r6el
p915
tp916
(dp917
Vhardware
p918
VMIPS R6 (64 bit, little endian)
p919
sVhardware-long
p920
VMIPS R6 (64 bit, little endian)
p921
ss(Vimage
p922
g898
NVmips64r6el
p923
tp924
(dp925
Vconfigs
p926
(lp927
Vkernelarch-mips/config.boston
p928
aVkernelarch-mips/config.mips64r6
p929
ass(g196
g898
g165
tp930
(dp931
g199
(lp932
Vmips64r6el
p933
asg203
I01
ss(Vbase
p934
Vmipsel
p935
tp936
(dp937
Vkernel-arch
p938
Vmips
p939
sg163
(lp940
g165
ass(Vbuild
p941
g935
tp942
(dp943
Vimage-file
p944
Vvmlinux
p945
ss(Vimage
p946
g935
tp947
(dp948
Vinstall-stem
p949
Vvmlinux
p950
ss(Vdescription
p951
g935
NV4kc-malta
p952
tp953
(dp954
Vhardware
p955
VMIPS Malta
p956
sVhardware-long
p957
VMIPS Malta boards
p958
ss(Vimage
p959
g935
NV4kc-malta
p960
tp961
(dp962
Vconfigs
p963
(lp964
Vkernelarch-mips/config.malta
p965
aVkernelarch-mips/config.mips32r2
p966
ass(Vdescription
p967
g935
NV5kc-malta
p968
tp969
(dp970
Vhardware
p971
VMIPS Malta (64-bit)
p972
sVhardware-long
p973
VMIPS Malta boards (64-bit)
p974
ss(Vimage
p975
g935
NV5kc-malta
p976
tp977
(dp978
Vconfigs
p979
(lp980
Vkernelarch-mips/config.malta
p981
aVkernelarch-mips/config.mips64r2
p982
ass(Vdescription
p983
g935
NVloongson-3
p984
tp985
(dp986
Vhardware
p987
VLoongson 3A/3B
p988
sVhardware-long
p989
VLoongson 3A or 3B based systems (e.g. from Loongson or Lemote)
p990
ss(Vimage
p991
g935
NVloongson-3
p992
tp993
(dp994
Vconfigs
p995
(lp996
Vkernelarch-mips/config.loongson-3
p997
ass(Vdescription
p998
g935
NVocteon
p999
tp1000
(dp1001
Vhardware
p1002
VOcteon
p1003
sVhardware-long
p1004
VCavium Networks Octeon
p1005
ss(Vimage
p1006
g935
NVocteon
p1007
tp1008
(dp1009
Vconfigs
p1010
(lp1011
Vkernelarch-mips/config.octeon
p1012
ass(g196
g935
g165
tp1013
(dp1014
g199
(lp1015
V4kc-malta
p1016
aV5kc-malta
p1017
aVloongson-3
p1018
aVocteon
p1019
asg203
I01
ss(Vbase
p1020
Vmipsn32
p1021
tp1022
(dp1023
Vkernel-arch
p1024
Vmips
p1025
sVfeaturesets
p1026
(lp1027
ss(Vbase
p1028
Vmipsn32el
p1029
tp1030
(dp1031
Vkernel-arch
p1032
Vmips
p1033
sVfeaturesets
p1034
(lp1035
ss(Vbase
p1036
Vmipsn32r6
p1037
tp1038
(dp1039
Vkernel-arch
p1040
Vmips
p1041
sVfeaturesets
p1042
(lp1043
ss(Vbase
p1044
Vmipsn32r6el
p1045
tp1046
(dp1047
Vkernel-arch
p1048
Vmips
p1049
sVfeaturesets
p1050
(lp1051
ss(Vbase
p1052
Vmipsr6
p1053
tp1054
(dp1055
Vkernel-arch
p1056
Vmips
p1057
sg163
(lp1058
g165
ass(Vbuild
p1059
g1053
tp1060
(dp1061
Vimage-file
p1062
Vvmlinux
p1063
ss(Vimage
p1064
g1053
tp1065
(dp1066
Vinstall-stem
p1067
Vvmlinux
p1068
ss(Vdescription
p1069
g1053
NVmips32r6
p1070
tp1071
(dp1072
Vhardware
p1073
VMIPS R6 (32 bit, big endian)
p1074
sVhardware-long
p1075
VMIPS R6 (32 bit, big endian)
p1076
ss(Vimage
p1077
g1053
NVmips32r6
p1078
tp1079
(dp1080
Vconfigs
p1081
(lp1082
Vkernelarch-mips/config.boston
p1083
aVkernelarch-mips/config.mips32r6
p1084
ass(Vdescription
p1085
g1053
NVmips64r6
p1086
tp1087
(dp1088
Vhardware
p1089
VMIPS R6 (64 bit, big endian)
p1090
sVhardware-long
p1091
VMIPS R6 (64 bit, big endian)
p1092
ss(Vimage
p1093
g1053
NVmips64r6
p1094
tp1095
(dp1096
Vconfigs
p1097
(lp1098
Vkernelarch-mips/config.boston
p1099
aVkernelarch-mips/config.mips64r6
p1100
ass(g196
g1053
g165
tp1101
(dp1102
g199
(lp1103
Vmips32r6
p1104
aVmips64r6
p1105
asg203
I01
ss(Vbase
p1106
Vmipsr6el
p1107
tp1108
(dp1109
Vkernel-arch
p1110
Vmips
p1111
sg163
(lp1112
g165
ass(Vbuild
p1113
g1107
tp1114
(dp1115
Vimage-file
p1116
Vvmlinux
p1117
ss(Vimage
p1118
g1107
tp1119
(dp1120
Vinstall-stem
p1121
Vvmlinux
p1122
ss(Vdescription
p1123
g1107
NVmips32r6el
p1124
tp1125
(dp1126
Vhardware
p1127
VMIPS R6 (32 bit, little endian)
p1128
sVhardware-long
p1129
VMIPS R6 (32 bit, little endian)
p1130
ss(Vimage
p1131
g1107
NVmips32r6el
p1132
tp1133
(dp1134
Vconfigs
p1135
(lp1136
Vkernelarch-mips/config.boston
p1137
aVkernelarch-mips/config.mips32r6
p1138
ass(Vdescription
p1139
g1107
NVmips64r6el
p1140
tp1141
(dp1142
Vhardware
p1143
VMIPS R6 (64 bit, little endian)
p1144
sVhardware-long
p1145
VMIPS R6 (64 bit, little endian)
p1146
ss(Vimage
p1147
g1107
NVmips64r6el
p1148
tp1149
(dp1150
Vconfigs
p1151
(lp1152
Vkernelarch-mips/config.boston
p1153
aVkernelarch-mips/config.mips64r6
p1154
ass(g196
g1107
g165
tp1155
(dp1156
g199
(lp1157
Vmips32r6el
p1158
aVmips64r6el
p1159
asg203
I01
ss(Vbase
p1160
Vpowerpc
p1161
tp1162
(dp1163
Vkernel-arch
p1164
Vpowerpc
p1165
sg163
(lp1166
g165
ass(Vbuild
p1167
g1161
tp1168
(dp1169
Vimage-file
p1170
Vvmlinux
p1171
sVvdso
p1172
I01
ss(Vimage
p1173
g1161
tp1174
(dp1175
Vconfigs
p1176
(lp1177
sVbootloaders
p1178
(lp1179
Vgrub-ieee1275
p1180
asVsuggests
p1181
(lp1182
Vmkvmlinuz
p1183
asVinstall-stem
p1184
Vvmlinux
p1185
ss(Vdescription
p1186
g1161
NVpowerpc
p1187
tp1188
(dp1189
Vhardware
p1190
Vuniprocessor 32-bit PowerPC
p1191
ss(Vdescription
p1192
g1161
NVpowerpc-smp
p1193
tp1194
(dp1195
Vhardware
p1196
Vmultiprocessor 32-bit PowerPC
p1197
ss(Vimage
p1198
g1161
NVpowerpc-smp
p1199
tp1200
(dp1201
Vconfigs
p1202
(lp1203
Vpowerpc/config.powerpc
p1204
aVpowerpc/config.powerpc-smp
p1205
ass(Vdescription
p1206
g1161
NVpowerpc64
p1207
tp1208
(dp1209
Vhardware
p1210
V64-bit PowerPC
p1211
ss(Vimage
p1212
g1161
NVpowerpc64
p1213
tp1214
(dp1215
Vconfigs
p1216
(lp1217
Vkernelarch-powerpc/config-arch-64
p1218
aVkernelarch-powerpc/config-arch-64-be
p1219
ass(g196
g1161
g165
tp1220
(dp1221
g199
(lp1222
Vpowerpc
p1223
aVpowerpc-smp
p1224
aVpowerpc64
p1225
asg203
I01
ss(Vbase
p1226
Vpowerpcspe
p1227
tp1228
(dp1229
Vkernel-arch
p1230
Vpowerpc
p1231
sg163
(lp1232
g165
ass(Vbuild
p1233
g1227
tp1234
(dp1235
Vimage-file
p1236
Vvmlinux
p1237
sVvdso
p1238
I01
ss(Vimage
p1239
g1227
tp1240
(dp1241
Vsuggests
p1242
(lp1243
Vmkvmlinuz
p1244
asVinstall-stem
p1245
Vvmlinux
p1246
ss(Vdescription
p1247
g1227
tp1248
(dp1249
Vhardware
p1250
V32-bit PowerPC with SPE (instead of AltiVec) with SMP support
p1251
ss(g196
g1227
g165
tp1252
(dp1253
g199
(lp1254
Vpowerpcspe
p1255
asg203
I01
ss(Vbase
p1256
Vppc64
p1257
tp1258
(dp1259
Vkernel-arch
p1260
Vpowerpc
p1261
sg163
(lp1262
g165
ass(Vbuild
p1263
g1257
tp1264
(dp1265
Vimage-file
p1266
Vvmlinux
p1267
sVvdso
p1268
I01
ss(Vimage
p1269
g1257
tp1270
(dp1271
Vconfigs
p1272
(lp1273
sVbootloaders
p1274
(lp1275
Vgrub-ieee1275
p1276
asVsuggests
p1277
(lp1278
Vmkvmlinuz
p1279
asVinstall-stem
p1280
Vvmlinux
p1281
ss(Vdescription
p1282
g1257
NVpowerpc64
p1283
tp1284
(dp1285
Vhardware
p1286
V64-bit PowerPC
p1287
ss(Vimage
p1288
g1257
NVpowerpc64
p1289
tp1290
(dp1291
Vconfigs
p1292
(lp1293
Vkernelarch-powerpc/config-arch-64
p1294
aVkernelarch-powerpc/config-arch-64-be
p1295
ass(g196
g1257
g165
tp1296
(dp1297
g199
(lp1298
Vpowerpc64
p1299
asg203
I01
ss(Vbase
p1300
Vppc64el
p1301
tp1302
(dp1303
Vkernel-arch
p1304
Vpowerpc
p1305
sg163
(lp1306
g165
ass(Vbuild
p1307
g1301
tp1308
(dp1309
Vimage-file
p1310
Vvmlinux
p1311
sVvdso
p1312
I01
ss(Vimage
p1313
g1301
tp1314
(dp1315
Vconfigs
p1316
(lp1317
sVbootloaders
p1318
(lp1319
Vgrub-ieee1275
p1320
asVsuggests
p1321
(lp1322
Vmkvmlinuz
p1323
asVinstall-stem
p1324
Vvmlinux
p1325
ss(Vdescription
p1326
g1301
NVpowerpc64le
p1327
tp1328
(dp1329
Vhardware
p1330
VLittle-endian 64-bit PowerPC
p1331
ss(Vimage
p1332
g1301
NVpowerpc64le
p1333
tp1334
(dp1335
Vconfigs
p1336
(lp1337
Vkernelarch-powerpc/config-arch-64
p1338
aVkernelarch-powerpc/config-arch-64-le
p1339
ass(g196
g1301
g165
tp1340
(dp1341
g199
(lp1342
Vpowerpc64le
p1343
asg203
I01
ss(Vbase
p1344
Vriscv64
p1345
tp1346
(dp1347
Vkernel-arch
p1348
Vriscv
p1349
sVfeaturesets
p1350
(lp1351
Vnone
p1352
ass(Vbuild
p1353
g1345
tp1354
(dp1355
Vimage-file
p1356
Vvmlinux
p1357
sVvdso
p1358
I01
ss(Vimage
p1359
g1345
tp1360
(dp1361
Vinstall-stem
p1362
Vvmlinux
p1363
ss(Vdescription
p1364
g1345
NVriscv64
p1365
tp1366
(dp1367
Vhardware
p1368
V64-bit RISC-V platforms
p1369
sVhardware-long
p1370
V64-bit RISC-V platforms
p1371
ss(Vbase
p1372
g1345
Vnone
p1373
tp1374
(dp1375
Vflavours
p1376
(lp1377
Vriscv64
p1378
ass(Vbase
p1379
Vs390
p1380
tp1381
(dp1382
Vkernel-arch
p1383
Vs390
p1384
sVfeaturesets
p1385
(lp1386
ss(Vbase
p1387
Vs390x
p1388
tp1389
(dp1390
Vkernel-arch
p1391
Vs390
p1392
sg163
(lp1393
g165
ass(Vbuild
p1394
g1388
tp1395
(dp1396
Vimage-file
p1397
Varch/s390/boot/bzImage
p1398
sVvdso
p1399
I01
ss(Vimage
p1400
g1388
tp1401
(dp1402
Vbootloaders
p1403
(lp1404
Vs390-tools
p1405
asVinstall-stem
p1406
Vvmlinuz
p1407
ss(Vrelations
p1408
g1388
tp1409
(dp1410
Vheaders%gcc-8
p1411
Vlinux-compiler-gcc-8-s390
p1412
ss(Vbuild
p1413
g1388
NVs390x
p1414
tp1415
(dp1416
Vdebug-info
p1417
I01
ss(Vdescription
p1418
g1388
NVs390x
p1419
tp1420
(dp1421
Vhardware
p1422
VIBM zSeries
p1423
ss(g196
g1388
g165
tp1424
(dp1425
g199
(lp1426
Vs390x
p1427
asg203
I01
ss(Vbase
p1428
Vsh3
p1429
tp1430
(dp1431
Vkernel-arch
p1432
Vsh
p1433
sVfeaturesets
p1434
(lp1435
ss(Vbase
p1436
Vsh4
p1437
tp1438
(dp1439
Vkernel-arch
p1440
Vsh
p1441
sg163
(lp1442
g165
ass(Vbuild
p1443
g1437
tp1444
(dp1445
Vimage-file
p1446
Varch/sh/boot/zImage
p1447
ss(Vimage
p1448
g1437
tp1449
(dp1450
Vinstall-stem
p1451
Vvmlinuz
p1452
ss(Vdescription
p1453
g1437
NVsh7751r
p1454
tp1455
(dp1456
Vhardware
p1457
Vsh7751r
p1458
sVhardware-long
p1459
VRenesas SH7751R R2D plus board
p1460
ss(Vdescription
p1461
g1437
NVsh7785lcr
p1462
tp1463
(dp1464
Vhardware
p1465
Vsh7785lcr
p1466
sVhardware-long
p1467
VRenesas SH7785 reference board
p1468
ss(Vimage
p1469
g1437
NVsh7785lcr
p1470
tp1471
(dp1472
Vrecommends
p1473
(lp1474
Vu-boot-tools
p1475
asVcheck-size
p1476
I4194304
ss(g196
g1437
g165
tp1477
(dp1478
g199
(lp1479
Vsh7751r
p1480
aVsh7785lcr
p1481
asg203
I01
ss(Vbase
p1482
Vsparc
p1483
tp1484
(dp1485
Vkernel-arch
p1486
Vsparc
p1487
sVfeaturesets
p1488
(lp1489
ss(Vbase
p1490
Vsparc64
p1491
tp1492
(dp1493
Vkernel-arch
p1494
Vsparc
p1495
sg163
(lp1496
g165
ass(Vbuild
p1497
g1491
tp1498
(dp1499
Vimage-file
p1500
Vvmlinux
p1501
ss(Vimage
p1502
g1491
tp1503
(dp1504
Vconfigs
p1505
(lp1506
sVbootloaders
p1507
(lp1508
Vgrub-ieee1275
p1509
asVsuggests
p1510
(lp1511
Vfdutils
p1512
asVinstall-stem
p1513
Vvmlinux
p1514
ss(Vdescription
p1515
g1491
NVsparc64
p1516
tp1517
(dp1518
Vhardware
p1519
Vuniprocessor 64-bit UltraSPARC
p1520
ss(Vimage
p1521
g1491
NVsparc64
p1522
tp1523
(dp1524
Vconfigs
p1525
(lp1526
Vkernelarch-sparc/config-up
p1527
ass(Vdescription
p1528
g1491
NVsparc64-smp
p1529
tp1530
(dp1531
Vhardware
p1532
Vmultiprocessor 64-bit UltraSPARC
p1533
ss(Vimage
p1534
g1491
NVsparc64-smp
p1535
tp1536
(dp1537
Vconfigs
p1538
(lp1539
Vkernelarch-sparc/config-smp
p1540
ass(g196
g1491
g165
tp1541
(dp1542
g199
(lp1543
Vsparc64
p1544
aVsparc64-smp
p1545
asg203
I01
ss(Vbase
p1546
Vx32
p1547
tp1548
(dp1549
Vkernel-arch
p1550
Vx86
p1551
sVfeaturesets
p1552
(lp1553
ss(Vabi
p1554
NVrt
p1555
tp1556
(dp1557
Vignore-changes
p1558
(lp1559
V*
p1560
ass(Vdescription
p1561
Ng1555
tp1562
(dp1563
Vpart-long-rt
p1564
VThis kernel includes the PREEMPT_RT realtime patch set.
p1565
sVpart-short-rt
p1566
VPREEMPT_RT
p1567
sVparts
p1568
(lp1569
Vrt
p1570
ass(Vversion
p1571
tp1572
(dp1573
Vsource
p1574
V4.19.37-6kali1
p1575
sVupstream
p1576
V4.19
p1577
sVabiname_base
p1578
V4.19.0
p1579
sVabiname
p1580
V4.19.0-kali5
p1581
ss.