ccopy_reg
_reconstructor
p0
(cdebian_linux.config
ConfigCore
p1
c__builtin__
dict
p2
(dp3
(Vbase
p4
Vhppa
p5
NVparisc64-smp
p6
tp7
(dp8
Vcflags
p9
V-fno-cse-follow-jumps
p10
sVoverride-host-type
p11
Vhppa64-linux-gnu
p12
ss(Vbase
p13
Vpowerpc
p14
tp15
(dp16
Vfeaturesets
p17
(lp18
Vnone
p19
asVkernel-arch
p20
Vpowerpc
p21
ss(Vimage
p22
Vsparc64
p23
NVsparc64-smp
p24
tp25
(dp26
Vconfigs
p27
(lp28
Vkernelarch-sparc/config-smp
p29
ass(Vimage
p30
Vs390x
p31
tp32
(dp33
Vinstall-stem
p34
Vvmlinuz
p35
sVbootloaders
p36
(lp37
Vs390-tools
p38
ass(Vdescription
p39
Vmips64
p40
NVocteon
p41
tp42
(dp43
Vhardware-long
p44
VCavium Networks Octeon
p45
sVhardware
p46
VOcteon
p47
ss(Vabi
p48
tp49
(dp50
Vabiname
p51
Vkali1
p52
ss(Vbase
p53
Vi386
p54
Vrt
p55
tp56
(dp57
Vflavours
p58
(lp59
V686-pae
p60
ass(Vbase
p61
Varmhf
p62
tp63
(dp64
g17
(lp65
g19
asVkernel-arch
p66
Varm
p67
ss(Vbase
p68
g5
tp69
(dp70
g17
(lp71
g19
asVkernel-arch
p72
Vparisc
p73
ss(Vdescription
p74
Vamd64
p75
Vnone
p76
Vamd64
p77
tp78
(dp79
Vparts
p80
(lp81
Vxen
p82
ass(Vdescription
p83
Valpha
p84
NValpha-smp
p85
tp86
(dp87
Vhardware-long
p88
VDEC Alpha SMP systems with extended kernel start address (Wildfire, Titan, Marvel)
p89
sVhardware
p90
VAlpha SMP
p91
ss(Vimage
p92
g54
tp93
(dp94
Vbreaks
p95
Vxserver-xorg-input-vmmouse (<< 1:13.0.99)
p96
sVinstall-stem
p97
Vvmlinuz
p98
sVbootloaders
p99
(lp100
Vgrub-pc
p101
aVextlinux
p102
ass(Vbase
p103
Vmips
p104
g19
tp105
(dp106
Vflavours
p107
(lp108
V4kc-malta
p109
aV5kc-malta
p110
aVocteon
p111
asVimplicit-flavour
p112
I01
ss(Vdescription
p113
Vsh4
p114
NVsh7785lcr
p115
tp116
(dp117
Vhardware-long
p118
VRenesas SH7785 reference board
p119
sVhardware
p120
Vsh7785lcr
p121
ss(Vimage
p122
tp123
(dp124
Vinitramfs-generators
p125
(lp126
Vinitramfs-tools
p127
aVinitramfs-fallback
p128
ass(Vbase
p129
Vm68k
p130
tp131
(dp132
g17
(lp133
g19
asVcflags
p134
V-ffreestanding
p135
sVkernel-arch
p136
Vm68k
p137
ss(Vversion
p138
tp139
(dp140
Vupstream
p141
V4.7
p142
sVsource
p143
V4.7.5-1kali1
p144
sVabiname_base
p145
V4.7.0
p146
sVabiname
p147
V4.7.0-kali1
p148
ss(Vimage
p149
g114
tp150
(dp151
Vinstall-stem
p152
Vvmlinuz
p153
ss(Vimage
p154
Varmel
p155
NVmarvell
p156
tp157
(dp158
Vcheck-size
p159
L2097080L
sVcheck-size-with-dtb
p160
I01
sVbreaks
p161
Vflash-kernel (<< 3.57~)
p162
sVrecommends
p163
Vu-boot-tools
p164
ss(Vdescription
p165
Vmipsel
p166
NV5kc-malta
p167
tp168
(dp169
Vhardware-long
p170
VMIPS Malta boards (64-bit)
p171
sVhardware
p172
VMIPS Malta (64-bit)
p173
ss(Vbase
p174
g155
tp175
(dp176
g17
(lp177
g19
asVkernel-arch
p178
Varm
p179
ss(Vbuild
p180
g104
tp181
(dp182
Vimage-file
p183
Vvmlinux
p184
sVsigned-modules
p185
I00
ss(Vrelations
p186
g75
tp187
(dp188
Vheaders%gcc-5
p189
Vlinux-compiler-gcc-5-x86
p190
ss(g103
g166
g19
tp191
(dp192
g107
(lp193
V4kc-malta
p194
aV5kc-malta
p195
aVloongson-3
p196
aVocteon
p197
asg112
I01
ss(g103
g114
g19
tp198
(dp199
g107
(lp200
Vsh7751r
p201
aVsh7785lcr
p202
asg112
I01
ss(Vbuild
p203
g84
tp204
(dp205
Vimage-file
p206
Varch/alpha/boot/vmlinux.gz
p207
sVsigned-modules
p208
I00
ss(Vrelations
p209
g54
tp210
(dp211
Vheaders%gcc-5
p212
Vlinux-compiler-gcc-5-x86
p213
ss(Vimage
p214
g166
NV5kc-malta
p215
tp216
(dp217
Vconfigs
p218
(lp219
Vkernelarch-mips/config.malta
p220
aVkernelarch-mips/config.mips64r2
p221
ass(Vbase
p222
Vor1k
p223
tp224
(dp225
Vfeaturesets
p226
(lp227
sVkernel-arch
p228
Vopenrisc
p229
ss(Vimage
p230
g62
tp231
(dp232
Vinstall-stem
p233
Vvmlinuz
p234
ss(Vbase
p235
g84
tp236
(dp237
g17
(lp238
g19
asVkernel-arch
p239
Valpha
p240
ss(Vdescription
p241
g166
NV4kc-malta
p242
tp243
(dp244
Vhardware-long
p245
VMIPS Malta boards
p246
sVhardware
p247
VMIPS Malta
p248
ss(Vimage
p249
g23
NVsparc64
p250
tp251
(dp252
Vconfigs
p253
(lp254
Vkernelarch-sparc/config-up
p255
ass(Vbase
p256
Vmips64el
p257
tp258
(dp259
g17
(lp260
g19
asVkernel-arch
p261
Vmips
p262
ss(Vbase
p263
g114
tp264
(dp265
g17
(lp266
g19
asVkernel-arch
p267
Vsh
p268
ss(Vbase
p269
Vmipsn32
p270
tp271
(dp272
Vfeaturesets
p273
(lp274
sVkernel-arch
p275
Vmips
p276
ss(Vrelations
p277
tp278
(dp279
Vinitramfs-fallback
p280
Vlinux-initramfs-tool
p281
sVinitramfs-tools
p282
Vinitramfs-tools (>= 0.110~)
p283
sVgcc-5
p284
Vgcc-5 <!stage1 !cross>, gcc-5-@gnu-type-package@:native <!stage1 cross>
p285
ss(Vdescription
p286
g166
NVloongson-3
p287
tp288
(dp289
Vhardware-long
p290
VLoongson 3A or 3B based systems (e.g. from Loongson or Lemote)
p291
sVhardware
p292
VLoongson 3A/3B
p293
ss(g103
g31
g19
tp294
(dp295
g107
(lp296
Vs390x
p297
asg112
I01
ss(Vdescription
p298
Vppc64el
p299
NVpowerpc64le
p300
tp301
(dp302
Vhardware
p303
VLittle-endian 64-bit PowerPC
p304
ss(Vimage
p305
g166
NV4kc-malta
p306
tp307
(dp308
Vconfigs
p309
(lp310
Vkernelarch-mips/config.malta
p311
aVkernelarch-mips/config.mips32r2
p312
ass(Vdescription
p313
g54
Vnone
p314
V686-pae
p315
tp316
(dp317
Vparts
p318
(lp319
Vxen
p320
ass(Vbuild
p321
g40
tp322
(dp323
Vimage-file
p324
Vvmlinux
p325
sVsigned-modules
p326
I00
ss(Vdescription
p327
g31
NVs390x
p328
tp329
(dp330
Vhardware
p331
VIBM zSeries
p332
ss(Vimage
p333
g114
NVsh7785lcr
p334
tp335
(dp336
Vcheck-size
p337
L4194304L
sVrecommends
p338
Vu-boot-tools
p339
ss(Vdescription
p340
g155
NVversatile
p341
tp342
(dp343
Vhardware-long
p344
VVersatile systems (PB, AB, Qemu)
p345
sVhardware
p346
VVersatile
p347
ss(Vimage
p348
g166
tp349
(dp350
Vinstall-stem
p351
Vvmlinux
p352
ss(Vbuild
p353
tp354
(dp355
Vdebug-info
p356
I01
sVsigned-modules
p357
I01
ss(Vdescription
p358
g14
NVpowerpc
p359
tp360
(dp361
Vhardware
p362
Vuniprocessor 32-bit PowerPC
p363
ss(Vdescription
p364
g5
NVparisc64-smp
p365
tp366
(dp367
Vhardware-long
p368
VHP PA-RISC 64-bit SMP systems with support for more than 4 GB RAM
p369
sVhardware
p370
Vmultiprocessor 64-bit PA-RISC
p371
ss(Vdescription
p372
Varm64
p373
NVarm64
p374
tp375
(dp376
Vhardware
p377
V64-bit ARMv8 machines
p378
ss(Vdescription
p379
g62
NVarmmp
p380
tp381
(dp382
Vhardware-long
p383
VARMv7 multiplatform kernel. See\u000ahttps://wiki.debian.org/DebianKernel/ARMMP for details of supported\u000aplatforms
p384
sVhardware
p385
VARMv7 multiplatform compatible SoCs
p386
ss(Vdescription
p387
g62
NVarmmp-lpae
p388
tp389
(dp390
Vhardware-long
p391
VARMv7 multiplatform kernel supporting LPAE. See\u000ahttps://wiki.debian.org/DebianKernel/ARMMP for details of supported\u000aplatforms.
p392
sVhardware
p393
VARMv7 multiplatform compatible SoCs supporting LPAE
p394
ss(Vabi
p395
NVrt
p396
tp397
(dp398
Vignore-changes
p399
(lp400
V*
p401
ass(Vbase
p402
Vpowerpcspe
p403
tp404
(dp405
g17
(lp406
g19
asVkernel-arch
p407
Vpowerpc
p408
ss(Vdescription
p409
g14
NVpowerpc-smp
p410
tp411
(dp412
Vhardware
p413
Vmultiprocessor 32-bit PowerPC
p414
ss(Vbase
p415
g75
g76
tp416
(dp417
Vflavours
p418
(lp419
Vamd64
p420
ass(Vimage
p421
g104
tp422
(dp423
Vinstall-stem
p424
Vvmlinux
p425
ss(Vimage
p426
g257
NVocteon
p427
tp428
(dp429
Vconfigs
p430
(lp431
Vkernelarch-mips/config.octeon
p432
ass(Vbase
p433
g75
Vrt
p434
tp435
(dp436
Vflavours
p437
(lp438
Vamd64
p439
ass(Vdescription
p440
g403
tp441
(dp442
Vhardware
p443
V32-bit PowerPC with SPE (instead of AltiVec) with SMP support
p444
ss(Vbuild
p445
g23
tp446
(dp447
Vimage-file
p448
Varch/sparc/boot/zImage
p449
sVsigned-modules
p450
I00
ss(Vdescription
p451
g130
NVm68k
p452
tp453
(dp454
Vhardware
p455
VMotorola MC68020+ family
p456
ss(Vdescription
p457
g257
NVloongson-3
p458
tp459
(dp460
Vhardware-long
p461
VLoongson 3A or 3B based systems (e.g. from Loongson or Lemote)
p462
sVhardware
p463
VLoongson 3A/3B
p464
ss(Vimage
p465
g373
tp466
(dp467
Vinstall-stem
p468
Vvmlinuz
p469
ss(Vdescription
p470
g23
NVsparc64-smp
p471
tp472
(dp473
Vhardware
p474
Vmultiprocessor 64-bit UltraSPARC
p475
ss(Vbuild
p476
g299
tp477
(dp478
Vimage-file
p479
Vvmlinux
p480
sVvdso
p481
I01
ss(Vbuild
p482
g54
tp483
(dp484
Vimage-file
p485
Varch/x86/boot/bzImage
p486
sVvdso
p487
I01
ss(Vimage
p488
g166
NVocteon
p489
tp490
(dp491
Vconfigs
p492
(lp493
Vkernelarch-mips/config.octeon
p494
ass(Vdescription
p495
g54
NV686
p496
tp497
(dp498
Vhardware-long
p499
VPCs with one or more processors not supporting PAE
p500
sVhardware
p501
Volder PCs
p502
ss(g103
g5
g19
tp503
(dp504
g107
(lp505
Vparisc
p506
aVparisc64-smp
p507
asg112
I01
ss(Vbase
p508
Vsparc
p509
tp510
(dp511
Vfeaturesets
p512
(lp513
sVkernel-arch
p514
Vsparc
p515
ss(Vbase
p516
NVrt
p517
tp518
(dp519
Venabled
p520
I00
ss(Vbuild
p521
g166
tp522
(dp523
Vimage-file
p524
Vvmlinux
p525
sVsigned-modules
p526
I00
ss(Vdescription
p527
g84
NValpha-generic
p528
tp529
(dp530
Vhardware-long
p531
VDEC Alpha systems with extended kernel start address (Wildfire, Titan, Marvel)
p532
sVhardware
p533
VAlpha
p534
ss(Vbuild
p535
g14
tp536
(dp537
Vimage-file
p538
Vvmlinux
p539
sVvdso
p540
I01
ss(g103
g40
g19
tp541
(dp542
g107
(lp543
V5kc-malta
p544
aVocteon
p545
asg112
I01
ss(g103
g257
g19
tp546
(dp547
g107
(lp548
V5kc-malta
p549
aVloongson-3
p550
aVocteon
p551
asg112
I01
ss(Vbase
p552
g373
Vnone
p553
tp554
(dp555
Vflavours
p556
(lp557
Varm64
p558
ass(Vdescription
p559
g54
NV686-pae
p560
tp561
(dp562
Vparts
p563
(lp564
Vpae
p565
asVhardware-long
p566
VPCs with one or more processors supporting PAE
p567
sVhardware
p568
Vmodern PCs
p569
ss(Vdescription
p570
g166
NVocteon
p571
tp572
(dp573
Vhardware-long
p574
VCavium Networks Octeon
p575
sVhardware
p576
VOcteon
p577
ss(Vimage
p578
g257
tp579
(dp580
Vinstall-stem
p581
Vvmlinux
p582
ss(Vimage
p583
g23
tp584
(dp585
Vsuggests
p586
Vsilo, fdutils
p587
sVconfigs
p588
(lp589
sVinstall-stem
p590
Vvmlinuz
p591
ss(Vimage
p592
Vppc64
p593
NVpowerpc64
p594
tp595
(dp596
Vconfigs
p597
(lp598
Vkernelarch-powerpc/config-arch-64
p599
aVkernelarch-powerpc/config-arch-64-be
p600
ass(Vimage
p601
g14
tp602
(dp603
Vsuggests
p604
Vmkvmlinuz
p605
sVconfigs
p606
(lp607
sVinstall-stem
p608
Vvmlinux
p609
ss(Vdescription
p610
g257
NVocteon
p611
tp612
(dp613
Vhardware-long
p614
VCavium Networks Octeon
p615
sVhardware
p616
VOcteon
p617
ss(Vxen
p618
g75
g76
Vamd64
p619
tp620
(dp621
Vflavours
p622
(lp623
Vamd64
p624
ass(Vimage
p625
g166
NVloongson-3
p626
tp627
(dp628
Vconfigs
p629
(lp630
Vkernelarch-mips/config.loongson-3
p631
ass(Vdescription
p632
g104
NV4kc-malta
p633
tp634
(dp635
Vhardware-long
p636
VMIPS Malta boards
p637
sVhardware
p638
VMIPS Malta
p639
ss(Vbase
p640
Vmipsn32el
p641
tp642
(dp643
Vfeaturesets
p644
(lp645
sVkernel-arch
p646
Vmips
p647
ss(Vdescription
p648
g155
NVmarvell
p649
tp650
(dp651
Vhardware-long
p652
VMarvell Kirkwood based systems (SheevaPlug, QNAP TS-119/TS-219, etc)\u000aand Orion 5181, 5182 and 5281 based systems (QNAP TS-109/TS-209, etc)
p653
sVhardware
p654
VMarvell Kirkwood/Orion
p655
ss(Vbase
p656
g593
tp657
(dp658
g17
(lp659
g19
asVkernel-arch
p660
Vpowerpc
p661
ss(Vbuild
p662
g75
tp663
(dp664
Vdebug-info
p665
I01
sVvdso
p666
I01
sVimage-file
p667
Varch/x86/boot/bzImage
p668
ss(Vimage
p669
g257
NV5kc-malta
p670
tp671
(dp672
Vconfigs
p673
(lp674
Vkernelarch-mips/config.malta
p675
aVkernelarch-mips/config.mips64r2
p676
ass(Vbase
p677
g54
g314
tp678
(dp679
Vflavours
p680
(lp681
V686
p682
aV686-pae
p683
ass(Vbuild
p684
g403
tp685
(dp686
Vimage-file
p687
Vvmlinux
p688
sVvdso
p689
I01
sVsigned-modules
p690
I00
ss(Vimage
p691
g299
tp692
(dp693
Vsuggests
p694
Vmkvmlinuz
p695
sVconfigs
p696
(lp697
sVinstall-stem
p698
Vvmlinux
p699
ss(Vimage
p700
g299
NVpowerpc64le
p701
tp702
(dp703
Vconfigs
p704
(lp705
Vkernelarch-powerpc/config-arch-64
p706
aVkernelarch-powerpc/config-arch-64-le
p707
ass(Vbase
p708
Vtilegx
p709
tp710
(dp711
Vfeaturesets
p712
(lp713
sVkernel-arch
p714
Vtile
p715
ss(Vdescription
p716
g104
NV5kc-malta
p717
tp718
(dp719
Vhardware-long
p720
VMIPS Malta boards (64-bit)
p721
sVhardware
p722
VMIPS Malta (64-bit)
p723
ss(Vrelations
p724
g155
tp725
(dp726
Vheaders%gcc-5
p727
Vlinux-compiler-gcc-5-arm
p728
ss(Vrelations
p729
g62
tp730
(dp731
Vheaders%gcc-5
p732
Vlinux-compiler-gcc-5-arm
p733
ss(Vimage
p734
g130
tp735
(dp736
Vsuggests
p737
Vvmelilo, fdutils
p738
sVinstall-stem
p739
Vvmlinuz
p740
ss(g103
g155
g19
tp741
(dp742
g107
(lp743
Vmarvell
p744
aVversatile
p745
asg112
I01
ss(g103
g299
g19
tp746
(dp747
g107
(lp748
Vpowerpc64le
p749
asg112
I01
ss(Vbase
p750
g54
tp751
(dp752
Vkernel-arch
p753
Vx86
p754
sVfeaturesets
p755
(lp756
Vnone
p757
aVrt
p758
ass(Vbase
p759
Vs390
p760
tp761
(dp762
Vfeaturesets
p763
(lp764
sVkernel-arch
p765
Vs390
p766
ss(Vimage
p767
g104
NV5kc-malta
p768
tp769
(dp770
Vconfigs
p771
(lp772
Vkernelarch-mips/config.malta
p773
aVkernelarch-mips/config.mips64r2
p774
ass(Vbase
p775
tp776
(dp777
Varches
p778
(lp779
Valpha
p780
aVamd64
p781
aVarm64
p782
aVarmel
p783
aVarmhf
p784
aVhppa
p785
aVi386
p786
aVm68k
p787
aVmips
p788
aVmipsel
p789
aVmipsn32
p790
aVmipsn32el
p791
aVmips64
p792
aVmips64el
p793
aVor1k
p794
aVpowerpc
p795
aVpowerpcspe
p796
aVppc64
p797
aVppc64el
p798
aVs390
p799
aVs390x
p800
aVsh4
p801
aVsparc
p802
aVsparc64
p803
aVtilegx
p804
aVx32
p805
asVcompiler
p806
Vgcc-5
p807
sVfeaturesets
p808
(lp809
Vnone
p810
aVrt
p811
ass(Vdescription
p812
g114
NVsh7751r
p813
tp814
(dp815
Vhardware-long
p816
VRenesas SH7751R R2D plus board
p817
sVhardware
p818
Vsh7751r
p819
ss(Vbase
p820
g373
tp821
(dp822
Vfeaturesets
p823
(lp824
Vnone
p825
asVkernel-arch
p826
Varm64
p827
ss(g103
g14
g19
tp828
(dp829
g107
(lp830
Vpowerpc
p831
aVpowerpc-smp
p832
aVpowerpc64
p833
asg112
I01
ss(Vimage
p834
g155
tp835
(dp836
Vinstall-stem
p837
Vvmlinuz
p838
ss(Vdescription
p839
g257
NV5kc-malta
p840
tp841
(dp842
Vhardware-long
p843
VMIPS Malta boards
p844
sVhardware
p845
VMIPS Malta
p846
ss(g103
g84
g19
tp847
(dp848
g107
(lp849
Valpha-generic
p850
aValpha-smp
p851
asg112
I01
ss(Vdescription
p852
g40
NV5kc-malta
p853
tp854
(dp855
Vhardware-long
p856
VMIPS Malta boards
p857
sVhardware
p858
VMIPS Malta
p859
ss(Vbuild
p860
g257
tp861
(dp862
Vimage-file
p863
Vvmlinux
p864
sVsigned-modules
p865
I00
ss(Vimage
p866
g373
NVarm64
p867
tp868
(dp869
s(Vimage
p870
g403
tp871
(dp872
Vsuggests
p873
Vmkvmlinuz
p874
sVinstall-stem
p875
Vvmlinux
p876
ss(Vbuild
p877
g54
NV686-pae
p878
tp879
(dp880
Vdebug-info
p881
I01
ss(Vdescription
p882
g75
NVamd64
p883
tp884
(dp885
Vhardware-long
p886
VPCs with AMD64, Intel 64 or VIA Nano processors
p887
sVhardware
p888
V64-bit PCs
p889
ss(Vbuild
p890
g31
NVs390x
p891
tp892
(dp893
Vdebug-info
p894
I01
ss(Vimage
p895
g40
NV5kc-malta
p896
tp897
(dp898
Vconfigs
p899
(lp900
Vkernelarch-mips/config.malta
p901
aVkernelarch-mips/config.mips64r2
p902
ass(Vbuild
p903
g31
tp904
(dp905
Vimage-file
p906
Varch/s390/boot/image
p907
sVvdso
p908
I01
ss(Vbuild
p909
g62
tp910
(dp911
Vimage-file
p912
Varch/arm/boot/zImage
p913
sVvdso
p914
I01
ss(Vbase
p915
g40
tp916
(dp917
g17
(lp918
g19
asVkernel-arch
p919
Vmips
p920
ss(Vbuild
p921
g114
tp922
(dp923
Vimage-file
p924
Varch/sh/boot/zImage
p925
sVsigned-modules
p926
I00
ss(Vimage
p927
g593
tp928
(dp929
Vsuggests
p930
Vmkvmlinuz
p931
sVconfigs
p932
(lp933
sVinstall-stem
p934
Vvmlinux
p935
ss(Vdescription
p936
Ng396
tp937
(dp938
Vparts
p939
(lp940
Vrt
p941
asVpart-long-rt
p942
VThis kernel includes the PREEMPT_RT realtime patch set.
p943
sVpart-short-rt
p944
VPREEMPT_RT
p945
ss(Vimage
p946
g104
NV4kc-malta
p947
tp948
(dp949
Vconfigs
p950
(lp951
Vkernelarch-mips/config.malta
p952
aVkernelarch-mips/config.mips32r2
p953
ass(Vimage
p954
g5
tp955
(dp956
Vsuggests
p957
Vpalo
p958
sVinstall-stem
p959
Vvmlinux
p960
ss(Vdescription
p961
g23
NVsparc64
p962
tp963
(dp964
Vhardware
p965
Vuniprocessor 64-bit UltraSPARC
p966
ss(Vbuild
p967
g130
tp968
(dp969
Vimage-file
p970
Vvmlinux.gz
p971
sVsigned-modules
p972
I00
ss(Vimage
p973
g14
NVpowerpc-smp
p974
tp975
(dp976
Vconfigs
p977
(lp978
Vpowerpc/config.powerpc
p979
aVpowerpc/config.powerpc-smp
p980
ass(Vimage
p981
g257
NVloongson-3
p982
tp983
(dp984
Vconfigs
p985
(lp986
Vkernelarch-mips/config.loongson-3
p987
ass(Vbuild
p988
g155
tp989
(dp990
Vimage-file
p991
Varch/arm/boot/zImage
p992
sVsigned-modules
p993
I00
ss(Vdescription
p994
tp995
(dp996
Vpart-long-up
p997
VThis kernel is not suitable for SMP (multi-processor,\u000amulti-core or hyper-threaded) systems.
p998
sVpart-long-xen
p999
VThis kernel also runs on a Xen hypervisor.\u000aIt supports both privileged (dom0) and unprivileged (domU) operation.
p1000
ss(Vbase
p1001
Vx32
p1002
tp1003
(dp1004
Vfeaturesets
p1005
(lp1006
sVkernel-arch
p1007
Vx86
p1008
ss(Vdescription
p1009
g14
NVpowerpc64
p1010
tp1011
(dp1012
Vhardware
p1013
V64-bit PowerPC
p1014
ss(Vbase
p1015
g166
tp1016
(dp1017
g17
(lp1018
g19
asVkernel-arch
p1019
Vmips
p1020
ss(Vimage
p1021
g104
NVocteon
p1022
tp1023
(dp1024
Vconfigs
p1025
(lp1026
Vkernelarch-mips/config.octeon
p1027
ass(g103
g130
g19
tp1028
(dp1029
g107
(lp1030
Vm68k
p1031
asg112
I01
ss(Vdescription
p1032
g54
tp1033
(dp1034
Vpart-long-pae
p1035
VThis kernel requires PAE (Physical Address Extension).\u000aThis feature is supported by the Intel Pentium Pro/II/III/4/4M/D, Xeon,\u000aCore and Atom; AMD Geode NX, Athlon (K7), Duron, Opteron, Sempron,\u000aTurion or Phenom; Transmeta Efficeon; VIA C7; and some other processors.
p1036
ss(Vbuild
p1037
g373
tp1038
(dp1039
Vdebug-info
p1040
I01
sVvdso
p1041
I01
sVimage-file
p1042
Varch/arm64/boot/Image
p1043
ss(g103
g62
g19
tp1044
(dp1045
g107
(lp1046
Varmmp
p1047
aVarmmp-lpae
p1048
asg112
I01
ss(Vrelations
p1049
g31
tp1050
(dp1051
Vheaders%gcc-5
p1052
Vlinux-compiler-gcc-5-s390
p1053
ss(Vimage
p1054
g40
tp1055
(dp1056
Vinstall-stem
p1057
Vvmlinux
p1058
ss(Vbase
p1059
g104
tp1060
(dp1061
g17
(lp1062
g19
asVkernel-arch
p1063
Vmips
p1064
ss(Vimage
p1065
g75
tp1066
(dp1067
Vbreaks
p1068
Vxserver-xorg-input-vmmouse (<< 1:13.0.99)
p1069
sVinstall-stem
p1070
Vvmlinuz
p1071
sVbootloaders
p1072
(lp1073
Vgrub-pc
p1074
aVgrub-efi-amd64
p1075
aVextlinux
p1076
ass(Vdescription
p1077
g593
NVpowerpc64
p1078
tp1079
(dp1080
Vhardware
p1081
V64-bit PowerPC
p1082
ss(Vdescription
p1083
g104
NVocteon
p1084
tp1085
(dp1086
Vhardware-long
p1087
VCavium Networks Octeon
p1088
sVhardware
p1089
VOcteon
p1090
ss(g103
g403
g19
tp1091
(dp1092
g107
(lp1093
Vpowerpcspe
p1094
asg112
I01
ss(g103
g593
g19
tp1095
(dp1096
g107
(lp1097
Vpowerpc64
p1098
asg112
I01
ss(Vdescription
p1099
g5
NVparisc
p1100
tp1101
(dp1102
Vhardware-long
p1103
VHP PA-RISC 32-bit systems with max 4 GB RAM
p1104
sVhardware
p1105
V32-bit PA-RISC
p1106
ss(Vbuild
p1107
g593
tp1108
(dp1109
Vimage-file
p1110
Vvmlinux
p1111
sVvdso
p1112
I01
sVsigned-modules
p1113
I00
ss(Vimage
p1114
g84
tp1115
(dp1116
Vsuggests
p1117
Vaboot, fdutils
p1118
sVinstall-stem
p1119
Vvmlinuz
p1120
ss(Vrelations
p1121
g5
tp1122
(dp1123
Vgcc-5
p1124
Vgcc-5 <!stage1 !cross>, binutils-hppa64-linux-gnu <!stage1 !cross>, gcc-5-hppa64-linux-gnu <!stage1 !cross>, gcc-5-hppa-linux-gnu:native <!stage1 cross>, binutils-hppa64-linux-gnu:native <!stage1 cross>, gcc-5-hppa64-linux-gnu:native <!stage1 cross>
p1125
ss(Vbase
p1126
g299
tp1127
(dp1128
g17
(lp1129
g19
asVkernel-arch
p1130
Vpowerpc
p1131
ss(Vbuild
p1132
g5
tp1133
(dp1134
Vimage-file
p1135
Vvmlinux
p1136
sVsigned-modules
p1137
I00
ss(g103
g23
g19
tp1138
(dp1139
g107
(lp1140
Vsparc64
p1141
aVsparc64-smp
p1142
asg112
I01
ss(Vbase
p1143
g23
tp1144
(dp1145
g17
(lp1146
g19
asVkernel-arch
p1147
Vsparc
p1148
ss(Vbase
p1149
g75
tp1150
(dp1151
Vkernel-arch
p1152
Vx86
p1153
sVfeaturesets
p1154
(lp1155
Vnone
p1156
aVrt
p1157
ass(Vimage
p1158
g40
NVocteon
p1159
tp1160
(dp1161
Vconfigs
p1162
(lp1163
Vkernelarch-mips/config.octeon
p1164
ass(Vbase
p1165
g31
tp1166
(dp1167
g17
(lp1168
g19
asVkernel-arch
p1169
Vs390
p1170
ss(Vimage
p1171
g14
NVpowerpc64
p1172
tp1173
(dp1174
Vconfigs
p1175
(lp1176
Vkernelarch-powerpc/config-arch-64
p1177
aVkernelarch-powerpc/config-arch-64-be
p1178
asstp1179
Rp1180
.