cdebian_linux.config
ConfigCore
p0
(tRp1
(Vabi
p2
tp3
(dp4
Vabiname
p5
Vkali1
p6
sVignore-changes
p7
(lp8
V__cpuhp_*
p9
aVbpf_analyzer
p10
aVcxl_*
p11
aVdax_flush
p12
aVieee80211_nullfunc_get
p13
aVinet_add_protocol
p14
aVinet_del_protocol
p15
aViommu_device_*
p16
aVmm_iommu_*
p17
aVmv_mbus_*
p18
aVperf_*
p19
aVregister_cxl_calls
p20
aVregister_key_type
p21
aVunregister_cxl_calls
p22
aV*_hw_breakpoint
p23
aVmodule:drivers/crypto/ccp/*
p24
aVmodule:drivers/hv/*
p25
aVmodule:drivers/gpu/drm/sun4i/*
p26
aVmodule:drivers/iio/**
p27
aVmodule:drivers/misc/cxl/*
p28
aVmodule:drivers/mtd/nand/*
p29
aVmodule:drivers/net/ethernet/**
p30
aVmodule:drivers/net/wireless/**
p31
aVmodule:drivers/nvdimm/*
p32
aVmodule:drivers/power/supply/bq27xxx_battery
p33
aVmodule:drivers/scsi/cxgbi/*
p34
aVmodule:drivers/scsi/libiscs*
p35
aVmodule:drivers/scsi/qla2xxx/qla2xxx
p36
aVmodule:drivers/scsi/ufs/*
p37
aVmodule:drivers/target/**
p38
aVmodule:drivers/usb/chipidea/**
p39
aVmodule:drivers/usb/gadget/**
p40
aVmodule:drivers/usb/host/**
p41
aVmodule:drivers/usb/musb/**
p42
aVmodule:fs/nfs/**
p43
aVmodule:net/ceph/libceph
p44
aVmodule:net/l2tp/**
p45
aVmodule:net/rxrpc/rxrpc
p46
aVmodule:net/sctp/**
p47
aVmodule:sound/core/seq/**
p48
aVmodule:sound/firewire/snd-firewire-lib
p49
aVmodule:sound/pci/hda/*
p50
aVbtree_*
p51
aVvisitor*
p52
aVcan_rx_register
p53
aVip6_xmit
p54
aVmodule:net/dccp/dccp
p55
aVmodule:net/rds/rds
p56
aVdevfreq_*
p57
aVdevm_devfreq_*
p58
aVupdate_devfreq
p59
aVmodule:drivers/infiniband/**
p60
aVacpi_ec_add_query_handler
p61
aVacpi_ec_remove_query_handler
p62
aVfirst_ec
p63
aVdebugfs_create_automount
p64
aVmodule:drivers/iio/imu/inv_mpu6050/*
p65
aVdrm_crtc_accurate_vblank_count
p66
aVacpi_nfit_desc_init
p67
aVacpi_nfit_init
p68
aVloop_register_transfer
p69
aVxen_xlate_*
p70
aVnf_nat_masquerade_ipv4_register_notifier
p71
aVnf_nat_masquerade_ipv6_register_notifier
p72
aVmodule:drivers/scsi/hisi_sas/*
p73
aV__gfn_*
p74
aV__kvmhv_*
p75
aV__kvm_*
p76
aV__xive_vm_h_*
p77
aVgfn_*
p78
aVh_ipi_redirect
p79
aVhalt_poll_ns*
p80
aVkvm_*
p81
aVkvmhv_*
p82
aVkvmppc_*
p83
aVmark_page_dirty
p84
aVvcpu_*
p85
aVmodule:arch/powerpc/kvm/*
p86
aVmodule:arch/s390/kvm/*
p87
aVmodule:arch/x86/kvm/*
p88
ass(Vbase
p89
tp90
(dp91
Varches
p92
(lp93
Valpha
p94
aVamd64
p95
aVarm64
p96
aVarm64ilp32
p97
aVarmel
p98
aVarmhf
p99
aVhppa
p100
aVi386
p101
aVia64
p102
aVm68k
p103
aVmips
p104
aVmips64
p105
aVmips64el
p106
aVmips64r6
p107
aVmips64r6el
p108
aVmipsel
p109
aVmipsn32
p110
aVmipsn32el
p111
aVmipsn32r6
p112
aVmipsn32r6el
p113
aVmipsr6
p114
aVmipsr6el
p115
aVpowerpc
p116
aVppc64
p117
aVppc64el
p118
aVriscv64
p119
aVs390
p120
aVs390x
p121
aVsh3
p122
aVsh4
p123
aVsparc
p124
aVsparc64
p125
aVx32
p126
asVcompiler
p127
Vgcc-9
p128
sVfeaturesets
p129
(lp130
Vnone
p131
aVrt
p132
ass(Vbuild
p133
tp134
(dp135
Vdebug-info
p136
I01
sVsigned-code
p137
I00
ss(Vbase
p138
NVrt
p139
tp140
(dp141
Venabled
p142
I01
ss(Vdescription
p143
tp144
(dp145
Vpart-long-up
p146
VThis kernel is not suitable for SMP (multi-processor,\u000amulti-core or hyper-threaded) systems.
p147
ss(Vimage
p148
tp149
(dp150
Vinitramfs-generators
p151
(lp152
Vinitramfs-tools
p153
aVinitramfs-fallback
p154
asVrecommends
p155
(lp156
Vapparmor
p157
ass(Vrelations
p158
tp159
(dp160
Vgcc-9
p161
Vgcc-9 <!stage1 !cross !pkg.linux.nokernel>, gcc-9-@gnu-type-package@ <!stage1 cross !pkg.linux.nokernel>
p162
sVinitramfs-fallback
p163
Vlinux-initramfs-tool
p164
sVinitramfs-tools
p165
Vinitramfs-tools (>= 0.120+deb8u2)
p166
ss(Vbase
p167
Valpha
p168
tp169
(dp170
Vkernel-arch
p171
Valpha
p172
sVfeaturesets
p173
(lp174
Vnone
p175
ass(Vbuild
p176
g168
tp177
(dp178
Vimage-file
p179
Varch/alpha/boot/vmlinux.gz
p180
ss(Vimage
p181
g168
tp182
(dp183
Vsuggests
p184
(lp185
Vaboot
p186
aVfdutils
p187
asVinstall-stem
p188
Vvmlinuz
p189
ss(Vdescription
p190
g168
NValpha-generic
p191
tp192
(dp193
Vhardware
p194
VAlpha
p195
sVhardware-long
p196
VDEC Alpha systems with extended kernel start address (Wildfire, Titan, Marvel)
p197
ss(Vdescription
p198
g168
NValpha-smp
p199
tp200
(dp201
Vhardware
p202
VAlpha SMP
p203
sVhardware-long
p204
VDEC Alpha SMP systems with extended kernel start address (Wildfire, Titan, Marvel)
p205
ss(Vbase
p206
g168
g175
tp207
(dp208
Vflavours
p209
(lp210
Valpha-generic
p211
aValpha-smp
p212
asVimplicit-flavour
p213
I01
ss(Vbase
p214
Vamd64
p215
tp216
(dp217
Vfeaturesets
p218
(lp219
Vnone
p220
aVrt
p221
asVkernel-arch
p222
Vx86
p223
ss(Vbuild
p224
g215
tp225
(dp226
Vdebug-info
p227
I01
sVimage-file
p228
Varch/x86/boot/bzImage
p229
sVsigned-code
p230
I00
sVvdso
p231
I01
ss(Vimage
p232
g215
tp233
(dp234
Vbootloaders
p235
(lp236
Vgrub-pc
p237
aVgrub-efi-amd64
p238
aVextlinux
p239
asVinstall-stem
p240
Vvmlinuz
p241
sVbreaks
p242
(lp243
Vxserver-xorg-input-vmmouse (<< 1:13.0.99)
p244
ass(Vrelations
p245
g215
tp246
(dp247
Vheaders%gcc-9
p248
Vlinux-compiler-gcc-9-x86
p249
ss(Vdescription
p250
g215
NVamd64
p251
tp252
(dp253
Vhardware
p254
V64-bit PCs
p255
sVhardware-long
p256
VPCs with AMD64, Intel 64 or VIA Nano processors
p257
ss(Vdescription
p258
g215
NVcloud-amd64
p259
tp260
(dp261
Vhardware
p262
Vx86-64 cloud
p263
sVhardware-long
p264
VAmazon EC2, Google Compute Engine and Microsoft Azure cloud platforms
p265
ss(Vbase
p266
g215
Vnone
p267
tp268
(dp269
Vflavours
p270
(lp271
Vamd64
p272
aVcloud-amd64
p273
ass(Vbase
p274
g215
Vrt
p275
tp276
(dp277
Vflavours
p278
(lp279
Vamd64
p280
ass(Vbase
p281
Varm64
p282
tp283
(dp284
Vcross-compile-compat
p285
Varm-linux-gnueabihf-
p286
sVkernel-arch
p287
Varm64
p288
sVfeaturesets
p289
(lp290
Vnone
p291
aVrt
p292
ass(Vbuild
p293
g282
tp294
(dp295
Vdebug-info
p296
I01
sVimage-file
p297
Varch/arm64/boot/Image
p298
sVsigned-code
p299
I00
sVvdso
p300
I01
ss(Vimage
p301
g282
tp302
(dp303
Vinstall-stem
p304
Vvmlinuz
p305
sVbreaks
p306
(lp307
Vlibmozjs185-1.0
p308
aVlibmozjs-24-0 (<< 24.2.0-5.1~)
p309
ass(Vdescription
p310
g282
NVarm64
p311
tp312
(dp313
Vhardware
p314
V64-bit ARMv8 machines
p315
ss(Vimage
p316
g282
NVarm64
p317
tp318
(dp319
s(Vrelations
p320
g282
tp321
(dp322
Vgcc-9
p323
Vgcc-9 <!stage1 !cross !pkg.linux.nokernel>, gcc-9-aarch64-linux-gnu <!stage1 cross !pkg.linux.nokernel>, gcc-arm-linux-gnueabihf <!stage1 !pkg.linux.nokernel>
p324
sVheaders%gcc-9
p325
Vgcc-9
p326
ss(Vbase
p327
g282
Vnone
p328
tp329
(dp330
Vflavours
p331
(lp332
Varm64
p333
ass(Vbase
p334
g282
Vrt
p335
tp336
(dp337
Vflavours
p338
(lp339
Varm64
p340
ass(Vbase
p341
Varm64ilp32
p342
tp343
(dp344
Vkernel-arch
p345
Varm64
p346
sVfeaturesets
p347
(lp348
ss(Vbase
p349
Varmel
p350
tp351
(dp352
Vkernel-arch
p353
Varm
p354
sg173
(lp355
g175
ass(Vbuild
p356
g350
tp357
(dp358
Vimage-file
p359
Varch/arm/boot/zImage
p360
sVuncompressed-image-file
p361
Varch/arm/boot/Image
p362
sVsigned-code
p363
I00
ss(Vimage
p364
g350
tp365
(dp366
Vinstall-stem
p367
Vvmlinuz
p368
ss(Vrelations
p369
g350
tp370
(dp371
Vheaders%gcc-9
p372
Vlinux-compiler-gcc-9-arm
p373
ss(Vdescription
p374
g350
NVmarvell
p375
tp376
(dp377
Vhardware
p378
VMarvell Kirkwood/Orion
p379
sVhardware-long
p380
VMarvell Kirkwood and Orion based systems (https://wiki.debian.org/ArmEabiPort#Supported_hardware)
p381
ss(Vdescription
p382
g350
NVrpi
p383
tp384
(dp385
Vhardware
p386
VRaspberry Pi and Pi Zero
p387
sVhardware-long
p388
VRaspberry Pi, Raspberry Pi Zero based systems
p389
ss(Vimage
p390
g350
NVmarvell
p391
tp392
(dp393
Vrecommends
p394
(lp395
Vu-boot-tools
p396
asVcheck-size
p397
I2729712
sVcheck-size-with-dtb
p398
I01
sVcheck-uncompressed-size
p399
I7340032
sVbreaks
p400
(lp401
Vflash-kernel (<< 3.57~)
p402
ass(g206
g350
g175
tp403
(dp404
g209
(lp405
Vmarvell
p406
aVrpi
p407
asg213
I01
ss(Vbase
p408
Varmhf
p409
tp410
(dp411
Vfeaturesets
p412
(lp413
Vnone
p414
aVrt
p415
asVkernel-arch
p416
Varm
p417
ss(Vbuild
p418
g409
tp419
(dp420
Vimage-file
p421
Varch/arm/boot/zImage
p422
sVvdso
p423
I01
sVsigned-code
p424
I00
ss(Vimage
p425
g409
tp426
(dp427
Vinstall-stem
p428
Vvmlinuz
p429
ss(Vrelations
p430
g409
tp431
(dp432
Vheaders%gcc-9
p433
Vlinux-compiler-gcc-9-arm
p434
ss(Vdescription
p435
g409
NVarmmp
p436
tp437
(dp438
Vhardware
p439
VARMv7 multiplatform compatible SoCs
p440
sVhardware-long
p441
VARMv7 multiplatform kernel. See\u000ahttps://wiki.debian.org/DebianKernel/ARMMP for details of supported\u000aplatforms
p442
ss(Vdescription
p443
g409
NVarmmp-lpae
p444
tp445
(dp446
Vhardware
p447
VARMv7 multiplatform compatible SoCs supporting LPAE
p448
sVhardware-long
p449
VARMv7 multiplatform kernel supporting LPAE. See\u000ahttps://wiki.debian.org/DebianKernel/ARMMP for details of supported\u000aplatforms.
p450
ss(Vbase
p451
g409
Vnone
p452
tp453
(dp454
Vflavours
p455
(lp456
Varmmp
p457
aVarmmp-lpae
p458
ass(Vbase
p459
g409
Vrt
p460
tp461
(dp462
Vflavours
p463
(lp464
Varmmp
p465
ass(Vbase
p466
Vhppa
p467
tp468
(dp469
Vkernel-arch
p470
Vparisc
p471
sg173
(lp472
g175
ass(Vbuild
p473
g467
tp474
(dp475
Vimage-file
p476
Varch/parisc/boot/bzImage
p477
sVdebug-info
p478
I00
ss(Vimage
p479
g467
tp480
(dp481
Vsuggests
p482
(lp483
Vpalo
p484
asVinstall-stem
p485
Vvmlinuz
p486
ss(Vdescription
p487
g467
NVparisc
p488
tp489
(dp490
Vhardware
p491
V32-bit PA-RISC
p492
sVhardware-long
p493
VHP PA-RISC 32-bit systems with max 4 GB RAM
p494
ss(Vbase
p495
g467
NVparisc64
p496
tp497
(dp498
Vcflags
p499
V-fno-cse-follow-jumps
p500
sVoverride-host-type
p501
Vhppa64-linux-gnu
p502
ss(Vdescription
p503
g467
NVparisc64
p504
tp505
(dp506
Vhardware
p507
V64-bit PA-RISC
p508
sVhardware-long
p509
VHP PA-RISC 64-bit systems with support for more than 4 GB RAM
p510
ss(Vrelations
p511
g467
tp512
(dp513
Vgcc-9
p514
Vgcc-9 <!stage1 !cross !pkg.linux.nokernel>, gcc-9-hppa-linux-gnu <!stage1 cross !pkg.linux.nokernel>, binutils-hppa64-linux-gnu <!stage1 !pkg.linux.nokernel>, gcc-9-hppa64-linux-gnu <!stage1 !pkg.linux.nokernel>
p515
ss(g206
g467
g175
tp516
(dp517
g209
(lp518
Vparisc
p519
aVparisc64
p520
asg213
I01
ss(Vbase
p521
Vi386
p522
tp523
(dp524
Vfeaturesets
p525
(lp526
Vnone
p527
aVrt
p528
asVkernel-arch
p529
Vx86
p530
ss(Vbuild
p531
g522
tp532
(dp533
Vimage-file
p534
Varch/x86/boot/bzImage
p535
sVsigned-code
p536
I00
sVvdso
p537
I01
ss(Vdescription
p538
g522
tp539
(dp540
Vpart-long-pae
p541
VThis kernel requires PAE (Physical Address Extension).\u000aThis feature is supported by the Intel Pentium Pro/II/III/4/4M/D, Xeon,\u000aCore and Atom; AMD Geode NX, Athlon (K7), Duron, Opteron, Sempron,\u000aTurion or Phenom; Transmeta Efficeon; VIA C7; and some other processors.
p542
ss(Vimage
p543
g522
tp544
(dp545
Vbootloaders
p546
(lp547
Vgrub-pc
p548
aVgrub-efi-ia32
p549
aVextlinux
p550
asVinstall-stem
p551
Vvmlinuz
p552
sVbreaks
p553
(lp554
Vxserver-xorg-input-vmmouse (<< 1:13.0.99)
p555
ass(Vrelations
p556
g522
tp557
(dp558
Vheaders%gcc-9
p559
Vlinux-compiler-gcc-9-x86
p560
ss(Vdescription
p561
g522
NV686
p562
tp563
(dp564
Vhardware
p565
Volder PCs
p566
sVhardware-long
p567
VPCs with one or more processors not supporting PAE
p568
ss(Vbuild
p569
g522
NV686-pae
p570
tp571
(dp572
Vdebug-info
p573
I01
ss(Vdescription
p574
g522
NV686-pae
p575
tp576
(dp577
Vhardware
p578
Vmodern PCs
p579
sVhardware-long
p580
VPCs with one or more processors supporting PAE
p581
sVparts
p582
(lp583
Vpae
p584
ass(Vbase
p585
g522
Vnone
p586
tp587
(dp588
Vflavours
p589
(lp590
V686
p591
aV686-pae
p592
ass(Vbase
p593
g522
Vrt
p594
tp595
(dp596
Vflavours
p597
(lp598
V686-pae
p599
ass(Vbase
p600
Via64
p601
tp602
(dp603
Vkernel-arch
p604
Via64
p605
sg173
(lp606
g175
ass(Vbuild
p607
g601
tp608
(dp609
Vimage-file
p610
Vvmlinux.gz
p611
ss(Vimage
p612
g601
tp613
(dp614
Vbootloaders
p615
(lp616
Vgrub-efi-ia64
p617
asVinstall-stem
p618
Vvmlinuz
p619
ss(Vdescription
p620
g601
NVitanium
p621
tp622
(dp623
Vhardware
p624
VItanium (Merced)
p625
sVhardware-long
p626
Vsystems with original Itanium (Merced) processors
p627
ss(Vdescription
p628
g601
NVmckinley
p629
tp630
(dp631
Vhardware
p632
VItanium 2+
p633
sVhardware-long
p634
Vsystems with Itanium 2 or 9300/9500/9700-series processors
p635
ss(g206
g601
g175
tp636
(dp637
g209
(lp638
Vitanium
p639
aVmckinley
p640
asg213
I01
ss(Vbase
p641
Vm68k
p642
tp643
(dp644
Vcflags
p645
V-ffreestanding
p646
sVkernel-arch
p647
Vm68k
p648
sg173
(lp649
g175
ass(Vbuild
p650
g642
tp651
(dp652
Vimage-file
p653
Vvmlinux
p654
ss(Vimage
p655
g642
tp656
(dp657
Vsuggests
p658
(lp659
Vvmelilo
p660
aVfdutils
p661
asVinstall-stem
p662
Vvmlinux
p663
ss(Vdescription
p664
g642
NVm68k
p665
tp666
(dp667
Vhardware
p668
VMotorola MC68020+ family
p669
ss(g206
g642
g175
tp670
(dp671
g209
(lp672
Vm68k
p673
asg213
I01
ss(Vbase
p674
Vmips
p675
tp676
(dp677
Vkernel-arch
p678
Vmips
p679
sg173
(lp680
g175
ass(Vbuild
p681
g675
tp682
(dp683
Vimage-file
p684
Vvmlinuz
p685
ss(Vimage
p686
g675
tp687
(dp688
Vinstall-stem
p689
Vvmlinuz
p690
ss(Vdescription
p691
g675
NV4kc-malta
p692
tp693
(dp694
Vhardware
p695
VMIPS Malta
p696
sVhardware-long
p697
VMIPS Malta boards
p698
ss(Vimage
p699
g675
NV4kc-malta
p700
tp701
(dp702
Vconfigs
p703
(lp704
Vkernelarch-mips/config.malta
p705
aVkernelarch-mips/config.mips32r2
p706
ass(Vdescription
p707
g675
NV5kc-malta
p708
tp709
(dp710
Vhardware
p711
VMIPS Malta (64-bit)
p712
sVhardware-long
p713
VMIPS Malta boards (64-bit)
p714
ss(Vimage
p715
g675
NV5kc-malta
p716
tp717
(dp718
Vconfigs
p719
(lp720
Vkernelarch-mips/config.malta
p721
aVkernelarch-mips/config.mips64r2
p722
ass(Vdescription
p723
g675
NVocteon
p724
tp725
(dp726
Vhardware
p727
VOcteon
p728
sVhardware-long
p729
VCavium Networks Octeon
p730
ss(Vimage
p731
g675
NVocteon
p732
tp733
(dp734
Vimage-file
p735
Vvmlinux
p736
sVinstall-stem
p737
Vvmlinux
p738
sVconfigs
p739
(lp740
Vkernelarch-mips/config.octeon
p741
ass(g206
g675
g175
tp742
(dp743
g209
(lp744
V4kc-malta
p745
aV5kc-malta
p746
aVocteon
p747
asg213
I01
ss(Vbase
p748
Vmips64
p749
tp750
(dp751
Vkernel-arch
p752
Vmips
p753
sg173
(lp754
g175
ass(Vbuild
p755
g749
tp756
(dp757
Vimage-file
p758
Vvmlinuz
p759
ss(Vimage
p760
g749
tp761
(dp762
Vinstall-stem
p763
Vvmlinuz
p764
ss(Vdescription
p765
g749
NV5kc-malta
p766
tp767
(dp768
Vhardware
p769
VMIPS Malta
p770
sVhardware-long
p771
VMIPS Malta boards
p772
ss(Vimage
p773
g749
NV5kc-malta
p774
tp775
(dp776
Vconfigs
p777
(lp778
Vkernelarch-mips/config.malta
p779
aVkernelarch-mips/config.mips64r2
p780
ass(Vdescription
p781
g749
NVocteon
p782
tp783
(dp784
Vhardware
p785
VOcteon
p786
sVhardware-long
p787
VCavium Networks Octeon
p788
ss(Vimage
p789
g749
NVocteon
p790
tp791
(dp792
Vimage-file
p793
Vvmlinux
p794
sVinstall-stem
p795
Vvmlinux
p796
sVconfigs
p797
(lp798
Vkernelarch-mips/config.octeon
p799
ass(g206
g749
g175
tp800
(dp801
g209
(lp802
V5kc-malta
p803
aVocteon
p804
asg213
I01
ss(Vbase
p805
Vmips64el
p806
tp807
(dp808
Vkernel-arch
p809
Vmips
p810
sg173
(lp811
g175
ass(Vbuild
p812
g806
tp813
(dp814
Vimage-file
p815
Vvmlinuz
p816
ss(Vimage
p817
g806
tp818
(dp819
Vinstall-stem
p820
Vvmlinuz
p821
ss(Vdescription
p822
g806
NV5kc-malta
p823
tp824
(dp825
Vhardware
p826
VMIPS Malta
p827
sVhardware-long
p828
VMIPS Malta boards
p829
ss(Vimage
p830
g806
NV5kc-malta
p831
tp832
(dp833
Vconfigs
p834
(lp835
Vkernelarch-mips/config.malta
p836
aVkernelarch-mips/config.mips64r2
p837
ass(Vdescription
p838
g806
NVloongson-3
p839
tp840
(dp841
Vhardware
p842
VLoongson 3A/3B
p843
sVhardware-long
p844
VLoongson 3A or 3B based systems (e.g. from Loongson or Lemote)
p845
ss(Vimage
p846
g806
NVloongson-3
p847
tp848
(dp849
Vconfigs
p850
(lp851
Vkernelarch-mips/config.loongson-3
p852
ass(Vdescription
p853
g806
NVocteon
p854
tp855
(dp856
Vhardware
p857
VOcteon
p858
sVhardware-long
p859
VCavium Networks Octeon
p860
ss(Vimage
p861
g806
NVocteon
p862
tp863
(dp864
Vimage-file
p865
Vvmlinux
p866
sVinstall-stem
p867
Vvmlinux
p868
sVconfigs
p869
(lp870
Vkernelarch-mips/config.octeon
p871
ass(g206
g806
g175
tp872
(dp873
g209
(lp874
V5kc-malta
p875
aVloongson-3
p876
aVocteon
p877
asg213
I01
ss(Vbase
p878
Vmips64r6
p879
tp880
(dp881
Vkernel-arch
p882
Vmips
p883
sg173
(lp884
g175
ass(Vbuild
p885
g879
tp886
(dp887
Vimage-file
p888
Vvmlinux
p889
ss(Vimage
p890
g879
tp891
(dp892
Vinstall-stem
p893
Vvmlinux
p894
ss(Vdescription
p895
g879
NVmips64r6
p896
tp897
(dp898
Vhardware
p899
VMIPS R6 (64 bit, big endian)
p900
sVhardware-long
p901
VMIPS R6 (64 bit, big endian)
p902
ss(Vimage
p903
g879
NVmips64r6
p904
tp905
(dp906
Vconfigs
p907
(lp908
Vkernelarch-mips/config.boston
p909
aVkernelarch-mips/config.mips64r6
p910
ass(g206
g879
g175
tp911
(dp912
g209
(lp913
Vmips64r6
p914
asg213
I01
ss(Vbase
p915
Vmips64r6el
p916
tp917
(dp918
Vkernel-arch
p919
Vmips
p920
sg173
(lp921
g175
ass(Vbuild
p922
g916
tp923
(dp924
Vimage-file
p925
Vvmlinux
p926
ss(Vimage
p927
g916
tp928
(dp929
Vinstall-stem
p930
Vvmlinux
p931
ss(Vdescription
p932
g916
NVmips64r6el
p933
tp934
(dp935
Vhardware
p936
VMIPS R6 (64 bit, little endian)
p937
sVhardware-long
p938
VMIPS R6 (64 bit, little endian)
p939
ss(Vimage
p940
g916
NVmips64r6el
p941
tp942
(dp943
Vconfigs
p944
(lp945
Vkernelarch-mips/config.boston
p946
aVkernelarch-mips/config.mips64r6
p947
ass(g206
g916
g175
tp948
(dp949
g209
(lp950
Vmips64r6el
p951
asg213
I01
ss(Vbase
p952
Vmipsel
p953
tp954
(dp955
Vkernel-arch
p956
Vmips
p957
sg173
(lp958
g175
ass(Vbuild
p959
g953
tp960
(dp961
Vimage-file
p962
Vvmlinuz
p963
ss(Vimage
p964
g953
tp965
(dp966
Vinstall-stem
p967
Vvmlinuz
p968
ss(Vdescription
p969
g953
NV4kc-malta
p970
tp971
(dp972
Vhardware
p973
VMIPS Malta
p974
sVhardware-long
p975
VMIPS Malta boards
p976
ss(Vimage
p977
g953
NV4kc-malta
p978
tp979
(dp980
Vconfigs
p981
(lp982
Vkernelarch-mips/config.malta
p983
aVkernelarch-mips/config.mips32r2
p984
ass(Vdescription
p985
g953
NV5kc-malta
p986
tp987
(dp988
Vhardware
p989
VMIPS Malta (64-bit)
p990
sVhardware-long
p991
VMIPS Malta boards (64-bit)
p992
ss(Vimage
p993
g953
NV5kc-malta
p994
tp995
(dp996
Vconfigs
p997
(lp998
Vkernelarch-mips/config.malta
p999
aVkernelarch-mips/config.mips64r2
p1000
ass(Vdescription
p1001
g953
NVloongson-3
p1002
tp1003
(dp1004
Vhardware
p1005
VLoongson 3A/3B
p1006
sVhardware-long
p1007
VLoongson 3A or 3B based systems (e.g. from Loongson or Lemote)
p1008
ss(Vimage
p1009
g953
NVloongson-3
p1010
tp1011
(dp1012
Vconfigs
p1013
(lp1014
Vkernelarch-mips/config.loongson-3
p1015
ass(Vdescription
p1016
g953
NVocteon
p1017
tp1018
(dp1019
Vhardware
p1020
VOcteon
p1021
sVhardware-long
p1022
VCavium Networks Octeon
p1023
ss(Vimage
p1024
g953
NVocteon
p1025
tp1026
(dp1027
Vimage-file
p1028
Vvmlinux
p1029
sVinstall-stem
p1030
Vvmlinux
p1031
sVconfigs
p1032
(lp1033
Vkernelarch-mips/config.octeon
p1034
ass(g206
g953
g175
tp1035
(dp1036
g209
(lp1037
V4kc-malta
p1038
aV5kc-malta
p1039
aVloongson-3
p1040
aVocteon
p1041
asg213
I01
ss(Vbase
p1042
Vmipsn32
p1043
tp1044
(dp1045
Vkernel-arch
p1046
Vmips
p1047
sVfeaturesets
p1048
(lp1049
ss(Vbase
p1050
Vmipsn32el
p1051
tp1052
(dp1053
Vkernel-arch
p1054
Vmips
p1055
sVfeaturesets
p1056
(lp1057
ss(Vbase
p1058
Vmipsn32r6
p1059
tp1060
(dp1061
Vkernel-arch
p1062
Vmips
p1063
sVfeaturesets
p1064
(lp1065
ss(Vbase
p1066
Vmipsn32r6el
p1067
tp1068
(dp1069
Vkernel-arch
p1070
Vmips
p1071
sVfeaturesets
p1072
(lp1073
ss(Vbase
p1074
Vmipsr6
p1075
tp1076
(dp1077
Vkernel-arch
p1078
Vmips
p1079
sg173
(lp1080
g175
ass(Vbuild
p1081
g1075
tp1082
(dp1083
Vimage-file
p1084
Vvmlinux
p1085
ss(Vimage
p1086
g1075
tp1087
(dp1088
Vinstall-stem
p1089
Vvmlinux
p1090
ss(Vdescription
p1091
g1075
NVmips32r6
p1092
tp1093
(dp1094
Vhardware
p1095
VMIPS R6 (32 bit, big endian)
p1096
sVhardware-long
p1097
VMIPS R6 (32 bit, big endian)
p1098
ss(Vimage
p1099
g1075
NVmips32r6
p1100
tp1101
(dp1102
Vconfigs
p1103
(lp1104
Vkernelarch-mips/config.boston
p1105
aVkernelarch-mips/config.mips32r6
p1106
ass(Vdescription
p1107
g1075
NVmips64r6
p1108
tp1109
(dp1110
Vhardware
p1111
VMIPS R6 (64 bit, big endian)
p1112
sVhardware-long
p1113
VMIPS R6 (64 bit, big endian)
p1114
ss(Vimage
p1115
g1075
NVmips64r6
p1116
tp1117
(dp1118
Vconfigs
p1119
(lp1120
Vkernelarch-mips/config.boston
p1121
aVkernelarch-mips/config.mips64r6
p1122
ass(g206
g1075
g175
tp1123
(dp1124
g209
(lp1125
Vmips32r6
p1126
aVmips64r6
p1127
asg213
I01
ss(Vbase
p1128
Vmipsr6el
p1129
tp1130
(dp1131
Vkernel-arch
p1132
Vmips
p1133
sg173
(lp1134
g175
ass(Vbuild
p1135
g1129
tp1136
(dp1137
Vimage-file
p1138
Vvmlinux
p1139
ss(Vimage
p1140
g1129
tp1141
(dp1142
Vinstall-stem
p1143
Vvmlinux
p1144
ss(Vdescription
p1145
g1129
NVmips32r6el
p1146
tp1147
(dp1148
Vhardware
p1149
VMIPS R6 (32 bit, little endian)
p1150
sVhardware-long
p1151
VMIPS R6 (32 bit, little endian)
p1152
ss(Vimage
p1153
g1129
NVmips32r6el
p1154
tp1155
(dp1156
Vconfigs
p1157
(lp1158
Vkernelarch-mips/config.boston
p1159
aVkernelarch-mips/config.mips32r6
p1160
ass(Vdescription
p1161
g1129
NVmips64r6el
p1162
tp1163
(dp1164
Vhardware
p1165
VMIPS R6 (64 bit, little endian)
p1166
sVhardware-long
p1167
VMIPS R6 (64 bit, little endian)
p1168
ss(Vimage
p1169
g1129
NVmips64r6el
p1170
tp1171
(dp1172
Vconfigs
p1173
(lp1174
Vkernelarch-mips/config.boston
p1175
aVkernelarch-mips/config.mips64r6
p1176
ass(g206
g1129
g175
tp1177
(dp1178
g209
(lp1179
Vmips32r6el
p1180
aVmips64r6el
p1181
asg213
I01
ss(Vbase
p1182
Vpowerpc
p1183
tp1184
(dp1185
Vkernel-arch
p1186
Vpowerpc
p1187
sg173
(lp1188
g175
ass(Vbuild
p1189
g1183
tp1190
(dp1191
Vimage-file
p1192
Vvmlinux
p1193
sVvdso
p1194
I01
ss(Vimage
p1195
g1183
tp1196
(dp1197
Vconfigs
p1198
(lp1199
sVbootloaders
p1200
(lp1201
Vgrub-ieee1275
p1202
asVsuggests
p1203
(lp1204
Vmkvmlinuz
p1205
asVinstall-stem
p1206
Vvmlinux
p1207
ss(Vdescription
p1208
g1183
NVpowerpc
p1209
tp1210
(dp1211
Vhardware
p1212
Vuniprocessor 32-bit PowerPC
p1213
ss(Vdescription
p1214
g1183
NVpowerpc-smp
p1215
tp1216
(dp1217
Vhardware
p1218
Vmultiprocessor 32-bit PowerPC
p1219
ss(Vimage
p1220
g1183
NVpowerpc-smp
p1221
tp1222
(dp1223
Vconfigs
p1224
(lp1225
Vpowerpc/config.powerpc
p1226
aVpowerpc/config.powerpc-smp
p1227
ass(Vdescription
p1228
g1183
NVpowerpc64
p1229
tp1230
(dp1231
Vhardware
p1232
V64-bit PowerPC
p1233
ss(Vimage
p1234
g1183
NVpowerpc64
p1235
tp1236
(dp1237
Vconfigs
p1238
(lp1239
Vkernelarch-powerpc/config-arch-64
p1240
aVkernelarch-powerpc/config-arch-64-be
p1241
ass(g206
g1183
g175
tp1242
(dp1243
g209
(lp1244
Vpowerpc
p1245
aVpowerpc-smp
p1246
aVpowerpc64
p1247
asg213
I01
ss(Vbase
p1248
Vppc64
p1249
tp1250
(dp1251
Vkernel-arch
p1252
Vpowerpc
p1253
sg173
(lp1254
g175
ass(Vbuild
p1255
g1249
tp1256
(dp1257
Vimage-file
p1258
Vvmlinux
p1259
sVvdso
p1260
I01
ss(Vimage
p1261
g1249
tp1262
(dp1263
Vconfigs
p1264
(lp1265
sVbootloaders
p1266
(lp1267
Vgrub-ieee1275
p1268
asVsuggests
p1269
(lp1270
Vmkvmlinuz
p1271
asVinstall-stem
p1272
Vvmlinux
p1273
ss(Vdescription
p1274
g1249
NVpowerpc64
p1275
tp1276
(dp1277
Vhardware
p1278
V64-bit PowerPC
p1279
ss(Vimage
p1280
g1249
NVpowerpc64
p1281
tp1282
(dp1283
Vconfigs
p1284
(lp1285
Vkernelarch-powerpc/config-arch-64
p1286
aVkernelarch-powerpc/config-arch-64-be
p1287
ass(g206
g1249
g175
tp1288
(dp1289
g209
(lp1290
Vpowerpc64
p1291
asg213
I01
ss(Vbase
p1292
Vppc64el
p1293
tp1294
(dp1295
Vkernel-arch
p1296
Vpowerpc
p1297
sg173
(lp1298
g175
ass(Vbuild
p1299
g1293
tp1300
(dp1301
Vimage-file
p1302
Vvmlinux
p1303
sVvdso
p1304
I01
ss(Vimage
p1305
g1293
tp1306
(dp1307
Vconfigs
p1308
(lp1309
sVbootloaders
p1310
(lp1311
Vgrub-ieee1275
p1312
asVsuggests
p1313
(lp1314
Vmkvmlinuz
p1315
asVinstall-stem
p1316
Vvmlinux
p1317
ss(Vdescription
p1318
g1293
NVpowerpc64le
p1319
tp1320
(dp1321
Vhardware
p1322
VLittle-endian 64-bit PowerPC
p1323
ss(Vimage
p1324
g1293
NVpowerpc64le
p1325
tp1326
(dp1327
Vconfigs
p1328
(lp1329
Vkernelarch-powerpc/config-arch-64
p1330
aVkernelarch-powerpc/config-arch-64-le
p1331
ass(g206
g1293
g175
tp1332
(dp1333
g209
(lp1334
Vpowerpc64le
p1335
asg213
I01
ss(Vbase
p1336
Vriscv64
p1337
tp1338
(dp1339
Vkernel-arch
p1340
Vriscv
p1341
sVfeaturesets
p1342
(lp1343
Vnone
p1344
ass(Vbuild
p1345
g1337
tp1346
(dp1347
Vimage-file
p1348
Varch/riscv/boot/Image
p1349
sVvdso
p1350
I01
ss(Vimage
p1351
g1337
tp1352
(dp1353
Vinstall-stem
p1354
Vvmlinux
p1355
ss(Vdescription
p1356
g1337
NVriscv64
p1357
tp1358
(dp1359
Vhardware
p1360
V64-bit RISC-V platforms
p1361
sVhardware-long
p1362
V64-bit RISC-V platforms
p1363
ss(Vbase
p1364
g1337
Vnone
p1365
tp1366
(dp1367
Vflavours
p1368
(lp1369
Vriscv64
p1370
ass(Vbase
p1371
Vs390
p1372
tp1373
(dp1374
Vkernel-arch
p1375
Vs390
p1376
sVfeaturesets
p1377
(lp1378
ss(Vbase
p1379
Vs390x
p1380
tp1381
(dp1382
Vkernel-arch
p1383
Vs390
p1384
sg173
(lp1385
g175
ass(Vbuild
p1386
g1380
tp1387
(dp1388
Vimage-file
p1389
Varch/s390/boot/bzImage
p1390
sVvdso
p1391
I01
ss(Vimage
p1392
g1380
tp1393
(dp1394
Vbootloaders
p1395
(lp1396
Vs390-tools
p1397
asVinstall-stem
p1398
Vvmlinuz
p1399
ss(Vrelations
p1400
g1380
tp1401
(dp1402
Vheaders%gcc-9
p1403
Vlinux-compiler-gcc-9-s390
p1404
ss(Vbuild
p1405
g1380
NVs390x
p1406
tp1407
(dp1408
Vdebug-info
p1409
I01
ss(Vdescription
p1410
g1380
NVs390x
p1411
tp1412
(dp1413
Vhardware
p1414
VIBM zSeries
p1415
ss(g206
g1380
g175
tp1416
(dp1417
g209
(lp1418
Vs390x
p1419
asg213
I01
ss(Vbase
p1420
Vsh3
p1421
tp1422
(dp1423
Vkernel-arch
p1424
Vsh
p1425
sVfeaturesets
p1426
(lp1427
ss(Vbase
p1428
Vsh4
p1429
tp1430
(dp1431
Vkernel-arch
p1432
Vsh
p1433
sg173
(lp1434
g175
ass(Vbuild
p1435
g1429
tp1436
(dp1437
Vimage-file
p1438
Varch/sh/boot/zImage
p1439
ss(Vimage
p1440
g1429
tp1441
(dp1442
Vinstall-stem
p1443
Vvmlinuz
p1444
ss(Vdescription
p1445
g1429
NVsh7751r
p1446
tp1447
(dp1448
Vhardware
p1449
Vsh7751r
p1450
sVhardware-long
p1451
VRenesas SH7751R R2D plus board
p1452
ss(Vdescription
p1453
g1429
NVsh7785lcr
p1454
tp1455
(dp1456
Vhardware
p1457
Vsh7785lcr
p1458
sVhardware-long
p1459
VRenesas SH7785 reference board
p1460
ss(Vimage
p1461
g1429
NVsh7785lcr
p1462
tp1463
(dp1464
Vrecommends
p1465
(lp1466
Vu-boot-tools
p1467
asVcheck-size
p1468
I4194304
ss(g206
g1429
g175
tp1469
(dp1470
g209
(lp1471
Vsh7751r
p1472
aVsh7785lcr
p1473
asg213
I01
ss(Vbase
p1474
Vsparc
p1475
tp1476
(dp1477
Vkernel-arch
p1478
Vsparc
p1479
sVfeaturesets
p1480
(lp1481
ss(Vbase
p1482
Vsparc64
p1483
tp1484
(dp1485
Vkernel-arch
p1486
Vsparc
p1487
sg173
(lp1488
g175
ass(Vbuild
p1489
g1483
tp1490
(dp1491
Vimage-file
p1492
Vvmlinux
p1493
ss(Vimage
p1494
g1483
tp1495
(dp1496
Vconfigs
p1497
(lp1498
sVbootloaders
p1499
(lp1500
Vgrub-ieee1275
p1501
asVsuggests
p1502
(lp1503
Vfdutils
p1504
asVinstall-stem
p1505
Vvmlinux
p1506
ss(Vdescription
p1507
g1483
NVsparc64
p1508
tp1509
(dp1510
Vhardware
p1511
Vuniprocessor 64-bit UltraSPARC
p1512
ss(Vimage
p1513
g1483
NVsparc64
p1514
tp1515
(dp1516
Vconfigs
p1517
(lp1518
Vkernelarch-sparc/config-up
p1519
ass(Vdescription
p1520
g1483
NVsparc64-smp
p1521
tp1522
(dp1523
Vhardware
p1524
Vmultiprocessor 64-bit UltraSPARC
p1525
ss(Vimage
p1526
g1483
NVsparc64-smp
p1527
tp1528
(dp1529
Vconfigs
p1530
(lp1531
Vkernelarch-sparc/config-smp
p1532
ass(g206
g1483
g175
tp1533
(dp1534
g209
(lp1535
Vsparc64
p1536
aVsparc64-smp
p1537
asg213
I01
ss(Vbase
p1538
Vx32
p1539
tp1540
(dp1541
Vkernel-arch
p1542
Vx86
p1543
sVfeaturesets
p1544
(lp1545
ss(Vabi
p1546
NVrt
p1547
tp1548
(dp1549
Vignore-changes
p1550
(lp1551
V*
p1552
ass(Vdescription
p1553
Ng1547
tp1554
(dp1555
Vpart-long-rt
p1556
VThis kernel includes the PREEMPT_RT realtime patch set.
p1557
sVpart-short-rt
p1558
VPREEMPT_RT
p1559
sVparts
p1560
(lp1561
Vrt
p1562
ass(Vversion
p1563
tp1564
(dp1565
Vsource
p1566
V5.4.6-1kali1
p1567
sVupstream
p1568
V5.4
p1569
sVabiname_base
p1570
V5.4.0
p1571
sVabiname
p1572
V5.4.0-kali1
p1573
ss.