ccopy_reg
_reconstructor
p0
(cdebian_linux.config
ConfigCore
p1
c__builtin__
dict
p2
(dp3
(Vdescription
p4
Vmips64
p5
NVocteon
p6
tp7
(dp8
Vhardware-long
p9
VCavium Networks Octeon
p10
sVhardware
p11
VOcteon
p12
ss(Vbuild
p13
tp14
(dp15
Vsigned-modules
p16
I01
ss(Vbase
p17
Vsparc64
p18
Vnone
p19
tp20
(dp21
Vflavours
p22
(lp23
Vsparc64
p24
aVsparc64-smp
p25
asVimplicit-flavour
p26
I01
ss(Vbase
p27
Vs390
p28
tp29
(dp30
Vkernel-arch
p31
Vs390
p32
sVfeaturesets
p33
(lp34
ss(Vdescription
p35
Vm68k
p36
NVm68k
p37
tp38
(dp39
Vhardware
p40
VMotorola MC68020+ family
p41
ss(Vbuild
p42
Vsh4
p43
tp44
(dp45
Vimage-file
p46
Varch/sh/boot/zImage
p47
sVsigned-modules
p48
I00
ss(Vbase
p49
Varmel
p50
tp51
(dp52
Vkernel-arch
p53
Varm
p54
sVfeaturesets
p55
(lp56
g19
ass(Vimage
p57
Vmipsel
p58
NVloongson-2f
p59
tp60
(dp61
Vconfigs
p62
(lp63
Vkernelarch-mips/config.loongson-2f
p64
asVrecommends
p65
Vlibc6-loongson2f
p66
ss(g17
g5
g19
tp67
(dp68
g22
(lp69
V5kc-malta
p70
aVocteon
p71
asg26
I01
ss(Vbase
p72
Varm64
p73
tp74
(dp75
Vkernel-arch
p76
Varm64
p77
sVfeaturesets
p78
(lp79
Vnone
p80
ass(Vdescription
p81
g18
NVsparc64-smp
p82
tp83
(dp84
Vhardware
p85
Vmultiprocessor 64-bit UltraSPARC
p86
ss(Vdescription
p87
Vs390x
p88
NVs390x
p89
tp90
(dp91
Vhardware
p92
VIBM zSeries
p93
ss(Vimage
p94
Varmhf
p95
NVarmmp-lpae
p96
tp97
(dp98
Vconfigs
p99
(lp100
Varmhf/config.armmp
p101
aVarmhf/config.lpae
p102
ass(Vbuild
p103
Vi386
p104
tp105
(dp106
Vimage-file
p107
Varch/x86/boot/bzImage
p108
sVvdso
p109
I01
ss(Vdescription
p110
g50
NVversatile
p111
tp112
(dp113
Vhardware-long
p114
VVersatile systems (PB, AB, Qemu)
p115
sVhardware
p116
VVersatile
p117
ss(Vdescription
p118
Valpha
p119
NValpha-smp
p120
tp121
(dp122
Vhardware-long
p123
VDEC Alpha SMP systems with extended kernel start address (Wildfire, Titan, Marvel)
p124
sVhardware
p125
VAlpha SMP
p126
ss(Vbase
p127
Vor1k
p128
tp129
(dp130
Vkernel-arch
p131
Vopenrisc
p132
sVfeaturesets
p133
(lp134
ss(Vdescription
p135
g50
NVmarvell
p136
tp137
(dp138
Vhardware-long
p139
VMarvell Kirkwood based systems (SheevaPlug, QNAP TS-119/TS-219, etc)\u000aand Orion 5181, 5182 and 5281 based systems (QNAP TS-109/TS-209, etc)
p140
sVhardware
p141
VMarvell Kirkwood/Orion
p142
ss(Vbuild
p143
g119
tp144
(dp145
Vimage-file
p146
Varch/alpha/boot/vmlinux.gz
p147
sVsigned-modules
p148
I00
ss(Vdescription
p149
g5
NV5kc-malta
p150
tp151
(dp152
Vhardware-long
p153
VMIPS Malta boards
p154
sVhardware
p155
VMIPS Malta
p156
ss(g17
Vpowerpcspe
p157
g19
tp158
(dp159
g22
(lp160
Vpowerpcspe
p161
asg26
I01
ss(Vbuild
p162
g157
tp163
(dp164
Vimage-file
p165
Vvmlinux
p166
sVvdso
p167
I01
sVsigned-modules
p168
I00
ss(Vimage
p169
g58
NVloongson-3
p170
tp171
(dp172
Vconfigs
p173
(lp174
Vkernelarch-mips/config.loongson-3
p175
ass(Vbase
p176
g104
tp177
(dp178
Vkernel-arch
p179
Vx86
p180
sVfeaturesets
p181
(lp182
Vnone
p183
aVrt
p184
ass(Vdescription
p185
g43
NVsh7785lcr
p186
tp187
(dp188
Vhardware-long
p189
VRenesas SH7785 reference board
p190
sVhardware
p191
Vsh7785lcr
p192
ss(Vbase
p193
Vmips64el
p194
tp195
(dp196
Vkernel-arch
p197
Vmips
p198
sg55
(lp199
g19
ass(Vimage
p200
g73
tp201
(dp202
Vinstall-stem
p203
Vvmlinuz
p204
ss(Vimage
p205
g104
tp206
(dp207
Vbootloaders
p208
(lp209
Vgrub-pc
p210
aVextlinux
p211
asVconfigs
p212
(lp213
sVbreaks
p214
Vxserver-xorg-input-vmmouse (<< 1:13.0.99)
p215
sVinstall-stem
p216
Vvmlinuz
p217
ss(Vdescription
p218
g194
NVocteon
p219
tp220
(dp221
Vhardware-long
p222
VCavium Networks Octeon
p223
sVhardware
p224
VOcteon
p225
ss(Vimage
p226
Vhppa
p227
tp228
(dp229
Vinstall-stem
p230
Vvmlinux
p231
sVsuggests
p232
Vpalo
p233
ss(Vrelations
p234
g104
tp235
(dp236
Vheaders%gcc-5
p237
Vlinux-compiler-gcc-5-x86
p238
ss(Vdescription
p239
Vppc64
p240
NVpowerpc64
p241
tp242
(dp243
Vhardware
p244
V64-bit PowerPC
p245
ss(Vimage
p246
Vpowerpc
p247
tp248
(dp249
Vconfigs
p250
(lp251
sVinstall-stem
p252
Vvmlinux
p253
sVsuggests
p254
Vmkvmlinuz
p255
ss(Vdescription
p256
g95
NVarmmp-lpae
p257
tp258
(dp259
Vhardware-long
p260
VARMv7 multiplatform kernel supporting LPAE. See\u000ahttps://wiki.debian.org/DebianKernel/ARMMP for details of supported\u000aplatforms.
p261
sVhardware
p262
VARMv7 multiplatform compatible SoCs supporting LPAE
p263
ss(Vimage
p264
g104
NV686-pae
p265
tp266
(dp267
Vconfigs
p268
(lp269
Vkernelarch-x86/config-arch-32
p270
aVi386/config.686-pae
p271
asVrecommends
p272
Vlibc6-i686
p273
ss(Vbuild
p274
Vmips
p275
tp276
(dp277
Vimage-file
p278
Vvmlinux
p279
sVsigned-modules
p280
I00
ss(Vimage
p281
g247
NVpowerpc-smp
p282
tp283
(dp284
Vconfigs
p285
(lp286
Vpowerpc/config.powerpc
p287
aVpowerpc/config.powerpc-smp
p288
ass(Vbuild
p289
g50
NVmarvell
p290
tp291
(dp292
Vsigned-modules
p293
I00
ss(Vdescription
p294
g247
NVpowerpc-smp
p295
tp296
(dp297
Vhardware
p298
Vmultiprocessor 32-bit PowerPC
p299
ss(Vbase
p300
g73
Vnone
p301
tp302
(dp303
Vflavours
p304
(lp305
Varm64
p306
ass(Vimage
p307
tp308
(dp309
Vinitramfs-generators
p310
(lp311
Vinitramfs-tools
p312
aVinitramfs-fallback
p313
ass(Vdescription
p314
g58
NVloongson-3
p315
tp316
(dp317
Vhardware-long
p318
VLoongson 3A or 3B based systems (e.g. from Loongson or Lemote)
p319
sVhardware
p320
VLoongson 3A/3B
p321
ss(Vbase
p322
g58
tp323
(dp324
Vkernel-arch
p325
Vmips
p326
sg55
(lp327
g19
ass(Vdescription
p328
g275
NVocteon
p329
tp330
(dp331
Vhardware-long
p332
VCavium Networks Octeon
p333
sVhardware
p334
VOcteon
p335
ss(Vbuild
p336
Vppc64el
p337
tp338
(dp339
Vimage-file
p340
Vvmlinux
p341
sVvdso
p342
I01
ss(Vversion
p343
tp344
(dp345
Vabiname
p346
V4.5.0-2
p347
sVupstream
p348
V4.5
p349
sVsource
p350
V4.5.3-2
p351
sVabiname_base
p352
V4.5.0
p353
ss(Vdescription
p354
g194
NV5kc-malta
p355
tp356
(dp357
Vhardware-long
p358
VMIPS Malta boards
p359
sVhardware
p360
VMIPS Malta
p361
ss(Vdescription
p362
g275
NV4kc-malta
p363
tp364
(dp365
Vhardware-long
p366
VMIPS Malta boards
p367
sVhardware
p368
VMIPS Malta
p369
ss(Vimage
p370
g275
NV5kc-malta
p371
tp372
(dp373
Vconfigs
p374
(lp375
Vkernelarch-mips/config.5kc-malta
p376
ass(Vbase
p377
Vamd64
p378
tp379
(dp380
Vkernel-arch
p381
Vx86
p382
sVfeaturesets
p383
(lp384
Vnone
p385
aVrt
p386
ass(g17
g43
g19
tp387
(dp388
g22
(lp389
Vsh7751r
p390
aVsh7785lcr
p391
asg26
I01
ss(Vdescription
p392
g73
NVarm64
p393
tp394
(dp395
Vhardware
p396
V64-bit ARMv8 machines
p397
ss(Vdescription
p398
g43
NVsh7751r
p399
tp400
(dp401
Vhardware-long
p402
VRenesas SH7751R R2D plus board
p403
sVhardware
p404
Vsh7751r
p405
ss(Vbase
p406
g95
tp407
(dp408
Vkernel-arch
p409
Varm
p410
sg55
(lp411
g19
ass(Vabi
p412
tp413
(dp414
Vabiname
p415
V2
p416
sVignore-changes
p417
(lp418
Vmodule:sound/hda/*
p419
aVzpci_disable_device
p420
aVzpci_enable_device
p421
aVzpci_stop_device
p422
ass(g17
g119
g19
tp423
(dp424
g22
(lp425
Valpha-generic
p426
aValpha-smp
p427
asg26
I01
ss(Vdescription
p428
g194
NVloongson-3
p429
tp430
(dp431
Vhardware-long
p432
VLoongson 3A or 3B based systems (e.g. from Loongson or Lemote)
p433
sVhardware
p434
VLoongson 3A/3B
p435
ss(Vbuild
p436
g50
tp437
(dp438
Vimage-file
p439
Varch/arm/boot/zImage
p440
ss(Vdescription
p441
g58
NV5kc-malta
p442
tp443
(dp444
Vhardware-long
p445
VMIPS Malta boards (64-bit)
p446
sVhardware
p447
VMIPS Malta (64-bit)
p448
ss(Vbase
p449
g43
tp450
(dp451
Vkernel-arch
p452
Vsh
p453
sg55
(lp454
g19
ass(Vdescription
p455
g247
NVpowerpc
p456
tp457
(dp458
Vhardware
p459
Vuniprocessor 32-bit PowerPC
p460
ss(Vbase
p461
g18
tp462
(dp463
Vkernel-arch
p464
Vsparc
p465
sg55
(lp466
g19
ass(g17
g227
g19
tp467
(dp468
g22
(lp469
Vparisc
p470
aVparisc64-smp
p471
asg26
I01
ss(Vdescription
p472
tp473
(dp474
Vpart-long-up
p475
VThis kernel is not suitable for SMP (multi-processor,\u000amulti-core or hyper-threaded) systems.
p476
sVpart-long-xen
p477
VThis kernel also runs on a Xen hypervisor.\u000aIt supports both privileged (dom0) and unprivileged (domU) operation.
p478
ss(Vimage
p479
g240
NVpowerpc64
p480
tp481
(dp482
Vconfigs
p483
(lp484
Vkernelarch-powerpc/config-arch-64
p485
aVkernelarch-powerpc/config-arch-64-be
p486
ass(Vimage
p487
g275
NVocteon
p488
tp489
(dp490
Vconfigs
p491
(lp492
Vkernelarch-mips/config.octeon
p493
ass(Vimage
p494
g58
tp495
(dp496
Vinstall-stem
p497
Vvmlinux
p498
ss(Vbase
p499
g36
tp500
(dp501
Vkernel-arch
p502
Vm68k
p503
sVcflags
p504
V-ffreestanding
p505
sg55
(lp506
g19
ass(g17
g36
g19
tp507
(dp508
g22
(lp509
Vm68k
p510
asg26
I01
ss(Vdescription
p511
g104
tp512
(dp513
Vpart-long-pae
p514
VThis kernel requires PAE (Physical Address Extension).\u000aThis feature is supported by the Intel Pentium Pro/II/III/4/4M/D, Xeon,\u000aCore and Atom; AMD Geode NX, Athlon (K7), Duron, Opteron, Sempron,\u000aTurion or Phenom; Transmeta Efficeon; VIA C7; and some other processors.
p515
ss(Vdescription
p516
g119
NValpha-generic
p517
tp518
(dp519
Vhardware-long
p520
VDEC Alpha systems with extended kernel start address (Wildfire, Titan, Marvel)
p521
sVhardware
p522
VAlpha
p523
ss(Vimage
p524
g337
NVpowerpc64le
p525
tp526
(dp527
Vconfigs
p528
(lp529
Vkernelarch-powerpc/config-arch-64
p530
aVkernelarch-powerpc/config-arch-64-le
p531
ass(Vimage
p532
g240
tp533
(dp534
Vconfigs
p535
(lp536
sVinstall-stem
p537
Vvmlinux
p538
sVsuggests
p539
Vmkvmlinuz
p540
ss(Vdescription
p541
g18
NVsparc64
p542
tp543
(dp544
Vhardware
p545
Vuniprocessor 64-bit UltraSPARC
p546
ss(Vimage
p547
g337
tp548
(dp549
Vconfigs
p550
(lp551
sVinstall-stem
p552
Vvmlinux
p553
sVsuggests
p554
Vmkvmlinuz
p555
ss(Vbase
p556
g275
tp557
(dp558
Vkernel-arch
p559
Vmips
p560
sg55
(lp561
g19
ass(Vbuild
p562
g240
tp563
(dp564
Vimage-file
p565
Vvmlinux
p566
sVvdso
p567
I01
sVsigned-modules
p568
I00
ss(Vrelations
p569
g88
tp570
(dp571
Vheaders%gcc-5
p572
Vlinux-compiler-gcc-5-s390
p573
ss(Vimage
p574
g18
tp575
(dp576
Vconfigs
p577
(lp578
sVinstall-stem
p579
Vvmlinuz
p580
sVsuggests
p581
Vsilo, fdutils
p582
ss(Vbase
p583
g240
tp584
(dp585
Vkernel-arch
p586
Vpowerpc
p587
sg55
(lp588
g19
ass(Vdescription
p589
NVrt
p590
tp591
(dp592
Vpart-short-rt
p593
VPREEMPT_RT
p594
sVpart-long-rt
p595
VThis kernel includes the PREEMPT_RT realtime patch set.
p596
sVparts
p597
(lp598
Vrt
p599
ass(Vimage
p600
g58
NVloongson-2e
p601
tp602
(dp603
Vconfigs
p604
(lp605
Vkernelarch-mips/config.loongson-2e
p606
ass(Vimage
p607
g50
NVmarvell
p608
tp609
(dp610
Vcheck-size
p611
L2097080L
sVbreaks
p612
Vflash-kernel (<< 3.57~)
p613
sVrecommends
p614
Vu-boot-tools
p615
sVcheck-size-with-dtb
p616
I01
ss(Vimage
p617
g5
NV5kc-malta
p618
tp619
(dp620
Vconfigs
p621
(lp622
Vkernelarch-mips/config.5kc-malta
p623
ass(g17
g247
g19
tp624
(dp625
g22
(lp626
Vpowerpc
p627
aVpowerpc-smp
p628
aVpowerpc64
p629
asg26
I01
ss(Vbase
p630
g104
Vnone
p631
tp632
(dp633
Vflavours
p634
(lp635
V686
p636
aV686-pae
p637
ass(Vdescription
p638
g104
NV686
p639
tp640
(dp641
Vhardware-long
p642
VPCs with one or more processors not supporting PAE
p643
sVhardware
p644
Volder PCs
p645
ss(Vbase
p646
g119
tp647
(dp648
Vkernel-arch
p649
Valpha
p650
sg55
(lp651
g19
ass(Vrelations
p652
g378
tp653
(dp654
Vheaders%gcc-5
p655
Vlinux-compiler-gcc-5-x86
p656
ss(g17
g194
g19
tp657
(dp658
g22
(lp659
V5kc-malta
p660
aVloongson-3
p661
aVocteon
p662
asg26
I01
ss(Vimage
p663
g378
NVamd64
p664
tp665
(dp666
Vconfigs
p667
(lp668
Vkernelarch-x86/config-arch-64
p669
ass(Vbuild
p670
g18
tp671
(dp672
Vimage-file
p673
Varch/sparc/boot/zImage
p674
sVsigned-modules
p675
I00
ss(Vimage
p676
g194
tp677
(dp678
Vinstall-stem
p679
Vvmlinux
p680
ss(Vbase
p681
g227
NVparisc64-smp
p682
tp683
(dp684
Vcflags
p685
V-fno-cse-follow-jumps
p686
sVoverride-host-type
p687
Vhppa64-linux-gnu
p688
ss(Vdescription
p689
g247
NVpowerpc64
p690
tp691
(dp692
Vhardware
p693
V64-bit PowerPC
p694
ss(Vimage
p695
g5
tp696
(dp697
Vinstall-stem
p698
Vvmlinux
p699
ss(Vimage
p700
g275
tp701
(dp702
Vinstall-stem
p703
Vvmlinux
p704
ss(Vbuild
p705
g88
tp706
(dp707
Vimage-file
p708
Varch/s390/boot/image
p709
sVvdso
p710
I01
ss(g17
g50
g19
tp711
(dp712
g22
(lp713
Vmarvell
p714
aVversatile
p715
asg26
I01
ss(g17
g275
g19
tp716
(dp717
g22
(lp718
V4kc-malta
p719
aV5kc-malta
p720
aVocteon
p721
asg26
I01
ss(Vbase
p722
Vsparc
p723
tp724
(dp725
Vkernel-arch
p726
Vsparc
p727
sVfeaturesets
p728
(lp729
ss(Vbuild
p730
g378
tp731
(dp732
Vdebug-info
p733
I01
sVimage-file
p734
Varch/x86/boot/bzImage
p735
sVvdso
p736
I01
ss(Vrelations
p737
tp738
(dp739
Vinitramfs-tools
p740
Vinitramfs-tools (>= 0.110~)
p741
sVgcc-5
p742
Vgcc-5 <!stage1>
p743
sVinitramfs-fallback
p744
Vlinux-initramfs-tool
p745
ss(Vabi
p746
Ng590
tp747
(dp748
Vignore-changes
p749
(lp750
V*
p751
ass(Vdescription
p752
g58
NVloongson-2e
p753
tp754
(dp755
Vhardware-long
p756
VLemote Loongson 2E systems
p757
sVhardware
p758
VLoongson 2E
p759
ss(Vimage
p760
g58
NV4kc-malta
p761
tp762
(dp763
Vconfigs
p764
(lp765
Vkernelarch-mips/config.4kc-malta
p766
ass(Vbuild
p767
g95
tp768
(dp769
Vimage-file
p770
Varch/arm/boot/zImage
p771
sVvdso
p772
I01
ss(Vdescription
p773
g227
NVparisc64-smp
p774
tp775
(dp776
Vhardware-long
p777
VHP PA-RISC 64-bit SMP systems with support for more than 4 GB RAM
p778
sVhardware
p779
Vmultiprocessor 64-bit PA-RISC
p780
ss(Vrelations
p781
g227
tp782
(dp783
Vgcc-5
p784
Vgcc-5 <!stage1>, binutils-hppa64-linux-gnu <!stage1>, gcc-5-hppa64-linux-gnu <!stage1>
p785
ss(Vimage
p786
g247
NVpowerpc64
p787
tp788
(dp789
Vconfigs
p790
(lp791
Vkernelarch-powerpc/config-arch-64
p792
aVkernelarch-powerpc/config-arch-64-be
p793
ass(Vimage
p794
g50
tp795
(dp796
Vconfigs
p797
(lp798
Vkernelarch-arm/config
p799
aVarmel/config
p800
asVinstall-stem
p801
Vvmlinuz
p802
sVsuggests
p803
Vfdutils
p804
ss(Vrelations
p805
g50
tp806
(dp807
Vheaders%gcc-5
p808
Vlinux-compiler-gcc-5-arm
p809
ss(Vdescription
p810
g378
Vnone
p811
Vamd64
p812
tp813
(dp814
Vparts
p815
(lp816
Vxen
p817
ass(Vdescription
p818
g378
NVamd64
p819
tp820
(dp821
Vhardware-long
p822
VPCs with AMD64, Intel 64 or VIA Nano processors
p823
sVhardware
p824
V64-bit PCs
p825
ss(Vdescription
p826
g275
NV5kc-malta
p827
tp828
(dp829
Vhardware-long
p830
VMIPS Malta boards (64-bit)
p831
sVhardware
p832
VMIPS Malta (64-bit)
p833
ss(Vbase
p834
g337
tp835
(dp836
Vkernel-arch
p837
Vpowerpc
p838
sg55
(lp839
g19
ass(Vbase
p840
g227
tp841
(dp842
Vkernel-arch
p843
Vparisc
p844
sg55
(lp845
g19
ass(Vbase
p846
tp847
(dp848
Vcompiler
p849
Vgcc-5
p850
sVarches
p851
(lp852
Valpha
p853
aVamd64
p854
aVarm64
p855
aVarmel
p856
aVarmhf
p857
aVhppa
p858
aVi386
p859
aVm68k
p860
aVmips
p861
aVmipsel
p862
aVmips64
p863
aVmips64el
p864
aVor1k
p865
aVpowerpc
p866
aVpowerpcspe
p867
aVppc64
p868
aVppc64el
p869
aVs390
p870
aVs390x
p871
aVsh4
p872
aVsparc
p873
aVsparc64
p874
aVx32
p875
asVfeaturesets
p876
(lp877
Vnone
p878
aVrt
p879
ass(Vdescription
p880
g157
tp881
(dp882
Vhardware
p883
V32-bit PowerPC with SPE (instead of AltiVec) with SMP support
p884
ss(Vimage
p885
g73
NVarm64
p886
tp887
(dp888
s(Vimage
p889
g18
NVsparc64-smp
p890
tp891
(dp892
Vconfigs
p893
(lp894
Vkernelarch-sparc/config-smp
p895
ass(g17
g95
g19
tp896
(dp897
g22
(lp898
Varmmp
p899
aVarmmp-lpae
p900
asg26
I01
ss(Vrelations
p901
g95
tp902
(dp903
Vheaders%gcc-5
p904
Vlinux-compiler-gcc-5-arm
p905
ss(Vimage
p906
g95
tp907
(dp908
Vconfigs
p909
(lp910
Vkernelarch-arm/config
p911
asVinstall-stem
p912
Vvmlinuz
p913
sVsuggests
p914
Vfdutils
p915
ss(Vbuild
p916
g36
tp917
(dp918
Vimage-file
p919
Vvmlinux.gz
p920
sVsigned-modules
p921
I00
ss(Vbuild
p922
g227
tp923
(dp924
Vimage-file
p925
Vvmlinux
p926
sVsigned-modules
p927
I00
ss(Vimage
p928
g58
NV5kc-malta
p929
tp930
(dp931
Vconfigs
p932
(lp933
Vkernelarch-mips/config.5kc-malta
p934
ass(Vdescription
p935
g58
NV4kc-malta
p936
tp937
(dp938
Vhardware-long
p939
VMIPS Malta boards
p940
sVhardware
p941
VMIPS Malta
p942
ss(Vdescription
p943
g104
NV686-pae
p944
tp945
(dp946
Vhardware-long
p947
VPCs with one or more processors supporting PAE
p948
sVhardware
p949
Vmodern PCs
p950
sVparts
p951
(lp952
Vpae
p953
ass(Vbuild
p954
g194
tp955
(dp956
Vimage-file
p957
Vvmlinux
p958
sVsigned-modules
p959
I00
ss(Vimage
p960
g43
NVsh7785lcr
p961
tp962
(dp963
Vcheck-size
p964
L4194304L
sVrecommends
p965
Vu-boot-tools
p966
ss(Vimage
p967
g119
tp968
(dp969
Vinstall-stem
p970
Vvmlinuz
p971
sVsuggests
p972
Vaboot, fdutils
p973
ss(Vbase
p974
g378
Vrt
p975
tp976
(dp977
Vflavours
p978
(lp979
Vamd64
p980
ass(Vdescription
p981
g95
NVarmmp
p982
tp983
(dp984
Vhardware-long
p985
VARMv7 multiplatform kernel. See\u000ahttps://wiki.debian.org/DebianKernel/ARMMP for details of supported\u000aplatforms
p986
sVhardware
p987
VARMv7 multiplatform compatible SoCs
p988
ss(Vimage
p989
g194
NVocteon
p990
tp991
(dp992
Vconfigs
p993
(lp994
Vkernelarch-mips/config.octeon
p995
ass(Vbase
p996
Vx32
p997
tp998
(dp999
Vkernel-arch
p1000
Vx86
p1001
sVfeaturesets
p1002
(lp1003
ss(g17
g337
g19
tp1004
(dp1005
g22
(lp1006
Vpowerpc64le
p1007
asg26
I01
ss(Vbase
p1008
g5
tp1009
(dp1010
Vkernel-arch
p1011
Vmips
p1012
sg55
(lp1013
g19
ass(Vbase
p1014
g157
tp1015
(dp1016
Vkernel-arch
p1017
Vpowerpc
p1018
sg55
(lp1019
g19
ass(Vimage
p1020
g18
NVsparc64
p1021
tp1022
(dp1023
Vconfigs
p1024
(lp1025
Vkernelarch-sparc/config-up
p1026
ass(g17
g88
g19
tp1027
(dp1028
g22
(lp1029
Vs390x
p1030
asg26
I01
ss(Vdescription
p1031
g337
NVpowerpc64le
p1032
tp1033
(dp1034
Vhardware
p1035
VLittle-endian 64-bit PowerPC
p1036
ss(Vbuild
p1037
g5
tp1038
(dp1039
Vimage-file
p1040
Vvmlinux
p1041
sVsigned-modules
p1042
I00
ss(Vimage
p1043
g157
tp1044
(dp1045
Vinstall-stem
p1046
Vvmlinux
p1047
sVsuggests
p1048
Vmkvmlinuz
p1049
ss(Vbuild
p1050
g73
tp1051
(dp1052
Vdebug-info
p1053
I01
sVimage-file
p1054
Varch/arm64/boot/Image
p1055
sVvdso
p1056
I01
ss(Vbase
p1057
g104
Vrt
p1058
tp1059
(dp1060
Vflavours
p1061
(lp1062
V686-pae
p1063
ass(Vbase
p1064
g247
tp1065
(dp1066
Vkernel-arch
p1067
Vpowerpc
p1068
sg55
(lp1069
g19
ass(Vdescription
p1070
g227
NVparisc
p1071
tp1072
(dp1073
Vhardware-long
p1074
VHP PA-RISC 32-bit systems with max 4 GB RAM
p1075
sVhardware
p1076
V32-bit PA-RISC
p1077
ss(Vdescription
p1078
g104
g631
V686-pae
p1079
tp1080
(dp1081
Vparts
p1082
(lp1083
Vxen
p1084
ass(Vbuild
p1085
g247
tp1086
(dp1087
Vimage-file
p1088
Vvmlinux
p1089
sVvdso
p1090
I01
ss(Vimage
p1091
g43
tp1092
(dp1093
Vinstall-stem
p1094
Vvmlinuz
p1095
sVsuggests
p1096
Vfdutils
p1097
ss(Vimage
p1098
g104
NV686
p1099
tp1100
(dp1101
Vconfigs
p1102
(lp1103
Vkernelarch-x86/config-arch-32
p1104
aVi386/config.686
p1105
asVrecommends
p1106
Vlibc6-i686
p1107
ss(Vimage
p1108
g5
NVocteon
p1109
tp1110
(dp1111
Vconfigs
p1112
(lp1113
Vkernelarch-mips/config.octeon
p1114
ass(Vimage
p1115
g88
tp1116
(dp1117
Vbootloaders
p1118
(lp1119
Vs390-tools
p1120
asVconfigs
p1121
(lp1122
sVinstall-stem
p1123
Vvmlinuz
p1124
ss(Vimage
p1125
g36
tp1126
(dp1127
Vinstall-stem
p1128
Vvmlinuz
p1129
sVsuggests
p1130
Vvmelilo, fdutils
p1131
ss(Vimage
p1132
g194
NV5kc-malta
p1133
tp1134
(dp1135
Vconfigs
p1136
(lp1137
Vkernelarch-mips/config.5kc-malta
p1138
ass(Vimage
p1139
g275
NV4kc-malta
p1140
tp1141
(dp1142
Vconfigs
p1143
(lp1144
Vkernelarch-mips/config.4kc-malta
p1145
ass(Vdescription
p1146
g58
NVloongson-2f
p1147
tp1148
(dp1149
Vhardware-long
p1150
VLemote Loongson 2F systems
p1151
sVhardware
p1152
VLoongson 2F
p1153
ss(g17
g58
g19
tp1154
(dp1155
g22
(lp1156
V4kc-malta
p1157
aV5kc-malta
p1158
aVloongson-2e
p1159
aVloongson-2f
p1160
aVloongson-3
p1161
asg26
I01
ss(Vimage
p1162
g378
tp1163
(dp1164
Vbootloaders
p1165
(lp1166
Vgrub-pc
p1167
aVgrub-efi
p1168
aVextlinux
p1169
asVconfigs
p1170
(lp1171
sVbreaks
p1172
Vxserver-xorg-input-vmmouse (<< 1:13.0.99)
p1173
sVinstall-stem
p1174
Vvmlinuz
p1175
ss(Vbuild
p1176
g104
NV686-pae
p1177
tp1178
(dp1179
Vdebug-info
p1180
I01
ss(Vbase
p1181
g88
tp1182
(dp1183
Vkernel-arch
p1184
Vs390
p1185
sg55
(lp1186
g19
ass(Vimage
p1187
g88
NVs390x
p1188
tp1189
(dp1190
Vconfigs
p1191
(lp1192
Vkernelarch-s390/config-arch-64
p1193
ass(Vbuild
p1194
g58
tp1195
(dp1196
Vimage-file
p1197
Vvmlinux
p1198
sVsigned-modules
p1199
I00
ss(Vbase
p1200
g378
g811
tp1201
(dp1202
Vflavours
p1203
(lp1204
Vamd64
p1205
ass(Vbuild
p1206
g88
NVs390x
p1207
tp1208
(dp1209
Vdebug-info
p1210
I01
ss(Vimage
p1211
g194
NVloongson-3
p1212
tp1213
(dp1214
Vconfigs
p1215
(lp1216
Vkernelarch-mips/config.loongson-3
p1217
ass(Vbase
p1218
NVrt
p1219
tp1220
(dp1221
Venabled
p1222
I00
ss(g17
g240
g19
tp1223
(dp1224
g22
(lp1225
Vpowerpc64
p1226
asg26
I01
ss(Vxen
p1227
g378
g811
Vamd64
p1228
tp1229
(dp1230
Vflavours
p1231
(lp1232
Vamd64
p1233
asstp1234
Rp1235
.