ccopy_reg
_reconstructor
p0
(cdebian_linux.config
ConfigCore
p1
c__builtin__
dict
p2
(dp3
(S'image'
p4
S'amd64'
p5
tp6
(dp7
S'configs'
p8
(lp9
sS'bootloaders'
p10
(lp11
S'grub-pc'
p12
aS'extlinux'
p13
aS'lilo'
p14
ass(S'base'
p15
g5
S'none'
p16
tp17
(dp18
S'flavours'
p19
(lp20
S'amd64'
p21
ass(S'description'
p22
S'hppa'
p23
NS'parisc'
p24
tp25
(dp26
S'hardware'
p27
S'32-bit PA-RISC'
p28
ss(S'base'
p29
g5
S'rt'
p30
tp31
(dp32
S'flavours'
p33
(lp34
S'amd64'
p35
ass(S'abi'
p36
NS'rt'
p37
tp38
(dp39
S'ignore-changes'
p40
(lp41
S'*'
p42
ass(S'image'
p43
S'ia64'
p44
tp45
(dp46
S'suggests'
p47
S'fdutils'
p48
sS'bootloaders'
p49
(lp50
S'elilo'
p51
ass(S'description'
p52
S'armel'
p53
NS'versatile'
p54
tp55
(dp56
S'hardware'
p57
S'Versatile'
p58
sS'hardware-long'
p59
S'Versatile systems (PB, AB, Qemu)'
p60
ss(S'description'
p61
S's390'
p62
NS's390x'
p63
tp64
(dp65
S'hardware'
p66
S'IBM zSeries'
p67
ss(S'image'
p68
S'powerpc'
p69
NS'powerpc-smp'
p70
tp71
(dp72
S'configs'
p73
(lp74
S'powerpc/config.powerpc'
p75
aS'powerpc/config.powerpc-smp'
p76
ass(S'version'
p77
tp78
(dp79
S'abiname'
p80
S'3.12-kali1'
p81
sS'source'
p82
V3.12.3-1~kali2
p83
sS'upstream'
p84
S'3.12'
p85
ss(S'build'
p86
S'i386'
p87
NS'686-pae'
p88
tp89
(dp90
S'debug-info'
p91
I01
ss(S'description'
p92
g5
g16
S'amd64'
p93
tp94
(dp95
S'parts'
p96
(lp97
S'xen'
p98
ass(S'description'
p99
S'armhf'
p100
NS'armmp'
p101
tp102
(dp103
S'hardware'
p104
S'ARMv7 multiplatform compatible SoCs'
p105
sS'hardware-long'
p106
S'ARMv7 multiplatform kernel for Marvell Armada 370/xp, Freescale iMX5x/iMX6'
p107
ss(S'build'
p108
S's390x'
p109
NS's390x'
p110
tp111
(dp112
S'debug-info'
p113
I01
ss(S'base'
p114
S'ppc64'
p115
S'none'
p116
tp117
(dp118
S'implicit-flavour'
p119
I01
sS'flavours'
p120
(lp121
S'powerpc64'
p122
ass(S'base'
p123
S'alpha'
p124
tp125
(dp126
S'kernel-arch'
p127
S'alpha'
p128
sS'featuresets'
p129
(lp130
g116
ass(g114
g100
g116
tp131
(dp132
g119
I01
sg120
(lp133
S'armmp'
p134
aS'armmp-lpae'
p135
ass(S'image'
p136
S'mipsel'
p137
NS'5kc-malta'
p138
tp139
(dp140
S'configs'
p141
(lp142
S'mips/config.5kc-malta'
p143
ass(S'description'
p144
g53
NS'ixp4xx'
p145
tp146
(dp147
S'hardware'
p148
S'IXP4xx'
p149
sS'hardware-long'
p150
S'IXP4xx based systems (Linksys NSLU2, etc)'
p151
ss(S'description'
p152
S'sh4'
p153
NS'sh7785lcr'
p154
tp155
(dp156
S'hardware'
p157
S'sh7785lcr'
p158
sS'hardware-long'
p159
S'Renesas SH7785 reference board'
p160
ss(S'image'
p161
g53
NS'orion5x'
p162
tp163
(dp164
S'check-size'
p165
S'1572792'
p166
sS'configs'
p167
(lp168
S'armel/config-reduced'
p169
aS'armel/config.orion5x'
p170
asS'recommends'
p171
S'uboot-mkimage'
p172
ss(S'base'
p173
g87
S'rt'
p174
tp175
(dp176
S'flavours'
p177
(lp178
S'686-pae'
p179
ass(S'base'
p180
g23
NS'parisc64'
p181
tp182
(dp183
S'override-host-type'
p184
S'hppa64-linux-gnu'
p185
sS'cflags'
p186
S'-fno-cse-follow-jumps'
p187
ss(S'description'
p188
g137
NS'r5k-cobalt'
p189
tp190
(dp191
S'hardware'
p192
S'Cobalt'
p193
sS'hardware-long'
p194
S'Cobalt systems (Qube, RaQ, Qube2, RaQ2)'
p195
ss(S'description'
p196
g53
NS'iop32x'
p197
tp198
(dp199
S'hardware'
p200
S'IOP32x'
p201
sS'hardware-long'
p202
S'IOP32x based systems (Thecus N2100, etc)'
p203
ss(S'relations'
p204
g87
tp205
(dp206
S'headers%gcc-4.8'
p207
S'linux-compiler-gcc-4.8-x86'
p208
ss(S'base'
p209
NS'rt'
p210
tp211
(dp212
S'enabled'
p213
I01
ss(S'image'
p214
g69
tp215
(dp216
S'suggests'
p217
S'mkvmlinuz'
p218
ss(S'description'
p219
g124
NS'alpha-legacy'
p220
tp221
(dp222
S'hardware'
p223
S'Alpha Legacy'
p224
sS'hardware-long'
p225
S'DEC Alpha systems with legacy kernel start address'
p226
ss(S'description'
p227
g53
NS'mv78xx0'
p228
tp229
(dp230
S'hardware'
p231
S'Marvell 78xx0'
p232
sS'hardware-long'
p233
S'Marvell DB-78xx0-BP Development Board'
p234
ss(S'description'
p235
g153
NS'sh7751r'
p236
tp237
(dp238
S'hardware'
p239
S'sh7751r'
p240
sS'hardware-long'
p241
S'Renesas SH7751R R2D plus board'
p242
ss(S'description'
p243
g87
S'none'
p244
S'amd64'
p245
tp246
(dp247
S'parts'
p248
(lp249
S'xen'
p250
ass(S'base'
p251
S'arm64'
p252
tp253
(dp254
S'kernel-arch'
p255
S'arm64'
p256
sS'featuresets'
p257
(lp258
ss(S'base'
p259
g87
tp260
(dp261
S'kernel-arch'
p262
S'x86'
p263
sS'featuresets'
p264
(lp265
S'none'
p266
aS'rt'
p267
ass(S'description'
p268
g137
NS'sb1a-bcm91480b'
p269
tp270
(dp271
S'hardware'
p272
S'BCM91480B'
p273
sS'hardware-long'
p274
S'Broadcom BCM91480B systems (aka BigSur)'
p275
ss(S'base'
p276
g137
tp277
(dp278
S'kernel-arch'
p279
S'mips'
p280
sg129
(lp281
g116
ass(S'description'
p282
g5
NS'amd64'
p283
tp284
(dp285
S'hardware'
p286
S'64-bit PCs'
p287
sS'hardware-long'
p288
S'PCs with AMD64, Intel 64 or VIA Nano processors'
p289
ss(S'relations'
p290
g5
tp291
(dp292
S'headers%gcc-4.8'
p293
S'linux-compiler-gcc-4.8-x86'
p294
ss(S'description'
p295
g23
NS'parisc64-smp'
p296
tp297
(dp298
S'hardware'
p299
S'multiprocessor 64-bit PA-RISC'
p300
ss(S'build'
p301
g100
NS'armmp'
p302
tp303
(dp304
S'image-file'
p305
S'arch/arm/boot/zImage'
p306
ss(S'relations'
p307
g62
tp308
(dp309
S'headers%gcc-4.8'
p310
S'linux-compiler-gcc-4.8-s390'
p311
ss(g114
g137
g116
tp312
(dp313
g119
I01
sg120
(lp314
S'r5k-cobalt'
p315
aS'sb1-bcm91250a'
p316
aS'sb1a-bcm91480b'
p317
aS'4kc-malta'
p318
aS'5kc-malta'
p319
aS'loongson-2e'
p320
aS'loongson-2f'
p321
ass(S'description'
p322
S'powerpcspe'
p323
tp324
(dp325
S'hardware'
p326
S'32-bit PowerPC with SPE (instead of AltiVec) with SMP support'
p327
ss(S'description'
p328
g44
NS'itanium'
p329
tp330
(dp331
S'hardware'
p332
S'Itanium'
p333
ss(S'relations'
p334
tp335
(dp336
S'gcc-4.8'
p337
S'gcc-4.8'
p338
sS'initramfs-fallback'
p339
S'linux-initramfs-tool'
p340
sS'gcc-4.7'
p341
S'gcc-4.7'
p342
sS'gcc-4.6'
p343
S'gcc-4.6'
p344
sS'gcc-4.4'
p345
S'gcc-4.4'
p346
sS'initramfs-tools'
p347
S'initramfs-tools (>= 0.110~)'
p348
ss(S'build'
p349
g53
NS'mv78xx0'
p350
tp351
(dp352
S'image-file'
p353
S'arch/arm/boot/zImage'
p354
ss(S'build'
p355
g53
NS'kirkwood'
p356
tp357
(dp358
S'image-file'
p359
S'arch/arm/boot/zImage'
p360
ss(S'description'
p361
S'mips'
p362
NS'octeon'
p363
tp364
(dp365
S'hardware'
p366
S'Octeon'
p367
sS'hardware-long'
p368
S'Cavium Networks Octeon'
p369
ss(g114
g153
g116
tp370
(dp371
g119
I01
sg120
(lp372
S'sh7751r'
p373
aS'sh7785lcr'
p374
ass(S'image'
p375
g87
NS'686-pae'
p376
tp377
(dp378
S'configs'
p379
(lp380
S'kernelarch-x86/config-arch-32'
p381
aS'i386/config.686-pae'
p382
asS'recommends'
p383
S'libc6-i686'
p384
ss(S'image'
p385
g137
NS'loongson-2f'
p386
tp387
(dp388
S'recommends'
p389
S'libc6-loongson2f'
p390
ss(S'description'
p391
g69
NS'powerpc64'
p392
tp393
(dp394
S'hardware'
p395
S'64-bit PowerPC'
p396
ss(S'base'
p397
g53
tp398
(dp399
S'kernel-arch'
p400
S'arm'
p401
sg129
(lp402
g116
ass(S'base'
p403
S'sparc'
p404
tp405
(dp406
S'kernel-arch'
p407
S'sparc'
p408
sg129
(lp409
g116
ass(S'base'
p410
g323
tp411
(dp412
S'kernel-arch'
p413
S'powerpc'
p414
sg129
(lp415
g116
ass(S'relations'
p416
g100
tp417
(dp418
S'headers%gcc-4.8'
p419
S'linux-compiler-gcc-4.8--arm'
p420
ss(S'description'
p421
g100
NS'armmp-lpae'
p422
tp423
(dp424
S'hardware'
p425
S'ARMv7 multiplatform compatible SoCs supporting LPAE'
p426
sS'hardware-long'
p427
S'ARMv7 multiplatform kernel supporting LPAE'
p428
ss(g114
g62
g116
tp429
(dp430
g119
I01
sg120
(lp431
S's390x'
p432
ass(S'image'
p433
g115
NS'powerpc64'
p434
tp435
(dp436
S'configs'
p437
(lp438
S'powerpc/config.powerpc64'
p439
ass(g114
g109
g116
tp440
(dp441
g119
I01
sg120
(lp442
S's390x'
p443
ass(S'base'
p444
g362
tp445
(dp446
S'kernel-arch'
p447
S'mips'
p448
sg129
(lp449
g116
ass(S'build'
p450
g5
tp451
(dp452
S'debug-info'
p453
I01
ss(S'build'
p454
g100
NS'armmp-lpae'
p455
tp456
(dp457
S'image-file'
p458
S'arch/arm/boot/zImage'
p459
ss(S'description'
p460
g44
NS'mckinley'
p461
tp462
(dp463
S'hardware'
p464
S'Itanium II'
p465
ss(S'image'
p466
g137
tp467
(dp468
S'initramfs'
p469
I00
ss(S'image'
p470
g153
NS'sh7785lcr'
p471
tp472
(dp473
S'check-size'
p474
S'4194304'
p475
sS'recommends'
p476
S'uboot-mkimage'
p477
ss(S'description'
p478
g362
NS'r4k-ip22'
p479
tp480
(dp481
S'hardware'
p482
S'SGI IP22'
p483
sS'hardware-long'
p484
S'SGI IP22 systems (Indy, Indigo2)'
p485
ss(S'description'
p486
g87
NS'486'
p487
tp488
(dp489
S'hardware'
p490
S'older PCs'
p491
sS'parts'
p492
(lp493
S'up'
p494
asS'hardware-long'
p495
S'PCs with a single processor not supporting PAE'
p496
ss(S'image'
p497
g137
NS'4kc-malta'
p498
tp499
(dp500
S'configs'
p501
(lp502
S'mips/config.4kc-malta'
p503
ass(g114
g362
g116
tp504
(dp505
g119
I01
sg120
(lp506
S'r4k-ip22'
p507
aS'r5k-ip32'
p508
aS'sb1-bcm91250a'
p509
aS'sb1a-bcm91480b'
p510
aS'4kc-malta'
p511
aS'5kc-malta'
p512
aS'octeon'
p513
ass(S'description'
p514
g404
NS'sparc64-smp'
p515
tp516
(dp517
S'hardware'
p518
S'multiprocessor 64-bit UltraSPARC'
p519
ss(S'base'
p520
g5
tp521
(dp522
S'kernel-arch'
p523
S'x86'
p524
sS'featuresets'
p525
(lp526
S'none'
p527
aS'rt'
p528
ass(S'base'
p529
g44
tp530
(dp531
S'kernel-arch'
p532
S'ia64'
p533
sg129
(lp534
g116
asS'compiler'
p535
S'gcc-4.6'
p536
ss(S'description'
p537
Ng37
tp538
(dp539
S'part-long-rt'
p540
S'This kernel includes the PREEMPT_RT realtime patch set.'
p541
sS'parts'
p542
(lp543
S'rt'
p544
asS'part-short-rt'
p545
S'PREEMPT_RT'
p546
ss(S'image'
p547
g87
NS'amd64'
p548
tp549
(dp550
S'configs'
p551
(lp552
S'kernelarch-x86/config-arch-64'
p553
asS'recommends'
p554
S'libc6-i686'
p555
ss(g114
g53
g116
tp556
(dp557
g119
I01
sg120
(lp558
S'iop32x'
p559
aS'ixp4xx'
p560
aS'kirkwood'
p561
aS'mv78xx0'
p562
aS'orion5x'
p563
aS'versatile'
p564
ass(S'description'
p565
g87
tp566
(dp567
S'part-long-pae'
p568
S'This kernel requires PAE (Physical Address Extension).\nThis feature is supported by the Intel Pentium Pro/II/III/4/4M/D, Xeon,\nCore and Atom; AMD Geode NX, Athlon (K7), Duron, Opteron, Sempron,\nTurion or Phenom; Transmeta Efficeon; VIA C7; and some other processors.'
p569
ss(S'image'
p570
g100
tp571
(dp572
S'suggests'
p573
S'fdutils'
p574
sS'configs'
p575
(lp576
S'armel/config'
p577
aS'armhf/config'
p578
ass(S'xen'
p579
g5
g16
S'amd64'
p580
tp581
(dp582
S'flavours'
p583
(lp584
S'amd64'
p585
ass(S'image'
p586
g53
tp587
(dp588
S'suggests'
p589
S'fdutils'
p590
ss(S'image'
p591
g62
tp592
(dp593
S'configs'
p594
(lp595
S's390x/config'
p596
asS'bootloaders'
p597
(lp598
S's390-tools'
p599
ass(S'relations'
p600
g53
tp601
(dp602
S'headers%gcc-4.8'
p603
S'linux-compiler-gcc-4.8-arm'
p604
ss(S'image'
p605
g23
tp606
(dp607
S'suggests'
p608
S'palo'
p609
ss(S'image'
p610
S'sparc64'
p611
NS'sparc64'
p612
tp613
(dp614
S'configs'
p615
(lp616
S'sparc/config.sparc64'
p617
ass(S'description'
p618
g69
NS'powerpc'
p619
tp620
(dp621
S'hardware'
p622
S'uniprocessor 32-bit PowerPC'
p623
ss(S'relations'
p624
g23
tp625
(dp626
S'gcc-4.4'
p627
S'gcc-4.4, binutils-hppa64, gcc-4.4-hppa64'
p628
ss(S'description'
p629
S'm68k'
p630
NS'm68k'
p631
tp632
(dp633
S'hardware'
p634
S'Motorola MC68020+ family'
p635
ss(S'description'
p636
g404
NS'sparc64'
p637
tp638
(dp639
S'hardware'
p640
S'uniprocessor 64-bit UltraSPARC'
p641
ss(S'description'
p642
g87
NS'686-pae'
p643
tp644
(dp645
S'hardware'
p646
S'modern PCs'
p647
sS'parts'
p648
(lp649
S'pae'
p650
asS'hardware-long'
p651
S'PCs with one or more processors supporting PAE'
p652
ss(S'base'
p653
g69
tp654
(dp655
S'kernel-arch'
p656
S'powerpc'
p657
sg129
(lp658
g116
ass(g114
g23
g116
tp659
(dp660
g119
I01
sg120
(lp661
S'parisc'
p662
aS'parisc-smp'
p663
aS'parisc64'
p664
aS'parisc64-smp'
p665
ass(S'description'
p666
g69
NS'powerpc-smp'
p667
tp668
(dp669
S'hardware'
p670
S'multiprocessor 32-bit PowerPC'
p671
ss(S'image'
p672
g124
tp673
(dp674
S'suggests'
p675
S'aboot, fdutils'
p676
ss(S'image'
p677
g137
NS'sb1a-bcm91480b'
p678
tp679
(dp680
S'configs'
p681
(lp682
S'mips/config.sb1a-bcm91480b'
p683
ass(S'image'
p684
g404
NS'sparc32'
p685
tp686
(dp687
S'image-postproc'
p688
S'sparc32-image-postproc'
p689
ss(S'base'
p690
g611
tp691
(dp692
S'kernel-arch'
p693
S'sparc'
p694
sg129
(lp695
g116
ass(S'base'
p696
g109
tp697
(dp698
S'kernel-arch'
p699
S's390'
p700
sg129
(lp701
g116
ass(S'base'
p702
g23
NS'parisc64-smp'
p703
tp704
(dp705
S'override-host-type'
p706
S'hppa64-linux-gnu'
p707
sS'cflags'
p708
S'-fno-cse-follow-jumps'
p709
ss(S'description'
p710
g124
NS'alpha-generic'
p711
tp712
(dp713
S'hardware'
p714
S'Alpha'
p715
sS'hardware-long'
p716
S'DEC Alpha systems with extended kernel start address (Wildfire, Titan, Marvel)'
p717
ss(S'build'
p718
g53
NS'orion5x'
p719
tp720
(dp721
S'image-file'
p722
S'arch/arm/boot/zImage'
p723
ss(S'image'
p724
g115
tp725
(dp726
S'suggests'
p727
S'mkvmlinuz'
p728
sS'configs'
p729
(lp730
S'powerpc/config'
p731
ass(S'image'
p732
g362
tp733
(dp734
S'initramfs'
p735
I00
ss(S'image'
p736
g87
tp737
(dp738
S'configs'
p739
(lp740
sS'bootloaders'
p741
(lp742
S'grub-pc'
p743
aS'extlinux'
p744
aS'lilo'
p745
ass(g114
g404
g116
tp746
(dp747
g119
I01
sg120
(lp748
S'sparc64'
p749
aS'sparc64-smp'
p750
ass(S'image'
p751
g100
NS'armmp-lpae'
p752
tp753
(dp754
S'configs'
p755
(lp756
S'armhf/config.armmp'
p757
aS'armhf/config.lpae'
p758
ass(S'base'
p759
g115
tp760
(dp761
S'kernel-arch'
p762
S'powerpc'
p763
sg129
(lp764
g116
ass(g114
g124
g116
tp765
(dp766
g119
I01
sg120
(lp767
S'alpha-generic'
p768
aS'alpha-smp'
p769
aS'alpha-legacy'
p770
ass(S'description'
p771
g87
g244
S'686-pae'
p772
tp773
(dp774
S'parts'
p775
(lp776
S'xen'
p777
ass(S'description'
p778
g53
NS'kirkwood'
p779
tp780
(dp781
S'hardware'
p782
S'Marvell Kirkwood'
p783
sS'hardware-long'
p784
S'Marvell Kirkwood based systems (SheevaPlug, QNAP TS-119/TS-219, etc)'
p785
ss(S'base'
p786
S'x32'
p787
tp788
(dp789
S'kernel-arch'
p790
S'x86'
p791
sS'featuresets'
p792
(lp793
ss(S'description'
p794
g23
NS'parisc-smp'
p795
tp796
(dp797
S'hardware'
p798
S'multiprocessor 32-bit PA-RISC'
p799
ss(S'description'
p800
g137
NS'loongson-2e'
p801
tp802
(dp803
S'hardware'
p804
S'Loongson 2E'
p805
sS'hardware-long'
p806
S'Lemote Loongson 2E systems'
p807
ss(S'description'
p808
g137
NS'loongson-2f'
p809
tp810
(dp811
S'hardware'
p812
S'Loongson 2F'
p813
sS'hardware-long'
p814
S'Lemote Loongson 2F systems'
p815
ss(g114
g44
g116
tp816
(dp817
g119
I01
sg120
(lp818
S'itanium'
p819
aS'mckinley'
p820
ass(S'image'
p821
g630
tp822
(dp823
S'suggests'
p824
S'vmelilo, fdutils'
p825
ss(S'base'
p826
g100
tp827
(dp828
S'kernel-arch'
p829
S'arm'
p830
sg129
(lp831
g116
ass(S'image'
p832
g153
tp833
(dp834
S'suggests'
p835
S'fdutils'
p836
ss(S'base'
p837
g23
tp838
(dp839
S'kernel-arch'
p840
S'parisc'
p841
sg129
(lp842
g116
asS'compiler'
p843
S'gcc-4.4'
p844
ss(S'description'
p845
g362
NS'sb1-bcm91250a'
p846
tp847
(dp848
S'hardware'
p849
S'BCM91250A'
p850
sS'hardware-long'
p851
S'Broadcom BCM91250A systems (aka SWARM)'
p852
ss(S'description'
p853
g115
NS'powerpc64'
p854
tp855
(dp856
S'hardware'
p857
S'64-bit PowerPC'
p858
ss(S'base'
p859
g153
tp860
(dp861
S'kernel-arch'
p862
S'sh'
p863
sg129
(lp864
g116
asS'compiler'
p865
S'gcc-4.7'
p866
ss(S'description'
p867
g362
NS'5kc-malta'
p868
tp869
(dp870
S'hardware'
p871
S'MIPS Malta (64-bit)'
p872
sS'hardware-long'
p873
S'MIPS Malta boards (64-bit)'
p874
ss(S'image'
p875
g404
tp876
(dp877
S'suggests'
p878
S'silo, fdutils'
p879
ss(S'description'
p880
g611
NS'sparc64'
p881
tp882
(dp883
S'hardware'
p884
S'uniprocessor 64-bit UltraSPARC'
p885
ss(S'description'
p886
tp887
(dp888
S'part-long-up'
p889
S'This kernel is not suitable for SMP (multi-processor,\nmulti-core or hyper-threaded) systems.'
p890
sS'part-long-xen'
p891
S'This kernel also runs on a Xen hypervisor.\nIt supports both privileged (dom0) and unprivileged (domU) operation.'
p892
ss(S'description'
p893
g137
NS'4kc-malta'
p894
tp895
(dp896
S'hardware'
p897
S'MIPS Malta'
p898
sS'hardware-long'
p899
S'MIPS Malta boards'
p900
ss(S'description'
p901
g137
NS'5kc-malta'
p902
tp903
(dp904
S'hardware'
p905
S'MIPS Malta (64-bit)'
p906
sS'hardware-long'
p907
S'MIPS Malta boards (64-bit)'
p908
ss(S'base'
p909
g62
tp910
(dp911
S'kernel-arch'
p912
S's390'
p913
sg129
(lp914
g116
ass(S'image'
p915
g611
tp916
(dp917
S'suggests'
p918
S'silo, fdutils'
p919
sS'configs'
p920
(lp921
S'sparc/config'
p922
ass(S'relations'
p923
g109
tp924
(dp925
S'headers%gcc-4.8'
p926
S'linux-compiler-gcc-4.8-s390'
p927
ss(S'build'
p928
g53
NS'ixp4xx'
p929
tp930
(dp931
S'image-file'
p932
S'arch/arm/boot/zImage'
p933
ss(S'build'
p934
g153
NS'sh7785lcr'
p935
tp936
(dp937
S'image-file'
p938
S'arch/sh/boot/zImage'
p939
ss(S'description'
p940
g362
NS'r5k-ip32'
p941
tp942
(dp943
S'hardware'
p944
S'SGI IP32'
p945
sS'hardware-long'
p946
S'SGI IP32 systems (O2)'
p947
ss(S'description'
p948
g109
NS's390x'
p949
tp950
(dp951
S'hardware'
p952
S'IBM zSeries'
p953
ss(S'description'
p954
g362
NS'sb1a-bcm91480b'
p955
tp956
(dp957
S'hardware'
p958
S'BCM91480B'
p959
sS'hardware-long'
p960
S'Broadcom BCM91480B systems (aka BigSur)'
p961
ss(S'build'
p962
g53
NS'iop32x'
p963
tp964
(dp965
S'image-file'
p966
S'arch/arm/boot/zImage'
p967
ss(S'description'
p968
g404
NS'sparc32'
p969
tp970
(dp971
S'hardware'
p972
S'uniprocessor sparc32 (sun4m)'
p973
ss(S'image'
p974
g5
NS'amd64'
p975
tp976
(dp977
S'configs'
p978
(lp979
S'kernelarch-x86/config-arch-64'
p980
ass(S'build'
p981
g62
NS's390x'
p982
tp983
(dp984
S'debug-info'
p985
I01
ss(S'build'
p986
g153
NS'sh7751r'
p987
tp988
(dp989
S'image-file'
p990
S'arch/sh/boot/zImage'
p991
ss(S'image'
p992
g137
NS'sb1-bcm91250a'
p993
tp994
(dp995
S'configs'
p996
(lp997
S'mips/config.sb1-bcm91250a'
p998
ass(S'image'
p999
g323
tp1000
(dp1001
S'suggests'
p1002
S'mkvmlinuz'
p1003
sS'configs'
p1004
(lp1005
S'powerpc/config'
p1006
aS'powerpcspe/config.powerpcspe'
p1007
ass(S'base'
p1008
g87
g244
tp1009
(dp1010
S'flavours'
p1011
(lp1012
S'486'
p1013
aS'686-pae'
p1014
aS'amd64'
p1015
ass(S'abi'
p1016
tp1017
(dp1018
S'abiname'
p1019
S'kali1'
p1020
ss(S'description'
p1021
g124
NS'alpha-smp'
p1022
tp1023
(dp1024
S'hardware'
p1025
S'Alpha SMP'
p1026
sS'hardware-long'
p1027
S'DEC Alpha SMP systems with extended kernel start address (Wildfire, Titan, Marvel)'
p1028
ss(g114
g323
g116
tp1029
(dp1030
g119
I01
sg120
(lp1031
S'powerpcspe'
p1032
ass(g114
g630
g116
tp1033
(dp1034
g119
I01
sg120
(lp1035
S'm68k'
p1036
ass(S'base'
p1037
tp1038
(dp1039
S'arches'
p1040
(lp1041
S'alpha'
p1042
aS'amd64'
p1043
aS'arm64'
p1044
aS'armel'
p1045
aS'armhf'
p1046
aS'hppa'
p1047
aS'i386'
p1048
aS'ia64'
p1049
aS'm68k'
p1050
aS'mips'
p1051
aS'mipsel'
p1052
aS'powerpc'
p1053
aS'powerpcspe'
p1054
aS'ppc64'
p1055
aS's390'
p1056
aS's390x'
p1057
aS'sh4'
p1058
aS'sparc'
p1059
aS'sparc64'
p1060
aS'x32'
p1061
asS'featuresets'
p1062
(lp1063
S'none'
p1064
aS'rt'
p1065
asS'compiler'
p1066
S'gcc-4.7'
p1067
ss(S'description'
p1068
g611
NS'sparc64-smp'
p1069
tp1070
(dp1071
S'hardware'
p1072
S'multiprocessor 64-bit UltraSPARC'
p1073
ss(S'image'
p1074
g87
NS'486'
p1075
tp1076
(dp1077
S'configs'
p1078
(lp1079
S'kernelarch-x86/config-arch-32'
p1080
aS'i386/config.486'
p1081
ass(g114
g69
g116
tp1082
(dp1083
g119
I01
sg120
(lp1084
S'powerpc'
p1085
aS'powerpc-smp'
p1086
aS'powerpc64'
p1087
ass(S'image'
p1088
g53
NS'ixp4xx'
p1089
tp1090
(dp1091
S'check-size'
p1092
S'1441760'
p1093
sS'configs'
p1094
(lp1095
S'armel/config-reduced'
p1096
aS'armel/config-tiny'
p1097
aS'armel/config.ixp4xx'
p1098
ass(S'base'
p1099
g630
tp1100
(dp1101
S'kernel-arch'
p1102
S'm68k'
p1103
sg129
(lp1104
g116
asS'cflags'
p1105
S'-ffreestanding'
p1106
sS'compiler'
p1107
S'gcc-4.8'
p1108
ss(S'image'
p1109
g53
NS'kirkwood'
p1110
tp1111
(dp1112
S'check-size'
p1113
S'2097080'
p1114
sS'recommends'
p1115
S'uboot-mkimage'
p1116
ss(S'image'
p1117
tp1118
(dp1119
S'initramfs-generators'
p1120
(lp1121
S'initramfs-tools'
p1122
aS'initramfs-fallback'
p1123
asS'type'
p1124
S'plain'
p1125
ss(S'image'
p1126
g53
NS'iop32x'
p1127
tp1128
(dp1129
S'check-size'
p1130
S'1441784'
p1131
sS'configs'
p1132
(lp1133
S'armel/config-reduced'
p1134
aS'armel/config-tiny'
p1135
aS'armel/config.iop32x'
p1136
ass(g114
g611
g116
tp1137
(dp1138
g119
I01
sg120
(lp1139
S'sparc64'
p1140
aS'sparc64-smp'
p1141
ass(S'description'
p1142
g53
NS'orion5x'
p1143
tp1144
(dp1145
S'hardware'
p1146
S'Marvell Orion'
p1147
sS'hardware-long'
p1148
S'Marvell Orion 5181, 5182 and 5281 based systems (QNAP TS-109/TS-209, etc)'
p1149
ss(S'description'
p1150
g87
NS'amd64'
p1151
tp1152
(dp1153
S'hardware'
p1154
S'64-bit PCs'
p1155
sS'parts'
p1156
(lp1157
S'xen'
p1158
asS'hardware-long'
p1159
S'PCs with AMD64, Intel 64 or VIA Nano processors'
p1160
ss(S'description'
p1161
g137
NS'sb1-bcm91250a'
p1162
tp1163
(dp1164
S'hardware'
p1165
S'BCM91250A'
p1166
sS'hardware-long'
p1167
S'Broadcom BCM91250A systems (aka SWARM)'
p1168
ss(S'image'
p1169
g109
tp1170
(dp1171
S'bootloaders'
p1172
(lp1173
S's390-tools'
p1174
ass(S'image'
p1175
g611
NS'sparc64-smp'
p1176
tp1177
(dp1178
S'configs'
p1179
(lp1180
S'sparc/config.sparc64-smp'
p1181
ass(S'description'
p1182
g362
NS'4kc-malta'
p1183
tp1184
(dp1185
S'hardware'
p1186
S'MIPS Malta'
p1187
sS'hardware-long'
p1188
S'MIPS Malta boards'
p1189
ss(S'description'
p1190
g23
NS'parisc64'
p1191
tp1192
(dp1193
S'hardware'
p1194
S'64-bit PA-RISC'
p1195
ss(S'image'
p1196
g62
NS's390x'
p1197
tp1198
(dp1199
S'configs'
p1200
(lp1201
S's390x/config.s390x'
p1202
asstp1203
Rp1204
.