cdebian_linux.config
ConfigCore
p0
(tRp1
(Vabi
p2
tp3
(dp4
Vabiname
p5
Vkali1
p6
sVignore-changes
p7
(lp8
V__cpuhp_*
p9
aV__xive_vm_h_*
p10
aVbpf_analyzer
p11
aVcxl_*
p12
aVdax_flush
p13
aVieee80211_nullfunc_get
p14
aVinet_add_protocol
p15
aVinet_del_protocol
p16
aViommu_device_*
p17
aVkvm_async_pf_task_wait
p18
aVkvmppc_*
p19
aVmm_iommu_*
p20
aVmv_mbus_*
p21
aVperf_*
p22
aVregister_cxl_calls
p23
aVregister_key_type
p24
aVunregister_cxl_calls
p25
aV*_hw_breakpoint
p26
aVmodule:arch/x86/kvm/*
p27
aVmodule:drivers/crypto/ccp/*
p28
aVmodule:drivers/hv/*
p29
aVmodule:drivers/gpu/drm/sun4i/*
p30
aVmodule:drivers/iio/**
p31
aVmodule:drivers/misc/cxl/*
p32
aVmodule:drivers/mtd/nand/*
p33
aVmodule:drivers/net/ethernet/**
p34
aVmodule:drivers/net/wireless/**
p35
aVmodule:drivers/nvdimm/*
p36
aVmodule:drivers/power/supply/bq27xxx_battery
p37
aVmodule:drivers/scsi/cxgbi/*
p38
aVmodule:drivers/scsi/libiscs*
p39
aVmodule:drivers/scsi/qla2xxx/qla2xxx
p40
aVmodule:drivers/scsi/ufs/*
p41
aVmodule:drivers/target/**
p42
aVmodule:drivers/usb/chipidea/**
p43
aVmodule:drivers/usb/gadget/**
p44
aVmodule:drivers/usb/host/**
p45
aVmodule:drivers/usb/musb/**
p46
aVmodule:fs/nfs/**
p47
aVmodule:net/ceph/libceph
p48
aVmodule:net/l2tp/**
p49
aVmodule:net/rxrpc/rxrpc
p50
aVmodule:sound/core/seq/**
p51
aVmodule:sound/firewire/snd-firewire-lib
p52
aVmodule:sound/pci/hda/*
p53
aVbtree_*
p54
aVvisitor*
p55
aVcan_rx_register
p56
aVip6_xmit
p57
aVmodule:net/dccp/dccp
p58
aVmodule:net/rds/rds
p59
aVdevfreq_*
p60
aVdevm_devfreq_*
p61
aVupdate_devfreq
p62
aVmodule:drivers/infiniband/**
p63
aVacpi_ec_add_query_handler
p64
aVacpi_ec_remove_query_handler
p65
aVfirst_ec
p66
aVdebugfs_create_automount
p67
aVmodule:drivers/iio/imu/inv_mpu6050/*
p68
aVdrm_crtc_accurate_vblank_count
p69
aVacpi_nfit_desc_init
p70
aVacpi_nfit_init
p71
aVloop_register_transfer
p72
ass(Vbase
p73
tp74
(dp75
Varches
p76
(lp77
Valpha
p78
aVamd64
p79
aVarm64
p80
aVarm64ilp32
p81
aVarmel
p82
aVarmhf
p83
aVhppa
p84
aVi386
p85
aVia64
p86
aVm68k
p87
aVmips
p88
aVmips64
p89
aVmips64el
p90
aVmips64r6
p91
aVmips64r6el
p92
aVmipsel
p93
aVmipsn32
p94
aVmipsn32el
p95
aVmipsn32r6
p96
aVmipsn32r6el
p97
aVmipsr6
p98
aVmipsr6el
p99
aVpowerpc
p100
aVpowerpcspe
p101
aVppc64
p102
aVppc64el
p103
aVriscv64
p104
aVs390
p105
aVs390x
p106
aVsh3
p107
aVsh4
p108
aVsparc
p109
aVsparc64
p110
aVx32
p111
asVcompiler
p112
Vgcc-8
p113
sVfeaturesets
p114
(lp115
Vnone
p116
aVrt
p117
ass(Vbuild
p118
tp119
(dp120
Vdebug-info
p121
I01
sVsigned-code
p122
I00
ss(Vbase
p123
NVrt
p124
tp125
(dp126
Venabled
p127
I01
ss(Vdescription
p128
tp129
(dp130
Vpart-long-up
p131
VThis kernel is not suitable for SMP (multi-processor,\u000amulti-core or hyper-threaded) systems.
p132
ss(Vimage
p133
tp134
(dp135
Vinitramfs-generators
p136
(lp137
Vinitramfs-tools
p138
aVinitramfs-fallback
p139
asVrecommends
p140
Vapparmor
p141
ss(Vrelations
p142
tp143
(dp144
Vgcc-8
p145
Vgcc-8 <!stage1 !cross>, gcc-8-@gnu-type-package@ <!stage1 cross>
p146
sVinitramfs-fallback
p147
Vlinux-initramfs-tool
p148
sVinitramfs-tools
p149
Vinitramfs-tools (>= 0.120+deb8u2)
p150
ss(Vbase
p151
Valpha
p152
tp153
(dp154
Vkernel-arch
p155
Valpha
p156
sVfeaturesets
p157
(lp158
Vnone
p159
ass(Vbuild
p160
g152
tp161
(dp162
Vimage-file
p163
Varch/alpha/boot/vmlinux.gz
p164
ss(Vimage
p165
g152
tp166
(dp167
Vsuggests
p168
Vaboot, fdutils
p169
sVinstall-stem
p170
Vvmlinuz
p171
ss(Vdescription
p172
g152
NValpha-generic
p173
tp174
(dp175
Vhardware
p176
VAlpha
p177
sVhardware-long
p178
VDEC Alpha systems with extended kernel start address (Wildfire, Titan, Marvel)
p179
ss(Vdescription
p180
g152
NValpha-smp
p181
tp182
(dp183
Vhardware
p184
VAlpha SMP
p185
sVhardware-long
p186
VDEC Alpha SMP systems with extended kernel start address (Wildfire, Titan, Marvel)
p187
ss(Vbase
p188
g152
g159
tp189
(dp190
Vflavours
p191
(lp192
Valpha-generic
p193
aValpha-smp
p194
asVimplicit-flavour
p195
I01
ss(Vbase
p196
Vamd64
p197
tp198
(dp199
Vfeaturesets
p200
(lp201
Vnone
p202
aVrt
p203
asVkernel-arch
p204
Vx86
p205
ss(Vbuild
p206
g197
tp207
(dp208
Vdebug-info
p209
I01
sVimage-file
p210
Varch/x86/boot/bzImage
p211
sVsigned-code
p212
I00
sVvdso
p213
I01
ss(Vimage
p214
g197
tp215
(dp216
Vbootloaders
p217
(lp218
Vgrub-pc
p219
aVgrub-efi-amd64
p220
aVextlinux
p221
asVinstall-stem
p222
Vvmlinuz
p223
sVbreaks
p224
Vxserver-xorg-input-vmmouse (<< 1:13.0.99)
p225
ss(Vrelations
p226
g197
tp227
(dp228
Vgcc-8
p229
Vgcc-8 (>= 8-20180123-1~) <!stage1 !cross>, gcc-8-x86-64-linux-gnu (>= 8-20180123-1~) <!stage1 cross>
p230
sVheaders%gcc-8
p231
Vlinux-compiler-gcc-8-x86
p232
ss(Vdescription
p233
g197
NVamd64
p234
tp235
(dp236
Vhardware
p237
V64-bit PCs
p238
sVhardware-long
p239
VPCs with AMD64, Intel 64 or VIA Nano processors
p240
ss(Vdescription
p241
g197
NVcloud-amd64
p242
tp243
(dp244
Vhardware
p245
Vx86-64 cloud
p246
sVhardware-long
p247
VAmazon EC2, Google Compute Engine and Microsoft Azure cloud platforms
p248
ss(Vbase
p249
g197
Vnone
p250
tp251
(dp252
Vflavours
p253
(lp254
Vamd64
p255
aVcloud-amd64
p256
ass(Vbase
p257
g197
Vrt
p258
tp259
(dp260
Vflavours
p261
(lp262
Vamd64
p263
ass(Vbase
p264
Varm64
p265
tp266
(dp267
Vkernel-arch
p268
Varm64
p269
sVfeaturesets
p270
(lp271
Vnone
p272
aVrt
p273
ass(Vbuild
p274
g265
tp275
(dp276
Vdebug-info
p277
I01
sVimage-file
p278
Varch/arm64/boot/Image
p279
sVsigned-code
p280
I00
sVvdso
p281
I01
ss(Vimage
p282
g265
tp283
(dp284
Vinstall-stem
p285
Vvmlinuz
p286
sVbreaks
p287
Vlibmozjs185-1.0, libmozjs-24-0 (<< 24.2.0-5.1~)
p288
ss(Vdescription
p289
g265
NVarm64
p290
tp291
(dp292
Vhardware
p293
V64-bit ARMv8 machines
p294
ss(Vimage
p295
g265
NVarm64
p296
tp297
(dp298
s(Vbase
p299
g265
Vnone
p300
tp301
(dp302
Vflavours
p303
(lp304
Varm64
p305
ass(Vbase
p306
g265
Vrt
p307
tp308
(dp309
Vflavours
p310
(lp311
Varm64
p312
ass(Vbase
p313
Varm64ilp32
p314
tp315
(dp316
Vkernel-arch
p317
Varm64
p318
sVfeaturesets
p319
(lp320
ss(Vbase
p321
Varmel
p322
tp323
(dp324
Vkernel-arch
p325
Varm
p326
sg157
(lp327
g159
ass(Vbuild
p328
g322
tp329
(dp330
Vimage-file
p331
Varch/arm/boot/zImage
p332
sVuncompressed-image-file
p333
Varch/arm/boot/Image
p334
sVsigned-code
p335
I00
ss(Vimage
p336
g322
tp337
(dp338
Vinstall-stem
p339
Vvmlinuz
p340
ss(Vrelations
p341
g322
tp342
(dp343
Vheaders%gcc-8
p344
Vlinux-compiler-gcc-8-arm
p345
ss(Vdescription
p346
g322
NVmarvell
p347
tp348
(dp349
Vhardware
p350
VMarvell Kirkwood/Orion
p351
sVhardware-long
p352
VMarvell Kirkwood and Orion based systems (https://wiki.debian.org/ArmEabiPort#Supported_hardware)
p353
ss(Vimage
p354
g322
NVmarvell
p355
tp356
(dp357
Vrecommends
p358
Vu-boot-tools
p359
sVcheck-size
p360
L2097080L
sVcheck-size-with-dtb
p361
I01
sVcheck-uncompressed-size
p362
L7340032L
sVbreaks
p363
Vflash-kernel (<< 3.57~)
p364
ss(g188
g322
g159
tp365
(dp366
g191
(lp367
Vmarvell
p368
asg195
I01
ss(Vbase
p369
Varmhf
p370
tp371
(dp372
Vfeaturesets
p373
(lp374
Vnone
p375
aVrt
p376
asVkernel-arch
p377
Varm
p378
ss(Vbuild
p379
g370
tp380
(dp381
Vimage-file
p382
Varch/arm/boot/zImage
p383
sVvdso
p384
I01
sVsigned-code
p385
I00
ss(Vimage
p386
g370
tp387
(dp388
Vinstall-stem
p389
Vvmlinuz
p390
ss(Vrelations
p391
g370
tp392
(dp393
Vheaders%gcc-8
p394
Vlinux-compiler-gcc-8-arm
p395
ss(Vdescription
p396
g370
NVarmmp
p397
tp398
(dp399
Vhardware
p400
VARMv7 multiplatform compatible SoCs
p401
sVhardware-long
p402
VARMv7 multiplatform kernel. See\u000ahttps://wiki.debian.org/DebianKernel/ARMMP for details of supported\u000aplatforms
p403
ss(Vdescription
p404
g370
NVarmmp-lpae
p405
tp406
(dp407
Vhardware
p408
VARMv7 multiplatform compatible SoCs supporting LPAE
p409
sVhardware-long
p410
VARMv7 multiplatform kernel supporting LPAE. See\u000ahttps://wiki.debian.org/DebianKernel/ARMMP for details of supported\u000aplatforms.
p411
ss(Vbase
p412
g370
Vnone
p413
tp414
(dp415
Vflavours
p416
(lp417
Varmmp
p418
aVarmmp-lpae
p419
ass(Vbase
p420
g370
Vrt
p421
tp422
(dp423
Vflavours
p424
(lp425
Varmmp
p426
ass(Vbase
p427
Vhppa
p428
tp429
(dp430
Vkernel-arch
p431
Vparisc
p432
sg157
(lp433
g159
ass(Vbuild
p434
g428
tp435
(dp436
Vimage-file
p437
Varch/parisc/boot/bzImage
p438
sVdebug-info
p439
I00
ss(Vimage
p440
g428
tp441
(dp442
Vsuggests
p443
Vpalo
p444
sVinstall-stem
p445
Vvmlinuz
p446
ss(Vdescription
p447
g428
NVparisc
p448
tp449
(dp450
Vhardware
p451
V32-bit PA-RISC
p452
sVhardware-long
p453
VHP PA-RISC 32-bit systems with max 4 GB RAM
p454
ss(Vdescription
p455
g428
NVparisc-smp
p456
tp457
(dp458
Vhardware
p459
Vmultiprocessor 32-bit PA-RISC
p460
sVhardware-long
p461
VHP PA-RISC 32-bit SMP systems with max 4 GB RAM
p462
ss(Vbase
p463
g428
NVparisc64-smp
p464
tp465
(dp466
Vcflags
p467
V-fno-cse-follow-jumps
p468
sVoverride-host-type
p469
Vhppa64-linux-gnu
p470
ss(Vdescription
p471
g428
NVparisc64-smp
p472
tp473
(dp474
Vhardware
p475
Vmultiprocessor 64-bit PA-RISC
p476
sVhardware-long
p477
VHP PA-RISC 64-bit SMP systems with support for more than 4 GB RAM
p478
ss(Vrelations
p479
g428
tp480
(dp481
Vgcc-8
p482
Vgcc-8 <!stage1 !cross>, gcc-8-hppa-linux-gnu <!stage1 cross>, binutils-hppa64-linux-gnu <!stage1>, gcc-8-hppa64-linux-gnu <!stage1>
p483
ss(g188
g428
g159
tp484
(dp485
g191
(lp486
Vparisc
p487
aVparisc-smp
p488
aVparisc64-smp
p489
asg195
I01
ss(Vbase
p490
Vi386
p491
tp492
(dp493
Vfeaturesets
p494
(lp495
Vnone
p496
aVrt
p497
asVkernel-arch
p498
Vx86
p499
ss(Vbuild
p500
g491
tp501
(dp502
Vimage-file
p503
Varch/x86/boot/bzImage
p504
sVsigned-code
p505
I00
sVvdso
p506
I01
ss(Vdescription
p507
g491
tp508
(dp509
Vpart-long-pae
p510
VThis kernel requires PAE (Physical Address Extension).\u000aThis feature is supported by the Intel Pentium Pro/II/III/4/4M/D, Xeon,\u000aCore and Atom; AMD Geode NX, Athlon (K7), Duron, Opteron, Sempron,\u000aTurion or Phenom; Transmeta Efficeon; VIA C7; and some other processors.
p511
ss(Vimage
p512
g491
tp513
(dp514
Vbootloaders
p515
(lp516
Vgrub-pc
p517
aVextlinux
p518
asVinstall-stem
p519
Vvmlinuz
p520
sVbreaks
p521
Vxserver-xorg-input-vmmouse (<< 1:13.0.99)
p522
ss(Vrelations
p523
g491
tp524
(dp525
Vgcc-8
p526
Vgcc-8 (>= 8-20180123-1~) <!stage1 !cross>, gcc-8-x86-64-linux-gnu (>= 8-20180123-1~) <!stage1 cross>
p527
sVheaders%gcc-8
p528
Vlinux-compiler-gcc-8-x86
p529
ss(Vdescription
p530
g491
NV686
p531
tp532
(dp533
Vhardware
p534
Volder PCs
p535
sVhardware-long
p536
VPCs with one or more processors not supporting PAE
p537
ss(Vbuild
p538
g491
NV686-pae
p539
tp540
(dp541
Vdebug-info
p542
I01
ss(Vdescription
p543
g491
NV686-pae
p544
tp545
(dp546
Vhardware
p547
Vmodern PCs
p548
sVhardware-long
p549
VPCs with one or more processors supporting PAE
p550
sVparts
p551
(lp552
Vpae
p553
ass(Vbase
p554
g491
Vnone
p555
tp556
(dp557
Vflavours
p558
(lp559
V686
p560
aV686-pae
p561
ass(Vbase
p562
g491
Vrt
p563
tp564
(dp565
Vflavours
p566
(lp567
V686-pae
p568
ass(Vbase
p569
Via64
p570
tp571
(dp572
Vkernel-arch
p573
Via64
p574
sg157
(lp575
g159
ass(Vbuild
p576
g570
tp577
(dp578
Vimage-file
p579
Vvmlinux.gz
p580
ss(Vimage
p581
g570
tp582
(dp583
Vbootloaders
p584
(lp585
Velilo
p586
asVinstall-stem
p587
Vvmlinuz
p588
ss(Vdescription
p589
g570
NVitanium
p590
tp591
(dp592
Vhardware
p593
VItanium (Merced)
p594
sVhardware-long
p595
Vsystems with original Itanium (Merced) processors
p596
ss(Vdescription
p597
g570
NVmckinley
p598
tp599
(dp600
Vhardware
p601
VItanium 2+
p602
sVhardware-long
p603
Vsystems with Itanium 2 or 9300/9500/9700-series processors
p604
ss(g188
g570
g159
tp605
(dp606
g191
(lp607
Vitanium
p608
aVmckinley
p609
asg195
I01
ss(Vbase
p610
Vm68k
p611
tp612
(dp613
Vcflags
p614
V-ffreestanding
p615
sVkernel-arch
p616
Vm68k
p617
sg157
(lp618
g159
ass(Vbuild
p619
g611
tp620
(dp621
Vimage-file
p622
Vvmlinux
p623
ss(Vimage
p624
g611
tp625
(dp626
Vsuggests
p627
Vvmelilo, fdutils
p628
sVinstall-stem
p629
Vvmlinux
p630
ss(Vdescription
p631
g611
NVm68k
p632
tp633
(dp634
Vhardware
p635
VMotorola MC68020+ family
p636
ss(g188
g611
g159
tp637
(dp638
g191
(lp639
Vm68k
p640
asg195
I01
ss(Vbase
p641
Vmips
p642
tp643
(dp644
Vkernel-arch
p645
Vmips
p646
sg157
(lp647
g159
ass(Vbuild
p648
g642
tp649
(dp650
Vimage-file
p651
Vvmlinux
p652
ss(Vimage
p653
g642
tp654
(dp655
Vinstall-stem
p656
Vvmlinux
p657
ss(Vdescription
p658
g642
NV4kc-malta
p659
tp660
(dp661
Vhardware
p662
VMIPS Malta
p663
sVhardware-long
p664
VMIPS Malta boards
p665
ss(Vimage
p666
g642
NV4kc-malta
p667
tp668
(dp669
Vconfigs
p670
(lp671
Vkernelarch-mips/config.malta
p672
aVkernelarch-mips/config.mips32r2
p673
ass(Vdescription
p674
g642
NV5kc-malta
p675
tp676
(dp677
Vhardware
p678
VMIPS Malta (64-bit)
p679
sVhardware-long
p680
VMIPS Malta boards (64-bit)
p681
ss(Vimage
p682
g642
NV5kc-malta
p683
tp684
(dp685
Vconfigs
p686
(lp687
Vkernelarch-mips/config.malta
p688
aVkernelarch-mips/config.mips64r2
p689
ass(Vdescription
p690
g642
NVocteon
p691
tp692
(dp693
Vhardware
p694
VOcteon
p695
sVhardware-long
p696
VCavium Networks Octeon
p697
ss(Vimage
p698
g642
NVocteon
p699
tp700
(dp701
Vconfigs
p702
(lp703
Vkernelarch-mips/config.octeon
p704
ass(g188
g642
g159
tp705
(dp706
g191
(lp707
V4kc-malta
p708
aV5kc-malta
p709
aVocteon
p710
asg195
I01
ss(Vbase
p711
Vmips64
p712
tp713
(dp714
Vkernel-arch
p715
Vmips
p716
sg157
(lp717
g159
ass(Vbuild
p718
g712
tp719
(dp720
Vimage-file
p721
Vvmlinux
p722
ss(Vimage
p723
g712
tp724
(dp725
Vinstall-stem
p726
Vvmlinux
p727
ss(Vdescription
p728
g712
NV5kc-malta
p729
tp730
(dp731
Vhardware
p732
VMIPS Malta
p733
sVhardware-long
p734
VMIPS Malta boards
p735
ss(Vimage
p736
g712
NV5kc-malta
p737
tp738
(dp739
Vconfigs
p740
(lp741
Vkernelarch-mips/config.malta
p742
aVkernelarch-mips/config.mips64r2
p743
ass(Vdescription
p744
g712
NVocteon
p745
tp746
(dp747
Vhardware
p748
VOcteon
p749
sVhardware-long
p750
VCavium Networks Octeon
p751
ss(Vimage
p752
g712
NVocteon
p753
tp754
(dp755
Vconfigs
p756
(lp757
Vkernelarch-mips/config.octeon
p758
ass(g188
g712
g159
tp759
(dp760
g191
(lp761
V5kc-malta
p762
aVocteon
p763
asg195
I01
ss(Vbase
p764
Vmips64el
p765
tp766
(dp767
Vkernel-arch
p768
Vmips
p769
sg157
(lp770
g159
ass(Vbuild
p771
g765
tp772
(dp773
Vimage-file
p774
Vvmlinux
p775
ss(Vimage
p776
g765
tp777
(dp778
Vinstall-stem
p779
Vvmlinux
p780
ss(Vdescription
p781
g765
NV5kc-malta
p782
tp783
(dp784
Vhardware
p785
VMIPS Malta
p786
sVhardware-long
p787
VMIPS Malta boards
p788
ss(Vimage
p789
g765
NV5kc-malta
p790
tp791
(dp792
Vconfigs
p793
(lp794
Vkernelarch-mips/config.malta
p795
aVkernelarch-mips/config.mips64r2
p796
ass(Vdescription
p797
g765
NVloongson-3
p798
tp799
(dp800
Vhardware
p801
VLoongson 3A/3B
p802
sVhardware-long
p803
VLoongson 3A or 3B based systems (e.g. from Loongson or Lemote)
p804
ss(Vimage
p805
g765
NVloongson-3
p806
tp807
(dp808
Vconfigs
p809
(lp810
Vkernelarch-mips/config.loongson-3
p811
ass(Vdescription
p812
g765
NVocteon
p813
tp814
(dp815
Vhardware
p816
VOcteon
p817
sVhardware-long
p818
VCavium Networks Octeon
p819
ss(Vimage
p820
g765
NVocteon
p821
tp822
(dp823
Vconfigs
p824
(lp825
Vkernelarch-mips/config.octeon
p826
ass(g188
g765
g159
tp827
(dp828
g191
(lp829
V5kc-malta
p830
aVloongson-3
p831
aVocteon
p832
asg195
I01
ss(Vbase
p833
Vmips64r6
p834
tp835
(dp836
Vkernel-arch
p837
Vmips
p838
sg157
(lp839
g159
ass(Vbuild
p840
g834
tp841
(dp842
Vimage-file
p843
Vvmlinux
p844
ss(Vimage
p845
g834
tp846
(dp847
Vinstall-stem
p848
Vvmlinux
p849
ss(Vdescription
p850
g834
NVmips64r6
p851
tp852
(dp853
Vhardware
p854
VMIPS R6 (64 bit, big endian)
p855
sVhardware-long
p856
VMIPS R6 (64 bit, big endian)
p857
ss(Vimage
p858
g834
NVmips64r6
p859
tp860
(dp861
Vconfigs
p862
(lp863
Vkernelarch-mips/config.boston
p864
aVkernelarch-mips/config.mips64r6
p865
ass(g188
g834
g159
tp866
(dp867
g191
(lp868
Vmips64r6
p869
asg195
I01
ss(Vbase
p870
Vmips64r6el
p871
tp872
(dp873
Vkernel-arch
p874
Vmips
p875
sg157
(lp876
g159
ass(Vbuild
p877
g871
tp878
(dp879
Vimage-file
p880
Vvmlinux
p881
ss(Vimage
p882
g871
tp883
(dp884
Vinstall-stem
p885
Vvmlinux
p886
ss(Vdescription
p887
g871
NVmips64r6el
p888
tp889
(dp890
Vhardware
p891
VMIPS R6 (64 bit, little endian)
p892
sVhardware-long
p893
VMIPS R6 (64 bit, little endian)
p894
ss(Vimage
p895
g871
NVmips64r6el
p896
tp897
(dp898
Vconfigs
p899
(lp900
Vkernelarch-mips/config.boston
p901
aVkernelarch-mips/config.mips64r6
p902
ass(g188
g871
g159
tp903
(dp904
g191
(lp905
Vmips64r6el
p906
asg195
I01
ss(Vbase
p907
Vmipsel
p908
tp909
(dp910
Vkernel-arch
p911
Vmips
p912
sg157
(lp913
g159
ass(Vbuild
p914
g908
tp915
(dp916
Vimage-file
p917
Vvmlinux
p918
ss(Vimage
p919
g908
tp920
(dp921
Vinstall-stem
p922
Vvmlinux
p923
ss(Vdescription
p924
g908
NV4kc-malta
p925
tp926
(dp927
Vhardware
p928
VMIPS Malta
p929
sVhardware-long
p930
VMIPS Malta boards
p931
ss(Vimage
p932
g908
NV4kc-malta
p933
tp934
(dp935
Vconfigs
p936
(lp937
Vkernelarch-mips/config.malta
p938
aVkernelarch-mips/config.mips32r2
p939
ass(Vdescription
p940
g908
NV5kc-malta
p941
tp942
(dp943
Vhardware
p944
VMIPS Malta (64-bit)
p945
sVhardware-long
p946
VMIPS Malta boards (64-bit)
p947
ss(Vimage
p948
g908
NV5kc-malta
p949
tp950
(dp951
Vconfigs
p952
(lp953
Vkernelarch-mips/config.malta
p954
aVkernelarch-mips/config.mips64r2
p955
ass(Vdescription
p956
g908
NVloongson-3
p957
tp958
(dp959
Vhardware
p960
VLoongson 3A/3B
p961
sVhardware-long
p962
VLoongson 3A or 3B based systems (e.g. from Loongson or Lemote)
p963
ss(Vimage
p964
g908
NVloongson-3
p965
tp966
(dp967
Vconfigs
p968
(lp969
Vkernelarch-mips/config.loongson-3
p970
ass(Vdescription
p971
g908
NVocteon
p972
tp973
(dp974
Vhardware
p975
VOcteon
p976
sVhardware-long
p977
VCavium Networks Octeon
p978
ss(Vimage
p979
g908
NVocteon
p980
tp981
(dp982
Vconfigs
p983
(lp984
Vkernelarch-mips/config.octeon
p985
ass(g188
g908
g159
tp986
(dp987
g191
(lp988
V4kc-malta
p989
aV5kc-malta
p990
aVloongson-3
p991
aVocteon
p992
asg195
I01
ss(Vbase
p993
Vmipsn32
p994
tp995
(dp996
Vkernel-arch
p997
Vmips
p998
sVfeaturesets
p999
(lp1000
ss(Vbase
p1001
Vmipsn32el
p1002
tp1003
(dp1004
Vkernel-arch
p1005
Vmips
p1006
sVfeaturesets
p1007
(lp1008
ss(Vbase
p1009
Vmipsn32r6
p1010
tp1011
(dp1012
Vkernel-arch
p1013
Vmips
p1014
sVfeaturesets
p1015
(lp1016
ss(Vbase
p1017
Vmipsn32r6el
p1018
tp1019
(dp1020
Vkernel-arch
p1021
Vmips
p1022
sVfeaturesets
p1023
(lp1024
ss(Vbase
p1025
Vmipsr6
p1026
tp1027
(dp1028
Vkernel-arch
p1029
Vmips
p1030
sg157
(lp1031
g159
ass(Vbuild
p1032
g1026
tp1033
(dp1034
Vimage-file
p1035
Vvmlinux
p1036
ss(Vimage
p1037
g1026
tp1038
(dp1039
Vinstall-stem
p1040
Vvmlinux
p1041
ss(Vdescription
p1042
g1026
NVmips32r6
p1043
tp1044
(dp1045
Vhardware
p1046
VMIPS R6 (32 bit, big endian)
p1047
sVhardware-long
p1048
VMIPS R6 (32 bit, big endian)
p1049
ss(Vimage
p1050
g1026
NVmips32r6
p1051
tp1052
(dp1053
Vconfigs
p1054
(lp1055
Vkernelarch-mips/config.boston
p1056
aVkernelarch-mips/config.mips32r6
p1057
ass(Vdescription
p1058
g1026
NVmips64r6
p1059
tp1060
(dp1061
Vhardware
p1062
VMIPS R6 (64 bit, big endian)
p1063
sVhardware-long
p1064
VMIPS R6 (64 bit, big endian)
p1065
ss(Vimage
p1066
g1026
NVmips64r6
p1067
tp1068
(dp1069
Vconfigs
p1070
(lp1071
Vkernelarch-mips/config.boston
p1072
aVkernelarch-mips/config.mips64r6
p1073
ass(g188
g1026
g159
tp1074
(dp1075
g191
(lp1076
Vmips32r6
p1077
aVmips64r6
p1078
asg195
I01
ss(Vbase
p1079
Vmipsr6el
p1080
tp1081
(dp1082
Vkernel-arch
p1083
Vmips
p1084
sg157
(lp1085
g159
ass(Vbuild
p1086
g1080
tp1087
(dp1088
Vimage-file
p1089
Vvmlinux
p1090
ss(Vimage
p1091
g1080
tp1092
(dp1093
Vinstall-stem
p1094
Vvmlinux
p1095
ss(Vdescription
p1096
g1080
NVmips32r6el
p1097
tp1098
(dp1099
Vhardware
p1100
VMIPS R6 (32 bit, little endian)
p1101
sVhardware-long
p1102
VMIPS R6 (32 bit, little endian)
p1103
ss(Vimage
p1104
g1080
NVmips32r6el
p1105
tp1106
(dp1107
Vconfigs
p1108
(lp1109
Vkernelarch-mips/config.boston
p1110
aVkernelarch-mips/config.mips32r6
p1111
ass(Vdescription
p1112
g1080
NVmips64r6el
p1113
tp1114
(dp1115
Vhardware
p1116
VMIPS R6 (64 bit, little endian)
p1117
sVhardware-long
p1118
VMIPS R6 (64 bit, little endian)
p1119
ss(Vimage
p1120
g1080
NVmips64r6el
p1121
tp1122
(dp1123
Vconfigs
p1124
(lp1125
Vkernelarch-mips/config.boston
p1126
aVkernelarch-mips/config.mips64r6
p1127
ass(g188
g1080
g159
tp1128
(dp1129
g191
(lp1130
Vmips32r6el
p1131
aVmips64r6el
p1132
asg195
I01
ss(Vbase
p1133
Vpowerpc
p1134
tp1135
(dp1136
Vkernel-arch
p1137
Vpowerpc
p1138
sg157
(lp1139
g159
ass(Vbuild
p1140
g1134
tp1141
(dp1142
Vimage-file
p1143
Vvmlinux
p1144
sVvdso
p1145
I01
ss(Vimage
p1146
g1134
tp1147
(dp1148
Vconfigs
p1149
(lp1150
sVsuggests
p1151
Vmkvmlinuz
p1152
sVinstall-stem
p1153
Vvmlinux
p1154
ss(Vdescription
p1155
g1134
NVpowerpc
p1156
tp1157
(dp1158
Vhardware
p1159
Vuniprocessor 32-bit PowerPC
p1160
ss(Vdescription
p1161
g1134
NVpowerpc-smp
p1162
tp1163
(dp1164
Vhardware
p1165
Vmultiprocessor 32-bit PowerPC
p1166
ss(Vimage
p1167
g1134
NVpowerpc-smp
p1168
tp1169
(dp1170
Vconfigs
p1171
(lp1172
Vpowerpc/config.powerpc
p1173
aVpowerpc/config.powerpc-smp
p1174
ass(Vdescription
p1175
g1134
NVpowerpc64
p1176
tp1177
(dp1178
Vhardware
p1179
V64-bit PowerPC
p1180
ss(Vimage
p1181
g1134
NVpowerpc64
p1182
tp1183
(dp1184
Vconfigs
p1185
(lp1186
Vkernelarch-powerpc/config-arch-64
p1187
aVkernelarch-powerpc/config-arch-64-be
p1188
ass(g188
g1134
g159
tp1189
(dp1190
g191
(lp1191
Vpowerpc
p1192
aVpowerpc-smp
p1193
aVpowerpc64
p1194
asg195
I01
ss(Vbase
p1195
Vpowerpcspe
p1196
tp1197
(dp1198
Vkernel-arch
p1199
Vpowerpc
p1200
sg157
(lp1201
g159
ass(Vbuild
p1202
g1196
tp1203
(dp1204
Vimage-file
p1205
Vvmlinux
p1206
sVvdso
p1207
I01
ss(Vimage
p1208
g1196
tp1209
(dp1210
Vsuggests
p1211
Vmkvmlinuz
p1212
sVinstall-stem
p1213
Vvmlinux
p1214
ss(Vdescription
p1215
g1196
tp1216
(dp1217
Vhardware
p1218
V32-bit PowerPC with SPE (instead of AltiVec) with SMP support
p1219
ss(g188
g1196
g159
tp1220
(dp1221
g191
(lp1222
Vpowerpcspe
p1223
asg195
I01
ss(Vbase
p1224
Vppc64
p1225
tp1226
(dp1227
Vkernel-arch
p1228
Vpowerpc
p1229
sg157
(lp1230
g159
ass(Vbuild
p1231
g1225
tp1232
(dp1233
Vimage-file
p1234
Vvmlinux
p1235
sVvdso
p1236
I01
ss(Vimage
p1237
g1225
tp1238
(dp1239
Vconfigs
p1240
(lp1241
sVsuggests
p1242
Vmkvmlinuz
p1243
sVinstall-stem
p1244
Vvmlinux
p1245
ss(Vdescription
p1246
g1225
NVpowerpc64
p1247
tp1248
(dp1249
Vhardware
p1250
V64-bit PowerPC
p1251
ss(Vimage
p1252
g1225
NVpowerpc64
p1253
tp1254
(dp1255
Vconfigs
p1256
(lp1257
Vkernelarch-powerpc/config-arch-64
p1258
aVkernelarch-powerpc/config-arch-64-be
p1259
ass(g188
g1225
g159
tp1260
(dp1261
g191
(lp1262
Vpowerpc64
p1263
asg195
I01
ss(Vbase
p1264
Vppc64el
p1265
tp1266
(dp1267
Vkernel-arch
p1268
Vpowerpc
p1269
sg157
(lp1270
g159
ass(Vbuild
p1271
g1265
tp1272
(dp1273
Vimage-file
p1274
Vvmlinux
p1275
sVvdso
p1276
I01
ss(Vimage
p1277
g1265
tp1278
(dp1279
Vconfigs
p1280
(lp1281
sVsuggests
p1282
Vmkvmlinuz
p1283
sVinstall-stem
p1284
Vvmlinux
p1285
ss(Vdescription
p1286
g1265
NVpowerpc64le
p1287
tp1288
(dp1289
Vhardware
p1290
VLittle-endian 64-bit PowerPC
p1291
ss(Vimage
p1292
g1265
NVpowerpc64le
p1293
tp1294
(dp1295
Vconfigs
p1296
(lp1297
Vkernelarch-powerpc/config-arch-64
p1298
aVkernelarch-powerpc/config-arch-64-le
p1299
ass(g188
g1265
g159
tp1300
(dp1301
g191
(lp1302
Vpowerpc64le
p1303
asg195
I01
ss(Vbase
p1304
Vriscv64
p1305
tp1306
(dp1307
Vkernel-arch
p1308
Vriscv
p1309
sVfeaturesets
p1310
(lp1311
Vnone
p1312
ass(Vbuild
p1313
g1305
tp1314
(dp1315
Vimage-file
p1316
Vvmlinux
p1317
ss(Vimage
p1318
g1305
tp1319
(dp1320
Vinstall-stem
p1321
Vvmlinux
p1322
ss(Vdescription
p1323
g1305
NVriscv64
p1324
tp1325
(dp1326
Vhardware
p1327
V64-bit RISC-V platforms
p1328
sVhardware-long
p1329
V64-bit RISC-V platforms
p1330
ss(Vbase
p1331
g1305
Vnone
p1332
tp1333
(dp1334
Vflavours
p1335
(lp1336
Vriscv64
p1337
ass(Vbase
p1338
Vs390
p1339
tp1340
(dp1341
Vkernel-arch
p1342
Vs390
p1343
sVfeaturesets
p1344
(lp1345
ss(Vbase
p1346
Vs390x
p1347
tp1348
(dp1349
Vkernel-arch
p1350
Vs390
p1351
sg157
(lp1352
g159
ass(Vbuild
p1353
g1347
tp1354
(dp1355
Vimage-file
p1356
Varch/s390/boot/bzImage
p1357
sVvdso
p1358
I01
ss(Vimage
p1359
g1347
tp1360
(dp1361
Vbootloaders
p1362
(lp1363
Vs390-tools
p1364
asVinstall-stem
p1365
Vvmlinuz
p1366
ss(Vrelations
p1367
g1347
tp1368
(dp1369
Vheaders%gcc-8
p1370
Vlinux-compiler-gcc-8-s390
p1371
ss(Vbuild
p1372
g1347
NVs390x
p1373
tp1374
(dp1375
Vdebug-info
p1376
I01
ss(Vdescription
p1377
g1347
NVs390x
p1378
tp1379
(dp1380
Vhardware
p1381
VIBM zSeries
p1382
ss(g188
g1347
g159
tp1383
(dp1384
g191
(lp1385
Vs390x
p1386
asg195
I01
ss(Vbase
p1387
Vsh3
p1388
tp1389
(dp1390
Vkernel-arch
p1391
Vsh
p1392
sVfeaturesets
p1393
(lp1394
ss(Vbase
p1395
Vsh4
p1396
tp1397
(dp1398
Vkernel-arch
p1399
Vsh
p1400
sg157
(lp1401
g159
ass(Vbuild
p1402
g1396
tp1403
(dp1404
Vimage-file
p1405
Varch/sh/boot/zImage
p1406
ss(Vimage
p1407
g1396
tp1408
(dp1409
Vinstall-stem
p1410
Vvmlinuz
p1411
ss(Vdescription
p1412
g1396
NVsh7751r
p1413
tp1414
(dp1415
Vhardware
p1416
Vsh7751r
p1417
sVhardware-long
p1418
VRenesas SH7751R R2D plus board
p1419
ss(Vdescription
p1420
g1396
NVsh7785lcr
p1421
tp1422
(dp1423
Vhardware
p1424
Vsh7785lcr
p1425
sVhardware-long
p1426
VRenesas SH7785 reference board
p1427
ss(Vimage
p1428
g1396
NVsh7785lcr
p1429
tp1430
(dp1431
Vrecommends
p1432
Vu-boot-tools
p1433
sVcheck-size
p1434
L4194304L
ss(g188
g1396
g159
tp1435
(dp1436
g191
(lp1437
Vsh7751r
p1438
aVsh7785lcr
p1439
asg195
I01
ss(Vbase
p1440
Vsparc
p1441
tp1442
(dp1443
Vkernel-arch
p1444
Vsparc
p1445
sVfeaturesets
p1446
(lp1447
ss(Vbase
p1448
Vsparc64
p1449
tp1450
(dp1451
Vkernel-arch
p1452
Vsparc
p1453
sg157
(lp1454
g159
ass(Vbuild
p1455
g1449
tp1456
(dp1457
Vimage-file
p1458
Varch/sparc/boot/zImage
p1459
ss(Vimage
p1460
g1449
tp1461
(dp1462
Vconfigs
p1463
(lp1464
sVsuggests
p1465
Vsilo, fdutils
p1466
sVinstall-stem
p1467
Vvmlinuz
p1468
ss(Vdescription
p1469
g1449
NVsparc64
p1470
tp1471
(dp1472
Vhardware
p1473
Vuniprocessor 64-bit UltraSPARC
p1474
ss(Vimage
p1475
g1449
NVsparc64
p1476
tp1477
(dp1478
Vconfigs
p1479
(lp1480
Vkernelarch-sparc/config-up
p1481
ass(Vdescription
p1482
g1449
NVsparc64-smp
p1483
tp1484
(dp1485
Vhardware
p1486
Vmultiprocessor 64-bit UltraSPARC
p1487
ss(Vimage
p1488
g1449
NVsparc64-smp
p1489
tp1490
(dp1491
Vconfigs
p1492
(lp1493
Vkernelarch-sparc/config-smp
p1494
ass(g188
g1449
g159
tp1495
(dp1496
g191
(lp1497
Vsparc64
p1498
aVsparc64-smp
p1499
asg195
I01
ss(Vbase
p1500
Vx32
p1501
tp1502
(dp1503
Vkernel-arch
p1504
Vx86
p1505
sVfeaturesets
p1506
(lp1507
ss(Vabi
p1508
NVrt
p1509
tp1510
(dp1511
Vignore-changes
p1512
(lp1513
V*
p1514
ass(Vdescription
p1515
Ng1509
tp1516
(dp1517
Vpart-long-rt
p1518
VThis kernel includes the PREEMPT_RT realtime patch set.
p1519
sVpart-short-rt
p1520
VPREEMPT_RT
p1521
sVparts
p1522
(lp1523
Vrt
p1524
ass(Vversion
p1525
tp1526
(dp1527
Vsource
p1528
V4.19.9-1kali1
p1529
sVupstream
p1530
V4.19
p1531
sVabiname_base
p1532
V4.19.0
p1533
sVabiname
p1534
V4.19.0-kali1
p1535
ss.