ccopy_reg
_reconstructor
p0
(cdebian_linux.config
ConfigCore
p1
c__builtin__
dict
p2
(dp3
(Vbase
p4
Vpowerpc
p5
Vnone
p6
tp7
(dp8
Vflavours
p9
(lp10
Vpowerpc
p11
aVpowerpc-smp
p12
aVpowerpc64
p13
asVimplicit-flavour
p14
I01
ss(Vdescription
p15
g5
NVpowerpc-smp
p16
tp17
(dp18
Vhardware
p19
Vmultiprocessor 32-bit PowerPC
p20
ss(Vbase
p21
Vs390
p22
tp23
(dp24
Vfeaturesets
p25
(lp26
sVkernel-arch
p27
Vs390
p28
ss(Vbase
p29
Vmips64
p30
tp31
(dp32
Vfeaturesets
p33
(lp34
g6
asVkernel-arch
p35
Vmips
p36
ss(Vdescription
p37
Varmel
p38
NVorion5x
p39
tp40
(dp41
Vhardware
p42
VMarvell Orion
p43
sVhardware-long
p44
VMarvell Orion 5181, 5182 and 5281 based systems (QNAP TS-109/TS-209, etc)
p45
ss(Vimage
p46
Vm68k
p47
tp48
(dp49
Vinstall-stem
p50
Vvmlinuz
p51
sVsuggests
p52
Vvmelilo, fdutils
p53
ss(Vdescription
p54
Varmhf
p55
NVarmmp-lpae
p56
tp57
(dp58
Vhardware
p59
VARMv7 multiplatform compatible SoCs supporting LPAE
p60
sVhardware-long
p61
VARMv7 multiplatform kernel supporting LPAE. See\u000ahttps://wiki.debian.org/DebianKernel/ARMMP for details of supported\u000aplatforms.
p62
ss(Vdescription
p63
Valpha
p64
NValpha-generic
p65
tp66
(dp67
Vhardware
p68
VAlpha
p69
sVhardware-long
p70
VDEC Alpha systems with extended kernel start address (Wildfire, Titan, Marvel)
p71
ss(Vbase
p72
Varm64
p73
Vnone
p74
tp75
(dp76
Vflavours
p77
(lp78
Varm64
p79
ass(Vbase
p80
g73
tp81
(dp82
Vfeaturesets
p83
(lp84
Vnone
p85
asVkernel-arch
p86
Varm64
p87
ss(Vbuild
p88
Vi386
p89
tp90
(dp91
Vimage-file
p92
Varch/x86/boot/bzImage
p93
ss(Vbuild
p94
Vppc64
p95
tp96
(dp97
Vimage-file
p98
Vvmlinux
p99
ss(Vbase
p100
Vmips64el
p101
tp102
(dp103
g33
(lp104
g6
asVkernel-arch
p105
Vmips
p106
ss(Vimage
p107
g73
NVarm64
p108
tp109
(dp110
s(Vimage
p111
g30
NV5kc-malta
p112
tp113
(dp114
Vconfigs
p115
(lp116
Vkernelarch-mips/config.5kc-malta
p117
ass(Vbase
p118
Vpowerpcspe
p119
tp120
(dp121
g33
(lp122
g6
asVkernel-arch
p123
Vpowerpc
p124
ss(Vdescription
p125
g101
NV5kc-malta
p126
tp127
(dp128
Vhardware
p129
VMIPS Malta
p130
sVhardware-long
p131
VMIPS Malta boards
p132
ss(Vbase
p133
Vppc64el
p134
tp135
(dp136
g33
(lp137
g6
asVkernel-arch
p138
Vpowerpc
p139
ss(Vbuild
p140
g47
tp141
(dp142
Vimage-file
p143
Vvmlinux.gz
p144
ss(Vdescription
p145
g89
tp146
(dp147
Vpart-long-pae
p148
VThis kernel requires PAE (Physical Address Extension).\u000aThis feature is supported by the Intel Pentium Pro/II/III/4/4M/D, Xeon,\u000aCore and Atom; AMD Geode NX, Athlon (K7), Duron, Opteron, Sempron,\u000aTurion or Phenom; Transmeta Efficeon; VIA C7; and some other processors.
p149
ss(Vbase
p150
g89
Vnone
p151
tp152
(dp153
Vflavours
p154
(lp155
V586
p156
aV686-pae
p157
ass(g4
g101
g6
tp158
(dp159
g9
(lp160
V5kc-malta
p161
aVloongson-3
p162
aVocteon
p163
asg14
I01
ss(Vrelations
p164
Vamd64
p165
tp166
(dp167
Vheaders%gcc-4.9
p168
Vlinux-compiler-gcc-4.9-x86
p169
ss(Vdescription
p170
Vmipsel
p171
NVloongson-3
p172
tp173
(dp174
Vhardware
p175
VLoongson 3A/3B
p176
sVhardware-long
p177
VLoongson 3A or 3B based systems (e.g. from Loongson or Lemote)
p178
ss(Vimage
p179
g30
NVocteon
p180
tp181
(dp182
Vconfigs
p183
(lp184
Vkernelarch-mips/config.octeon
p185
ass(Vimage
p186
g64
tp187
(dp188
Vinstall-stem
p189
Vvmlinuz
p190
sVsuggests
p191
Vaboot, fdutils
p192
ss(g4
Vhppa
p193
g6
tp194
(dp195
g9
(lp196
Vparisc
p197
aVparisc64-smp
p198
asg14
I01
ss(g4
g30
g6
tp199
(dp200
g9
(lp201
V5kc-malta
p202
aVocteon
p203
asg14
I01
ss(Vdescription
p204
g119
tp205
(dp206
Vhardware
p207
V32-bit PowerPC with SPE (instead of AltiVec) with SMP support
p208
ss(Vimage
p209
g89
tp210
(dp211
Vinstall-stem
p212
Vvmlinuz
p213
sVconfigs
p214
(lp215
sVbootloaders
p216
(lp217
Vgrub-pc
p218
aVextlinux
p219
ass(Vimage
p220
g55
NVarmmp-lpae
p221
tp222
(dp223
Vconfigs
p224
(lp225
Varmhf/config.armmp
p226
aVarmhf/config.lpae
p227
ass(Vimage
p228
g101
NVocteon
p229
tp230
(dp231
Vconfigs
p232
(lp233
Vkernelarch-mips/config.octeon
p234
ass(Vbase
p235
Vsparc
p236
tp237
(dp238
Vfeaturesets
p239
(lp240
sVkernel-arch
p241
Vsparc
p242
ss(Vdescription
p243
Vmips
p244
NV4kc-malta
p245
tp246
(dp247
Vhardware
p248
VMIPS Malta
p249
sVhardware-long
p250
VMIPS Malta boards
p251
ss(Vimage
p252
g119
tp253
(dp254
Vinstall-stem
p255
Vvmlinux
p256
sVsuggests
p257
Vmkvmlinuz
p258
ss(Vdescription
p259
g193
NVparisc64-smp
p260
tp261
(dp262
Vhardware
p263
Vmultiprocessor 64-bit PA-RISC
p264
sVhardware-long
p265
VHP PA-RISC 64-bit SMP systems with support for more than 4 GB RAM
p266
ss(Vbase
p267
g89
tp268
(dp269
Vfeaturesets
p270
(lp271
Vnone
p272
aVrt
p273
asVkernel-arch
p274
Vx86
p275
ss(Vbase
p276
g5
tp277
(dp278
g33
(lp279
g6
asVkernel-arch
p280
Vpowerpc
p281
ss(Vbase
p282
g47
tp283
(dp284
Vcompiler
p285
Vgcc-4.8
p286
sg33
(lp287
g6
asVcflags
p288
V-ffreestanding
p289
sVkernel-arch
p290
Vm68k
p291
ss(Vbase
p292
g244
tp293
(dp294
g33
(lp295
g6
asVkernel-arch
p296
Vmips
p297
ss(Vdescription
p298
g244
NV5kc-malta
p299
tp300
(dp301
Vhardware
p302
VMIPS Malta (64-bit)
p303
sVhardware-long
p304
VMIPS Malta boards (64-bit)
p305
ss(Vdescription
p306
g64
NValpha-smp
p307
tp308
(dp309
Vhardware
p310
VAlpha SMP
p311
sVhardware-long
p312
VDEC Alpha SMP systems with extended kernel start address (Wildfire, Titan, Marvel)
p313
ss(Vimage
p314
g171
tp315
(dp316
Vinstall-stem
p317
Vvmlinux
p318
ss(Vbase
p319
g64
tp320
(dp321
g33
(lp322
g6
asVkernel-arch
p323
Valpha
p324
ss(Vbase
p325
g89
Vrt
p326
tp327
(dp328
Vflavours
p329
(lp330
V686-pae
p331
ass(Vrelations
p332
Vs390x
p333
tp334
(dp335
Vheaders%gcc-4.8
p336
Vlinux-compiler-gcc-4.8-s390
p337
ss(Vimage
p338
g101
NV5kc-malta
p339
tp340
(dp341
Vconfigs
p342
(lp343
Vkernelarch-mips/config.5kc-malta
p344
ass(Vdescription
p345
g101
NVloongson-3
p346
tp347
(dp348
Vhardware
p349
VLoongson 3A/3B
p350
sVhardware-long
p351
VLoongson 3A or 3B based systems (e.g. from Loongson or Lemote)
p352
ss(Vimage
p353
g165
tp354
(dp355
Vinstall-stem
p356
Vvmlinuz
p357
sVconfigs
p358
(lp359
sVbootloaders
p360
(lp361
Vgrub-pc
p362
aVgrub-efi
p363
aVextlinux
p364
ass(Vdescription
p365
g171
NVloongson-2f
p366
tp367
(dp368
Vhardware
p369
VLoongson 2F
p370
sVhardware-long
p371
VLemote Loongson 2F systems
p372
ss(Vbuild
p373
g193
tp374
(dp375
Vimage-file
p376
Vvmlinux
p377
ss(Vbuild
p378
g89
NV686-pae
p379
tp380
(dp381
Vdebug-info
p382
I01
ss(Vimage
p383
g134
tp384
(dp385
Vinstall-stem
p386
Vvmlinux
p387
sVconfigs
p388
(lp389
sVsuggests
p390
Vmkvmlinuz
p391
ss(Vdescription
p392
g38
NVversatile
p393
tp394
(dp395
Vhardware
p396
VVersatile
p397
sVhardware-long
p398
VVersatile systems (PB, AB, Qemu)
p399
ss(Vdescription
p400
g193
NVparisc
p401
tp402
(dp403
Vhardware
p404
V32-bit PA-RISC
p405
sVhardware-long
p406
VHP PA-RISC 32-bit systems with max 4 GB RAM
p407
ss(Vimage
p408
g244
NVocteon
p409
tp410
(dp411
Vconfigs
p412
(lp413
Vkernelarch-mips/config.octeon
p414
ass(Vimage
p415
g244
NV5kc-malta
p416
tp417
(dp418
Vconfigs
p419
(lp420
Vkernelarch-mips/config.5kc-malta
p421
ass(g4
Vsh4
p422
g6
tp423
(dp424
g9
(lp425
Vsh7751r
p426
aVsh7785lcr
p427
asg14
I01
ss(g4
g171
g6
tp428
(dp429
g9
(lp430
V4kc-malta
p431
aV5kc-malta
p432
aVloongson-2e
p433
aVloongson-2f
p434
aVloongson-3
p435
asg14
I01
ss(Vbuild
p436
g333
tp437
(dp438
Vimage-file
p439
Varch/s390/boot/image
p440
ss(Vbase
p441
g38
tp442
(dp443
g33
(lp444
g6
asVkernel-arch
p445
Varm
p446
ss(Vimage
p447
g193
tp448
(dp449
Vinstall-stem
p450
Vvmlinux
p451
sVsuggests
p452
Vpalo
p453
ss(Vbase
p454
g165
Vrt
p455
tp456
(dp457
Vflavours
p458
(lp459
Vamd64
p460
ass(Vbase
p461
tp462
(dp463
Vcompiler
p464
Vgcc-4.9
p465
sVfeaturesets
p466
(lp467
Vnone
p468
aVrt
p469
asVarches
p470
(lp471
Valpha
p472
aVamd64
p473
aVarm64
p474
aVarmel
p475
aVarmhf
p476
aVhppa
p477
aVi386
p478
aVm68k
p479
aVmips
p480
aVmipsel
p481
aVmips64
p482
aVmips64el
p483
aVor1k
p484
aVpowerpc
p485
aVpowerpcspe
p486
aVppc64
p487
aVppc64el
p488
aVs390
p489
aVs390x
p490
aVsh4
p491
aVsparc
p492
aVsparc64
p493
aVx32
p494
ass(Vimage
p495
g38
NVorion5x
p496
tp497
(dp498
Vrecommends
p499
Vu-boot-tools
p500
sVconfigs
p501
(lp502
Varmel/config-reduced
p503
aVarmel/config.orion5x
p504
asVcheck-size
p505
L2097080L
sVcheck-size-with-dtb
p506
I01
ss(Vimage
p507
g38
tp508
(dp509
Vinstall-stem
p510
Vvmlinuz
p511
sVconfigs
p512
(lp513
Vkernelarch-arm/config
p514
aVarmel/config
p515
asVsuggests
p516
Vfdutils
p517
ss(Vimage
p518
g101
NVloongson-3
p519
tp520
(dp521
Vconfigs
p522
(lp523
Vkernelarch-mips/config.loongson-3
p524
ass(g4
g134
g6
tp525
(dp526
g9
(lp527
Vpowerpc64le
p528
asg14
I01
ss(Vdescription
p529
g38
NVkirkwood
p530
tp531
(dp532
Vhardware
p533
VMarvell Kirkwood
p534
sVhardware-long
p535
VMarvell Kirkwood based systems (SheevaPlug, QNAP TS-119/TS-219, etc)
p536
ss(Vdescription
p537
NVrt
p538
tp539
(dp540
Vpart-long-rt
p541
VThis kernel includes the PREEMPT_RT realtime patch set.
p542
sVpart-short-rt
p543
VPREEMPT_RT
p544
sVparts
p545
(lp546
Vrt
p547
ass(Vabi
p548
Ng538
tp549
(dp550
Vignore-changes
p551
(lp552
V*
p553
ass(Vabi
p554
tp555
(dp556
Vignore-changes
p557
(lp558
Vmodule:drivers/mmc/host/*
p559
aVmodule:drivers/net/wireless/*
p560
aVsdhci_pci_o2_*
p561
asVabiname
p562
V1
p563
ss(Vdescription
p564
g30
NVocteon
p565
tp566
(dp567
Vhardware
p568
VOcteon
p569
sVhardware-long
p570
VCavium Networks Octeon
p571
ss(Vrelations
p572
g193
tp573
(dp574
Vgcc-4.9
p575
Vgcc-4.9, binutils-hppa64, gcc-4.9-hppa64
p576
ss(Vrelations
p577
tp578
(dp579
Vinitramfs-tools
p580
Vinitramfs-tools (>= 0.110~)
p581
sVgcc-4.9
p582
Vgcc-4.9
p583
sVgcc-4.6
p584
Vgcc-4.6
p585
sVgcc-4.7
p586
Vgcc-4.7
p587
sVgcc-4.8
p588
Vgcc-4.8
p589
sVinitramfs-fallback
p590
Vlinux-initramfs-tool
p591
ss(Vbuild
p592
g5
tp593
(dp594
Vimage-file
p595
Vvmlinux
p596
ss(Vbase
p597
Vx32
p598
tp599
(dp600
Vfeaturesets
p601
(lp602
sVkernel-arch
p603
Vx86
p604
ss(Vimage
p605
g171
NVloongson-3
p606
tp607
(dp608
Vconfigs
p609
(lp610
Vkernelarch-mips/config.loongson-3
p611
ass(Vimage
p612
Vsparc64
p613
tp614
(dp615
Vinstall-stem
p616
Vvmlinuz
p617
sVconfigs
p618
(lp619
sVsuggests
p620
Vsilo, fdutils
p621
ss(Vimage
p622
g101
tp623
(dp624
Vinstall-stem
p625
Vvmlinux
p626
ss(Vdescription
p627
g5
NVpowerpc
p628
tp629
(dp630
Vhardware
p631
Vuniprocessor 32-bit PowerPC
p632
ss(Vimage
p633
g38
NVkirkwood
p634
tp635
(dp636
Vrecommends
p637
Vu-boot-tools
p638
sVconfigs
p639
(lp640
Varmel/config-reduced
p641
aVarmel/config.kirkwood
p642
asVbreaks
p643
Vflash-kernel (<< 3.37~)
p644
sVcheck-size
p645
L2097080L
sVcheck-size-with-dtb
p646
I01
ss(Vimage
p647
g422
tp648
(dp649
Vinstall-stem
p650
Vvmlinuz
p651
sVsuggests
p652
Vfdutils
p653
ss(Vbuild
p654
g55
tp655
(dp656
Vimage-file
p657
Varch/arm/boot/zImage
p658
ss(Vrelations
p659
g55
tp660
(dp661
Vheaders%gcc-4.9
p662
Vlinux-compiler-gcc-4.9-arm
p663
ss(Vbase
p664
Vor1k
p665
tp666
(dp667
Vfeaturesets
p668
(lp669
sVkernel-arch
p670
Vopenrisc
p671
ss(Vdescription
p672
g171
NV4kc-malta
p673
tp674
(dp675
Vhardware
p676
VMIPS Malta
p677
sVhardware-long
p678
VMIPS Malta boards
p679
ss(Vdescription
p680
g73
NVarm64
p681
tp682
(dp683
Vhardware
p684
V64-bit ARMv8 machines
p685
ss(Vimage
p686
g613
NVsparc64-smp
p687
tp688
(dp689
Vconfigs
p690
(lp691
Vkernelarch-sparc/config-smp
p692
ass(Vdescription
p693
g165
NVamd64
p694
tp695
(dp696
Vhardware
p697
V64-bit PCs
p698
sVhardware-long
p699
VPCs with AMD64, Intel 64 or VIA Nano processors
p700
ss(Vimage
p701
g5
NVpowerpc-smp
p702
tp703
(dp704
Vconfigs
p705
(lp706
Vpowerpc/config.powerpc
p707
aVpowerpc/config.powerpc-smp
p708
ass(Vbuild
p709
g171
tp710
(dp711
Vimage-file
p712
Vvmlinux
p713
ss(Vimage
p714
g613
NVsparc64
p715
tp716
(dp717
Vconfigs
p718
(lp719
Vkernelarch-sparc/config-up
p720
ass(Vdescription
p721
g47
NVm68k
p722
tp723
(dp724
Vhardware
p725
VMotorola MC68020+ family
p726
ss(Vbase
p727
g165
tp728
(dp729
Vfeaturesets
p730
(lp731
Vnone
p732
aVrt
p733
asVkernel-arch
p734
Vx86
p735
ss(Vdescription
p736
g422
NVsh7751r
p737
tp738
(dp739
Vhardware
p740
Vsh7751r
p741
sVhardware-long
p742
VRenesas SH7751R R2D plus board
p743
ss(Vbuild
p744
g165
tp745
(dp746
Vimage-file
p747
Varch/x86/boot/bzImage
p748
sVdebug-info
p749
I01
ss(Vimage
p750
g171
NVloongson-2f
p751
tp752
(dp753
Vrecommends
p754
Vlibc6-loongson2f
p755
sVconfigs
p756
(lp757
Vkernelarch-mips/config.loongson-2f
p758
ass(Vbuild
p759
g73
tp760
(dp761
Vimage-file
p762
Varch/arm64/boot/Image
p763
sVdebug-info
p764
I01
ss(Vbuild
p765
g101
tp766
(dp767
Vimage-file
p768
Vvmlinux
p769
ss(Vbase
p770
g95
tp771
(dp772
g33
(lp773
g6
asVkernel-arch
p774
Vpowerpc
p775
ss(Vbuild
p776
g613
tp777
(dp778
Vimage-file
p779
Varch/sparc/boot/zImage
p780
ss(Vbuild
p781
g244
tp782
(dp783
Vimage-file
p784
Vvmlinux
p785
ss(Vbuild
p786
g64
tp787
(dp788
Vimage-file
p789
Varch/alpha/boot/vmlinux.gz
p790
ss(Vimage
p791
g89
NV686-pae
p792
tp793
(dp794
Vrecommends
p795
Vlibc6-i686
p796
sVconfigs
p797
(lp798
Vkernelarch-x86/config-arch-32
p799
aVi386/config.686-pae
p800
ass(Vrelations
p801
g89
tp802
(dp803
Vheaders%gcc-4.9
p804
Vlinux-compiler-gcc-4.9-x86
p805
ss(Vxen
p806
g165
Vnone
p807
Vamd64
p808
tp809
(dp810
Vflavours
p811
(lp812
Vamd64
p813
ass(Vimage
p814
tp815
(dp816
Vtype
p817
Vplain
p818
sVinitramfs-generators
p819
(lp820
Vinitramfs-tools
p821
aVinitramfs-fallback
p822
ass(g4
g333
g6
tp823
(dp824
g9
(lp825
Vs390x
p826
asg14
I01
ss(g4
g95
g6
tp827
(dp828
g9
(lp829
Vpowerpc64
p830
asg14
I01
ss(Vbase
p831
g613
tp832
(dp833
g33
(lp834
g6
asVkernel-arch
p835
Vsparc
p836
ss(Vbuild
p837
g38
tp838
(dp839
Vimage-file
p840
Varch/arm/boot/zImage
p841
ss(Vbuild
p842
g30
tp843
(dp844
Vimage-file
p845
Vvmlinux
p846
ss(Vdescription
p847
tp848
(dp849
Vpart-long-up
p850
VThis kernel is not suitable for SMP (multi-processor,\u000amulti-core or hyper-threaded) systems.
p851
sVpart-long-xen
p852
VThis kernel also runs on a Xen hypervisor.\u000aIt supports both privileged (dom0) and unprivileged (domU) operation.
p853
ss(Vdescription
p854
g165
g807
Vamd64
p855
tp856
(dp857
Vparts
p858
(lp859
Vxen
p860
ass(Vimage
p861
g55
tp862
(dp863
Vinstall-stem
p864
Vvmlinuz
p865
sVconfigs
p866
(lp867
Vkernelarch-arm/config
p868
asVsuggests
p869
Vfdutils
p870
ss(Vbase
p871
g193
NVparisc64-smp
p872
tp873
(dp874
Voverride-host-type
p875
Vhppa64-linux-gnu
p876
sVcflags
p877
V-fno-cse-follow-jumps
p878
ss(g4
g64
g6
tp879
(dp880
g9
(lp881
Valpha-generic
p882
aValpha-smp
p883
asg14
I01
ss(Vimage
p884
g171
NV4kc-malta
p885
tp886
(dp887
Vconfigs
p888
(lp889
Vkernelarch-mips/config.4kc-malta
p890
ass(Vimage
p891
g5
tp892
(dp893
Vinstall-stem
p894
Vvmlinux
p895
sVconfigs
p896
(lp897
sVsuggests
p898
Vmkvmlinuz
p899
ss(Vimage
p900
g165
NVamd64
p901
tp902
(dp903
Vconfigs
p904
(lp905
Vkernelarch-x86/config-arch-64
p906
ass(Vdescription
p907
g613
NVsparc64-smp
p908
tp909
(dp910
Vhardware
p911
Vmultiprocessor 64-bit UltraSPARC
p912
ss(Vimage
p913
g73
tp914
(dp915
Vinstall-stem
p916
Vvmlinuz
p917
ss(Vdescription
p918
g244
NVocteon
p919
tp920
(dp921
Vhardware
p922
VOcteon
p923
sVhardware-long
p924
VCavium Networks Octeon
p925
ss(Vbuild
p926
g134
tp927
(dp928
Vimage-file
p929
Vvmlinux
p930
ss(Vbase
p931
g55
tp932
(dp933
g33
(lp934
g6
asVkernel-arch
p935
Varm
p936
ss(Vbase
p937
g333
tp938
(dp939
g33
(lp940
g6
asVkernel-arch
p941
Vs390
p942
ss(Vdescription
p943
g171
NVloongson-2e
p944
tp945
(dp946
Vhardware
p947
VLoongson 2E
p948
sVhardware-long
p949
VLemote Loongson 2E systems
p950
ss(Vbase
p951
g422
tp952
(dp953
g33
(lp954
g6
asVkernel-arch
p955
Vsh
p956
ss(g4
g47
g6
tp957
(dp958
g9
(lp959
Vm68k
p960
asg14
I01
ss(Vbase
p961
NVrt
p962
tp963
(dp964
Venabled
p965
I00
ss(Vimage
p966
g95
NVpowerpc64
p967
tp968
(dp969
Vconfigs
p970
(lp971
Vkernelarch-powerpc/config-arch-64
p972
aVkernelarch-powerpc/config-arch-64-be
p973
ass(Vdescription
p974
g55
NVarmmp
p975
tp976
(dp977
Vhardware
p978
VARMv7 multiplatform compatible SoCs
p979
sVhardware-long
p980
VARMv7 multiplatform kernel. See\u000ahttps://wiki.debian.org/DebianKernel/ARMMP for details of supported\u000aplatforms
p981
ss(Vimage
p982
g5
NVpowerpc64
p983
tp984
(dp985
Vconfigs
p986
(lp987
Vkernelarch-powerpc/config-arch-64
p988
aVkernelarch-powerpc/config-arch-64-be
p989
ass(Vbase
p990
g193
tp991
(dp992
g33
(lp993
g6
asVkernel-arch
p994
Vparisc
p995
ss(g4
g38
g6
tp996
(dp997
g9
(lp998
Vkirkwood
p999
aVorion5x
p1000
aVversatile
p1001
asg14
I01
ss(Vimage
p1002
g422
NVsh7785lcr
p1003
tp1004
(dp1005
Vrecommends
p1006
Vu-boot-tools
p1007
sVcheck-size
p1008
L4194304L
ss(Vbase
p1009
g165
g807
tp1010
(dp1011
Vflavours
p1012
(lp1013
Vamd64
p1014
ass(Vdescription
p1015
g89
NV686-pae
p1016
tp1017
(dp1018
Vhardware
p1019
Vmodern PCs
p1020
sVhardware-long
p1021
VPCs with one or more processors supporting PAE
p1022
sVparts
p1023
(lp1024
Vpae
p1025
ass(Vimage
p1026
g244
tp1027
(dp1028
Vinstall-stem
p1029
Vvmlinux
p1030
ss(Vimage
p1031
g333
tp1032
(dp1033
Vinstall-stem
p1034
Vvmlinuz
p1035
sVconfigs
p1036
(lp1037
sVbootloaders
p1038
(lp1039
Vs390-tools
p1040
ass(Vimage
p1041
g134
NVpowerpc64le
p1042
tp1043
(dp1044
Vconfigs
p1045
(lp1046
Vkernelarch-powerpc/config-arch-64
p1047
aVkernelarch-powerpc/config-arch-64-le
p1048
ass(Vdescription
p1049
g333
NVs390x
p1050
tp1051
(dp1052
Vhardware
p1053
VIBM zSeries
p1054
ss(g4
g55
g6
tp1055
(dp1056
g9
(lp1057
Varmmp
p1058
aVarmmp-lpae
p1059
asg14
I01
ss(Vimage
p1060
g244
NV4kc-malta
p1061
tp1062
(dp1063
Vconfigs
p1064
(lp1065
Vkernelarch-mips/config.4kc-malta
p1066
ass(Vversion
p1067
tp1068
(dp1069
Vsource
p1070
V4.2.5-1
p1071
sVabiname_base
p1072
V4.2.0
p1073
sVupstream
p1074
V4.2
p1075
sVabiname
p1076
V4.2.0-1
p1077
ss(Vdescription
p1078
g101
NVocteon
p1079
tp1080
(dp1081
Vhardware
p1082
VOcteon
p1083
sVhardware-long
p1084
VCavium Networks Octeon
p1085
ss(Vimage
p1086
g171
NV5kc-malta
p1087
tp1088
(dp1089
Vconfigs
p1090
(lp1091
Vkernelarch-mips/config.5kc-malta
p1092
ass(Vimage
p1093
g171
NVloongson-2e
p1094
tp1095
(dp1096
Vconfigs
p1097
(lp1098
Vkernelarch-mips/config.loongson-2e
p1099
ass(Vbase
p1100
g171
tp1101
(dp1102
g33
(lp1103
g6
asVkernel-arch
p1104
Vmips
p1105
ss(Vbuild
p1106
g333
NVs390x
p1107
tp1108
(dp1109
Vdebug-info
p1110
I01
ss(Vdescription
p1111
g5
NVpowerpc64
p1112
tp1113
(dp1114
Vhardware
p1115
V64-bit PowerPC
p1116
ss(Vimage
p1117
g30
tp1118
(dp1119
Vinstall-stem
p1120
Vvmlinux
p1121
ss(Vdescription
p1122
g422
NVsh7785lcr
p1123
tp1124
(dp1125
Vhardware
p1126
Vsh7785lcr
p1127
sVhardware-long
p1128
VRenesas SH7785 reference board
p1129
ss(Vdescription
p1130
g95
NVpowerpc64
p1131
tp1132
(dp1133
Vhardware
p1134
V64-bit PowerPC
p1135
ss(g4
g613
g6
tp1136
(dp1137
g9
(lp1138
Vsparc64
p1139
aVsparc64-smp
p1140
asg14
I01
ss(g4
g244
g6
tp1141
(dp1142
g9
(lp1143
V4kc-malta
p1144
aV5kc-malta
p1145
aVocteon
p1146
asg14
I01
ss(g4
g119
g6
tp1147
(dp1148
g9
(lp1149
Vpowerpcspe
p1150
asg14
I01
ss(Vbuild
p1151
g119
tp1152
(dp1153
Vimage-file
p1154
Vvmlinux
p1155
ss(Vdescription
p1156
g30
NV5kc-malta
p1157
tp1158
(dp1159
Vhardware
p1160
VMIPS Malta
p1161
sVhardware-long
p1162
VMIPS Malta boards
p1163
ss(Vdescription
p1164
g89
NV586
p1165
tp1166
(dp1167
Vhardware
p1168
Volder PCs
p1169
sVhardware-long
p1170
VPCs with a single processor not supporting PAE
p1171
sVparts
p1172
(lp1173
Vup
p1174
ass(Vdescription
p1175
g613
NVsparc64
p1176
tp1177
(dp1178
Vhardware
p1179
Vuniprocessor 64-bit UltraSPARC
p1180
ss(Vbuild
p1181
g422
tp1182
(dp1183
Vimage-file
p1184
Varch/sh/boot/zImage
p1185
ss(Vimage
p1186
g89
NV586
p1187
tp1188
(dp1189
Vconfigs
p1190
(lp1191
Vkernelarch-x86/config-arch-32
p1192
aVi386/config.586
p1193
ass(Vrelations
p1194
g38
tp1195
(dp1196
Vheaders%gcc-4.9
p1197
Vlinux-compiler-gcc-4.9-arm
p1198
ss(Vimage
p1199
g95
tp1200
(dp1201
Vinstall-stem
p1202
Vvmlinux
p1203
sVconfigs
p1204
(lp1205
sVsuggests
p1206
Vmkvmlinuz
p1207
ss(Vdescription
p1208
g134
NVpowerpc64le
p1209
tp1210
(dp1211
Vhardware
p1212
VLittle-endian 64-bit PowerPC
p1213
ss(Vimage
p1214
g333
NVs390x
p1215
tp1216
(dp1217
Vconfigs
p1218
(lp1219
Vkernelarch-s390/config-arch-64
p1220
ass(Vdescription
p1221
g89
g151
V686-pae
p1222
tp1223
(dp1224
Vparts
p1225
(lp1226
Vxen
p1227
ass(Vdescription
p1228
g171
NV5kc-malta
p1229
tp1230
(dp1231
Vhardware
p1232
VMIPS Malta (64-bit)
p1233
sVhardware-long
p1234
VMIPS Malta boards (64-bit)
p1235
sstp1236
Rp1237
.