ccopy_reg
_reconstructor
p0
(cdebian_linux.config
ConfigCore
p1
c__builtin__
dict
p2
(dp3
(Vimage
p4
Vs390x
p5
NVs390x
p6
tp7
(dp8
Vconfigs
p9
(lp10
Vkernelarch-s390/config-arch-64
p11
ass(Vimage
p12
Vppc64
p13
tp14
(dp15
Vconfigs
p16
(lp17
sVinstall-stem
p18
Vvmlinux
p19
sVsuggests
p20
Vmkvmlinuz
p21
ss(Vbuild
p22
Varmhf
p23
tp24
(dp25
Vimage-file
p26
Varch/arm/boot/zImage
p27
ss(Vdescription
p28
Vamd64
p29
Vnone
p30
Vamd64
p31
tp32
(dp33
Vparts
p34
(lp35
Vxen
p36
ass(Vbase
p37
Vsparc64
p38
Vnone
p39
tp40
(dp41
Vimplicit-flavour
p42
I01
sVflavours
p43
(lp44
Vsparc64
p45
aVsparc64-smp
p46
ass(Vimage
p47
Vmips64el
p48
NVloongson-3
p49
tp50
(dp51
Vconfigs
p52
(lp53
Vkernelarch-mips/config.loongson-3
p54
ass(Vbuild
p55
Vmips
p56
tp57
(dp58
Vimage-file
p59
Vvmlinux
p60
ss(Vbuild
p61
Vmipsel
p62
tp63
(dp64
Vimage-file
p65
Vvmlinux
p66
ss(Vbuild
p67
g48
tp68
(dp69
Vimage-file
p70
Vvmlinux
p71
ss(Vdescription
p72
Vi386
p73
tp74
(dp75
Vpart-long-pae
p76
VThis kernel requires PAE (Physical Address Extension).\u000aThis feature is supported by the Intel Pentium Pro/II/III/4/4M/D, Xeon,\u000aCore and Atom; AMD Geode NX, Athlon (K7), Duron, Opteron, Sempron,\u000aTurion or Phenom; Transmeta Efficeon; VIA C7; and some other processors.
p77
ss(Vdescription
p78
Valpha
p79
NValpha-smp
p80
tp81
(dp82
Vhardware-long
p83
VDEC Alpha SMP systems with extended kernel start address (Wildfire, Titan, Marvel)
p84
sVhardware
p85
VAlpha SMP
p86
ss(g37
g13
g39
tp87
(dp88
g42
I01
sg43
(lp89
Vpowerpc64
p90
ass(Vimage
p91
g79
tp92
(dp93
Vsuggests
p94
Vaboot, fdutils
p95
sVinstall-stem
p96
Vvmlinuz
p97
ss(Vbase
p98
g29
Vrt
p99
tp100
(dp101
Vflavours
p102
(lp103
Vamd64
p104
ass(Vimage
p105
g5
tp106
(dp107
Vbootloaders
p108
(lp109
Vs390-tools
p110
asVinstall-stem
p111
Vvmlinuz
p112
sVconfigs
p113
(lp114
ss(Vimage
p115
g62
NV5kc-malta
p116
tp117
(dp118
Vconfigs
p119
(lp120
Vkernelarch-mips/config.5kc-malta
p121
ass(Vrelations
p122
g29
tp123
(dp124
Vheaders%gcc-5
p125
Vlinux-compiler-gcc-5-x86
p126
ss(Vbuild
p127
g13
tp128
(dp129
Vimage-file
p130
Vvmlinux
p131
ss(Vbase
p132
g29
g30
tp133
(dp134
Vflavours
p135
(lp136
Vamd64
p137
ass(Vbase
p138
Vppc64el
p139
tp140
(dp141
Vkernel-arch
p142
Vpowerpc
p143
sVfeaturesets
p144
(lp145
g39
ass(Vbase
p146
g38
tp147
(dp148
Vkernel-arch
p149
Vsparc
p150
sg144
(lp151
g39
ass(Vbase
p152
Vhppa
p153
tp154
(dp155
Vkernel-arch
p156
Vparisc
p157
sg144
(lp158
g39
ass(g37
g153
g39
tp159
(dp160
g42
I01
sg43
(lp161
Vparisc
p162
aVparisc64-smp
p163
ass(Vdescription
p164
Vpowerpc
p165
NVpowerpc-smp
p166
tp167
(dp168
Vhardware
p169
Vmultiprocessor 32-bit PowerPC
p170
ss(Vdescription
p171
Vsh4
p172
NVsh7785lcr
p173
tp174
(dp175
Vhardware-long
p176
VRenesas SH7785 reference board
p177
sVhardware
p178
Vsh7785lcr
p179
ss(Vdescription
p180
g73
NV686-pae
p181
tp182
(dp183
Vparts
p184
(lp185
Vpae
p186
asVhardware-long
p187
VPCs with one or more processors supporting PAE
p188
sVhardware
p189
Vmodern PCs
p190
ss(Vimage
p191
Vm68k
p192
tp193
(dp194
Vsuggests
p195
Vvmelilo, fdutils
p196
sVinstall-stem
p197
Vvmlinuz
p198
ss(Vxen
p199
g29
g30
Vamd64
p200
tp201
(dp202
Vflavours
p203
(lp204
Vamd64
p205
ass(Vdescription
p206
g13
NVpowerpc64
p207
tp208
(dp209
Vhardware
p210
V64-bit PowerPC
p211
ss(Vdescription
p212
Vmips64
p213
NV5kc-malta
p214
tp215
(dp216
Vhardware-long
p217
VMIPS Malta boards
p218
sVhardware
p219
VMIPS Malta
p220
ss(Vdescription
p221
g23
NVarmmp-lpae
p222
tp223
(dp224
Vhardware-long
p225
VARMv7 multiplatform kernel supporting LPAE. See\u000ahttps://wiki.debian.org/DebianKernel/ARMMP for details of supported\u000aplatforms.
p226
sVhardware
p227
VARMv7 multiplatform compatible SoCs supporting LPAE
p228
ss(Vimage
p229
Vpowerpcspe
p230
tp231
(dp232
Vsuggests
p233
Vmkvmlinuz
p234
sVinstall-stem
p235
Vvmlinux
p236
ss(Vbase
p237
g192
tp238
(dp239
Vcompiler
p240
Vgcc-4.8
p241
sg144
(lp242
g39
asVkernel-arch
p243
Vm68k
p244
sVcflags
p245
V-ffreestanding
p246
ss(Vbuild
p247
g139
tp248
(dp249
Vimage-file
p250
Vvmlinux
p251
ss(Vbuild
p252
g73
NV686-pae
p253
tp254
(dp255
Vdebug-info
p256
I01
ss(Vrelations
p257
g73
tp258
(dp259
Vheaders%gcc-5
p260
Vlinux-compiler-gcc-5-x86
p261
ss(g37
g213
g39
tp262
(dp263
g42
I01
sg43
(lp264
V5kc-malta
p265
aVocteon
p266
ass(Vbuild
p267
g192
tp268
(dp269
Vimage-file
p270
Vvmlinux.gz
p271
ss(Vimage
p272
g48
NV5kc-malta
p273
tp274
(dp275
Vconfigs
p276
(lp277
Vkernelarch-mips/config.5kc-malta
p278
ass(g37
g79
g39
tp279
(dp280
g42
I01
sg43
(lp281
Valpha-generic
p282
aValpha-smp
p283
ass(Vdescription
p284
g29
NVamd64
p285
tp286
(dp287
Vhardware-long
p288
VPCs with AMD64, Intel 64 or VIA Nano processors
p289
sVhardware
p290
V64-bit PCs
p291
ss(Vbase
p292
g62
tp293
(dp294
Vkernel-arch
p295
Vmips
p296
sg144
(lp297
g39
ass(Vabi
p298
NVrt
p299
tp300
(dp301
Vignore-changes
p302
(lp303
V*
p304
ass(Vimage
p305
g172
NVsh7785lcr
p306
tp307
(dp308
Vcheck-size
p309
L4194304L
sVrecommends
p310
Vu-boot-tools
p311
ss(Vimage
p312
g73
NV686
p313
tp314
(dp315
Vconfigs
p316
(lp317
Vkernelarch-x86/config-arch-32
p318
aVi386/config.686
p319
asVrecommends
p320
Vlibc6-i686
p321
ss(Vimage
p322
g62
NVloongson-3
p323
tp324
(dp325
Vconfigs
p326
(lp327
Vkernelarch-mips/config.loongson-3
p328
ass(Vimage
p329
g165
NVpowerpc-smp
p330
tp331
(dp332
Vconfigs
p333
(lp334
Vpowerpc/config.powerpc
p335
aVpowerpc/config.powerpc-smp
p336
ass(Vbuild
p337
g172
tp338
(dp339
Vimage-file
p340
Varch/sh/boot/zImage
p341
ss(Vbase
p342
g56
tp343
(dp344
Vkernel-arch
p345
Vmips
p346
sg144
(lp347
g39
ass(Vbase
p348
Vor1k
p349
tp350
(dp351
Vkernel-arch
p352
Vopenrisc
p353
sVfeaturesets
p354
(lp355
ss(Vbuild
p356
g5
NVs390x
p357
tp358
(dp359
Vdebug-info
p360
I01
ss(Vimage
p361
g62
NVloongson-2f
p362
tp363
(dp364
Vconfigs
p365
(lp366
Vkernelarch-mips/config.loongson-2f
p367
asVrecommends
p368
Vlibc6-loongson2f
p369
ss(Vimage
p370
Varmel
p371
NVkirkwood
p372
tp373
(dp374
Vconfigs
p375
(lp376
Varmel/config-reduced
p377
aVarmel/config.kirkwood
p378
asVcheck-size-with-dtb
p379
I01
sVbreaks
p380
Vflash-kernel (<< 3.37~)
p381
sVcheck-size
p382
L2097080L
sVrecommends
p383
Vu-boot-tools
p384
ss(Vimage
p385
Varm64
p386
tp387
(dp388
Vinstall-stem
p389
Vvmlinuz
p390
ss(Vdescription
p391
g79
NValpha-generic
p392
tp393
(dp394
Vhardware-long
p395
VDEC Alpha systems with extended kernel start address (Wildfire, Titan, Marvel)
p396
sVhardware
p397
VAlpha
p398
ss(Vdescription
p399
g23
NVarmmp
p400
tp401
(dp402
Vhardware-long
p403
VARMv7 multiplatform kernel. See\u000ahttps://wiki.debian.org/DebianKernel/ARMMP for details of supported\u000aplatforms
p404
sVhardware
p405
VARMv7 multiplatform compatible SoCs
p406
ss(Vimage
p407
g48
tp408
(dp409
Vinstall-stem
p410
Vvmlinux
p411
ss(Vbuild
p412
g5
tp413
(dp414
Vimage-file
p415
Varch/s390/boot/image
p416
ss(Vbase
p417
g79
tp418
(dp419
Vkernel-arch
p420
Valpha
p421
sg144
(lp422
g39
ass(Vdescription
p423
g165
NVpowerpc64
p424
tp425
(dp426
Vhardware
p427
V64-bit PowerPC
p428
ss(Vimage
p429
g386
NVarm64
p430
tp431
(dp432
s(g37
g371
g39
tp433
(dp434
g42
I01
sg43
(lp435
Vkirkwood
p436
aVorion5x
p437
aVversatile
p438
ass(Vbuild
p439
g213
tp440
(dp441
Vimage-file
p442
Vvmlinux
p443
ss(Vdescription
p444
g48
NVocteon
p445
tp446
(dp447
Vhardware-long
p448
VCavium Networks Octeon
p449
sVhardware
p450
VOcteon
p451
ss(g37
g165
g39
tp452
(dp453
g42
I01
sg43
(lp454
Vpowerpc
p455
aVpowerpc-smp
p456
aVpowerpc64
p457
ass(Vdescription
p458
g386
NVarm64
p459
tp460
(dp461
Vhardware
p462
V64-bit ARMv8 machines
p463
ss(Vdescription
p464
g38
NVsparc64-smp
p465
tp466
(dp467
Vhardware
p468
Vmultiprocessor 64-bit UltraSPARC
p469
ss(Vimage
p470
g165
tp471
(dp472
Vconfigs
p473
(lp474
sVinstall-stem
p475
Vvmlinux
p476
sVsuggests
p477
Vmkvmlinuz
p478
ss(Vdescription
p479
g5
NVs390x
p480
tp481
(dp482
Vhardware
p483
VIBM zSeries
p484
ss(Vbase
p485
g165
tp486
(dp487
Vkernel-arch
p488
Vpowerpc
p489
sg144
(lp490
g39
ass(Vimage
p491
g56
NV5kc-malta
p492
tp493
(dp494
Vconfigs
p495
(lp496
Vkernelarch-mips/config.5kc-malta
p497
ass(Vimage
p498
g29
tp499
(dp500
Vbootloaders
p501
(lp502
Vgrub-pc
p503
aVgrub-efi
p504
aVextlinux
p505
asVinstall-stem
p506
Vvmlinuz
p507
sVconfigs
p508
(lp509
sVbreaks
p510
Vxserver-xorg-input-vmmouse (<< 1:13.0.99)
p511
ss(Vimage
p512
g13
NVpowerpc64
p513
tp514
(dp515
Vconfigs
p516
(lp517
Vkernelarch-powerpc/config-arch-64
p518
aVkernelarch-powerpc/config-arch-64-be
p519
ass(Vimage
p520
g172
tp521
(dp522
Vsuggests
p523
Vfdutils
p524
sVinstall-stem
p525
Vvmlinuz
p526
ss(Vbase
p527
g73
Vrt
p528
tp529
(dp530
Vflavours
p531
(lp532
V686-pae
p533
ass(Vbase
p534
g172
tp535
(dp536
Vkernel-arch
p537
Vsh
p538
sg144
(lp539
g39
ass(Vbase
p540
g213
tp541
(dp542
Vkernel-arch
p543
Vmips
p544
sg144
(lp545
g39
ass(Vimage
p546
g56
NV4kc-malta
p547
tp548
(dp549
Vconfigs
p550
(lp551
Vkernelarch-mips/config.4kc-malta
p552
ass(Vdescription
p553
Ng299
tp554
(dp555
Vpart-short-rt
p556
VPREEMPT_RT
p557
sVparts
p558
(lp559
Vrt
p560
asVpart-long-rt
p561
VThis kernel includes the PREEMPT_RT realtime patch set.
p562
ss(Vbase
p563
g23
tp564
(dp565
Vkernel-arch
p566
Varm
p567
sg144
(lp568
g39
ass(g37
g56
g39
tp569
(dp570
g42
I01
sg43
(lp571
V4kc-malta
p572
aV5kc-malta
p573
aVocteon
p574
ass(Vdescription
p575
g153
NVparisc64-smp
p576
tp577
(dp578
Vhardware-long
p579
VHP PA-RISC 64-bit SMP systems with support for more than 4 GB RAM
p580
sVhardware
p581
Vmultiprocessor 64-bit PA-RISC
p582
ss(Vbase
p583
g5
tp584
(dp585
Vkernel-arch
p586
Vs390
p587
sg144
(lp588
g39
ass(g37
g230
g39
tp589
(dp590
g42
I01
sg43
(lp591
Vpowerpcspe
p592
ass(Vbase
p593
g73
Vnone
p594
tp595
(dp596
Vflavours
p597
(lp598
V686
p599
aV686-pae
p600
ass(Vimage
p601
g62
tp602
(dp603
Vinstall-stem
p604
Vvmlinux
p605
ss(Vdescription
p606
g48
NV5kc-malta
p607
tp608
(dp609
Vhardware-long
p610
VMIPS Malta boards
p611
sVhardware
p612
VMIPS Malta
p613
ss(Vdescription
p614
g371
NVorion5x
p615
tp616
(dp617
Vhardware-long
p618
VMarvell Orion 5181, 5182 and 5281 based systems (QNAP TS-109/TS-209, etc)
p619
sVhardware
p620
VMarvell Orion
p621
ss(Vbase
p622
Vs390
p623
tp624
(dp625
Vkernel-arch
p626
Vs390
p627
sVfeaturesets
p628
(lp629
ss(Vimage
p630
g38
NVsparc64-smp
p631
tp632
(dp633
Vconfigs
p634
(lp635
Vkernelarch-sparc/config-smp
p636
ass(Vdescription
p637
g172
NVsh7751r
p638
tp639
(dp640
Vhardware-long
p641
VRenesas SH7751R R2D plus board
p642
sVhardware
p643
Vsh7751r
p644
ss(Vimage
p645
g139
NVpowerpc64le
p646
tp647
(dp648
Vconfigs
p649
(lp650
Vkernelarch-powerpc/config-arch-64
p651
aVkernelarch-powerpc/config-arch-64-le
p652
ass(Vimage
p653
g38
tp654
(dp655
Vconfigs
p656
(lp657
sVinstall-stem
p658
Vvmlinuz
p659
sVsuggests
p660
Vsilo, fdutils
p661
ss(Vimage
p662
g213
NV5kc-malta
p663
tp664
(dp665
Vconfigs
p666
(lp667
Vkernelarch-mips/config.5kc-malta
p668
ass(g37
g172
g39
tp669
(dp670
g42
I01
sg43
(lp671
Vsh7751r
p672
aVsh7785lcr
p673
ass(Vdescription
p674
g230
tp675
(dp676
Vhardware
p677
V32-bit PowerPC with SPE (instead of AltiVec) with SMP support
p678
ss(Vbase
p679
g386
tp680
(dp681
Vkernel-arch
p682
Varm64
p683
sVfeaturesets
p684
(lp685
Vnone
p686
ass(Vimage
p687
g38
NVsparc64
p688
tp689
(dp690
Vconfigs
p691
(lp692
Vkernelarch-sparc/config-up
p693
ass(Vbase
p694
g29
tp695
(dp696
Vcompiler
p697
Vgcc-5
p698
sVkernel-arch
p699
Vx86
p700
sVfeaturesets
p701
(lp702
Vnone
p703
aVrt
p704
ass(Vimage
p705
g73
NV686-pae
p706
tp707
(dp708
Vconfigs
p709
(lp710
Vkernelarch-x86/config-arch-32
p711
aVi386/config.686-pae
p712
asVrecommends
p713
Vlibc6-i686
p714
ss(Vrelations
p715
g153
tp716
(dp717
Vgcc-4.9
p718
Vgcc-4.9 <!stage1>, binutils-hppa64 <!stage1>, gcc-4.9-hppa64 <!stage1>
p719
ss(Vimage
p720
g62
NVloongson-2e
p721
tp722
(dp723
Vconfigs
p724
(lp725
Vkernelarch-mips/config.loongson-2e
p726
ass(Vdescription
p727
g62
NVloongson-2f
p728
tp729
(dp730
Vhardware-long
p731
VLemote Loongson 2F systems
p732
sVhardware
p733
VLoongson 2F
p734
ss(Vversion
p735
tp736
(dp737
Vabiname_base
p738
V4.3.0
p739
sVsource
p740
V4.3.3-5kali2
p741
sVabiname
p742
V4.3.0-kali1
p743
sVupstream
p744
V4.3
p745
ss(Vimage
p746
g48
NVocteon
p747
tp748
(dp749
Vconfigs
p750
(lp751
Vkernelarch-mips/config.octeon
p752
ass(Vdescription
p753
g48
NVloongson-3
p754
tp755
(dp756
Vhardware-long
p757
VLoongson 3A or 3B based systems (e.g. from Loongson or Lemote)
p758
sVhardware
p759
VLoongson 3A/3B
p760
ss(Vdescription
p761
g165
NVpowerpc
p762
tp763
(dp764
Vhardware
p765
Vuniprocessor 32-bit PowerPC
p766
ss(Vimage
p767
g139
tp768
(dp769
Vconfigs
p770
(lp771
sVinstall-stem
p772
Vvmlinux
p773
sVsuggests
p774
Vmkvmlinuz
p775
ss(Vbase
p776
NVrt
p777
tp778
(dp779
Venabled
p780
I00
ss(Vdescription
p781
g73
NV686
p782
tp783
(dp784
Vhardware-long
p785
VPCs with one or more processors not supporting PAE
p786
sVhardware
p787
Volder PCs
p788
ss(g37
g192
g39
tp789
(dp790
g42
I01
sg43
(lp791
Vm68k
p792
ass(Vimage
p793
g73
tp794
(dp795
Vbootloaders
p796
(lp797
Vgrub-pc
p798
aVextlinux
p799
asVinstall-stem
p800
Vvmlinuz
p801
sVconfigs
p802
(lp803
sVbreaks
p804
Vxserver-xorg-input-vmmouse (<< 1:13.0.99)
p805
ss(Vdescription
p806
g213
NVocteon
p807
tp808
(dp809
Vhardware-long
p810
VCavium Networks Octeon
p811
sVhardware
p812
VOcteon
p813
ss(Vimage
p814
g371
NVorion5x
p815
tp816
(dp817
Vconfigs
p818
(lp819
Varmel/config-reduced
p820
aVarmel/config.orion5x
p821
asVcheck-size-with-dtb
p822
I01
sVcheck-size
p823
L2097080L
sVrecommends
p824
Vu-boot-tools
p825
ss(Vbuild
p826
g79
tp827
(dp828
Vimage-file
p829
Varch/alpha/boot/vmlinux.gz
p830
ss(Vimage
p831
g56
tp832
(dp833
Vinstall-stem
p834
Vvmlinux
p835
ss(Vbase
p836
g73
tp837
(dp838
Vcompiler
p839
Vgcc-5
p840
sVkernel-arch
p841
Vx86
p842
sVfeaturesets
p843
(lp844
Vnone
p845
aVrt
p846
ass(Vimage
p847
g153
tp848
(dp849
Vsuggests
p850
Vpalo
p851
sVinstall-stem
p852
Vvmlinux
p853
ss(Vimage
p854
g213
tp855
(dp856
Vinstall-stem
p857
Vvmlinux
p858
ss(Vimage
p859
g23
NVarmmp-lpae
p860
tp861
(dp862
Vconfigs
p863
(lp864
Varmhf/config.armmp
p865
aVarmhf/config.lpae
p866
ass(Vimage
p867
g56
NVocteon
p868
tp869
(dp870
Vconfigs
p871
(lp872
Vkernelarch-mips/config.octeon
p873
ass(g37
g62
g39
tp874
(dp875
g42
I01
sg43
(lp876
V4kc-malta
p877
aV5kc-malta
p878
aVloongson-2e
p879
aVloongson-2f
p880
aVloongson-3
p881
ass(Vdescription
p882
g56
NV4kc-malta
p883
tp884
(dp885
Vhardware-long
p886
VMIPS Malta boards
p887
sVhardware
p888
VMIPS Malta
p889
ss(Vbuild
p890
g29
tp891
(dp892
Vdebug-info
p893
I01
sVimage-file
p894
Varch/x86/boot/bzImage
p895
ss(Vimage
p896
g165
NVpowerpc64
p897
tp898
(dp899
Vconfigs
p900
(lp901
Vkernelarch-powerpc/config-arch-64
p902
aVkernelarch-powerpc/config-arch-64-be
p903
ass(g37
g5
g39
tp904
(dp905
g42
I01
sg43
(lp906
Vs390x
p907
ass(Vdescription
p908
g371
NVversatile
p909
tp910
(dp911
Vhardware-long
p912
VVersatile systems (PB, AB, Qemu)
p913
sVhardware
p914
VVersatile
p915
ss(Vbase
p916
g153
NVparisc64-smp
p917
tp918
(dp919
Voverride-host-type
p920
Vhppa64-linux-gnu
p921
sVcflags
p922
V-fno-cse-follow-jumps
p923
ss(g37
g139
g39
tp924
(dp925
g42
I01
sg43
(lp926
Vpowerpc64le
p927
ass(Vimage
p928
g62
NV4kc-malta
p929
tp930
(dp931
Vconfigs
p932
(lp933
Vkernelarch-mips/config.4kc-malta
p934
ass(Vdescription
p935
g192
NVm68k
p936
tp937
(dp938
Vhardware
p939
VMotorola MC68020+ family
p940
ss(Vbase
p941
tp942
(dp943
Varches
p944
(lp945
Valpha
p946
aVamd64
p947
aVarm64
p948
aVarmel
p949
aVarmhf
p950
aVhppa
p951
aVi386
p952
aVm68k
p953
aVmips
p954
aVmipsel
p955
aVmips64
p956
aVmips64el
p957
aVor1k
p958
aVpowerpc
p959
aVpowerpcspe
p960
aVppc64
p961
aVppc64el
p962
aVs390
p963
aVs390x
p964
aVsh4
p965
aVsparc
p966
aVsparc64
p967
aVx32
p968
asVcompiler
p969
Vgcc-4.9
p970
sVfeaturesets
p971
(lp972
Vnone
p973
aVrt
p974
ass(Vimage
p975
tp976
(dp977
Vinitramfs-generators
p978
(lp979
Vinitramfs-tools
p980
aVinitramfs-fallback
p981
asVtype
p982
Vplain
p983
ss(Vdescription
p984
g153
NVparisc
p985
tp986
(dp987
Vhardware-long
p988
VHP PA-RISC 32-bit systems with max 4 GB RAM
p989
sVhardware
p990
V32-bit PA-RISC
p991
ss(Vdescription
p992
g56
NVocteon
p993
tp994
(dp995
Vhardware-long
p996
VCavium Networks Octeon
p997
sVhardware
p998
VOcteon
p999
ss(Vdescription
p1000
g62
NVloongson-2e
p1001
tp1002
(dp1003
Vhardware-long
p1004
VLemote Loongson 2E systems
p1005
sVhardware
p1006
VLoongson 2E
p1007
ss(Vdescription
p1008
g62
NV5kc-malta
p1009
tp1010
(dp1011
Vhardware-long
p1012
VMIPS Malta boards (64-bit)
p1013
sVhardware
p1014
VMIPS Malta (64-bit)
p1015
ss(Vimage
p1016
g371
tp1017
(dp1018
Vsuggests
p1019
Vfdutils
p1020
sVinstall-stem
p1021
Vvmlinuz
p1022
sVconfigs
p1023
(lp1024
Vkernelarch-arm/config
p1025
aVarmel/config
p1026
ass(Vbase
p1027
g386
Vnone
p1028
tp1029
(dp1030
Vflavours
p1031
(lp1032
Varm64
p1033
ass(Vbase
p1034
g13
tp1035
(dp1036
Vkernel-arch
p1037
Vpowerpc
p1038
sg144
(lp1039
g39
ass(Vrelations
p1040
g23
tp1041
(dp1042
Vheaders%gcc-4.9
p1043
Vlinux-compiler-gcc-4.9-arm
p1044
ss(Vdescription
p1045
g73
g594
V686-pae
p1046
tp1047
(dp1048
Vparts
p1049
(lp1050
Vxen
p1051
ass(Vbuild
p1052
g230
tp1053
(dp1054
Vimage-file
p1055
Vvmlinux
p1056
ss(Vbuild
p1057
g73
tp1058
(dp1059
Vimage-file
p1060
Varch/x86/boot/bzImage
p1061
ss(Vbase
p1062
g371
tp1063
(dp1064
Vkernel-arch
p1065
Varm
p1066
sg144
(lp1067
g39
ass(Vdescription
p1068
g139
NVpowerpc64le
p1069
tp1070
(dp1071
Vhardware
p1072
VLittle-endian 64-bit PowerPC
p1073
ss(Vbase
p1074
Vsparc
p1075
tp1076
(dp1077
Vkernel-arch
p1078
Vsparc
p1079
sVfeaturesets
p1080
(lp1081
ss(Vbase
p1082
g48
tp1083
(dp1084
Vkernel-arch
p1085
Vmips
p1086
sg144
(lp1087
g39
ass(Vimage
p1088
g213
NVocteon
p1089
tp1090
(dp1091
Vconfigs
p1092
(lp1093
Vkernelarch-mips/config.octeon
p1094
ass(Vdescription
p1095
g56
NV5kc-malta
p1096
tp1097
(dp1098
Vhardware-long
p1099
VMIPS Malta boards (64-bit)
p1100
sVhardware
p1101
VMIPS Malta (64-bit)
p1102
ss(g37
g48
g39
tp1103
(dp1104
g42
I01
sg43
(lp1105
V5kc-malta
p1106
aVloongson-3
p1107
aVocteon
p1108
ass(Vbuild
p1109
g165
tp1110
(dp1111
Vimage-file
p1112
Vvmlinux
p1113
ss(Vimage
p1114
g23
tp1115
(dp1116
Vsuggests
p1117
Vfdutils
p1118
sVinstall-stem
p1119
Vvmlinuz
p1120
sVconfigs
p1121
(lp1122
Vkernelarch-arm/config
p1123
ass(Vbuild
p1124
g38
tp1125
(dp1126
Vimage-file
p1127
Varch/sparc/boot/zImage
p1128
ss(Vrelations
p1129
tp1130
(dp1131
Vgcc-4.8
p1132
Vgcc-4.8 <!stage1>
p1133
sVgcc-4.9
p1134
Vgcc-4.9 <!stage1>
p1135
sVinitramfs-fallback
p1136
Vlinux-initramfs-tool
p1137
sVgcc-5
p1138
Vgcc-5 <!stage1>
p1139
sVinitramfs-tools
p1140
Vinitramfs-tools (>= 0.110~)
p1141
ss(Vdescription
p1142
g371
NVkirkwood
p1143
tp1144
(dp1145
Vhardware-long
p1146
VMarvell Kirkwood based systems (SheevaPlug, QNAP TS-119/TS-219, etc)
p1147
sVhardware
p1148
VMarvell Kirkwood
p1149
ss(Vbuild
p1150
g371
tp1151
(dp1152
Vimage-file
p1153
Varch/arm/boot/zImage
p1154
ss(Vbuild
p1155
g153
tp1156
(dp1157
Vimage-file
p1158
Vvmlinux
p1159
ss(Vdescription
p1160
tp1161
(dp1162
Vpart-long-xen
p1163
VThis kernel also runs on a Xen hypervisor.\u000aIt supports both privileged (dom0) and unprivileged (domU) operation.
p1164
sVpart-long-up
p1165
VThis kernel is not suitable for SMP (multi-processor,\u000amulti-core or hyper-threaded) systems.
p1166
ss(Vdescription
p1167
g38
NVsparc64
p1168
tp1169
(dp1170
Vhardware
p1171
Vuniprocessor 64-bit UltraSPARC
p1172
ss(Vabi
p1173
tp1174
(dp1175
Vignore-changes
p1176
(lp1177
Vmodule:net/dccp/dccp
p1178
aVfl6_*
p1179
aVinet_sk_diag_fill
p1180
aVip6_append_data
p1181
aVip6_datagram_send_ctl
p1182
aVip6_xmit
p1183
aVipv6_dup_options
p1184
aVipv6_fixup_options
p1185
aVipv6_push_nfrag_opts
p1186
aVtcp_cong_avoid_ai
p1187
aVtcp_slow_start
p1188
aVpin_is_valid
p1189
aVpinctrl_*
p1190
asVabiname
p1191
Vkali1
p1192
ss(Vbase
p1193
Vx32
p1194
tp1195
(dp1196
Vkernel-arch
p1197
Vx86
p1198
sVfeaturesets
p1199
(lp1200
ss(Vbuild
p1201
g386
tp1202
(dp1203
Vdebug-info
p1204
I01
sVimage-file
p1205
Varch/arm64/boot/Image
p1206
ss(Vdescription
p1207
g62
NV4kc-malta
p1208
tp1209
(dp1210
Vhardware-long
p1211
VMIPS Malta boards
p1212
sVhardware
p1213
VMIPS Malta
p1214
ss(Vbase
p1215
g230
tp1216
(dp1217
Vkernel-arch
p1218
Vpowerpc
p1219
sg144
(lp1220
g39
ass(Vdescription
p1221
g62
NVloongson-3
p1222
tp1223
(dp1224
Vhardware-long
p1225
VLoongson 3A or 3B based systems (e.g. from Loongson or Lemote)
p1226
sVhardware
p1227
VLoongson 3A/3B
p1228
ss(Vrelations
p1229
g371
tp1230
(dp1231
Vheaders%gcc-4.9
p1232
Vlinux-compiler-gcc-4.9-arm
p1233
ss(Vimage
p1234
g29
NVamd64
p1235
tp1236
(dp1237
Vconfigs
p1238
(lp1239
Vkernelarch-x86/config-arch-64
p1240
ass(Vrelations
p1241
g5
tp1242
(dp1243
Vheaders%gcc-4.9
p1244
Vlinux-compiler-gcc-4.9-s390
p1245
ss(g37
g23
g39
tp1246
(dp1247
g42
I01
sg43
(lp1248
Varmmp
p1249
aVarmmp-lpae
p1250
asstp1251
Rp1252
.