ccopy_reg
_reconstructor
p0
(cdebian_linux.config
ConfigCore
p1
c__builtin__
dict
p2
(dp3
(Vbase
p4
Varmhf
p5
tp6
(dp7
Vfeaturesets
p8
(lp9
Vnone
p10
asVkernel-arch
p11
Varm
p12
ss(Vbase
p13
Vm68k
p14
g10
tp15
(dp16
Vimplicit-flavour
p17
I01
sVflavours
p18
(lp19
Vm68k
p20
ass(Vdescription
p21
Vmips64el
p22
NVocteon
p23
tp24
(dp25
Vhardware-long
p26
VCavium Networks Octeon
p27
sVhardware
p28
VOcteon
p29
ss(Vimage
p30
Valpha
p31
tp32
(dp33
Vinstall-stem
p34
Vvmlinuz
p35
sVsuggests
p36
Vaboot, fdutils
p37
ss(Vdescription
p38
Varmel
p39
NVmarvell
p40
tp41
(dp42
Vhardware-long
p43
VMarvell Kirkwood based systems (SheevaPlug, QNAP TS-119/TS-219, etc)\u000aand Orion 5181, 5182 and 5281 based systems (QNAP TS-109/TS-209, etc)
p44
sVhardware
p45
VMarvell Kirkwood/Orion
p46
ss(Vbase
p47
g14
tp48
(dp49
g8
(lp50
g10
asVkernel-arch
p51
Vm68k
p52
sVcflags
p53
V-ffreestanding
p54
ss(Vimage
p55
Vsparc64
p56
tp57
(dp58
Vinstall-stem
p59
Vvmlinuz
p60
sVsuggests
p61
Vsilo, fdutils
p62
sVconfigs
p63
(lp64
ss(Vdescription
p65
Vppc64el
p66
NVpowerpc64le
p67
tp68
(dp69
Vhardware
p70
VLittle-endian 64-bit PowerPC
p71
ss(Vbuild
p72
Vi386
p73
tp74
(dp75
Vimage-file
p76
Varch/x86/boot/bzImage
p77
sVvdso
p78
I01
ss(Vdescription
p79
Vmipsel
p80
NVocteon
p81
tp82
(dp83
Vhardware-long
p84
VCavium Networks Octeon
p85
sVhardware
p86
VOcteon
p87
ss(Vbuild
p88
g66
tp89
(dp90
Vimage-file
p91
Vvmlinux
p92
sVvdso
p93
I01
ss(Vabi
p94
NVrt
p95
tp96
(dp97
Vignore-changes
p98
(lp99
V*
p100
ass(Vimage
p101
Vpowerpc
p102
NVpowerpc64
p103
tp104
(dp105
Vconfigs
p106
(lp107
Vkernelarch-powerpc/config-arch-64
p108
aVkernelarch-powerpc/config-arch-64-be
p109
ass(Vdescription
p110
g5
NVarmmp
p111
tp112
(dp113
Vhardware-long
p114
VARMv7 multiplatform kernel. See\u000ahttps://wiki.debian.org/DebianKernel/ARMMP for details of supported\u000aplatforms
p115
sVhardware
p116
VARMv7 multiplatform compatible SoCs
p117
ss(Vbase
p118
g80
tp119
(dp120
g8
(lp121
g10
asVkernel-arch
p122
Vmips
p123
ss(Vdescription
p124
Vsh4
p125
NVsh7785lcr
p126
tp127
(dp128
Vhardware-long
p129
VRenesas SH7785 reference board
p130
sVhardware
p131
Vsh7785lcr
p132
ss(Vimage
p133
Vppc64
p134
tp135
(dp136
Vinstall-stem
p137
Vvmlinux
p138
sVsuggests
p139
Vmkvmlinuz
p140
sVconfigs
p141
(lp142
ss(Vbase
p143
g22
tp144
(dp145
g8
(lp146
g10
asVkernel-arch
p147
Vmips
p148
ss(g13
g66
g10
tp149
(dp150
g17
I01
sg18
(lp151
Vpowerpc64le
p152
ass(g13
g39
g10
tp153
(dp154
g17
I01
sg18
(lp155
Vmarvell
p156
aVversatile
p157
ass(g13
Vhppa
p158
g10
tp159
(dp160
g17
I01
sg18
(lp161
Vparisc
p162
aVparisc64-smp
p163
ass(Vimage
p164
Vmips
p165
tp166
(dp167
Vinstall-stem
p168
Vvmlinux
p169
ss(Vbuild
p170
g73
NV686-pae
p171
tp172
(dp173
Vdebug-info
p174
I01
ss(Vrelations
p175
Vamd64
p176
tp177
(dp178
Vheaders%gcc-5
p179
Vlinux-compiler-gcc-5-x86
p180
ss(Vbase
p181
g66
tp182
(dp183
g8
(lp184
g10
asVkernel-arch
p185
Vpowerpc
p186
ss(Vimage
p187
g80
NVocteon
p188
tp189
(dp190
Vconfigs
p191
(lp192
Vkernelarch-mips/config.octeon
p193
ass(Vbase
p194
g31
tp195
(dp196
g8
(lp197
g10
asVkernel-arch
p198
Valpha
p199
ss(g13
g5
g10
tp200
(dp201
g17
I01
sg18
(lp202
Varmmp
p203
aVarmmp-lpae
p204
ass(Vbuild
p205
tp206
(dp207
Vsigned-modules
p208
I01
ss(Vbase
p209
g39
tp210
(dp211
g8
(lp212
g10
asVkernel-arch
p213
Varm
p214
ss(Vbuild
p215
g165
tp216
(dp217
Vimage-file
p218
Vvmlinux
p219
sVsigned-modules
p220
I00
ss(Vdescription
p221
g165
NVocteon
p222
tp223
(dp224
Vhardware-long
p225
VCavium Networks Octeon
p226
sVhardware
p227
VOcteon
p228
ss(Vbase
p229
Vs390
p230
tp231
(dp232
Vfeaturesets
p233
(lp234
sVkernel-arch
p235
Vs390
p236
ss(Vabi
p237
g165
tp238
(dp239
Vignore-changes
p240
(lp241
V__flush_icache_page
p242
ass(Vdescription
p243
Vmips64
p244
NV5kc-malta
p245
tp246
(dp247
Vhardware-long
p248
VMIPS Malta boards
p249
sVhardware
p250
VMIPS Malta
p251
ss(Vimage
p252
g56
NVsparc64
p253
tp254
(dp255
Vconfigs
p256
(lp257
Vkernelarch-sparc/config-up
p258
ass(Vimage
p259
g80
NV5kc-malta
p260
tp261
(dp262
Vconfigs
p263
(lp264
Vkernelarch-mips/config.malta
p265
aVkernelarch-mips/config.mips64r1
p266
ass(Vbuild
p267
g39
tp268
(dp269
Vimage-file
p270
Varch/arm/boot/zImage
p271
ss(Vbase
p272
g73
Vnone
p273
tp274
(dp275
Vflavours
p276
(lp277
V686
p278
aV686-pae
p279
ass(Vimage
p280
tp281
(dp282
Vinitramfs-generators
p283
(lp284
Vinitramfs-tools
p285
aVinitramfs-fallback
p286
ass(Vrelations
p287
g5
tp288
(dp289
Vheaders%gcc-5
p290
Vlinux-compiler-gcc-5-arm
p291
ss(Vdescription
p292
g56
NVsparc64
p293
tp294
(dp295
Vhardware
p296
Vuniprocessor 64-bit UltraSPARC
p297
ss(g13
Vpowerpcspe
p298
g10
tp299
(dp300
g17
I01
sg18
(lp301
Vpowerpcspe
p302
ass(Vrelations
p303
tp304
(dp305
Vinitramfs-fallback
p306
Vlinux-initramfs-tool
p307
sVgcc-5
p308
Vgcc-5 <!stage1>
p309
sVinitramfs-tools
p310
Vinitramfs-tools (>= 0.110~)
p311
ss(Vimage
p312
g80
NVloongson-2e
p313
tp314
(dp315
Vconfigs
p316
(lp317
Vkernelarch-mips/config.loongson-2e
p318
ass(Vdescription
p319
g102
NVpowerpc64
p320
tp321
(dp322
Vhardware
p323
V64-bit PowerPC
p324
ss(Vimage
p325
Varm64
p326
NVarm64
p327
tp328
(dp329
s(Vrelations
p330
g158
tp331
(dp332
Vgcc-5
p333
Vgcc-5 <!stage1>, binutils-hppa64-linux-gnu <!stage1>, gcc-5-hppa64-linux-gnu <!stage1>
p334
ss(Vbase
p335
NVrt
p336
tp337
(dp338
Venabled
p339
I01
ss(Vabi
p340
g22
tp341
(dp342
Vignore-changes
p343
(lp344
V__flush_icache_page
p345
ass(Vimage
p346
g298
tp347
(dp348
Vinstall-stem
p349
Vvmlinux
p350
sVsuggests
p351
Vmkvmlinuz
p352
ss(Vimage
p353
g80
NV4kc-malta
p354
tp355
(dp356
Vconfigs
p357
(lp358
Vkernelarch-mips/config.malta
p359
aVkernelarch-mips/config.mips32r1
p360
ass(Vimage
p361
g244
NV5kc-malta
p362
tp363
(dp364
Vconfigs
p365
(lp366
Vkernelarch-mips/config.malta
p367
aVkernelarch-mips/config.mips64r2
p368
ass(Vbuild
p369
g56
tp370
(dp371
Vimage-file
p372
Varch/sparc/boot/zImage
p373
sVsigned-modules
p374
I00
ss(Vversion
p375
tp376
(dp377
Vabiname
p378
V4.6.0-kali1
p379
sVupstream
p380
V4.6
p381
sVabiname_base
p382
V4.6.0
p383
sVsource
p384
V4.6.2-1kali1
p385
ss(Vbuild
p386
g298
tp387
(dp388
Vimage-file
p389
Vvmlinux
p390
sVvdso
p391
I01
sVsigned-modules
p392
I00
ss(Vbase
p393
g176
Vrt
p394
tp395
(dp396
Vflavours
p397
(lp398
Vamd64
p399
ass(Vimage
p400
g165
NV4kc-malta
p401
tp402
(dp403
Vconfigs
p404
(lp405
Vkernelarch-mips/config.malta
p406
aVkernelarch-mips/config.mips32r2
p407
ass(Vbuild
p408
g39
NVmarvell
p409
tp410
(dp411
Vsigned-modules
p412
I00
ss(g13
g56
g10
tp413
(dp414
g17
I01
sg18
(lp415
Vsparc64
p416
aVsparc64-smp
p417
ass(Vimage
p418
g22
tp419
(dp420
Vinstall-stem
p421
Vvmlinux
p422
ss(Vbuild
p423
g31
tp424
(dp425
Vimage-file
p426
Varch/alpha/boot/vmlinux.gz
p427
sVsigned-modules
p428
I00
ss(Vimage
p429
g102
NVpowerpc-smp
p430
tp431
(dp432
Vconfigs
p433
(lp434
Vpowerpc/config.powerpc
p435
aVpowerpc/config.powerpc-smp
p436
ass(Vbase
p437
g176
Vnone
p438
tp439
(dp440
Vflavours
p441
(lp442
Vamd64
p443
ass(g13
g125
g10
tp444
(dp445
g17
I01
sg18
(lp446
Vsh7751r
p447
aVsh7785lcr
p448
ass(Vbase
p449
g326
Vnone
p450
tp451
(dp452
Vflavours
p453
(lp454
Varm64
p455
ass(Vdescription
p456
g158
NVparisc
p457
tp458
(dp459
Vhardware-long
p460
VHP PA-RISC 32-bit systems with max 4 GB RAM
p461
sVhardware
p462
V32-bit PA-RISC
p463
ss(Vdescription
p464
Ng95
tp465
(dp466
Vpart-long-rt
p467
VThis kernel includes the PREEMPT_RT realtime patch set.
p468
sVparts
p469
(lp470
Vrt
p471
asVpart-short-rt
p472
VPREEMPT_RT
p473
ss(Vdescription
p474
g22
NVloongson-3
p475
tp476
(dp477
Vhardware-long
p478
VLoongson 3A or 3B based systems (e.g. from Loongson or Lemote)
p479
sVhardware
p480
VLoongson 3A/3B
p481
ss(Vdescription
p482
g39
NVversatile
p483
tp484
(dp485
Vhardware-long
p486
VVersatile systems (PB, AB, Qemu)
p487
sVhardware
p488
VVersatile
p489
ss(Vimage
p490
g134
NVpowerpc64
p491
tp492
(dp493
Vconfigs
p494
(lp495
Vkernelarch-powerpc/config-arch-64
p496
aVkernelarch-powerpc/config-arch-64-be
p497
ass(Vdescription
p498
g22
NV5kc-malta
p499
tp500
(dp501
Vhardware-long
p502
VMIPS Malta boards
p503
sVhardware
p504
VMIPS Malta
p505
ss(Vimage
p506
g39
NVmarvell
p507
tp508
(dp509
Vrecommends
p510
Vu-boot-tools
p511
sVcheck-size-with-dtb
p512
I01
sVbreaks
p513
Vflash-kernel (<< 3.57~)
p514
sVcheck-size
p515
L2097080L
ss(Vdescription
p516
g73
NV686
p517
tp518
(dp519
Vhardware-long
p520
VPCs with one or more processors not supporting PAE
p521
sVhardware
p522
Volder PCs
p523
ss(Vbuild
p524
Vs390x
p525
NVs390x
p526
tp527
(dp528
Vdebug-info
p529
I01
ss(Vdescription
p530
g244
NVocteon
p531
tp532
(dp533
Vhardware-long
p534
VCavium Networks Octeon
p535
sVhardware
p536
VOcteon
p537
ss(Vxen
p538
g176
g438
Vamd64
p539
tp540
(dp541
Vflavours
p542
(lp543
Vamd64
p544
ass(Vbase
p545
Vmipsn32el
p546
tp547
(dp548
Vfeaturesets
p549
(lp550
sVkernel-arch
p551
Vmips
p552
ss(Vimage
p553
g22
NVloongson-3
p554
tp555
(dp556
Vconfigs
p557
(lp558
Vkernelarch-mips/config.loongson-3
p559
ass(Vbase
p560
Vx32
p561
tp562
(dp563
Vfeaturesets
p564
(lp565
sVkernel-arch
p566
Vx86
p567
ss(Vdescription
p568
g80
NV4kc-malta
p569
tp570
(dp571
Vhardware-long
p572
VMIPS Malta boards
p573
sVhardware
p574
VMIPS Malta
p575
ss(Vdescription
p576
g165
NV4kc-malta
p577
tp578
(dp579
Vhardware-long
p580
VMIPS Malta boards
p581
sVhardware
p582
VMIPS Malta
p583
ss(Vbase
p584
g134
tp585
(dp586
g8
(lp587
g10
asVkernel-arch
p588
Vpowerpc
p589
ss(g13
g102
g10
tp590
(dp591
g17
I01
sg18
(lp592
Vpowerpc
p593
aVpowerpc-smp
p594
aVpowerpc64
p595
ass(Vbuild
p596
g158
tp597
(dp598
Vimage-file
p599
Vvmlinux
p600
sVsigned-modules
p601
I00
ss(g13
g165
g10
tp602
(dp603
g17
I01
sg18
(lp604
V4kc-malta
p605
aV5kc-malta
p606
aVocteon
p607
ass(Vimage
p608
g125
tp609
(dp610
Vinstall-stem
p611
Vvmlinuz
p612
ss(Vdescription
p613
g102
NVpowerpc-smp
p614
tp615
(dp616
Vhardware
p617
Vmultiprocessor 32-bit PowerPC
p618
ss(Vdescription
p619
g165
NV5kc-malta
p620
tp621
(dp622
Vhardware-long
p623
VMIPS Malta boards (64-bit)
p624
sVhardware
p625
VMIPS Malta (64-bit)
p626
ss(Vbuild
p627
g80
tp628
(dp629
Vimage-file
p630
Vvmlinux
p631
sVsigned-modules
p632
I00
ss(Vbase
p633
g244
tp634
(dp635
g8
(lp636
g10
asVkernel-arch
p637
Vmips
p638
ss(Vdescription
p639
tp640
(dp641
Vpart-long-xen
p642
VThis kernel also runs on a Xen hypervisor.\u000aIt supports both privileged (dom0) and unprivileged (domU) operation.
p643
sVpart-long-up
p644
VThis kernel is not suitable for SMP (multi-processor,\u000amulti-core or hyper-threaded) systems.
p645
ss(Vimage
p646
g165
NV5kc-malta
p647
tp648
(dp649
Vconfigs
p650
(lp651
Vkernelarch-mips/config.malta
p652
aVkernelarch-mips/config.mips64r2
p653
ass(Vbase
p654
g326
tp655
(dp656
Vfeaturesets
p657
(lp658
Vnone
p659
asVkernel-arch
p660
Varm64
p661
ss(Vbase
p662
g102
tp663
(dp664
g8
(lp665
g10
asVkernel-arch
p666
Vpowerpc
p667
ss(Vbuild
p668
g125
tp669
(dp670
Vimage-file
p671
Varch/sh/boot/zImage
p672
sVsigned-modules
p673
I00
ss(Vabi
p674
g5
tp675
(dp676
Vignore-changes
p677
(lp678
Vmodule:drivers/gpu/drm/imx/*
p679
ass(Vdescription
p680
g525
NVs390x
p681
tp682
(dp683
Vhardware
p684
VIBM zSeries
p685
ss(Vdescription
p686
g158
NVparisc64-smp
p687
tp688
(dp689
Vhardware-long
p690
VHP PA-RISC 64-bit SMP systems with support for more than 4 GB RAM
p691
sVhardware
p692
Vmultiprocessor 64-bit PA-RISC
p693
ss(Vbase
p694
Vsparc
p695
tp696
(dp697
Vfeaturesets
p698
(lp699
sVkernel-arch
p700
Vsparc
p701
ss(Vbuild
p702
g14
tp703
(dp704
Vimage-file
p705
Vvmlinux.gz
p706
sVsigned-modules
p707
I00
ss(Vdescription
p708
g14
NVm68k
p709
tp710
(dp711
Vhardware
p712
VMotorola MC68020+ family
p713
ss(Vbase
p714
g165
tp715
(dp716
g8
(lp717
g10
asVkernel-arch
p718
Vmips
p719
ss(Vrelations
p720
g73
tp721
(dp722
Vheaders%gcc-5
p723
Vlinux-compiler-gcc-5-x86
p724
ss(Vbase
p725
g176
tp726
(dp727
Vfeaturesets
p728
(lp729
Vnone
p730
aVrt
p731
asVkernel-arch
p732
Vx86
p733
ss(Vbuild
p734
g5
tp735
(dp736
Vimage-file
p737
Varch/arm/boot/zImage
p738
sVvdso
p739
I01
ss(Vbuild
p740
g244
tp741
(dp742
Vimage-file
p743
Vvmlinux
p744
sVsigned-modules
p745
I00
ss(Vimage
p746
g39
tp747
(dp748
Vinstall-stem
p749
Vvmlinuz
p750
ss(g13
g134
g10
tp751
(dp752
g17
I01
sg18
(lp753
Vpowerpc64
p754
ass(g13
g22
g10
tp755
(dp756
g17
I01
sg18
(lp757
V5kc-malta
p758
aVloongson-3
p759
aVocteon
p760
ass(Vdescription
p761
g176
NVamd64
p762
tp763
(dp764
Vhardware-long
p765
VPCs with AMD64, Intel 64 or VIA Nano processors
p766
sVhardware
p767
V64-bit PCs
p768
ss(Vdescription
p769
g5
NVarmmp-lpae
p770
tp771
(dp772
Vhardware-long
p773
VARMv7 multiplatform kernel supporting LPAE. See\u000ahttps://wiki.debian.org/DebianKernel/ARMMP for details of supported\u000aplatforms.
p774
sVhardware
p775
VARMv7 multiplatform compatible SoCs supporting LPAE
p776
ss(Vdescription
p777
g73
tp778
(dp779
Vpart-long-pae
p780
VThis kernel requires PAE (Physical Address Extension).\u000aThis feature is supported by the Intel Pentium Pro/II/III/4/4M/D, Xeon,\u000aCore and Atom; AMD Geode NX, Athlon (K7), Duron, Opteron, Sempron,\u000aTurion or Phenom; Transmeta Efficeon; VIA C7; and some other processors.
p781
ss(Vdescription
p782
g56
NVsparc64-smp
p783
tp784
(dp785
Vhardware
p786
Vmultiprocessor 64-bit UltraSPARC
p787
ss(Vimage
p788
g102
tp789
(dp790
Vinstall-stem
p791
Vvmlinux
p792
sVsuggests
p793
Vmkvmlinuz
p794
sVconfigs
p795
(lp796
ss(Vimage
p797
g125
NVsh7785lcr
p798
tp799
(dp800
Vrecommends
p801
Vu-boot-tools
p802
sVcheck-size
p803
L4194304L
ss(g13
g525
g10
tp804
(dp805
g17
I01
sg18
(lp806
Vs390x
p807
ass(Vdescription
p808
g134
NVpowerpc64
p809
tp810
(dp811
Vhardware
p812
V64-bit PowerPC
p813
ss(Vbuild
p814
g22
tp815
(dp816
Vimage-file
p817
Vvmlinux
p818
sVsigned-modules
p819
I00
ss(g13
g80
g10
tp820
(dp821
g17
I01
sg18
(lp822
V4kc-malta
p823
aV5kc-malta
p824
aVloongson-2e
p825
aVloongson-2f
p826
aVloongson-3
p827
aVocteon
p828
ass(Vdescription
p829
g80
NV5kc-malta
p830
tp831
(dp832
Vhardware-long
p833
VMIPS Malta boards (64-bit)
p834
sVhardware
p835
VMIPS Malta (64-bit)
p836
ss(Vimage
p837
g22
NVocteon
p838
tp839
(dp840
Vconfigs
p841
(lp842
Vkernelarch-mips/config.octeon
p843
ass(Vbase
p844
g125
tp845
(dp846
g8
(lp847
g10
asVkernel-arch
p848
Vsh
p849
ss(Vdescription
p850
g31
NValpha-generic
p851
tp852
(dp853
Vhardware-long
p854
VDEC Alpha systems with extended kernel start address (Wildfire, Titan, Marvel)
p855
sVhardware
p856
VAlpha
p857
ss(Vbase
p858
g73
tp859
(dp860
Vfeaturesets
p861
(lp862
Vnone
p863
aVrt
p864
asVkernel-arch
p865
Vx86
p866
ss(Vimage
p867
g66
tp868
(dp869
Vinstall-stem
p870
Vvmlinux
p871
sVsuggests
p872
Vmkvmlinuz
p873
sVconfigs
p874
(lp875
ss(Vimage
p876
g22
NV5kc-malta
p877
tp878
(dp879
Vconfigs
p880
(lp881
Vkernelarch-mips/config.malta
p882
aVkernelarch-mips/config.mips64r2
p883
ass(Vimage
p884
g525
tp885
(dp886
Vinstall-stem
p887
Vvmlinuz
p888
sVbootloaders
p889
(lp890
Vs390-tools
p891
ass(Vbase
p892
g158
NVparisc64-smp
p893
tp894
(dp895
Voverride-host-type
p896
Vhppa64-linux-gnu
p897
sVcflags
p898
V-fno-cse-follow-jumps
p899
ss(Vimage
p900
g80
NVloongson-2f
p901
tp902
(dp903
Vrecommends
p904
Vlibc6-loongson2f
p905
sVconfigs
p906
(lp907
Vkernelarch-mips/config.loongson-2f
p908
ass(Vbase
p909
Vtilegx
p910
tp911
(dp912
Vfeaturesets
p913
(lp914
sVkernel-arch
p915
Vtile
p916
ss(Vrelations
p917
g39
tp918
(dp919
Vheaders%gcc-5
p920
Vlinux-compiler-gcc-5-arm
p921
ss(Vbase
p922
g525
tp923
(dp924
g8
(lp925
g10
asVkernel-arch
p926
Vs390
p927
ss(Vdescription
p928
g326
NVarm64
p929
tp930
(dp931
Vhardware
p932
V64-bit ARMv8 machines
p933
ss(Vbuild
p934
g525
tp935
(dp936
Vimage-file
p937
Varch/s390/boot/image
p938
sVvdso
p939
I01
ss(Vimage
p940
g158
tp941
(dp942
Vinstall-stem
p943
Vvmlinux
p944
sVsuggests
p945
Vpalo
p946
ss(Vdescription
p947
g31
NValpha-smp
p948
tp949
(dp950
Vhardware-long
p951
VDEC Alpha SMP systems with extended kernel start address (Wildfire, Titan, Marvel)
p952
sVhardware
p953
VAlpha SMP
p954
ss(Vdescription
p955
g102
NVpowerpc
p956
tp957
(dp958
Vhardware
p959
Vuniprocessor 32-bit PowerPC
p960
ss(g13
g244
g10
tp961
(dp962
g17
I01
sg18
(lp963
V5kc-malta
p964
aVocteon
p965
ass(Vbase
p966
g298
tp967
(dp968
g8
(lp969
g10
asVkernel-arch
p970
Vpowerpc
p971
ss(Vbuild
p972
g134
tp973
(dp974
Vimage-file
p975
Vvmlinux
p976
sVvdso
p977
I01
sVsigned-modules
p978
I00
ss(Vimage
p979
g80
tp980
(dp981
Vinstall-stem
p982
Vvmlinux
p983
ss(Vimage
p984
g244
tp985
(dp986
Vinstall-stem
p987
Vvmlinux
p988
ss(Vdescription
p989
g125
NVsh7751r
p990
tp991
(dp992
Vhardware-long
p993
VRenesas SH7751R R2D plus board
p994
sVhardware
p995
Vsh7751r
p996
ss(Vbase
p997
g73
Vrt
p998
tp999
(dp1000
Vflavours
p1001
(lp1002
V686-pae
p1003
ass(Vdescription
p1004
g80
NVloongson-2f
p1005
tp1006
(dp1007
Vhardware-long
p1008
VLemote Loongson 2F systems
p1009
sVhardware
p1010
VLoongson 2F
p1011
ss(Vimage
p1012
g165
NVocteon
p1013
tp1014
(dp1015
Vconfigs
p1016
(lp1017
Vkernelarch-mips/config.octeon
p1018
ass(Vdescription
p1019
g73
NV686-pae
p1020
tp1021
(dp1022
Vhardware-long
p1023
VPCs with one or more processors supporting PAE
p1024
sVparts
p1025
(lp1026
Vpae
p1027
asVhardware
p1028
Vmodern PCs
p1029
ss(Vbase
p1030
g158
tp1031
(dp1032
g8
(lp1033
g10
asVkernel-arch
p1034
Vparisc
p1035
ss(Vbuild
p1036
g326
tp1037
(dp1038
Vimage-file
p1039
Varch/arm64/boot/Image
p1040
sVvdso
p1041
I01
sVdebug-info
p1042
I01
ss(Vbase
p1043
g56
tp1044
(dp1045
g8
(lp1046
g10
asVkernel-arch
p1047
Vsparc
p1048
ss(Vabi
p1049
g80
tp1050
(dp1051
Vignore-changes
p1052
(lp1053
V__flush_icache_page
p1054
ass(Vimage
p1055
g244
NVocteon
p1056
tp1057
(dp1058
Vconfigs
p1059
(lp1060
Vkernelarch-mips/config.octeon
p1061
ass(Vdescription
p1062
g73
g273
V686-pae
p1063
tp1064
(dp1065
Vparts
p1066
(lp1067
Vxen
p1068
ass(Vimage
p1069
g176
tp1070
(dp1071
Vinstall-stem
p1072
Vvmlinuz
p1073
sVbreaks
p1074
Vxserver-xorg-input-vmmouse (<< 1:13.0.99)
p1075
sVbootloaders
p1076
(lp1077
Vgrub-pc
p1078
aVgrub-efi
p1079
aVextlinux
p1080
ass(Vimage
p1081
g66
NVpowerpc64le
p1082
tp1083
(dp1084
Vconfigs
p1085
(lp1086
Vkernelarch-powerpc/config-arch-64
p1087
aVkernelarch-powerpc/config-arch-64-le
p1088
ass(Vimage
p1089
g56
NVsparc64-smp
p1090
tp1091
(dp1092
Vconfigs
p1093
(lp1094
Vkernelarch-sparc/config-smp
p1095
ass(Vabi
p1096
tp1097
(dp1098
Vignore-changes
p1099
(lp1100
Vmodule:drivers/net/wireless/realtek/rtlwifi/*
p1101
asVabiname
p1102
Vkali1
p1103
ss(Vbase
p1104
Vmipsn32
p1105
tp1106
(dp1107
Vfeaturesets
p1108
(lp1109
sVkernel-arch
p1110
Vmips
p1111
ss(Vdescription
p1112
g80
NVloongson-3
p1113
tp1114
(dp1115
Vhardware-long
p1116
VLoongson 3A or 3B based systems (e.g. from Loongson or Lemote)
p1117
sVhardware
p1118
VLoongson 3A/3B
p1119
ss(Vimage
p1120
g326
tp1121
(dp1122
Vinstall-stem
p1123
Vvmlinuz
p1124
ss(Vdescription
p1125
g298
tp1126
(dp1127
Vhardware
p1128
V32-bit PowerPC with SPE (instead of AltiVec) with SMP support
p1129
ss(g13
g31
g10
tp1130
(dp1131
g17
I01
sg18
(lp1132
Valpha-generic
p1133
aValpha-smp
p1134
ass(Vbase
p1135
tp1136
(dp1137
Vfeaturesets
p1138
(lp1139
Vnone
p1140
aVrt
p1141
asVcompiler
p1142
Vgcc-5
p1143
sVarches
p1144
(lp1145
Valpha
p1146
aVamd64
p1147
aVarm64
p1148
aVarmel
p1149
aVarmhf
p1150
aVhppa
p1151
aVi386
p1152
aVm68k
p1153
aVmips
p1154
aVmipsel
p1155
aVmipsn32
p1156
aVmipsn32el
p1157
aVmips64
p1158
aVmips64el
p1159
aVor1k
p1160
aVpowerpc
p1161
aVpowerpcspe
p1162
aVppc64
p1163
aVppc64el
p1164
aVs390
p1165
aVs390x
p1166
aVsh4
p1167
aVsparc
p1168
aVsparc64
p1169
aVtilegx
p1170
aVx32
p1171
ass(Vbuild
p1172
g176
tp1173
(dp1174
Vimage-file
p1175
Varch/x86/boot/bzImage
p1176
sVvdso
p1177
I01
sVdebug-info
p1178
I01
ss(Vbuild
p1179
g102
tp1180
(dp1181
Vimage-file
p1182
Vvmlinux
p1183
sVvdso
p1184
I01
ss(Vimage
p1185
g5
tp1186
(dp1187
Vinstall-stem
p1188
Vvmlinuz
p1189
ss(Vbase
p1190
Vor1k
p1191
tp1192
(dp1193
Vfeaturesets
p1194
(lp1195
sVkernel-arch
p1196
Vopenrisc
p1197
ss(Vimage
p1198
g80
NVloongson-3
p1199
tp1200
(dp1201
Vconfigs
p1202
(lp1203
Vkernelarch-mips/config.loongson-3
p1204
ass(Vdescription
p1205
g176
g438
Vamd64
p1206
tp1207
(dp1208
Vparts
p1209
(lp1210
Vxen
p1211
ass(Vdescription
p1212
g80
NVloongson-2e
p1213
tp1214
(dp1215
Vhardware-long
p1216
VLemote Loongson 2E systems
p1217
sVhardware
p1218
VLoongson 2E
p1219
ss(Vimage
p1220
g14
tp1221
(dp1222
Vinstall-stem
p1223
Vvmlinuz
p1224
sVsuggests
p1225
Vvmelilo, fdutils
p1226
ss(Vimage
p1227
g73
tp1228
(dp1229
Vinstall-stem
p1230
Vvmlinuz
p1231
sVbreaks
p1232
Vxserver-xorg-input-vmmouse (<< 1:13.0.99)
p1233
sVbootloaders
p1234
(lp1235
Vgrub-pc
p1236
aVextlinux
p1237
ass(Vrelations
p1238
g525
tp1239
(dp1240
Vheaders%gcc-5
p1241
Vlinux-compiler-gcc-5-s390
p1242
sstp1243
Rp1244
.