ccopy_reg
_reconstructor
p0
(cdebian_linux.config
ConfigCore
p1
c__builtin__
dict
p2
(dp3
(S'image'
p4
S'amd64'
p5
tp6
(dp7
S'install-stem'
p8
S'vmlinuz'
p9
sS'configs'
p10
(lp11
sS'bootloaders'
p12
(lp13
S'grub-pc'
p14
aS'grub-efi'
p15
aS'extlinux'
p16
ass(S'image'
p17
S'mips64el'
p18
NS'5kc-malta'
p19
tp20
(dp21
S'configs'
p22
(lp23
S'kernelarch-mips/config.5kc-malta'
p24
ass(S'description'
p25
S'mips64'
p26
NS'sb1-bcm91250a'
p27
tp28
(dp29
S'hardware'
p30
S'BCM91250A'
p31
sS'hardware-long'
p32
S'Broadcom BCM91250A systems (aka SWARM)'
p33
ss(S'description'
p34
S'sh4'
p35
NS'sh7751r'
p36
tp37
(dp38
S'hardware'
p39
S'sh7751r'
p40
sS'hardware-long'
p41
S'Renesas SH7751R R2D plus board'
p42
ss(S'base'
p43
g5
S'none'
p44
tp45
(dp46
S'flavours'
p47
(lp48
S'amd64'
p49
ass(S'image'
p50
S'mips'
p51
NS'octeon'
p52
tp53
(dp54
S'configs'
p55
(lp56
S'kernelarch-mips/config.octeon'
p57
ass(S'image'
p58
S'ia64'
p59
tp60
(dp61
S'suggests'
p62
S'fdutils'
p63
sS'bootloaders'
p64
(lp65
S'elilo'
p66
asS'install-stem'
p67
S'vmlinuz'
p68
ss(S'abi'
p69
NS'rt'
p70
tp71
(dp72
S'ignore-changes'
p73
(lp74
S'*'
p75
ass(S'image'
p76
S'i386'
p77
NS'586'
p78
tp79
(dp80
S'configs'
p81
(lp82
S'kernelarch-x86/config-arch-32'
p83
aS'i386/config.586'
p84
ass(S'description'
p85
S'arm64'
p86
NS'arm64'
p87
tp88
(dp89
S'hardware'
p90
S'64-bit ARMv8 machines'
p91
ss(S'version'
p92
tp93
(dp94
S'abiname'
p95
S'4.0.0-kali1'
p96
sS'source'
p97
V4.0.4-1+kali2
p98
sS'abiname_base'
p99
S'4.0.0'
p100
sS'upstream'
p101
S'4.0'
p102
ss(S'description'
p103
S'powerpc'
p104
NS'powerpc-smp'
p105
tp106
(dp107
S'hardware'
p108
S'multiprocessor 32-bit PowerPC'
p109
ss(S'description'
p110
g5
g44
S'amd64'
p111
tp112
(dp113
S'parts'
p114
(lp115
S'xen'
p116
ass(S'description'
p117
g26
NS'5kc-malta'
p118
tp119
(dp120
S'hardware'
p121
S'MIPS Malta'
p122
sS'hardware-long'
p123
S'MIPS Malta boards'
p124
ss(S'base'
p125
S'ppc64'
p126
S'none'
p127
tp128
(dp129
S'implicit-flavour'
p130
I01
sS'flavours'
p131
(lp132
S'powerpc64'
p133
ass(S'description'
p134
S'hppa'
p135
NS'parisc'
p136
tp137
(dp138
S'hardware'
p139
S'32-bit PA-RISC'
p140
sS'hardware-long'
p141
S'HP PA-RISC 32-bit systems with max 4 GB RAM'
p142
ss(S'description'
p143
g51
NS'r4k-ip22'
p144
tp145
(dp146
S'hardware'
p147
S'SGI IP22'
p148
sS'hardware-long'
p149
S'SGI IP22 systems (Indy, Indigo2)'
p150
ss(S'image'
p151
g35
NS'sh7785lcr'
p152
tp153
(dp154
S'check-size'
p155
I4194304
sS'recommends'
p156
S'uboot-mkimage'
p157
ss(S'description'
p158
g104
NS'powerpc'
p159
tp160
(dp161
S'hardware'
p162
S'uniprocessor 32-bit PowerPC'
p163
ss(S'base'
p164
S'alpha'
p165
tp166
(dp167
S'kernel-arch'
p168
S'alpha'
p169
sS'featuresets'
p170
(lp171
g127
ass(S'description'
p172
g51
NS'5kc-malta'
p173
tp174
(dp175
S'hardware'
p176
S'MIPS Malta (64-bit)'
p177
sS'hardware-long'
p178
S'MIPS Malta boards (64-bit)'
p179
ss(S'image'
p180
g26
NS'octeon'
p181
tp182
(dp183
S'configs'
p184
(lp185
S'kernelarch-mips/config.octeon'
p186
ass(g125
S'armhf'
p187
g127
tp188
(dp189
g130
I01
sg131
(lp190
S'armmp'
p191
aS'armmp-lpae'
p192
ass(S'description'
p193
g51
NS'sb1-bcm91250a'
p194
tp195
(dp196
S'hardware'
p197
S'BCM91250A'
p198
sS'hardware-long'
p199
S'Broadcom BCM91250A systems (aka SWARM)'
p200
ss(S'base'
p201
g77
S'rt'
p202
tp203
(dp204
S'flavours'
p205
(lp206
S'686-pae'
p207
ass(S'description'
p208
S'mipsel'
p209
NS'sb1-bcm91250a'
p210
tp211
(dp212
S'hardware'
p213
S'BCM91250A'
p214
sS'hardware-long'
p215
S'Broadcom BCM91250A systems (aka SWARM)'
p216
ss(S'image'
p217
g209
NS'loongson-3'
p218
tp219
(dp220
S'configs'
p221
(lp222
S'kernelarch-mips/config.loongson-3'
p223
ass(S'relations'
p224
g77
tp225
(dp226
S'headers%gcc-4.9'
p227
S'linux-compiler-gcc-4.9-x86'
p228
ss(S'image'
p229
g209
NS'4kc-malta'
p230
tp231
(dp232
S'configs'
p233
(lp234
S'kernelarch-mips/config.4kc-malta'
p235
ass(S'description'
p236
g209
NS'loongson-3'
p237
tp238
(dp239
S'hardware'
p240
S'Loongson 3A/3B'
p241
sS'hardware-long'
p242
S'Loongson 3A or 3B based systems (e.g. from Loongson or Lemote)'
p243
ss(S'image'
p244
g104
tp245
(dp246
S'suggests'
p247
S'mkvmlinuz'
p248
sS'configs'
p249
(lp250
sS'install-stem'
p251
S'vmlinux'
p252
ss(S'description'
p253
g165
NS'alpha-generic'
p254
tp255
(dp256
S'hardware'
p257
S'Alpha'
p258
sS'hardware-long'
p259
S'DEC Alpha systems with extended kernel start address (Wildfire, Titan, Marvel)'
p260
ss(S'description'
p261
S'sparc64'
p262
NS'sparc64'
p263
tp264
(dp265
S'hardware'
p266
S'uniprocessor 64-bit UltraSPARC'
p267
ss(S'base'
p268
g5
S'rt'
p269
tp270
(dp271
S'flavours'
p272
(lp273
S'amd64'
p274
ass(S'build'
p275
S'ppc64el'
p276
tp277
(dp278
S'image-file'
p279
S'vmlinux'
p280
ss(S'build'
p281
g126
tp282
(dp283
S'image-file'
p284
S'vmlinux'
p285
ss(S'description'
p286
g51
NS'octeon'
p287
tp288
(dp289
S'hardware'
p290
S'Octeon'
p291
sS'hardware-long'
p292
S'Cavium Networks Octeon'
p293
ss(S'image'
p294
g86
NS'arm64'
p295
tp296
(dp297
s(S'image'
p298
S'armel'
p299
NS'orion5x'
p300
tp301
(dp302
S'check-size'
p303
I2097080
sS'check-size-with-dtb'
p304
I01
sS'configs'
p305
(lp306
S'armel/config-reduced'
p307
aS'armel/config.orion5x'
p308
asS'recommends'
p309
S'uboot-mkimage'
p310
ss(S'base'
p311
g77
tp312
(dp313
S'kernel-arch'
p314
S'x86'
p315
sS'featuresets'
p316
(lp317
S'none'
p318
aS'rt'
p319
ass(S'base'
p320
g209
tp321
(dp322
S'kernel-arch'
p323
S'mips'
p324
sg170
(lp325
g127
ass(S'relations'
p326
g5
tp327
(dp328
S'headers%gcc-4.9'
p329
S'linux-compiler-gcc-4.9-x86'
p330
ss(S'image'
p331
g187
NS'armmp-lpae'
p332
tp333
(dp334
S'configs'
p335
(lp336
S'armhf/config.armmp'
p337
aS'armhf/config.lpae'
p338
ass(g125
g209
g127
tp339
(dp340
g130
I01
sg131
(lp341
S'sb1-bcm91250a'
p342
aS'4kc-malta'
p343
aS'5kc-malta'
p344
aS'loongson-2e'
p345
aS'loongson-2f'
p346
aS'loongson-3'
p347
ass(S'image'
p348
g77
NS'686-pae'
p349
tp350
(dp351
S'configs'
p352
(lp353
S'kernelarch-x86/config-arch-32'
p354
aS'i386/config.686-pae'
p355
asS'recommends'
p356
S'libc6-i686'
p357
ss(S'description'
p358
S'powerpcspe'
p359
tp360
(dp361
S'hardware'
p362
S'32-bit PowerPC with SPE (instead of AltiVec) with SMP support'
p363
ss(S'relations'
p364
tp365
(dp366
S'gcc-4.9'
p367
S'gcc-4.9'
p368
sS'gcc-4.8'
p369
S'gcc-4.8'
p370
sS'initramfs-fallback'
p371
S'linux-initramfs-tool'
p372
sS'gcc-4.7'
p373
S'gcc-4.7'
p374
sS'gcc-4.6'
p375
S'gcc-4.6'
p376
sS'initramfs-tools'
p377
S'initramfs-tools (>= 0.110~)'
p378
ss(S'image'
p379
g209
NS'loongson-2f'
p380
tp381
(dp382
S'configs'
p383
(lp384
S'kernelarch-mips/config.loongson-2f'
p385
asS'recommends'
p386
S'libc6-loongson2f'
p387
ss(S'description'
p388
g187
NS'armmp'
p389
tp390
(dp391
S'hardware'
p392
S'ARMv7 multiplatform compatible SoCs'
p393
sS'hardware-long'
p394
S'ARMv7 multiplatform kernel. See\nhttps://wiki.debian.org/DebianKernel/ARMMP for details of supported\nplatforms'
p395
ss(S'description'
p396
g26
NS'octeon'
p397
tp398
(dp399
S'hardware'
p400
S'Octeon'
p401
sS'hardware-long'
p402
S'Cavium Networks Octeon'
p403
ss(S'image'
p404
S'sparc'
p405
NS'sparc64-smp'
p406
tp407
(dp408
S'configs'
p409
(lp410
S'kernelarch-sparc/config-smp'
p411
ass(S'build'
p412
g359
tp413
(dp414
S'image-file'
p415
S'vmlinux'
p416
ss(S'description'
p417
g299
NS'versatile'
p418
tp419
(dp420
S'hardware'
p421
S'Versatile'
p422
sS'hardware-long'
p423
S'Versatile systems (PB, AB, Qemu)'
p424
ss(S'build'
p425
g135
tp426
(dp427
S'image-file'
p428
S'vmlinux'
p429
ss(S'image'
p430
g165
tp431
(dp432
S'suggests'
p433
S'aboot, fdutils'
p434
sS'install-stem'
p435
S'vmlinuz'
p436
ss(S'description'
p437
g77
NS'586'
p438
tp439
(dp440
S'hardware'
p441
S'older PCs'
p442
sS'parts'
p443
(lp444
S'up'
p445
asS'hardware-long'
p446
S'PCs with a single processor not supporting PAE'
p447
ss(S'image'
p448
S's390x'
p449
tp450
(dp451
S'install-stem'
p452
S'vmlinuz'
p453
sS'configs'
p454
(lp455
sS'bootloaders'
p456
(lp457
S's390-tools'
p458
ass(S'description'
p459
g262
NS'sparc64-smp'
p460
tp461
(dp462
S'hardware'
p463
S'multiprocessor 64-bit UltraSPARC'
p464
ss(S'description'
p465
g165
NS'alpha-smp'
p466
tp467
(dp468
S'hardware'
p469
S'Alpha SMP'
p470
sS'hardware-long'
p471
S'DEC Alpha SMP systems with extended kernel start address (Wildfire, Titan, Marvel)'
p472
ss(S'base'
p473
g299
tp474
(dp475
S'kernel-arch'
p476
S'arm'
p477
sg170
(lp478
g127
ass(S'description'
p479
g18
NS'sb1-bcm91250a'
p480
tp481
(dp482
S'hardware'
p483
S'BCM91250A'
p484
sS'hardware-long'
p485
S'Broadcom BCM91250A systems (aka SWARM)'
p486
ss(S'build'
p487
g86
tp488
(dp489
S'debug-info'
p490
I01
sS'image-file'
p491
S'arch/arm64/boot/Image'
p492
ss(S'image'
p493
g126
NS'powerpc64'
p494
tp495
(dp496
S'configs'
p497
(lp498
S'kernelarch-powerpc/config-arch-64'
p499
aS'kernelarch-powerpc/config-arch-64-be'
p500
ass(S'description'
p501
g135
NS'parisc64-smp'
p502
tp503
(dp504
S'hardware'
p505
S'multiprocessor 64-bit PA-RISC'
p506
sS'hardware-long'
p507
S'HP PA-RISC 64-bit SMP systems with support for more than 4 GB RAM'
p508
ss(S'base'
p509
g359
tp510
(dp511
S'kernel-arch'
p512
S'powerpc'
p513
sg170
(lp514
g127
ass(S'build'
p515
g77
NS'686-pae'
p516
tp517
(dp518
S'debug-info'
p519
I01
ss(g125
g104
g127
tp520
(dp521
g130
I01
sg131
(lp522
S'powerpc'
p523
aS'powerpc-smp'
p524
aS'powerpc64'
p525
ass(S'description'
p526
g59
NS'itanium'
p527
tp528
(dp529
S'hardware'
p530
S'Itanium'
p531
ss(S'image'
p532
g51
NS'4kc-malta'
p533
tp534
(dp535
S'configs'
p536
(lp537
S'kernelarch-mips/config.4kc-malta'
p538
ass(g125
g449
g127
tp539
(dp540
g130
I01
sg131
(lp541
S's390x'
p542
ass(S'base'
p543
g51
tp544
(dp545
S'kernel-arch'
p546
S'mips'
p547
sg170
(lp548
g127
ass(S'build'
p549
g5
tp550
(dp551
S'debug-info'
p552
I01
sS'image-file'
p553
S'arch/x86/boot/bzImage'
p554
ss(S'description'
p555
g18
NS'5kc-malta'
p556
tp557
(dp558
S'hardware'
p559
S'MIPS Malta'
p560
sS'hardware-long'
p561
S'MIPS Malta boards'
p562
ss(S'base'
p563
g135
NS'parisc64-smp'
p564
tp565
(dp566
S'override-host-type'
p567
S'hppa64-linux-gnu'
p568
sS'cflags'
p569
S'-fno-cse-follow-jumps'
p570
ss(S'image'
p571
g276
NS'powerpc64le'
p572
tp573
(dp574
S'configs'
p575
(lp576
S'kernelarch-powerpc/config-arch-64'
p577
aS'kernelarch-powerpc/config-arch-64-le'
p578
ass(S'build'
p579
g405
tp580
(dp581
S'image-file'
p582
S'arch/sparc/boot/zImage'
p583
ss(S'image'
p584
g209
tp585
(dp586
S'install-stem'
p587
S'vmlinux'
p588
ss(S'description'
p589
g405
NS'sparc64-smp'
p590
tp591
(dp592
S'hardware'
p593
S'multiprocessor 64-bit UltraSPARC'
p594
ss(S'build'
p595
g104
tp596
(dp597
S'image-file'
p598
S'vmlinux'
p599
ss(S'description'
p600
g18
NS'loongson-3'
p601
tp602
(dp603
S'hardware'
p604
S'Loongson 3A/3B'
p605
sS'hardware-long'
p606
S'Loongson 3A or 3B based systems (e.g. from Loongson or Lemote)'
p607
ss(S'build'
p608
g209
tp609
(dp610
S'image-file'
p611
S'vmlinux'
p612
ss(S'base'
p613
g26
tp614
(dp615
S'kernel-arch'
p616
S'mips'
p617
sg170
(lp618
g127
ass(S'base'
p619
g449
tp620
(dp621
S'kernel-arch'
p622
S's390'
p623
sg170
(lp624
g127
asS'compiler'
p625
S'gcc-4.8'
p626
ss(S'base'
p627
g5
tp628
(dp629
S'kernel-arch'
p630
S'x86'
p631
sS'featuresets'
p632
(lp633
S'none'
p634
aS'rt'
p635
ass(S'base'
p636
g59
tp637
(dp638
S'kernel-arch'
p639
S'ia64'
p640
sg170
(lp641
g127
asS'compiler'
p642
S'gcc-4.6'
p643
ss(S'image'
p644
g209
NS'5kc-malta'
p645
tp646
(dp647
S'configs'
p648
(lp649
S'kernelarch-mips/config.5kc-malta'
p650
ass(S'base'
p651
S's390'
p652
tp653
(dp654
S'kernel-arch'
p655
S's390'
p656
sS'featuresets'
p657
(lp658
ss(g125
g299
g127
tp659
(dp660
g130
I01
sg131
(lp661
S'kirkwood'
p662
aS'orion5x'
p663
aS'versatile'
p664
ass(S'description'
p665
g59
NS'mckinley'
p666
tp667
(dp668
S'hardware'
p669
S'Itanium II'
p670
ss(S'description'
p671
g209
NS'5kc-malta'
p672
tp673
(dp674
S'hardware'
p675
S'MIPS Malta (64-bit)'
p676
sS'hardware-long'
p677
S'MIPS Malta boards (64-bit)'
p678
ss(S'description'
p679
g77
tp680
(dp681
S'part-long-pae'
p682
S'This kernel requires PAE (Physical Address Extension).\nThis feature is supported by the Intel Pentium Pro/II/III/4/4M/D, Xeon,\nCore and Atom; AMD Geode NX, Athlon (K7), Duron, Opteron, Sempron,\nTurion or Phenom; Transmeta Efficeon; VIA C7; and some other processors.'
p683
ss(S'description'
p684
g405
NS'sparc32'
p685
tp686
(dp687
S'hardware'
p688
S'uniprocessor sparc32 (sun4m)'
p689
ss(S'build'
p690
g18
tp691
(dp692
S'image-file'
p693
S'vmlinux'
p694
ss(S'xen'
p695
g5
g44
S'amd64'
p696
tp697
(dp698
S'flavours'
p699
(lp700
S'amd64'
p701
ass(S'image'
p702
g299
tp703
(dp704
S'suggests'
p705
S'fdutils'
p706
sS'configs'
p707
(lp708
S'kernelarch-arm/config'
p709
aS'armel/config'
p710
asS'install-stem'
p711
S'vmlinuz'
p712
ss(S'relations'
p713
g299
tp714
(dp715
S'headers%gcc-4.9'
p716
S'linux-compiler-gcc-4.9-arm'
p717
ss(S'image'
p718
g135
tp719
(dp720
S'suggests'
p721
S'palo'
p722
sS'install-stem'
p723
S'vmlinux'
p724
ss(S'image'
p725
g104
NS'powerpc64'
p726
tp727
(dp728
S'configs'
p729
(lp730
S'kernelarch-powerpc/config-arch-64'
p731
aS'kernelarch-powerpc/config-arch-64-be'
p732
ass(S'image'
p733
g359
tp734
(dp735
S'suggests'
p736
S'mkvmlinuz'
p737
sS'install-stem'
p738
S'vmlinux'
p739
ss(S'relations'
p740
g135
tp741
(dp742
S'gcc-4.9'
p743
S'gcc-4.9, binutils-hppa64, gcc-4.9-hppa64'
p744
ss(S'image'
p745
g26
NS'sb1-bcm91250a'
p746
tp747
(dp748
S'configs'
p749
(lp750
S'kernelarch-mips/config.sb1-bcm91250a'
p751
ass(S'description'
p752
g51
NS'4kc-malta'
p753
tp754
(dp755
S'hardware'
p756
S'MIPS Malta'
p757
sS'hardware-long'
p758
S'MIPS Malta boards'
p759
ss(S'image'
p760
g51
NS'r4k-ip22'
p761
tp762
(dp763
S'configs'
p764
(lp765
S'kernelarch-mips/config.r4k-ip22'
p766
ass(S'image'
p767
g262
NS'sparc64-smp'
p768
tp769
(dp770
S'configs'
p771
(lp772
S'kernelarch-sparc/config-smp'
p773
ass(S'description'
p774
g276
NS'powerpc64le'
p775
tp776
(dp777
S'hardware'
p778
S'Little-endian 64-bit PowerPC'
p779
ss(S'description'
p780
g405
NS'sparc64'
p781
tp782
(dp783
S'hardware'
p784
S'uniprocessor 64-bit UltraSPARC'
p785
ss(S'image'
p786
g299
NS'kirkwood'
p787
tp788
(dp789
S'check-size'
p790
I2097080
sS'check-size-with-dtb'
p791
I01
sS'breaks'
p792
S'flash-kernel (<< 3.30~)'
p793
sS'recommends'
p794
S'uboot-mkimage'
p795
sS'configs'
p796
(lp797
S'armel/config-reduced'
p798
aS'armel/config.kirkwood'
p799
ass(g125
g135
g127
tp800
(dp801
g130
I01
sg131
(lp802
S'parisc'
p803
aS'parisc64-smp'
p804
ass(S'image'
p805
g51
NS'r5k-ip32'
p806
tp807
(dp808
S'configs'
p809
(lp810
S'kernelarch-mips/config.r5k-ip32'
p811
ass(S'image'
p812
g104
NS'powerpc-smp'
p813
tp814
(dp815
S'configs'
p816
(lp817
S'powerpc/config.powerpc'
p818
aS'powerpc/config.powerpc-smp'
p819
ass(S'base'
p820
g262
tp821
(dp822
S'kernel-arch'
p823
S'sparc'
p824
sg170
(lp825
g127
ass(S'image'
p826
g26
NS'5kc-malta'
p827
tp828
(dp829
S'configs'
p830
(lp831
S'kernelarch-mips/config.5kc-malta'
p832
ass(S'base'
p833
S'or1k'
p834
tp835
(dp836
S'kernel-arch'
p837
S'openrisc'
p838
sS'featuresets'
p839
(lp840
ss(S'description'
p841
g35
NS'sh7785lcr'
p842
tp843
(dp844
S'hardware'
p845
S'sh7785lcr'
p846
sS'hardware-long'
p847
S'Renesas SH7785 reference board'
p848
ss(S'image'
p849
g51
tp850
(dp851
S'install-stem'
p852
S'vmlinux'
p853
ss(g125
g18
g127
tp854
(dp855
g130
I01
sg131
(lp856
S'sb1-bcm91250a'
p857
aS'5kc-malta'
p858
aS'loongson-3'
p859
aS'octeon'
p860
ass(S'image'
p861
g18
NS'sb1-bcm91250a'
p862
tp863
(dp864
S'configs'
p865
(lp866
S'kernelarch-mips/config.sb1-bcm91250a'
p867
ass(S'image'
p868
g126
tp869
(dp870
S'suggests'
p871
S'mkvmlinuz'
p872
sS'configs'
p873
(lp874
sS'install-stem'
p875
S'vmlinux'
p876
ss(S'description'
p877
S'm68k'
p878
NS'm68k'
p879
tp880
(dp881
S'hardware'
p882
S'Motorola MC68020+ family'
p883
ss(S'image'
p884
g77
tp885
(dp886
S'install-stem'
p887
S'vmlinuz'
p888
sS'configs'
p889
(lp890
sS'bootloaders'
p891
(lp892
S'grub-pc'
p893
aS'extlinux'
p894
ass(g125
g405
g127
tp895
(dp896
g130
I01
sg131
(lp897
S'sparc64'
p898
aS'sparc64-smp'
p899
ass(S'base'
p900
NS'rt'
p901
tp902
(dp903
S'enabled'
p904
I00
ss(g125
g165
g127
tp905
(dp906
g130
I01
sg131
(lp907
S'alpha-generic'
p908
aS'alpha-smp'
p909
ass(S'description'
p910
g77
S'none'
p911
S'686-pae'
p912
tp913
(dp914
S'parts'
p915
(lp916
S'xen'
p917
ass(g125
g59
g127
tp918
(dp919
g130
I01
sg131
(lp920
S'itanium'
p921
aS'mckinley'
p922
ass(S'base'
p923
g126
tp924
(dp925
S'kernel-arch'
p926
S'powerpc'
p927
sg170
(lp928
g127
ass(S'description'
p929
g5
NS'amd64'
p930
tp931
(dp932
S'hardware'
p933
S'64-bit PCs'
p934
sS'hardware-long'
p935
S'PCs with AMD64, Intel 64 or VIA Nano processors'
p936
ss(S'build'
p937
g449
tp938
(dp939
S'image-file'
p940
S'arch/s390/boot/image'
p941
ss(S'description'
p942
g209
NS'loongson-2f'
p943
tp944
(dp945
S'hardware'
p946
S'Loongson 2F'
p947
sS'hardware-long'
p948
S'Lemote Loongson 2F systems'
p949
ss(g125
g51
g127
tp950
(dp951
g130
I01
sg131
(lp952
S'r4k-ip22'
p953
aS'r5k-ip32'
p954
aS'sb1-bcm91250a'
p955
aS'4kc-malta'
p956
aS'5kc-malta'
p957
aS'octeon'
p958
ass(S'build'
p959
g51
tp960
(dp961
S'image-file'
p962
S'vmlinux'
p963
ss(S'image'
p964
g26
tp965
(dp966
S'install-stem'
p967
S'vmlinux'
p968
ss(g125
g35
g127
tp969
(dp970
g130
I01
sg131
(lp971
S'sh7751r'
p972
aS'sh7785lcr'
p973
ass(S'base'
p974
S'x32'
p975
tp976
(dp977
S'kernel-arch'
p978
S'x86'
p979
sS'featuresets'
p980
(lp981
ss(S'build'
p982
g35
tp983
(dp984
S'image-file'
p985
S'arch/sh/boot/zImage'
p986
ss(S'image'
p987
g878
tp988
(dp989
S'suggests'
p990
S'vmelilo, fdutils'
p991
sS'install-stem'
p992
S'vmlinuz'
p993
ss(S'base'
p994
g86
S'none'
p995
tp996
(dp997
S'flavours'
p998
(lp999
S'arm64'
p1000
ass(S'description'
p1001
g51
NS'r5k-ip32'
p1002
tp1003
(dp1004
S'hardware'
p1005
S'SGI IP32'
p1006
sS'hardware-long'
p1007
S'SGI IP32 systems (O2)'
p1008
ss(S'build'
p1009
g26
tp1010
(dp1011
S'image-file'
p1012
S'vmlinux'
p1013
ss(S'build'
p1014
g59
tp1015
(dp1016
S'image-file'
p1017
S'vmlinux.gz'
p1018
ss(S'base'
p1019
g187
tp1020
(dp1021
S'kernel-arch'
p1022
S'arm'
p1023
sg170
(lp1024
g127
ass(S'description'
p1025
g77
NS'686-pae'
p1026
tp1027
(dp1028
S'hardware'
p1029
S'modern PCs'
p1030
sS'parts'
p1031
(lp1032
S'pae'
p1033
asS'hardware-long'
p1034
S'PCs with one or more processors supporting PAE'
p1035
ss(S'image'
p1036
g35
tp1037
(dp1038
S'suggests'
p1039
S'fdutils'
p1040
sS'install-stem'
p1041
S'vmlinuz'
p1042
ss(S'base'
p1043
g135
tp1044
(dp1045
S'kernel-arch'
p1046
S'parisc'
p1047
sg170
(lp1048
g127
ass(S'description'
p1049
g299
NS'kirkwood'
p1050
tp1051
(dp1052
S'hardware'
p1053
S'Marvell Kirkwood'
p1054
sS'hardware-long'
p1055
S'Marvell Kirkwood based systems (SheevaPlug, QNAP TS-119/TS-219, etc)'
p1056
ss(S'base'
p1057
g35
tp1058
(dp1059
S'kernel-arch'
p1060
S'sh'
p1061
sg170
(lp1062
g127
ass(S'image'
p1063
g405
tp1064
(dp1065
S'suggests'
p1066
S'silo, fdutils'
p1067
sS'configs'
p1068
(lp1069
sS'install-stem'
p1070
S'vmlinuz'
p1071
ss(S'description'
p1072
tp1073
(dp1074
S'part-long-up'
p1075
S'This kernel is not suitable for SMP (multi-processor,\nmulti-core or hyper-threaded) systems.'
p1076
sS'part-long-xen'
p1077
S'This kernel also runs on a Xen hypervisor.\nIt supports both privileged (dom0) and unprivileged (domU) operation.'
p1078
ss(S'build'
p1079
g262
tp1080
(dp1081
S'image-file'
p1082
S'arch/sparc/boot/zImage'
p1083
ss(S'relations'
p1084
g187
tp1085
(dp1086
S'headers%gcc-4.9'
p1087
S'linux-compiler-gcc-4.9-arm'
p1088
ss(S'description'
p1089
g104
NS'powerpc64'
p1090
tp1091
(dp1092
S'hardware'
p1093
S'64-bit PowerPC'
p1094
ss(S'image'
p1095
g449
NS's390x'
p1096
tp1097
(dp1098
S'configs'
p1099
(lp1100
S'kernelarch-s390/config-arch-64'
p1101
ass(S'image'
p1102
g18
NS'loongson-3'
p1103
tp1104
(dp1105
S'configs'
p1106
(lp1107
S'kernelarch-mips/config.loongson-3'
p1108
ass(S'build'
p1109
g165
tp1110
(dp1111
S'image-file'
p1112
S'arch/alpha/boot/vmlinux.gz'
p1113
ss(S'relations'
p1114
g449
tp1115
(dp1116
S'headers%gcc-4.8'
p1117
S'linux-compiler-gcc-4.8-s390'
p1118
ss(S'base'
p1119
g104
tp1120
(dp1121
S'kernel-arch'
p1122
S'powerpc'
p1123
sg170
(lp1124
g127
ass(S'image'
p1125
g209
NS'sb1-bcm91250a'
p1126
tp1127
(dp1128
S'configs'
p1129
(lp1130
S'kernelarch-mips/config.sb1-bcm91250a'
p1131
ass(S'description'
p1132
g449
NS's390x'
p1133
tp1134
(dp1135
S'hardware'
p1136
S'IBM zSeries'
p1137
ss(S'description'
p1138
g209
NS'4kc-malta'
p1139
tp1140
(dp1141
S'hardware'
p1142
S'MIPS Malta'
p1143
sS'hardware-long'
p1144
S'MIPS Malta boards'
p1145
ss(S'image'
p1146
g51
NS'sb1-bcm91250a'
p1147
tp1148
(dp1149
S'configs'
p1150
(lp1151
S'kernelarch-mips/config.sb1-bcm91250a'
p1152
ass(S'image'
p1153
g276
tp1154
(dp1155
S'suggests'
p1156
S'mkvmlinuz'
p1157
sS'configs'
p1158
(lp1159
sS'install-stem'
p1160
S'vmlinux'
p1161
ss(S'description'
p1162
g18
NS'octeon'
p1163
tp1164
(dp1165
S'hardware'
p1166
S'Octeon'
p1167
sS'hardware-long'
p1168
S'Cavium Networks Octeon'
p1169
ss(S'base'
p1170
g86
tp1171
(dp1172
S'kernel-arch'
p1173
S'arm64'
p1174
sS'featuresets'
p1175
(lp1176
S'none'
p1177
ass(S'image'
p1178
g187
tp1179
(dp1180
S'suggests'
p1181
S'fdutils'
p1182
sS'configs'
p1183
(lp1184
S'kernelarch-arm/config'
p1185
aS'armhf/config'
p1186
asS'install-stem'
p1187
S'vmlinuz'
p1188
ss(S'abi'
p1189
tp1190
(dp1191
S'abiname'
p1192
S'kali1'
p1193
ss(g125
g359
g127
tp1194
(dp1195
g130
I01
sg131
(lp1196
S'powerpcspe'
p1197
ass(g125
g878
g127
tp1198
(dp1199
g130
I01
sg131
(lp1200
S'm68k'
p1201
ass(S'description'
p1202
Ng70
tp1203
(dp1204
S'part-long-rt'
p1205
S'This kernel includes the PREEMPT_RT realtime patch set.'
p1206
sS'parts'
p1207
(lp1208
S'rt'
p1209
asS'part-short-rt'
p1210
S'PREEMPT_RT'
p1211
ss(S'base'
p1212
g77
g911
tp1213
(dp1214
S'flavours'
p1215
(lp1216
S'586'
p1217
aS'686-pae'
p1218
ass(S'base'
p1219
tp1220
(dp1221
S'arches'
p1222
(lp1223
S'alpha'
p1224
aS'amd64'
p1225
aS'arm64'
p1226
aS'armel'
p1227
aS'armhf'
p1228
aS'hppa'
p1229
aS'i386'
p1230
aS'ia64'
p1231
aS'm68k'
p1232
aS'mips'
p1233
aS'mipsel'
p1234
aS'mips64'
p1235
aS'mips64el'
p1236
aS'or1k'
p1237
aS'powerpc'
p1238
aS'powerpcspe'
p1239
aS'ppc64'
p1240
aS'ppc64el'
p1241
aS's390'
p1242
aS's390x'
p1243
aS'sh4'
p1244
aS'sparc'
p1245
aS'sparc64'
p1246
aS'x32'
p1247
asS'featuresets'
p1248
(lp1249
S'none'
p1250
aS'rt'
p1251
asS'compiler'
p1252
S'gcc-4.9'
p1253
ss(S'build'
p1254
g878
tp1255
(dp1256
S'image-file'
p1257
S'vmlinux.gz'
p1258
ss(S'build'
p1259
g299
tp1260
(dp1261
S'image-file'
p1262
S'arch/arm/boot/zImage'
p1263
ss(S'image'
p1264
g405
NS'sparc64'
p1265
tp1266
(dp1267
S'configs'
p1268
(lp1269
S'kernelarch-sparc/config-up'
p1270
ass(S'image'
p1271
g262
tp1272
(dp1273
S'suggests'
p1274
S'silo, fdutils'
p1275
sS'configs'
p1276
(lp1277
sS'install-stem'
p1278
S'vmlinuz'
p1279
ss(S'build'
p1280
g187
tp1281
(dp1282
S'image-file'
p1283
S'arch/arm/boot/zImage'
p1284
ss(S'build'
p1285
g449
NS's390x'
p1286
tp1287
(dp1288
S'debug-info'
p1289
I01
ss(S'base'
p1290
g276
tp1291
(dp1292
S'kernel-arch'
p1293
S'powerpc'
p1294
sg170
(lp1295
g127
ass(S'base'
p1296
g18
tp1297
(dp1298
S'kernel-arch'
p1299
S'mips'
p1300
sg170
(lp1301
g127
ass(S'base'
p1302
g405
tp1303
(dp1304
S'kernel-arch'
p1305
S'sparc'
p1306
sg170
(lp1307
g127
ass(S'base'
p1308
g878
tp1309
(dp1310
S'kernel-arch'
p1311
S'm68k'
p1312
sg170
(lp1313
g127
asS'cflags'
p1314
S'-ffreestanding'
p1315
sS'compiler'
p1316
S'gcc-4.8'
p1317
ss(S'description'
p1318
g209
NS'loongson-2e'
p1319
tp1320
(dp1321
S'hardware'
p1322
S'Loongson 2E'
p1323
sS'hardware-long'
p1324
S'Lemote Loongson 2E systems'
p1325
ss(S'image'
p1326
tp1327
(dp1328
S'initramfs-generators'
p1329
(lp1330
S'initramfs-tools'
p1331
aS'initramfs-fallback'
p1332
asS'type'
p1333
S'plain'
p1334
ss(S'image'
p1335
g209
NS'loongson-2e'
p1336
tp1337
(dp1338
S'configs'
p1339
(lp1340
S'kernelarch-mips/config.loongson-2e'
p1341
ass(g125
g262
g127
tp1342
(dp1343
g130
I01
sg131
(lp1344
S'sparc64'
p1345
aS'sparc64-smp'
p1346
ass(S'image'
p1347
g18
tp1348
(dp1349
S'install-stem'
p1350
S'vmlinux'
p1351
ss(S'description'
p1352
g299
NS'orion5x'
p1353
tp1354
(dp1355
S'hardware'
p1356
S'Marvell Orion'
p1357
sS'hardware-long'
p1358
S'Marvell Orion 5181, 5182 and 5281 based systems (QNAP TS-109/TS-209, etc)'
p1359
ss(S'image'
p1360
g405
NS'sparc32'
p1361
tp1362
(dp1363
S'image-postproc'
p1364
S'sparc32-image-postproc'
p1365
ss(S'image'
p1366
g51
NS'5kc-malta'
p1367
tp1368
(dp1369
S'configs'
p1370
(lp1371
S'kernelarch-mips/config.5kc-malta'
p1372
ass(S'description'
p1373
g126
NS'powerpc64'
p1374
tp1375
(dp1376
S'hardware'
p1377
S'64-bit PowerPC'
p1378
ss(S'image'
p1379
g262
NS'sparc64'
p1380
tp1381
(dp1382
S'configs'
p1383
(lp1384
S'kernelarch-sparc/config-up'
p1385
ass(g125
g26
g127
tp1386
(dp1387
g130
I01
sg131
(lp1388
S'sb1-bcm91250a'
p1389
aS'5kc-malta'
p1390
aS'octeon'
p1391
ass(S'image'
p1392
g86
tp1393
(dp1394
S'install-stem'
p1395
S'vmlinuz'
p1396
ss(S'image'
p1397
g18
NS'octeon'
p1398
tp1399
(dp1400
S'configs'
p1401
(lp1402
S'kernelarch-mips/config.octeon'
p1403
ass(S'description'
p1404
g187
NS'armmp-lpae'
p1405
tp1406
(dp1407
S'hardware'
p1408
S'ARMv7 multiplatform compatible SoCs supporting LPAE'
p1409
sS'hardware-long'
p1410
S'ARMv7 multiplatform kernel supporting LPAE. See\nhttps://wiki.debian.org/DebianKernel/ARMMP for details of supported\nplatforms.'
p1411
ss(S'build'
p1412
g77
tp1413
(dp1414
S'image-file'
p1415
S'arch/x86/boot/bzImage'
p1416
ss(g125
g276
g127
tp1417
(dp1418
g130
I01
sg131
(lp1419
S'powerpc64le'
p1420
ass(S'image'
p1421
g5
NS'amd64'
p1422
tp1423
(dp1424
S'configs'
p1425
(lp1426
S'kernelarch-x86/config-arch-64'
p1427
asstp1428
Rp1429
.