ccopy_reg
_reconstructor
p0
(cdebian_linux.config
ConfigCore
p1
c__builtin__
dict
p2
(dp3
(Vbase
p4
Vi386
p5
tp6
(dp7
Vkernel-arch
p8
Vx86
p9
sVfeaturesets
p10
(lp11
Vnone
p12
aVrt
p13
ass(Vdescription
p14
tp15
(dp16
Vpart-long-up
p17
VThis kernel is not suitable for SMP (multi-processor,\u000amulti-core or hyper-threaded) systems.
p18
sVpart-long-xen
p19
VThis kernel also runs on a Xen hypervisor.\u000aIt supports both privileged (dom0) and unprivileged (domU) operation.
p20
ss(Vbuild
p21
tp22
(dp23
Vsigned-modules
p24
I01
ss(Vimage
p25
Vppc64
p26
NVpowerpc64
p27
tp28
(dp29
Vconfigs
p30
(lp31
Vkernelarch-powerpc/config-arch-64
p32
aVkernelarch-powerpc/config-arch-64-be
p33
ass(Vbase
p34
Vpowerpcspe
p35
Vnone
p36
tp37
(dp38
Vimplicit-flavour
p39
I01
sVflavours
p40
(lp41
Vpowerpcspe
p42
ass(g34
Vppc64el
p43
g36
tp44
(dp45
g39
I01
sg40
(lp46
Vpowerpc64le
p47
ass(Vbase
p48
Vpowerpc
p49
tp50
(dp51
Vkernel-arch
p52
Vpowerpc
p53
sVfeaturesets
p54
(lp55
g36
ass(Vrelations
p56
tp57
(dp58
Vinitramfs-fallback
p59
Vlinux-initramfs-tool
p60
sVinitramfs-tools
p61
Vinitramfs-tools (>= 0.110~)
p62
sVgcc-5
p63
Vgcc-5 <!stage1>
p64
ss(Vimage
p65
Vmips
p66
NVocteon
p67
tp68
(dp69
Vconfigs
p70
(lp71
Vkernelarch-mips/config.octeon
p72
ass(Vbuild
p73
g49
tp74
(dp75
Vvdso
p76
I01
sVimage-file
p77
Vvmlinux
p78
ss(Vbase
p79
Vmipsel
p80
tp81
(dp82
Vkernel-arch
p83
Vmips
p84
sg54
(lp85
g36
ass(g34
Vm68k
p86
g36
tp87
(dp88
g39
I01
sg40
(lp89
Vm68k
p90
ass(Vbase
p91
g86
tp92
(dp93
Vcflags
p94
V-ffreestanding
p95
sVkernel-arch
p96
Vm68k
p97
sg54
(lp98
g36
ass(Vimage
p99
g43
tp100
(dp101
Vconfigs
p102
(lp103
sVsuggests
p104
Vmkvmlinuz
p105
sVinstall-stem
p106
Vvmlinux
p107
ss(Vabi
p108
Varmhf
p109
tp110
(dp111
Vignore-changes
p112
(lp113
Vmodule:drivers/gpu/drm/imx/*
p114
ass(Vbase
p115
Valpha
p116
tp117
(dp118
Vkernel-arch
p119
Valpha
p120
sg54
(lp121
g36
ass(Vdescription
p122
Varm64
p123
NVarm64
p124
tp125
(dp126
Vhardware
p127
V64-bit ARMv8 machines
p128
ss(Vdescription
p129
NVrt
p130
tp131
(dp132
Vpart-short-rt
p133
VPREEMPT_RT
p134
sVpart-long-rt
p135
VThis kernel includes the PREEMPT_RT realtime patch set.
p136
sVparts
p137
(lp138
Vrt
p139
ass(Vbase
p140
Vmipsn32
p141
tp142
(dp143
Vkernel-arch
p144
Vmips
p145
sVfeaturesets
p146
(lp147
ss(Vbase
p148
g26
tp149
(dp150
Vkernel-arch
p151
Vpowerpc
p152
sg54
(lp153
g36
ass(Vdescription
p154
Vamd64
p155
NVamd64
p156
tp157
(dp158
Vhardware-long
p159
VPCs with AMD64, Intel 64 or VIA Nano processors
p160
sVhardware
p161
V64-bit PCs
p162
ss(Vimage
p163
g49
NVpowerpc64
p164
tp165
(dp166
Vconfigs
p167
(lp168
Vkernelarch-powerpc/config-arch-64
p169
aVkernelarch-powerpc/config-arch-64-be
p170
ass(Vdescription
p171
g66
NVocteon
p172
tp173
(dp174
Vhardware-long
p175
VCavium Networks Octeon
p176
sVhardware
p177
VOcteon
p178
ss(Vimage
p179
g80
NVocteon
p180
tp181
(dp182
Vconfigs
p183
(lp184
Vkernelarch-mips/config.octeon
p185
ass(Vdescription
p186
Vsparc64
p187
NVsparc64-smp
p188
tp189
(dp190
Vhardware
p191
Vmultiprocessor 64-bit UltraSPARC
p192
ss(Vdescription
p193
g5
NV686-pae
p194
tp195
(dp196
Vparts
p197
(lp198
Vpae
p199
asVhardware-long
p200
VPCs with one or more processors supporting PAE
p201
sVhardware
p202
Vmodern PCs
p203
ss(Vimage
p204
g187
NVsparc64
p205
tp206
(dp207
Vconfigs
p208
(lp209
Vkernelarch-sparc/config-up
p210
ass(Vdescription
p211
g66
NV4kc-malta
p212
tp213
(dp214
Vhardware-long
p215
VMIPS Malta boards
p216
sVhardware
p217
VMIPS Malta
p218
ss(Vimage
p219
g80
NV4kc-malta
p220
tp221
(dp222
Vconfigs
p223
(lp224
Vkernelarch-mips/config.malta
p225
aVkernelarch-mips/config.mips32r1
p226
ass(Vbase
p227
g66
tp228
(dp229
Vkernel-arch
p230
Vmips
p231
sg54
(lp232
g36
ass(Vimage
p233
Vhppa
p234
tp235
(dp236
Vsuggests
p237
Vpalo
p238
sVinstall-stem
p239
Vvmlinux
p240
ss(Vbase
p241
g155
tp242
(dp243
Vkernel-arch
p244
Vx86
p245
sVfeaturesets
p246
(lp247
Vnone
p248
aVrt
p249
ass(Vdescription
p250
Vs390x
p251
NVs390x
p252
tp253
(dp254
Vhardware
p255
VIBM zSeries
p256
ss(Vbuild
p257
g5
tp258
(dp259
Vvdso
p260
I01
sVimage-file
p261
Varch/x86/boot/bzImage
p262
ss(Vdescription
p263
g109
NVarmmp
p264
tp265
(dp266
Vhardware-long
p267
VARMv7 multiplatform kernel. See\u000ahttps://wiki.debian.org/DebianKernel/ARMMP for details of supported\u000aplatforms
p268
sVhardware
p269
VARMv7 multiplatform compatible SoCs
p270
ss(Vdescription
p271
g80
NVloongson-3
p272
tp273
(dp274
Vhardware-long
p275
VLoongson 3A or 3B based systems (e.g. from Loongson or Lemote)
p276
sVhardware
p277
VLoongson 3A/3B
p278
ss(Vimage
p279
Vmips64el
p280
NVloongson-3
p281
tp282
(dp283
Vconfigs
p284
(lp285
Vkernelarch-mips/config.loongson-3
p286
ass(Vdescription
p287
g49
NVpowerpc64
p288
tp289
(dp290
Vhardware
p291
V64-bit PowerPC
p292
ss(Vbuild
p293
Vsh4
p294
tp295
(dp296
Vsigned-modules
p297
I00
sVimage-file
p298
Varch/sh/boot/zImage
p299
ss(Vbuild
p300
g280
tp301
(dp302
Vsigned-modules
p303
I00
sVimage-file
p304
Vvmlinux
p305
ss(Vimage
p306
g5
tp307
(dp308
Vbootloaders
p309
(lp310
Vgrub-pc
p311
aVextlinux
p312
asVbreaks
p313
Vxserver-xorg-input-vmmouse (<< 1:13.0.99)
p314
sVinstall-stem
p315
Vvmlinuz
p316
ss(Vbase
p317
g187
tp318
(dp319
Vkernel-arch
p320
Vsparc
p321
sg54
(lp322
g36
ass(Vbuild
p323
g187
tp324
(dp325
Vsigned-modules
p326
I00
sVimage-file
p327
Varch/sparc/boot/zImage
p328
ss(Vimage
p329
g251
tp330
(dp331
Vbootloaders
p332
(lp333
Vs390-tools
p334
asVinstall-stem
p335
Vvmlinuz
p336
ss(Vimage
p337
g280
tp338
(dp339
Vinstall-stem
p340
Vvmlinux
p341
ss(Vbase
p342
Vmips64
p343
tp344
(dp345
Vkernel-arch
p346
Vmips
p347
sg54
(lp348
g36
ass(g34
g251
g36
tp349
(dp350
g39
I01
sg40
(lp351
Vs390x
p352
ass(Vimage
p353
g294
NVsh7785lcr
p354
tp355
(dp356
Vcheck-size
p357
L4194304L
sVrecommends
p358
Vu-boot-tools
p359
ss(Vdescription
p360
g5
tp361
(dp362
Vpart-long-pae
p363
VThis kernel requires PAE (Physical Address Extension).\u000aThis feature is supported by the Intel Pentium Pro/II/III/4/4M/D, Xeon,\u000aCore and Atom; AMD Geode NX, Athlon (K7), Duron, Opteron, Sempron,\u000aTurion or Phenom; Transmeta Efficeon; VIA C7; and some other processors.
p364
ss(Vbuild
p365
g26
tp366
(dp367
Vsigned-modules
p368
I00
sVvdso
p369
I01
sVimage-file
p370
Vvmlinux
p371
ss(Vbase
p372
Vsparc
p373
tp374
(dp375
Vkernel-arch
p376
Vsparc
p377
sVfeaturesets
p378
(lp379
ss(Vdescription
p380
g43
NVpowerpc64le
p381
tp382
(dp383
Vhardware
p384
VLittle-endian 64-bit PowerPC
p385
ss(Vimage
p386
g80
NVloongson-2f
p387
tp388
(dp389
Vconfigs
p390
(lp391
Vkernelarch-mips/config.loongson-2f
p392
asVrecommends
p393
Vlibc6-loongson2f
p394
ss(Vbuild
p395
g123
tp396
(dp397
Vvdso
p398
I01
sVimage-file
p399
Varch/arm64/boot/Image
p400
sVdebug-info
p401
I01
ss(Vdescription
p402
g343
NVocteon
p403
tp404
(dp405
Vhardware-long
p406
VCavium Networks Octeon
p407
sVhardware
p408
VOcteon
p409
ss(g34
g116
g36
tp410
(dp411
g39
I01
sg40
(lp412
Valpha-generic
p413
aValpha-smp
p414
ass(Vbase
p415
g294
tp416
(dp417
Vkernel-arch
p418
Vsh
p419
sg54
(lp420
g36
ass(Vbase
p421
tp422
(dp423
Varches
p424
(lp425
Valpha
p426
aVamd64
p427
aVarm64
p428
aVarmel
p429
aVarmhf
p430
aVhppa
p431
aVi386
p432
aVm68k
p433
aVmips
p434
aVmipsel
p435
aVmipsn32
p436
aVmipsn32el
p437
aVmips64
p438
aVmips64el
p439
aVor1k
p440
aVpowerpc
p441
aVpowerpcspe
p442
aVppc64
p443
aVppc64el
p444
aVs390
p445
aVs390x
p446
aVsh4
p447
aVsparc
p448
aVsparc64
p449
aVtilegx
p450
aVx32
p451
asVcompiler
p452
Vgcc-5
p453
sVfeaturesets
p454
(lp455
Vnone
p456
aVrt
p457
ass(Vdescription
p458
g5
Vnone
p459
V686-pae
p460
tp461
(dp462
Vparts
p463
(lp464
Vxen
p465
ass(Vbase
p466
g5
Vrt
p467
tp468
(dp469
Vflavours
p470
(lp471
V686-pae
p472
ass(Vimage
p473
g66
tp474
(dp475
Vinstall-stem
p476
Vvmlinux
p477
ss(Vbase
p478
Vmipsn32el
p479
tp480
(dp481
Vkernel-arch
p482
Vmips
p483
sVfeaturesets
p484
(lp485
ss(Vdescription
p486
g80
NV4kc-malta
p487
tp488
(dp489
Vhardware-long
p490
VMIPS Malta boards
p491
sVhardware
p492
VMIPS Malta
p493
ss(Vdescription
p494
g116
NValpha-generic
p495
tp496
(dp497
Vhardware-long
p498
VDEC Alpha systems with extended kernel start address (Wildfire, Titan, Marvel)
p499
sVhardware
p500
VAlpha
p501
ss(Vdescription
p502
g49
NVpowerpc-smp
p503
tp504
(dp505
Vhardware
p506
Vmultiprocessor 32-bit PowerPC
p507
ss(Vimage
p508
g66
NV5kc-malta
p509
tp510
(dp511
Vconfigs
p512
(lp513
Vkernelarch-mips/config.malta
p514
aVkernelarch-mips/config.mips64r2
p515
ass(Vdescription
p516
g294
NVsh7785lcr
p517
tp518
(dp519
Vhardware-long
p520
VRenesas SH7785 reference board
p521
sVhardware
p522
Vsh7785lcr
p523
ss(Vbuild
p524
g5
NV686-pae
p525
tp526
(dp527
Vdebug-info
p528
I01
ss(Vrelations
p529
Varmel
p530
tp531
(dp532
Vheaders%gcc-5
p533
Vlinux-compiler-gcc-5-arm
p534
ss(Vdescription
p535
g530
NVversatile
p536
tp537
(dp538
Vhardware-long
p539
VVersatile systems (PB, AB, Qemu)
p540
sVhardware
p541
VVersatile
p542
ss(Vbuild
p543
g530
NVmarvell
p544
tp545
(dp546
Vsigned-modules
p547
I00
ss(Vdescription
p548
g280
NV5kc-malta
p549
tp550
(dp551
Vhardware-long
p552
VMIPS Malta boards
p553
sVhardware
p554
VMIPS Malta
p555
ss(Vimage
p556
g116
tp557
(dp558
Vsuggests
p559
Vaboot, fdutils
p560
sVinstall-stem
p561
Vvmlinuz
p562
ss(Vrelations
p563
g251
tp564
(dp565
Vheaders%gcc-5
p566
Vlinux-compiler-gcc-5-s390
p567
ss(Vbuild
p568
g35
tp569
(dp570
Vsigned-modules
p571
I00
sVvdso
p572
I01
sVimage-file
p573
Vvmlinux
p574
ss(Vbase
p575
g123
tp576
(dp577
Vkernel-arch
p578
Varm64
p579
sVfeaturesets
p580
(lp581
Vnone
p582
ass(Vbuild
p583
g116
tp584
(dp585
Vsigned-modules
p586
I00
sVimage-file
p587
Varch/alpha/boot/vmlinux.gz
p588
ss(Vimage
p589
tp590
(dp591
Vinitramfs-generators
p592
(lp593
Vinitramfs-tools
p594
aVinitramfs-fallback
p595
ass(Vimage
p596
g530
NVmarvell
p597
tp598
(dp599
Vcheck-size-with-dtb
p600
I01
sVcheck-size
p601
L2097080L
sVbreaks
p602
Vflash-kernel (<< 3.57~)
p603
sVrecommends
p604
Vu-boot-tools
p605
ss(Vdescription
p606
g294
NVsh7751r
p607
tp608
(dp609
Vhardware-long
p610
VRenesas SH7751R R2D plus board
p611
sVhardware
p612
Vsh7751r
p613
ss(Vbase
p614
g35
tp615
(dp616
Vkernel-arch
p617
Vpowerpc
p618
sg54
(lp619
g36
ass(Vimage
p620
g343
NVocteon
p621
tp622
(dp623
Vconfigs
p624
(lp625
Vkernelarch-mips/config.octeon
p626
ass(Vbuild
p627
g43
tp628
(dp629
Vvdso
p630
I01
sVimage-file
p631
Vvmlinux
p632
ss(Vbase
p633
g155
Vnone
p634
tp635
(dp636
Vflavours
p637
(lp638
Vamd64
p639
ass(Vimage
p640
g280
NVocteon
p641
tp642
(dp643
Vconfigs
p644
(lp645
Vkernelarch-mips/config.octeon
p646
ass(Vimage
p647
g343
NV5kc-malta
p648
tp649
(dp650
Vconfigs
p651
(lp652
Vkernelarch-mips/config.malta
p653
aVkernelarch-mips/config.mips64r2
p654
ass(Vbase
p655
g123
Vnone
p656
tp657
(dp658
Vflavours
p659
(lp660
Varm64
p661
ass(Vbuild
p662
g251
NVs390x
p663
tp664
(dp665
Vdebug-info
p666
I01
ss(Vimage
p667
g109
tp668
(dp669
Vinstall-stem
p670
Vvmlinuz
p671
ss(Vdescription
p672
g86
NVm68k
p673
tp674
(dp675
Vhardware
p676
VMotorola MC68020+ family
p677
ss(g34
g187
g36
tp678
(dp679
g39
I01
sg40
(lp680
Vsparc64
p681
aVsparc64-smp
p682
ass(Vdescription
p683
g530
NVmarvell
p684
tp685
(dp686
Vhardware-long
p687
VMarvell Kirkwood based systems (SheevaPlug, QNAP TS-119/TS-219, etc)\u000aand Orion 5181, 5182 and 5281 based systems (QNAP TS-109/TS-209, etc)
p688
sVhardware
p689
VMarvell Kirkwood/Orion
p690
ss(Vimage
p691
g187
NVsparc64-smp
p692
tp693
(dp694
Vconfigs
p695
(lp696
Vkernelarch-sparc/config-smp
p697
ass(g34
g49
g36
tp698
(dp699
g39
I01
sg40
(lp700
Vpowerpc
p701
aVpowerpc-smp
p702
aVpowerpc64
p703
ass(Vdescription
p704
g80
NVloongson-2e
p705
tp706
(dp707
Vhardware-long
p708
VLemote Loongson 2E systems
p709
sVhardware
p710
VLoongson 2E
p711
ss(Vbuild
p712
g86
tp713
(dp714
Vsigned-modules
p715
I00
sVimage-file
p716
Vvmlinux.gz
p717
ss(Vbuild
p718
g109
tp719
(dp720
Vvdso
p721
I01
sVimage-file
p722
Varch/arm/boot/zImage
p723
ss(Vbase
p724
NVrt
p725
tp726
(dp727
Venabled
p728
I01
ss(Vdescription
p729
g26
NVpowerpc64
p730
tp731
(dp732
Vhardware
p733
V64-bit PowerPC
p734
ss(Vimage
p735
g49
tp736
(dp737
Vconfigs
p738
(lp739
sVsuggests
p740
Vmkvmlinuz
p741
sVinstall-stem
p742
Vvmlinux
p743
ss(Vdescription
p744
g155
g634
Vamd64
p745
tp746
(dp747
Vparts
p748
(lp749
Vxen
p750
ass(Vimage
p751
g43
NVpowerpc64le
p752
tp753
(dp754
Vconfigs
p755
(lp756
Vkernelarch-powerpc/config-arch-64
p757
aVkernelarch-powerpc/config-arch-64-le
p758
ass(Vdescription
p759
g116
NValpha-smp
p760
tp761
(dp762
Vhardware-long
p763
VDEC Alpha SMP systems with extended kernel start address (Wildfire, Titan, Marvel)
p764
sVhardware
p765
VAlpha SMP
p766
ss(Vdescription
p767
g5
NV686
p768
tp769
(dp770
Vhardware-long
p771
VPCs with one or more processors not supporting PAE
p772
sVhardware
p773
Volder PCs
p774
ss(Vbase
p775
g280
tp776
(dp777
Vkernel-arch
p778
Vmips
p779
sg54
(lp780
g36
ass(Vimage
p781
g343
tp782
(dp783
Vinstall-stem
p784
Vvmlinux
p785
ss(Vimage
p786
g86
tp787
(dp788
Vsuggests
p789
Vvmelilo, fdutils
p790
sVinstall-stem
p791
Vvmlinuz
p792
ss(g34
g26
g36
tp793
(dp794
g39
I01
sg40
(lp795
Vpowerpc64
p796
ass(Vimage
p797
g80
NV5kc-malta
p798
tp799
(dp800
Vconfigs
p801
(lp802
Vkernelarch-mips/config.malta
p803
aVkernelarch-mips/config.mips64r1
p804
ass(g34
g343
g36
tp805
(dp806
g39
I01
sg40
(lp807
V5kc-malta
p808
aVocteon
p809
ass(Vbuild
p810
g530
tp811
(dp812
Vimage-file
p813
Varch/arm/boot/zImage
p814
ss(Vimage
p815
g80
NVloongson-3
p816
tp817
(dp818
Vconfigs
p819
(lp820
Vkernelarch-mips/config.loongson-3
p821
ass(Vdescription
p822
g280
NVloongson-3
p823
tp824
(dp825
Vhardware-long
p826
VLoongson 3A or 3B based systems (e.g. from Loongson or Lemote)
p827
sVhardware
p828
VLoongson 3A/3B
p829
ss(Vdescription
p830
g109
NVarmmp-lpae
p831
tp832
(dp833
Vhardware-long
p834
VARMv7 multiplatform kernel supporting LPAE. See\u000ahttps://wiki.debian.org/DebianKernel/ARMMP for details of supported\u000aplatforms.
p835
sVhardware
p836
VARMv7 multiplatform compatible SoCs supporting LPAE
p837
ss(Vbuild
p838
g343
tp839
(dp840
Vsigned-modules
p841
I00
sVimage-file
p842
Vvmlinux
p843
ss(Vimage
p844
g26
tp845
(dp846
Vconfigs
p847
(lp848
sVsuggests
p849
Vmkvmlinuz
p850
sVinstall-stem
p851
Vvmlinux
p852
ss(Vbase
p853
Vor1k
p854
tp855
(dp856
Vkernel-arch
p857
Vopenrisc
p858
sVfeaturesets
p859
(lp860
ss(Vimage
p861
g280
NV5kc-malta
p862
tp863
(dp864
Vconfigs
p865
(lp866
Vkernelarch-mips/config.malta
p867
aVkernelarch-mips/config.mips64r2
p868
ass(Vimage
p869
g530
tp870
(dp871
Vinstall-stem
p872
Vvmlinuz
p873
ss(g34
g294
g36
tp874
(dp875
g39
I01
sg40
(lp876
Vsh7751r
p877
aVsh7785lcr
p878
ass(Vdescription
p879
g187
NVsparc64
p880
tp881
(dp882
Vhardware
p883
Vuniprocessor 64-bit UltraSPARC
p884
ss(Vbase
p885
Vtilegx
p886
tp887
(dp888
Vkernel-arch
p889
Vtile
p890
sVfeaturesets
p891
(lp892
ss(Vdescription
p893
g234
NVparisc
p894
tp895
(dp896
Vhardware-long
p897
VHP PA-RISC 32-bit systems with max 4 GB RAM
p898
sVhardware
p899
V32-bit PA-RISC
p900
ss(Vbuild
p901
g234
tp902
(dp903
Vsigned-modules
p904
I00
sVimage-file
p905
Vvmlinux
p906
ss(Vimage
p907
g123
NVarm64
p908
tp909
(dp910
s(Vimage
p911
g155
tp912
(dp913
Vbootloaders
p914
(lp915
Vgrub-pc
p916
aVgrub-efi
p917
aVextlinux
p918
asVbreaks
p919
Vxserver-xorg-input-vmmouse (<< 1:13.0.99)
p920
sVinstall-stem
p921
Vvmlinuz
p922
ss(g34
g280
g36
tp923
(dp924
g39
I01
sg40
(lp925
V5kc-malta
p926
aVloongson-3
p927
aVocteon
p928
ass(g34
g234
g36
tp929
(dp930
g39
I01
sg40
(lp931
Vparisc
p932
aVparisc64-smp
p933
ass(Vabi
p934
g280
tp935
(dp936
Vignore-changes
p937
(lp938
V__flush_icache_page
p939
ass(Vdescription
p940
g49
NVpowerpc
p941
tp942
(dp943
Vhardware
p944
Vuniprocessor 32-bit PowerPC
p945
ss(Vdescription
p946
g66
NV5kc-malta
p947
tp948
(dp949
Vhardware-long
p950
VMIPS Malta boards (64-bit)
p951
sVhardware
p952
VMIPS Malta (64-bit)
p953
ss(Vbase
p954
Vx32
p955
tp956
(dp957
Vkernel-arch
p958
Vx86
p959
sVfeaturesets
p960
(lp961
ss(Vbuild
p962
g155
tp963
(dp964
Vvdso
p965
I01
sVimage-file
p966
Varch/x86/boot/bzImage
p967
sVdebug-info
p968
I01
ss(Vimage
p969
g294
tp970
(dp971
Vinstall-stem
p972
Vvmlinuz
p973
ss(Vdescription
p974
g35
tp975
(dp976
Vhardware
p977
V32-bit PowerPC with SPE (instead of AltiVec) with SMP support
p978
ss(Vbase
p979
g234
NVparisc64-smp
p980
tp981
(dp982
Vcflags
p983
V-fno-cse-follow-jumps
p984
sVoverride-host-type
p985
Vhppa64-linux-gnu
p986
ss(g34
g109
g36
tp987
(dp988
g39
I01
sg40
(lp989
Varmmp
p990
aVarmmp-lpae
p991
ass(Vdescription
p992
g280
NVocteon
p993
tp994
(dp995
Vhardware-long
p996
VCavium Networks Octeon
p997
sVhardware
p998
VOcteon
p999
ss(Vbase
p1000
g109
tp1001
(dp1002
Vkernel-arch
p1003
Varm
p1004
sg54
(lp1005
g36
ass(Vdescription
p1006
g343
NV5kc-malta
p1007
tp1008
(dp1009
Vhardware-long
p1010
VMIPS Malta boards
p1011
sVhardware
p1012
VMIPS Malta
p1013
ss(Vimage
p1014
g187
tp1015
(dp1016
Vconfigs
p1017
(lp1018
sVsuggests
p1019
Vsilo, fdutils
p1020
sVinstall-stem
p1021
Vvmlinuz
p1022
ss(Vbuild
p1023
g251
tp1024
(dp1025
Vvdso
p1026
I01
sVimage-file
p1027
Varch/s390/boot/image
p1028
ss(Vabi
p1029
g80
tp1030
(dp1031
Vignore-changes
p1032
(lp1033
V__flush_icache_page
p1034
ass(Vimage
p1035
g80
tp1036
(dp1037
Vinstall-stem
p1038
Vvmlinux
p1039
ss(Vimage
p1040
g66
NV4kc-malta
p1041
tp1042
(dp1043
Vconfigs
p1044
(lp1045
Vkernelarch-mips/config.malta
p1046
aVkernelarch-mips/config.mips32r2
p1047
ass(Vrelations
p1048
g155
tp1049
(dp1050
Vheaders%gcc-5
p1051
Vlinux-compiler-gcc-5-x86
p1052
ss(Vdescription
p1053
g80
NVloongson-2f
p1054
tp1055
(dp1056
Vhardware-long
p1057
VLemote Loongson 2F systems
p1058
sVhardware
p1059
VLoongson 2F
p1060
ss(Vrelations
p1061
g5
tp1062
(dp1063
Vheaders%gcc-5
p1064
Vlinux-compiler-gcc-5-x86
p1065
ss(Vimage
p1066
g80
NVloongson-2e
p1067
tp1068
(dp1069
Vconfigs
p1070
(lp1071
Vkernelarch-mips/config.loongson-2e
p1072
ass(Vbuild
p1073
g66
tp1074
(dp1075
Vsigned-modules
p1076
I00
sVimage-file
p1077
Vvmlinux
p1078
ss(Vabi
p1079
tp1080
(dp1081
Vignore-changes
p1082
(lp1083
Vmodule:drivers/net/wireless/realtek/rtlwifi/*
p1084
aVmodule:net/switchdev/*
p1085
aVxt_compat_match_from_user
p1086
asVabiname
p1087
Vkali1
p1088
ss(Vbase
p1089
g5
g459
tp1090
(dp1091
Vflavours
p1092
(lp1093
V686
p1094
aV686-pae
p1095
ass(Vbuild
p1096
g80
tp1097
(dp1098
Vsigned-modules
p1099
I00
sVimage-file
p1100
Vvmlinux
p1101
ss(Vversion
p1102
tp1103
(dp1104
Vsource
p1105
V4.6.3-1kali1
p1106
sVabiname_base
p1107
V4.6.0
p1108
sVupstream
p1109
V4.6
p1110
sVabiname
p1111
V4.6.0-kali1
p1112
ss(Vdescription
p1113
g80
NVocteon
p1114
tp1115
(dp1116
Vhardware-long
p1117
VCavium Networks Octeon
p1118
sVhardware
p1119
VOcteon
p1120
ss(Vdescription
p1121
g80
NV5kc-malta
p1122
tp1123
(dp1124
Vhardware-long
p1125
VMIPS Malta boards (64-bit)
p1126
sVhardware
p1127
VMIPS Malta (64-bit)
p1128
ss(Vabi
p1129
g66
tp1130
(dp1131
Vignore-changes
p1132
(lp1133
V__flush_icache_page
p1134
ass(Vrelations
p1135
g234
tp1136
(dp1137
Vgcc-5
p1138
Vgcc-5 <!stage1>, binutils-hppa64-linux-gnu <!stage1>, gcc-5-hppa64-linux-gnu <!stage1>
p1139
ss(Vdescription
p1140
g234
NVparisc64-smp
p1141
tp1142
(dp1143
Vhardware-long
p1144
VHP PA-RISC 64-bit SMP systems with support for more than 4 GB RAM
p1145
sVhardware
p1146
Vmultiprocessor 64-bit PA-RISC
p1147
ss(g34
g66
g36
tp1148
(dp1149
g39
I01
sg40
(lp1150
V4kc-malta
p1151
aV5kc-malta
p1152
aVocteon
p1153
ass(Vimage
p1154
g123
tp1155
(dp1156
Vinstall-stem
p1157
Vvmlinuz
p1158
ss(Vabi
p1159
Ng130
tp1160
(dp1161
Vignore-changes
p1162
(lp1163
V*
p1164
ass(Vbase
p1165
g530
tp1166
(dp1167
Vkernel-arch
p1168
Varm
p1169
sg54
(lp1170
g36
ass(Vimage
p1171
g49
NVpowerpc-smp
p1172
tp1173
(dp1174
Vconfigs
p1175
(lp1176
Vpowerpc/config.powerpc
p1177
aVpowerpc/config.powerpc-smp
p1178
ass(Vbase
p1179
g43
tp1180
(dp1181
Vkernel-arch
p1182
Vpowerpc
p1183
sg54
(lp1184
g36
ass(Vbase
p1185
Vs390
p1186
tp1187
(dp1188
Vkernel-arch
p1189
Vs390
p1190
sVfeaturesets
p1191
(lp1192
ss(Vimage
p1193
g35
tp1194
(dp1195
Vsuggests
p1196
Vmkvmlinuz
p1197
sVinstall-stem
p1198
Vvmlinux
p1199
ss(Vbase
p1200
g234
tp1201
(dp1202
Vkernel-arch
p1203
Vparisc
p1204
sg54
(lp1205
g36
ass(g34
g530
g36
tp1206
(dp1207
g39
I01
sg40
(lp1208
Vmarvell
p1209
aVversatile
p1210
ass(Vxen
p1211
g155
g634
Vamd64
p1212
tp1213
(dp1214
Vflavours
p1215
(lp1216
Vamd64
p1217
ass(Vrelations
p1218
g109
tp1219
(dp1220
Vheaders%gcc-5
p1221
Vlinux-compiler-gcc-5-arm
p1222
ss(Vbase
p1223
g251
tp1224
(dp1225
Vkernel-arch
p1226
Vs390
p1227
sg54
(lp1228
g36
ass(g34
g80
g36
tp1229
(dp1230
g39
I01
sg40
(lp1231
V4kc-malta
p1232
aV5kc-malta
p1233
aVloongson-2e
p1234
aVloongson-2f
p1235
aVloongson-3
p1236
aVocteon
p1237
ass(Vbase
p1238
g155
Vrt
p1239
tp1240
(dp1241
Vflavours
p1242
(lp1243
Vamd64
p1244
asstp1245
Rp1246
.