ccopy_reg
_reconstructor
p0
(cdebian_linux.config
ConfigCore
p1
c__builtin__
dict
p2
(dp3
(Vdescription
p4
Vpowerpc
p5
NVpowerpc-smp
p6
tp7
(dp8
Vhardware
p9
Vmultiprocessor 32-bit PowerPC
p10
ss(Vbuild
p11
Vamd64
p12
tp13
(dp14
Vdebug-info
p15
I01
sVimage-file
p16
Varch/x86/boot/bzImage
p17
ss(Vdescription
p18
Vi386
p19
NV686-pae
p20
tp21
(dp22
Vhardware
p23
Vmodern PCs
p24
sVparts
p25
(lp26
Vpae
p27
asVhardware-long
p28
VPCs with one or more processors supporting PAE
p29
ss(Vbase
p30
Vsh4
p31
tp32
(dp33
Vkernel-arch
p34
Vsh
p35
sVfeaturesets
p36
(lp37
Vnone
p38
ass(Vrelations
p39
Varmhf
p40
tp41
(dp42
Vheaders%gcc-4.9
p43
Vlinux-compiler-gcc-4.9-arm
p44
ss(Vdescription
p45
Vmips64el
p46
NVloongson-3
p47
tp48
(dp49
Vhardware
p50
VLoongson 3A/3B
p51
sVhardware-long
p52
VLoongson 3A or 3B based systems (e.g. from Loongson or Lemote)
p53
ss(Vbase
p54
NVrt
p55
tp56
(dp57
Venabled
p58
I00
ss(Vimage
p59
g19
NV686
p60
tp61
(dp62
Vrecommends
p63
Vlibc6-i686
p64
sVconfigs
p65
(lp66
Vkernelarch-x86/config-arch-32
p67
aVi386/config.686
p68
ass(Vbuild
p69
Vmips64
p70
tp71
(dp72
Vimage-file
p73
Vvmlinux
p74
ss(Vdescription
p75
g40
NVarmmp
p76
tp77
(dp78
Vhardware
p79
VARMv7 multiplatform compatible SoCs
p80
sVhardware-long
p81
VARMv7 multiplatform kernel. See\u000ahttps://wiki.debian.org/DebianKernel/ARMMP for details of supported\u000aplatforms
p82
ss(Vimage
p83
g70
tp84
(dp85
Vinstall-stem
p86
Vvmlinux
p87
ss(Vbuild
p88
Vhppa
p89
tp90
(dp91
Vimage-file
p92
Vvmlinux
p93
ss(Vdescription
p94
g31
NVsh7785lcr
p95
tp96
(dp97
Vhardware
p98
Vsh7785lcr
p99
sVhardware-long
p100
VRenesas SH7785 reference board
p101
ss(Vimage
p102
g5
tp103
(dp104
Vinstall-stem
p105
Vvmlinux
p106
sVsuggests
p107
Vmkvmlinuz
p108
sVconfigs
p109
(lp110
ss(Vimage
p111
Vpowerpcspe
p112
tp113
(dp114
Vinstall-stem
p115
Vvmlinux
p116
sVsuggests
p117
Vmkvmlinuz
p118
ss(Vdescription
p119
g12
Vnone
p120
Vamd64
p121
tp122
(dp123
Vparts
p124
(lp125
Vxen
p126
ass(Vbase
p127
g89
NVparisc64-smp
p128
tp129
(dp130
Vcflags
p131
V-fno-cse-follow-jumps
p132
sVoverride-host-type
p133
Vhppa64-linux-gnu
p134
ss(Vbase
p135
g19
tp136
(dp137
Vkernel-arch
p138
Vx86
p139
sVfeaturesets
p140
(lp141
Vnone
p142
aVrt
p143
asVcompiler
p144
Vgcc-5
p145
ss(Vrelations
p146
g19
tp147
(dp148
Vheaders%gcc-5
p149
Vlinux-compiler-gcc-5-x86
p150
ss(Vbase
p151
g89
g38
tp152
(dp153
Vflavours
p154
(lp155
Vparisc
p156
aVparisc64-smp
p157
asVimplicit-flavour
p158
I01
ss(Vbase
p159
Vs390
p160
tp161
(dp162
Vkernel-arch
p163
Vs390
p164
sVfeaturesets
p165
(lp166
ss(Vrelations
p167
g12
tp168
(dp169
Vheaders%gcc-5
p170
Vlinux-compiler-gcc-5-x86
p171
ss(Vdescription
p172
g70
NV5kc-malta
p173
tp174
(dp175
Vhardware
p176
VMIPS Malta
p177
sVhardware-long
p178
VMIPS Malta boards
p179
ss(Vimage
p180
Vm68k
p181
tp182
(dp183
Vinstall-stem
p184
Vvmlinuz
p185
sVsuggests
p186
Vvmelilo, fdutils
p187
ss(Vbuild
p188
Valpha
p189
tp190
(dp191
Vimage-file
p192
Varch/alpha/boot/vmlinux.gz
p193
ss(Vbuild
p194
g112
tp195
(dp196
Vimage-file
p197
Vvmlinux
p198
ss(Vimage
p199
g40
tp200
(dp201
Vinstall-stem
p202
Vvmlinuz
p203
sVconfigs
p204
(lp205
Vkernelarch-arm/config
p206
asVsuggests
p207
Vfdutils
p208
ss(Vdescription
p209
Vsparc64
p210
NVsparc64
p211
tp212
(dp213
Vhardware
p214
Vuniprocessor 64-bit UltraSPARC
p215
ss(Vimage
p216
Vmipsel
p217
NV5kc-malta
p218
tp219
(dp220
Vconfigs
p221
(lp222
Vkernelarch-mips/config.5kc-malta
p223
ass(Vbuild
p224
Varmel
p225
tp226
(dp227
Vimage-file
p228
Varch/arm/boot/zImage
p229
ss(Vxen
p230
g12
g120
Vamd64
p231
tp232
(dp233
Vflavours
p234
(lp235
Vamd64
p236
ass(g151
g5
g38
tp237
(dp238
g154
(lp239
Vpowerpc
p240
aVpowerpc-smp
p241
aVpowerpc64
p242
asg158
I01
ss(Vdescription
p243
Vmips
p244
NVocteon
p245
tp246
(dp247
Vhardware
p248
VOcteon
p249
sVhardware-long
p250
VCavium Networks Octeon
p251
ss(Vbuild
p252
Vs390x
p253
tp254
(dp255
Vimage-file
p256
Varch/s390/boot/image
p257
ss(Vdescription
p258
g217
NV5kc-malta
p259
tp260
(dp261
Vhardware
p262
VMIPS Malta (64-bit)
p263
sVhardware-long
p264
VMIPS Malta boards (64-bit)
p265
ss(Vbase
p266
g40
tp267
(dp268
Vkernel-arch
p269
Varm
p270
sg36
(lp271
g38
ass(Vimage
p272
g46
NVloongson-3
p273
tp274
(dp275
Vconfigs
p276
(lp277
Vkernelarch-mips/config.loongson-3
p278
ass(Vbase
p279
g181
tp280
(dp281
Vcflags
p282
V-ffreestanding
p283
sVkernel-arch
p284
Vm68k
p285
sg36
(lp286
g38
asVcompiler
p287
Vgcc-4.8
p288
ss(Vbuild
p289
g5
tp290
(dp291
Vimage-file
p292
Vvmlinux
p293
ss(Vbuild
p294
g244
tp295
(dp296
Vimage-file
p297
Vvmlinux
p298
ss(g151
g225
g38
tp299
(dp300
g154
(lp301
Vkirkwood
p302
aVorion5x
p303
aVversatile
p304
asg158
I01
ss(Vdescription
p305
g225
NVversatile
p306
tp307
(dp308
Vhardware
p309
VVersatile
p310
sVhardware-long
p311
VVersatile systems (PB, AB, Qemu)
p312
ss(Vbase
p313
Varm64
p314
tp315
(dp316
Vkernel-arch
p317
Varm64
p318
sVfeaturesets
p319
(lp320
Vnone
p321
ass(Vdescription
p322
g253
NVs390x
p323
tp324
(dp325
Vhardware
p326
VIBM zSeries
p327
ss(g151
g253
g38
tp328
(dp329
g154
(lp330
Vs390x
p331
asg158
I01
ss(Vimage
p332
g46
NVocteon
p333
tp334
(dp335
Vconfigs
p336
(lp337
Vkernelarch-mips/config.octeon
p338
ass(Vbase
p339
g314
Vnone
p340
tp341
(dp342
Vflavours
p343
(lp344
Varm64
p345
ass(Vdescription
p346
g19
tp347
(dp348
Vpart-long-pae
p349
VThis kernel requires PAE (Physical Address Extension).\u000aThis feature is supported by the Intel Pentium Pro/II/III/4/4M/D, Xeon,\u000aCore and Atom; AMD Geode NX, Athlon (K7), Duron, Opteron, Sempron,\u000aTurion or Phenom; Transmeta Efficeon; VIA C7; and some other processors.
p350
ss(Vbase
p351
g225
tp352
(dp353
Vkernel-arch
p354
Varm
p355
sg36
(lp356
g38
ass(Vdescription
p357
g217
NV4kc-malta
p358
tp359
(dp360
Vhardware
p361
VMIPS Malta
p362
sVhardware-long
p363
VMIPS Malta boards
p364
ss(Vbuild
p365
Vppc64
p366
tp367
(dp368
Vimage-file
p369
Vvmlinux
p370
ss(Vimage
p371
g244
NV5kc-malta
p372
tp373
(dp374
Vconfigs
p375
(lp376
Vkernelarch-mips/config.5kc-malta
p377
ass(Vdescription
p378
g225
NVorion5x
p379
tp380
(dp381
Vhardware
p382
VMarvell Orion
p383
sVhardware-long
p384
VMarvell Orion 5181, 5182 and 5281 based systems (QNAP TS-109/TS-209, etc)
p385
ss(Vdescription
p386
g12
NVamd64
p387
tp388
(dp389
Vhardware
p390
V64-bit PCs
p391
sVhardware-long
p392
VPCs with AMD64, Intel 64 or VIA Nano processors
p393
ss(Vbase
p394
g112
tp395
(dp396
Vkernel-arch
p397
Vpowerpc
p398
sg36
(lp399
g38
ass(Vimage
p400
g70
NV5kc-malta
p401
tp402
(dp403
Vconfigs
p404
(lp405
Vkernelarch-mips/config.5kc-malta
p406
ass(Vimage
p407
g31
tp408
(dp409
Vinstall-stem
p410
Vvmlinuz
p411
sVsuggests
p412
Vfdutils
p413
ss(g151
g70
g38
tp414
(dp415
g154
(lp416
V5kc-malta
p417
aVocteon
p418
asg158
I01
ss(g151
g46
g38
tp419
(dp420
g154
(lp421
V5kc-malta
p422
aVloongson-3
p423
aVocteon
p424
asg158
I01
ss(Vrelations
p425
tp426
(dp427
Vinitramfs-fallback
p428
Vlinux-initramfs-tool
p429
sVgcc-4.9
p430
Vgcc-4.9 <!stage1>
p431
sVgcc-4.8
p432
Vgcc-4.8 <!stage1>
p433
sVgcc-5
p434
Vgcc-5 <!stage1>
p435
sVinitramfs-tools
p436
Vinitramfs-tools (>= 0.110~)
p437
ss(g151
g181
g38
tp438
(dp439
g154
(lp440
Vm68k
p441
asg158
I01
ss(Vdescription
p442
g112
tp443
(dp444
Vhardware
p445
V32-bit PowerPC with SPE (instead of AltiVec) with SMP support
p446
ss(Vbase
p447
g46
tp448
(dp449
Vkernel-arch
p450
Vmips
p451
sg36
(lp452
g38
ass(Vabi
p453
NVrt
p454
tp455
(dp456
Vignore-changes
p457
(lp458
V*
p459
ass(Vbase
p460
g12
tp461
(dp462
Vkernel-arch
p463
Vx86
p464
sVfeaturesets
p465
(lp466
Vnone
p467
aVrt
p468
asVcompiler
p469
Vgcc-5
p470
ss(g151
g217
g38
tp471
(dp472
g154
(lp473
V4kc-malta
p474
aV5kc-malta
p475
aVloongson-2e
p476
aVloongson-2f
p477
aVloongson-3
p478
asg158
I01
ss(Vdescription
p479
g244
NV4kc-malta
p480
tp481
(dp482
Vhardware
p483
VMIPS Malta
p484
sVhardware-long
p485
VMIPS Malta boards
p486
ss(Vrelations
p487
g89
tp488
(dp489
Vgcc-4.9
p490
Vgcc-4.9 <!stage1>, binutils-hppa64 <!stage1>, gcc-4.9-hppa64 <!stage1>
p491
ss(Vbuild
p492
g46
tp493
(dp494
Vimage-file
p495
Vvmlinux
p496
ss(Vdescription
p497
Ng454
tp498
(dp499
Vparts
p500
(lp501
Vrt
p502
asVpart-short-rt
p503
VPREEMPT_RT
p504
sVpart-long-rt
p505
VThis kernel includes the PREEMPT_RT realtime patch set.
p506
ss(Vdescription
p507
g217
NVloongson-3
p508
tp509
(dp510
Vhardware
p511
VLoongson 3A/3B
p512
sVhardware-long
p513
VLoongson 3A or 3B based systems (e.g. from Loongson or Lemote)
p514
ss(Vimage
p515
g40
NVarmmp-lpae
p516
tp517
(dp518
Vconfigs
p519
(lp520
Varmhf/config.armmp
p521
aVarmhf/config.lpae
p522
ass(Vimage
p523
g225
tp524
(dp525
Vinstall-stem
p526
Vvmlinuz
p527
sVconfigs
p528
(lp529
Vkernelarch-arm/config
p530
aVarmel/config
p531
asVsuggests
p532
Vfdutils
p533
ss(Vdescription
p534
g70
NVocteon
p535
tp536
(dp537
Vhardware
p538
VOcteon
p539
sVhardware-long
p540
VCavium Networks Octeon
p541
ss(Vbase
p542
g244
tp543
(dp544
Vkernel-arch
p545
Vmips
p546
sg36
(lp547
g38
ass(g151
g112
g38
tp548
(dp549
g154
(lp550
Vpowerpcspe
p551
asg158
I01
ss(Vbuild
p552
g181
tp553
(dp554
Vimage-file
p555
Vvmlinux.gz
p556
ss(Vimage
p557
g217
NVloongson-3
p558
tp559
(dp560
Vconfigs
p561
(lp562
Vkernelarch-mips/config.loongson-3
p563
ass(Vdescription
p564
g210
NVsparc64-smp
p565
tp566
(dp567
Vhardware
p568
Vmultiprocessor 64-bit UltraSPARC
p569
ss(Vdescription
p570
Vppc64el
p571
NVpowerpc64le
p572
tp573
(dp574
Vhardware
p575
VLittle-endian 64-bit PowerPC
p576
ss(Vdescription
p577
g244
NV5kc-malta
p578
tp579
(dp580
Vhardware
p581
VMIPS Malta (64-bit)
p582
sVhardware-long
p583
VMIPS Malta boards (64-bit)
p584
ss(Vbase
p585
g366
tp586
(dp587
Vkernel-arch
p588
Vpowerpc
p589
sg36
(lp590
g38
ass(Vrelations
p591
g225
tp592
(dp593
Vheaders%gcc-4.9
p594
Vlinux-compiler-gcc-4.9-arm
p595
ss(g151
g571
g38
tp596
(dp597
g154
(lp598
Vpowerpc64le
p599
asg158
I01
ss(Vimage
p600
g89
tp601
(dp602
Vinstall-stem
p603
Vvmlinux
p604
sVsuggests
p605
Vpalo
p606
ss(Vdescription
p607
g5
NVpowerpc64
p608
tp609
(dp610
Vhardware
p611
V64-bit PowerPC
p612
ss(Vdescription
p613
g46
NV5kc-malta
p614
tp615
(dp616
Vhardware
p617
VMIPS Malta
p618
sVhardware-long
p619
VMIPS Malta boards
p620
ss(Vimage
p621
g12
NVamd64
p622
tp623
(dp624
Vconfigs
p625
(lp626
Vkernelarch-x86/config-arch-64
p627
ass(Vdescription
p628
g217
NVloongson-2f
p629
tp630
(dp631
Vhardware
p632
VLoongson 2F
p633
sVhardware-long
p634
VLemote Loongson 2F systems
p635
ss(g151
g210
g38
tp636
(dp637
g154
(lp638
Vsparc64
p639
aVsparc64-smp
p640
asg158
I01
ss(Vbase
p641
g210
tp642
(dp643
Vkernel-arch
p644
Vsparc
p645
sg36
(lp646
g38
ass(Vdescription
p647
tp648
(dp649
Vpart-long-xen
p650
VThis kernel also runs on a Xen hypervisor.\u000aIt supports both privileged (dom0) and unprivileged (domU) operation.
p651
sVpart-long-up
p652
VThis kernel is not suitable for SMP (multi-processor,\u000amulti-core or hyper-threaded) systems.
p653
ss(Vbuild
p654
g40
tp655
(dp656
Vimage-file
p657
Varch/arm/boot/zImage
p658
ss(Vdescription
p659
g19
NV686
p660
tp661
(dp662
Vhardware
p663
Volder PCs
p664
sVhardware-long
p665
VPCs with one or more processors not supporting PAE
p666
ss(g151
g244
g38
tp667
(dp668
g154
(lp669
V4kc-malta
p670
aV5kc-malta
p671
aVocteon
p672
asg158
I01
ss(Vimage
p673
g70
NVocteon
p674
tp675
(dp676
Vconfigs
p677
(lp678
Vkernelarch-mips/config.octeon
p679
ass(Vimage
p680
g217
NV4kc-malta
p681
tp682
(dp683
Vconfigs
p684
(lp685
Vkernelarch-mips/config.4kc-malta
p686
ass(g151
g40
g38
tp687
(dp688
g154
(lp689
Varmmp
p690
aVarmmp-lpae
p691
asg158
I01
ss(Vimage
p692
g31
NVsh7785lcr
p693
tp694
(dp695
Vrecommends
p696
Vu-boot-tools
p697
sVcheck-size
p698
L4194304L
ss(Vbuild
p699
g314
tp700
(dp701
Vdebug-info
p702
I01
sVimage-file
p703
Varch/arm64/boot/Image
p704
ss(Vimage
p705
g46
tp706
(dp707
Vinstall-stem
p708
Vvmlinux
p709
ss(Vimage
p710
g210
tp711
(dp712
Vinstall-stem
p713
Vvmlinuz
p714
sVsuggests
p715
Vsilo, fdutils
p716
sVconfigs
p717
(lp718
ss(Vimage
p719
g12
tp720
(dp721
Vinstall-stem
p722
Vvmlinuz
p723
sVbootloaders
p724
(lp725
Vgrub-pc
p726
aVgrub-efi
p727
aVextlinux
p728
asVbreaks
p729
Vxserver-xorg-input-vmmouse (<< 1:13.0.99)
p730
sVconfigs
p731
(lp732
ss(Vimage
p733
g217
tp734
(dp735
Vinstall-stem
p736
Vvmlinux
p737
ss(g151
g31
g38
tp738
(dp739
g154
(lp740
Vsh7751r
p741
aVsh7785lcr
p742
asg158
I01
ss(Vbuild
p743
g253
NVs390x
p744
tp745
(dp746
Vdebug-info
p747
I01
ss(Vdescription
p748
g89
NVparisc64-smp
p749
tp750
(dp751
Vhardware
p752
Vmultiprocessor 64-bit PA-RISC
p753
sVhardware-long
p754
VHP PA-RISC 64-bit SMP systems with support for more than 4 GB RAM
p755
ss(Vbase
p756
g19
Vnone
p757
tp758
(dp759
Vflavours
p760
(lp761
V686
p762
aV686-pae
p763
ass(Vdescription
p764
g40
NVarmmp-lpae
p765
tp766
(dp767
Vhardware
p768
VARMv7 multiplatform compatible SoCs supporting LPAE
p769
sVhardware-long
p770
VARMv7 multiplatform kernel supporting LPAE. See\u000ahttps://wiki.debian.org/DebianKernel/ARMMP for details of supported\u000aplatforms.
p771
ss(Vversion
p772
tp773
(dp774
Vupstream
p775
V4.3
p776
sVabiname_base
p777
V4.3.0
p778
sVsource
p779
V4.3.3-5kali1
p780
sVabiname
p781
V4.3.0-kali1
p782
ss(Vdescription
p783
g189
NValpha-generic
p784
tp785
(dp786
Vhardware
p787
VAlpha
p788
sVhardware-long
p789
VDEC Alpha systems with extended kernel start address (Wildfire, Titan, Marvel)
p790
ss(Vimage
p791
g210
NVsparc64
p792
tp793
(dp794
Vconfigs
p795
(lp796
Vkernelarch-sparc/config-up
p797
ass(Vimage
p798
g366
NVpowerpc64
p799
tp800
(dp801
Vconfigs
p802
(lp803
Vkernelarch-powerpc/config-arch-64
p804
aVkernelarch-powerpc/config-arch-64-be
p805
ass(Vimage
p806
g571
NVpowerpc64le
p807
tp808
(dp809
Vconfigs
p810
(lp811
Vkernelarch-powerpc/config-arch-64
p812
aVkernelarch-powerpc/config-arch-64-le
p813
ass(Vimage
p814
g19
tp815
(dp816
Vinstall-stem
p817
Vvmlinuz
p818
sVbootloaders
p819
(lp820
Vgrub-pc
p821
aVextlinux
p822
asVbreaks
p823
Vxserver-xorg-input-vmmouse (<< 1:13.0.99)
p824
sVconfigs
p825
(lp826
ss(Vdescription
p827
g181
NVm68k
p828
tp829
(dp830
Vhardware
p831
VMotorola MC68020+ family
p832
ss(Vdescription
p833
g189
NValpha-smp
p834
tp835
(dp836
Vhardware
p837
VAlpha SMP
p838
sVhardware-long
p839
VDEC Alpha SMP systems with extended kernel start address (Wildfire, Titan, Marvel)
p840
ss(Vimage
p841
g5
NVpowerpc-smp
p842
tp843
(dp844
Vconfigs
p845
(lp846
Vpowerpc/config.powerpc
p847
aVpowerpc/config.powerpc-smp
p848
ass(Vbase
p849
tp850
(dp851
Varches
p852
(lp853
Valpha
p854
aVamd64
p855
aVarm64
p856
aVarmel
p857
aVarmhf
p858
aVhppa
p859
aVi386
p860
aVm68k
p861
aVmips
p862
aVmipsel
p863
aVmips64
p864
aVmips64el
p865
aVor1k
p866
aVpowerpc
p867
aVpowerpcspe
p868
aVppc64
p869
aVppc64el
p870
aVs390
p871
aVs390x
p872
aVsh4
p873
aVsparc
p874
aVsparc64
p875
aVx32
p876
asVfeaturesets
p877
(lp878
Vnone
p879
aVrt
p880
asVcompiler
p881
Vgcc-4.9
p882
ss(Vimage
p883
tp884
(dp885
Vinitramfs-generators
p886
(lp887
Vinitramfs-tools
p888
aVinitramfs-fallback
p889
asVtype
p890
Vplain
p891
ss(Vbase
p892
g5
tp893
(dp894
Vkernel-arch
p895
Vpowerpc
p896
sg36
(lp897
g38
ass(Vimage
p898
g571
tp899
(dp900
Vinstall-stem
p901
Vvmlinux
p902
sVsuggests
p903
Vmkvmlinuz
p904
sVconfigs
p905
(lp906
ss(Vdescription
p907
g89
NVparisc
p908
tp909
(dp910
Vhardware
p911
V32-bit PA-RISC
p912
sVhardware-long
p913
VHP PA-RISC 32-bit systems with max 4 GB RAM
p914
ss(Vabi
p915
tp916
(dp917
Vabiname
p918
Vkali1
p919
sVignore-changes
p920
(lp921
Vmodule:net/dccp/dccp
p922
aVfl6_*
p923
aVinet_sk_diag_fill
p924
aVip6_append_data
p925
aVip6_datagram_send_ctl
p926
aVip6_xmit
p927
aVipv6_dup_options
p928
aVipv6_fixup_options
p929
aVipv6_push_nfrag_opts
p930
aVtcp_cong_avoid_ai
p931
aVtcp_slow_start
p932
aVpin_is_valid
p933
aVpinctrl_*
p934
ass(Vimage
p935
g225
NVorion5x
p936
tp937
(dp938
Vcheck-size-with-dtb
p939
I01
sVconfigs
p940
(lp941
Varmel/config-reduced
p942
aVarmel/config.orion5x
p943
asVrecommends
p944
Vu-boot-tools
p945
sVcheck-size
p946
L2097080L
ss(Vimage
p947
g253
tp948
(dp949
Vinstall-stem
p950
Vvmlinuz
p951
sVbootloaders
p952
(lp953
Vs390-tools
p954
asVconfigs
p955
(lp956
ss(Vimage
p957
g244
NV4kc-malta
p958
tp959
(dp960
Vconfigs
p961
(lp962
Vkernelarch-mips/config.4kc-malta
p963
ass(Vbuild
p964
g19
NV686-pae
p965
tp966
(dp967
Vdebug-info
p968
I01
ss(Vbuild
p969
g571
tp970
(dp971
Vimage-file
p972
Vvmlinux
p973
ss(Vdescription
p974
g314
NVarm64
p975
tp976
(dp977
Vhardware
p978
V64-bit ARMv8 machines
p979
ss(Vdescription
p980
g366
NVpowerpc64
p981
tp982
(dp983
Vhardware
p984
V64-bit PowerPC
p985
ss(Vbase
p986
g70
tp987
(dp988
Vkernel-arch
p989
Vmips
p990
sg36
(lp991
g38
ass(Vbase
p992
g189
tp993
(dp994
Vkernel-arch
p995
Valpha
p996
sg36
(lp997
g38
ass(Vbase
p998
Vor1k
p999
tp1000
(dp1001
Vkernel-arch
p1002
Vopenrisc
p1003
sVfeaturesets
p1004
(lp1005
ss(Vbuild
p1006
g19
tp1007
(dp1008
Vimage-file
p1009
Varch/x86/boot/bzImage
p1010
ss(Vbase
p1011
g19
Vrt
p1012
tp1013
(dp1014
Vflavours
p1015
(lp1016
V686-pae
p1017
ass(g151
g189
g38
tp1018
(dp1019
g154
(lp1020
Valpha-generic
p1021
aValpha-smp
p1022
asg158
I01
ss(Vimage
p1023
g314
tp1024
(dp1025
Vinstall-stem
p1026
Vvmlinuz
p1027
ss(Vbase
p1028
g89
tp1029
(dp1030
Vkernel-arch
p1031
Vparisc
p1032
sg36
(lp1033
g38
ass(Vbase
p1034
g253
tp1035
(dp1036
Vkernel-arch
p1037
Vs390
p1038
sg36
(lp1039
g38
ass(Vbase
p1040
Vx32
p1041
tp1042
(dp1043
Vkernel-arch
p1044
Vx86
p1045
sVfeaturesets
p1046
(lp1047
ss(Vdescription
p1048
g217
NVloongson-2e
p1049
tp1050
(dp1051
Vhardware
p1052
VLoongson 2E
p1053
sVhardware-long
p1054
VLemote Loongson 2E systems
p1055
ss(Vdescription
p1056
g46
NVocteon
p1057
tp1058
(dp1059
Vhardware
p1060
VOcteon
p1061
sVhardware-long
p1062
VCavium Networks Octeon
p1063
ss(Vimage
p1064
g366
tp1065
(dp1066
Vinstall-stem
p1067
Vvmlinux
p1068
sVsuggests
p1069
Vmkvmlinuz
p1070
sVconfigs
p1071
(lp1072
ss(Vrelations
p1073
g253
tp1074
(dp1075
Vheaders%gcc-4.9
p1076
Vlinux-compiler-gcc-4.9-s390
p1077
ss(Vimage
p1078
g217
NVloongson-2f
p1079
tp1080
(dp1081
Vrecommends
p1082
Vlibc6-loongson2f
p1083
sVconfigs
p1084
(lp1085
Vkernelarch-mips/config.loongson-2f
p1086
ass(Vbase
p1087
g12
Vrt
p1088
tp1089
(dp1090
Vflavours
p1091
(lp1092
Vamd64
p1093
ass(Vimage
p1094
g217
NVloongson-2e
p1095
tp1096
(dp1097
Vconfigs
p1098
(lp1099
Vkernelarch-mips/config.loongson-2e
p1100
ass(Vimage
p1101
g5
NVpowerpc64
p1102
tp1103
(dp1104
Vconfigs
p1105
(lp1106
Vkernelarch-powerpc/config-arch-64
p1107
aVkernelarch-powerpc/config-arch-64-be
p1108
ass(Vimage
p1109
g253
NVs390x
p1110
tp1111
(dp1112
Vconfigs
p1113
(lp1114
Vkernelarch-s390/config-arch-64
p1115
ass(Vimage
p1116
g210
NVsparc64-smp
p1117
tp1118
(dp1119
Vconfigs
p1120
(lp1121
Vkernelarch-sparc/config-smp
p1122
ass(Vimage
p1123
g244
tp1124
(dp1125
Vinstall-stem
p1126
Vvmlinux
p1127
ss(Vdescription
p1128
g5
NVpowerpc
p1129
tp1130
(dp1131
Vhardware
p1132
Vuniprocessor 32-bit PowerPC
p1133
ss(Vimage
p1134
g225
NVkirkwood
p1135
tp1136
(dp1137
Vcheck-size-with-dtb
p1138
I01
sVconfigs
p1139
(lp1140
Varmel/config-reduced
p1141
aVarmel/config.kirkwood
p1142
asVbreaks
p1143
Vflash-kernel (<< 3.37~)
p1144
sVrecommends
p1145
Vu-boot-tools
p1146
sVcheck-size
p1147
L2097080L
ss(Vbuild
p1148
g217
tp1149
(dp1150
Vimage-file
p1151
Vvmlinux
p1152
ss(g151
g366
g38
tp1153
(dp1154
g154
(lp1155
Vpowerpc64
p1156
asg158
I01
ss(Vbuild
p1157
g210
tp1158
(dp1159
Vimage-file
p1160
Varch/sparc/boot/zImage
p1161
ss(Vbase
p1162
g571
tp1163
(dp1164
Vkernel-arch
p1165
Vpowerpc
p1166
sg36
(lp1167
g38
ass(Vdescription
p1168
g31
NVsh7751r
p1169
tp1170
(dp1171
Vhardware
p1172
Vsh7751r
p1173
sVhardware-long
p1174
VRenesas SH7751R R2D plus board
p1175
ss(Vbase
p1176
Vsparc
p1177
tp1178
(dp1179
Vkernel-arch
p1180
Vsparc
p1181
sVfeaturesets
p1182
(lp1183
ss(Vdescription
p1184
g225
NVkirkwood
p1185
tp1186
(dp1187
Vhardware
p1188
VMarvell Kirkwood
p1189
sVhardware-long
p1190
VMarvell Kirkwood based systems (SheevaPlug, QNAP TS-119/TS-219, etc)
p1191
ss(Vimage
p1192
g46
NV5kc-malta
p1193
tp1194
(dp1195
Vconfigs
p1196
(lp1197
Vkernelarch-mips/config.5kc-malta
p1198
ass(Vbase
p1199
g12
g120
tp1200
(dp1201
Vflavours
p1202
(lp1203
Vamd64
p1204
ass(Vimage
p1205
g314
NVarm64
p1206
tp1207
(dp1208
s(Vbase
p1209
g217
tp1210
(dp1211
Vkernel-arch
p1212
Vmips
p1213
sg36
(lp1214
g38
ass(Vimage
p1215
g19
NV686-pae
p1216
tp1217
(dp1218
Vrecommends
p1219
Vlibc6-i686
p1220
sVconfigs
p1221
(lp1222
Vkernelarch-x86/config-arch-32
p1223
aVi386/config.686-pae
p1224
ass(Vimage
p1225
g189
tp1226
(dp1227
Vinstall-stem
p1228
Vvmlinuz
p1229
sVsuggests
p1230
Vaboot, fdutils
p1231
ss(Vdescription
p1232
g19
g757
V686-pae
p1233
tp1234
(dp1235
Vparts
p1236
(lp1237
Vxen
p1238
ass(Vimage
p1239
g244
NVocteon
p1240
tp1241
(dp1242
Vconfigs
p1243
(lp1244
Vkernelarch-mips/config.octeon
p1245
ass(Vbuild
p1246
g31
tp1247
(dp1248
Vimage-file
p1249
Varch/sh/boot/zImage
p1250
sstp1251
Rp1252
.