ccopy_reg
_reconstructor
p0
(cdebian_linux.config
ConfigCore
p1
c__builtin__
dict
p2
(dp3
(S'image'
p4
S'amd64'
p5
tp6
(dp7
S'install-stem'
p8
S'vmlinuz'
p9
sS'configs'
p10
(lp11
sS'bootloaders'
p12
(lp13
S'grub-pc'
p14
aS'extlinux'
p15
aS'lilo'
p16
ass(S'image'
p17
S's390'
p18
NS's390x'
p19
tp20
(dp21
S'configs'
p22
(lp23
S'kernelarch-s390/config-arch-64'
p24
ass(S'description'
p25
S'sparc'
p26
NS'sparc64-smp'
p27
tp28
(dp29
S'hardware'
p30
S'multiprocessor 64-bit UltraSPARC'
p31
ss(S'base'
p32
g5
S'none'
p33
tp34
(dp35
S'flavours'
p36
(lp37
S'amd64'
p38
ass(S'image'
p39
g26
NS'sparc32'
p40
tp41
(dp42
S'image-postproc'
p43
S'sparc32-image-postproc'
p44
ss(S'build'
p45
g18
NS's390x'
p46
tp47
(dp48
S'debug-info'
p49
I01
ss(S'image'
p50
S'ia64'
p51
tp52
(dp53
S'suggests'
p54
S'fdutils'
p55
sS'bootloaders'
p56
(lp57
S'elilo'
p58
asS'install-stem'
p59
S'vmlinuz'
p60
ss(S'description'
p61
S'mips'
p62
NS'r5k-ip32'
p63
tp64
(dp65
S'hardware'
p66
S'SGI IP32'
p67
sS'hardware-long'
p68
S'SGI IP32 systems (O2)'
p69
ss(S'abi'
p70
NS'rt'
p71
tp72
(dp73
S'ignore-changes'
p74
(lp75
S'*'
p76
ass(S'version'
p77
tp78
(dp79
S'abiname'
p80
S'3.14-kali1'
p81
sS'source'
p82
V3.14.5-1kali1
p83
sS'upstream'
p84
S'3.14'
p85
ss(S'build'
p86
S'ppc64'
p87
tp88
(dp89
S'image-file'
p90
S'vmlinux'
p91
ss(S'description'
p92
g5
g33
S'amd64'
p93
tp94
(dp95
S'parts'
p96
(lp97
S'xen'
p98
ass(S'base'
p99
g87
S'none'
p100
tp101
(dp102
S'implicit-flavour'
p103
I01
sS'flavours'
p104
(lp105
S'powerpc64'
p106
ass(S'image'
p107
S'mipsel'
p108
NS'4kc-malta'
p109
tp110
(dp111
S'configs'
p112
(lp113
S'mips/config.4kc-malta'
p114
ass(S'base'
p115
S'alpha'
p116
tp117
(dp118
S'kernel-arch'
p119
S'alpha'
p120
sS'featuresets'
p121
(lp122
g100
ass(S'description'
p123
S'armhf'
p124
NS'armmp'
p125
tp126
(dp127
S'hardware'
p128
S'ARMv7 multiplatform compatible SoCs'
p129
sS'hardware-long'
p130
S'ARMv7 multiplatform kernel for Marvell Armada 370/xp, Freescale iMX5x/iMX6'
p131
ss(g99
g124
g100
tp132
(dp133
g103
I01
sg104
(lp134
S'armmp'
p135
aS'armmp-lpae'
p136
ass(S'description'
p137
S'hppa'
p138
NS'parisc64-smp'
p139
tp140
(dp141
S'hardware'
p142
S'multiprocessor 64-bit PA-RISC'
p143
sS'hardware-long'
p144
S'HP PA-RISC 64-bit SMP systems with support for more than 4 GB RAM'
p145
ss(S'base'
p146
S'i386'
p147
S'rt'
p148
tp149
(dp150
S'flavours'
p151
(lp152
S'686-pae'
p153
ass(S'description'
p154
g62
NS'sb1a-bcm91480b'
p155
tp156
(dp157
S'hardware'
p158
S'BCM91480B'
p159
sS'hardware-long'
p160
S'Broadcom BCM91480B systems (aka BigSur)'
p161
ss(S'description'
p162
g147
NS'amd64'
p163
tp164
(dp165
S'hardware'
p166
S'64-bit PCs'
p167
sS'parts'
p168
(lp169
S'xen'
p170
asS'hardware-long'
p171
S'PCs with AMD64, Intel 64 or VIA Nano processors'
p172
ss(S'relations'
p173
g147
tp174
(dp175
S'headers%gcc-4.8'
p176
S'linux-compiler-gcc-4.8-x86'
p177
ss(S'description'
p178
g116
NS'alpha-generic'
p179
tp180
(dp181
S'hardware'
p182
S'Alpha'
p183
sS'hardware-long'
p184
S'DEC Alpha systems with extended kernel start address (Wildfire, Titan, Marvel)'
p185
ss(S'description'
p186
S's390x'
p187
NS's390x'
p188
tp189
(dp190
S'hardware'
p191
S'IBM zSeries'
p192
ss(S'image'
p193
S'powerpc'
p194
tp195
(dp196
S'suggests'
p197
S'mkvmlinuz'
p198
sS'configs'
p199
(lp200
sS'install-stem'
p201
S'vmlinux'
p202
ss(S'base'
p203
g5
S'rt'
p204
tp205
(dp206
S'flavours'
p207
(lp208
S'amd64'
p209
ass(S'description'
p210
g116
NS'alpha-smp'
p211
tp212
(dp213
S'hardware'
p214
S'Alpha SMP'
p215
sS'hardware-long'
p216
S'DEC Alpha SMP systems with extended kernel start address (Wildfire, Titan, Marvel)'
p217
ss(S'image'
p218
S'sparc64'
p219
NS'sparc64'
p220
tp221
(dp222
S'configs'
p223
(lp224
S'kernelarch-sparc/config-up'
p225
ass(S'description'
p226
g147
NS'486'
p227
tp228
(dp229
S'hardware'
p230
S'older PCs'
p231
sS'parts'
p232
(lp233
S'up'
p234
asS'hardware-long'
p235
S'PCs with a single processor not supporting PAE'
p236
ss(S'description'
p237
g147
S'none'
p238
S'amd64'
p239
tp240
(dp241
S'parts'
p242
(lp243
S'xen'
p244
ass(S'base'
p245
S'arm64'
p246
tp247
(dp248
S'kernel-arch'
p249
S'arm64'
p250
sS'featuresets'
p251
(lp252
S'none'
p253
ass(S'base'
p254
g147
tp255
(dp256
S'kernel-arch'
p257
S'x86'
p258
sS'featuresets'
p259
(lp260
S'none'
p261
aS'rt'
p262
ass(S'base'
p263
g108
tp264
(dp265
S'kernel-arch'
p266
S'mips'
p267
sg121
(lp268
g100
ass(S'relations'
p269
g5
tp270
(dp271
S'headers%gcc-4.8'
p272
S'linux-compiler-gcc-4.8-x86'
p273
ss(S'description'
p274
S'armel'
p275
NS'mv78xx0'
p276
tp277
(dp278
S'hardware'
p279
S'Marvell 78xx0'
p280
sS'hardware-long'
p281
S'Marvell DB-78xx0-BP Development Board'
p282
ss(S'description'
p283
g62
NS'sb1-bcm91250a'
p284
tp285
(dp286
S'hardware'
p287
S'BCM91250A'
p288
sS'hardware-long'
p289
S'Broadcom BCM91250A systems (aka SWARM)'
p290
ss(S'description'
p291
g62
NS'5kc-malta'
p292
tp293
(dp294
S'hardware'
p295
S'MIPS Malta (64-bit)'
p296
sS'hardware-long'
p297
S'MIPS Malta boards (64-bit)'
p298
ss(S'relations'
p299
g18
tp300
(dp301
S'headers%gcc-4.8'
p302
S'linux-compiler-gcc-4.8-s390'
p303
ss(g99
g108
g100
tp304
(dp305
g103
I01
sg104
(lp306
S'sb1-bcm91250a'
p307
aS'sb1a-bcm91480b'
p308
aS'4kc-malta'
p309
aS'5kc-malta'
p310
aS'loongson-2e'
p311
aS'loongson-2f'
p312
ass(S'description'
p313
S'powerpcspe'
p314
tp315
(dp316
S'hardware'
p317
S'32-bit PowerPC with SPE (instead of AltiVec) with SMP support'
p318
ss(S'relations'
p319
tp320
(dp321
S'gcc-4.8'
p322
S'gcc-4.8'
p323
sS'initramfs-fallback'
p324
S'linux-initramfs-tool'
p325
sS'gcc-4.7'
p326
S'gcc-4.7'
p327
sS'gcc-4.6'
p328
S'gcc-4.6'
p329
sS'gcc-4.4'
p330
S'gcc-4.4'
p331
sS'initramfs-tools'
p332
S'initramfs-tools (>= 0.110~)'
p333
ss(S'build'
p334
g116
tp335
(dp336
S'image-file'
p337
S'arch/alpha/boot/vmlinux.gz'
p338
ss(S'build'
p339
S'm68k'
p340
tp341
(dp342
S'image-file'
p343
S'vmlinux.gz'
p344
ss(S'description'
p345
g194
NS'powerpc-smp'
p346
tp347
(dp348
S'hardware'
p349
S'multiprocessor 32-bit PowerPC'
p350
ss(S'description'
p351
g108
NS'sb1-bcm91250a'
p352
tp353
(dp354
S'hardware'
p355
S'BCM91250A'
p356
sS'hardware-long'
p357
S'Broadcom BCM91250A systems (aka SWARM)'
p358
ss(S'build'
p359
g314
tp360
(dp361
S'image-file'
p362
S'vmlinux'
p363
ss(g99
S'sh4'
p364
g100
tp365
(dp366
g103
I01
sg104
(lp367
S'sh7751r'
p368
aS'sh7785lcr'
p369
ass(S'build'
p370
g138
tp371
(dp372
S'image-file'
p373
S'vmlinux'
p374
ss(S'base'
p375
g124
tp376
(dp377
S'kernel-arch'
p378
S'arm'
p379
sg121
(lp380
g100
ass(S'description'
p381
g147
NS'686-pae'
p382
tp383
(dp384
S'hardware'
p385
S'modern PCs'
p386
sS'parts'
p387
(lp388
S'pae'
p389
asS'hardware-long'
p390
S'PCs with one or more processors supporting PAE'
p391
ss(S'image'
p392
g108
NS'loongson-2f'
p393
tp394
(dp395
S'recommends'
p396
S'libc6-loongson2f'
p397
ss(S'base'
p398
g275
tp399
(dp400
S'kernel-arch'
p401
S'arm'
p402
sg121
(lp403
g100
ass(S'image'
p404
g194
NS'powerpc64'
p405
tp406
(dp407
S'configs'
p408
(lp409
S'kernelarch-powerpc/config-arch-64'
p410
aS'powerpc/config.powerpc64'
p411
ass(S'base'
p412
g138
NS'parisc64-smp'
p413
tp414
(dp415
S'override-host-type'
p416
S'hppa64-linux-gnu'
p417
sS'cflags'
p418
S'-fno-cse-follow-jumps'
p419
ss(S'description'
p420
g108
NS'loongson-2e'
p421
tp422
(dp423
S'hardware'
p424
S'Loongson 2E'
p425
sS'hardware-long'
p426
S'Lemote Loongson 2E systems'
p427
ss(S'base'
p428
g26
tp429
(dp430
S'kernel-arch'
p431
S'sparc'
p432
sg121
(lp433
g100
ass(S'base'
p434
g314
tp435
(dp436
S'kernel-arch'
p437
S'powerpc'
p438
sg121
(lp439
g100
ass(S'description'
p440
g62
NS'r4k-ip22'
p441
tp442
(dp443
S'hardware'
p444
S'SGI IP22'
p445
sS'hardware-long'
p446
S'SGI IP22 systems (Indy, Indigo2)'
p447
ss(g99
g18
g100
tp448
(dp449
g103
I01
sg104
(lp450
S's390x'
p451
ass(g99
g187
g100
tp452
(dp453
g103
I01
sg104
(lp454
S's390x'
p455
ass(S'base'
p456
g62
tp457
(dp458
S'kernel-arch'
p459
S'mips'
p460
sg121
(lp461
g100
ass(S'build'
p462
g5
tp463
(dp464
S'debug-info'
p465
I01
sS'image-file'
p466
S'arch/x86/boot/bzImage'
p467
ss(S'build'
p468
g26
tp469
(dp470
S'image-file'
p471
S'arch/sparc/boot/zImage'
p472
ss(S'image'
p473
g108
tp474
(dp475
S'install-stem'
p476
S'vmlinux'
p477
sS'initramfs'
p478
I00
ss(S'image'
p479
g108
NS'sb1a-bcm91480b'
p480
tp481
(dp482
S'configs'
p483
(lp484
S'mips/config.sb1a-bcm91480b'
p485
ass(S'build'
p486
g194
tp487
(dp488
S'image-file'
p489
S'vmlinux'
p490
ss(S'build'
p491
g246
tp492
(dp493
S'debug-info'
p494
I01
sS'image-file'
p495
S'arch/arm64/boot/Image'
p496
ss(S'build'
p497
g108
tp498
(dp499
S'image-file'
p500
S'vmlinux'
p501
ss(S'description'
p502
g138
NS'parisc'
p503
tp504
(dp505
S'hardware'
p506
S'32-bit PA-RISC'
p507
sS'hardware-long'
p508
S'HP PA-RISC 32-bit systems with max 4 GB RAM'
p509
ss(S'base'
p510
g5
tp511
(dp512
S'kernel-arch'
p513
S'x86'
p514
sS'featuresets'
p515
(lp516
S'none'
p517
aS'rt'
p518
ass(S'base'
p519
g51
tp520
(dp521
S'kernel-arch'
p522
S'ia64'
p523
sg121
(lp524
g100
asS'compiler'
p525
S'gcc-4.6'
p526
ss(S'description'
p527
g108
NS'4kc-malta'
p528
tp529
(dp530
S'hardware'
p531
S'MIPS Malta'
p532
sS'hardware-long'
p533
S'MIPS Malta boards'
p534
ss(S'base'
p535
g18
tp536
(dp537
S'kernel-arch'
p538
S's390'
p539
sg121
(lp540
g100
ass(g99
g275
g100
tp541
(dp542
g103
I01
sg104
(lp543
S'kirkwood'
p544
aS'mv78xx0'
p545
aS'orion5x'
p546
aS'versatile'
p547
ass(S'description'
p548
g275
NS'versatile'
p549
tp550
(dp551
S'hardware'
p552
S'Versatile'
p553
sS'hardware-long'
p554
S'Versatile systems (PB, AB, Qemu)'
p555
ss(S'image'
p556
g275
NS'ixp4xx'
p557
tp558
(dp559
S'check-size'
p560
S'1441760'
p561
sS'configs'
p562
(lp563
S'armel/config-reduced'
p564
aS'armel/config.ixp4xx'
p565
ass(S'image'
p566
g26
NS'sparc64'
p567
tp568
(dp569
S'configs'
p570
(lp571
S'kernelarch-sparc/config-up'
p572
ass(S'image'
p573
g275
tp574
(dp575
S'suggests'
p576
S'fdutils'
p577
sS'configs'
p578
(lp579
S'kernelarch-arm/config'
p580
aS'armel/config'
p581
asS'install-stem'
p582
S'vmlinuz'
p583
ss(S'description'
p584
g87
NS'powerpc64'
p585
tp586
(dp587
S'hardware'
p588
S'64-bit PowerPC'
p589
ss(S'description'
p590
g51
NS'mckinley'
p591
tp592
(dp593
S'hardware'
p594
S'Itanium II'
p595
ss(S'description'
p596
g194
NS'powerpc'
p597
tp598
(dp599
S'hardware'
p600
S'uniprocessor 32-bit PowerPC'
p601
ss(S'description'
p602
g147
tp603
(dp604
S'part-long-pae'
p605
S'This kernel requires PAE (Physical Address Extension).\nThis feature is supported by the Intel Pentium Pro/II/III/4/4M/D, Xeon,\nCore and Atom; AMD Geode NX, Athlon (K7), Duron, Opteron, Sempron,\nTurion or Phenom; Transmeta Efficeon; VIA C7; and some other processors.'
p606
ss(S'description'
p607
g62
NS'4kc-malta'
p608
tp609
(dp610
S'hardware'
p611
S'MIPS Malta'
p612
sS'hardware-long'
p613
S'MIPS Malta boards'
p614
ss(S'description'
p615
g275
NS'ixp4xx'
p616
tp617
(dp618
S'hardware'
p619
S'IXP4xx'
p620
sS'hardware-long'
p621
S'IXP4xx based systems (Linksys NSLU2, etc)'
p622
ss(S'xen'
p623
g5
g33
S'amd64'
p624
tp625
(dp626
S'flavours'
p627
(lp628
S'amd64'
p629
ass(S'description'
p630
g51
NS'itanium'
p631
tp632
(dp633
S'hardware'
p634
S'Itanium'
p635
ss(S'image'
p636
g18
tp637
(dp638
S'install-stem'
p639
S'vmlinuz'
p640
sS'configs'
p641
(lp642
sS'bootloaders'
p643
(lp644
S's390-tools'
p645
ass(S'relations'
p646
g275
tp647
(dp648
S'headers%gcc-4.8'
p649
S'linux-compiler-gcc-4.8-arm'
p650
ss(S'image'
p651
g138
tp652
(dp653
S'suggests'
p654
S'palo'
p655
sS'install-stem'
p656
S'vmlinux'
p657
ss(S'image'
p658
g314
tp659
(dp660
S'suggests'
p661
S'mkvmlinuz'
p662
sS'install-stem'
p663
S'vmlinux'
p664
ss(S'relations'
p665
g138
tp666
(dp667
S'gcc-4.8'
p668
S'gcc-4.8, binutils-hppa64, gcc-4.8-hppa64'
p669
ss(S'description'
p670
g5
NS'amd64'
p671
tp672
(dp673
S'hardware'
p674
S'64-bit PCs'
p675
sS'hardware-long'
p676
S'PCs with AMD64, Intel 64 or VIA Nano processors'
p677
ss(S'image'
p678
g147
NS'686-pae'
p679
tp680
(dp681
S'configs'
p682
(lp683
S'kernelarch-x86/config-arch-32'
p684
aS'i386/config.686-pae'
p685
asS'recommends'
p686
S'libc6-i686'
p687
ss(S'abi'
p688
g194
tp689
(dp690
S'ignore-changes'
p691
(lp692
S'nf_hooks_needed'
p693
ass(S'image'
p694
g187
NS's390x'
p695
tp696
(dp697
S'configs'
p698
(lp699
S'kernelarch-s390/config-arch-64'
p700
ass(S'description'
p701
g340
NS'm68k'
p702
tp703
(dp704
S'hardware'
p705
S'Motorola MC68020+ family'
p706
ss(g99
g138
g100
tp707
(dp708
g103
I01
sg104
(lp709
S'parisc'
p710
aS'parisc64-smp'
p711
ass(S'description'
p712
g194
NS'powerpc64'
p713
tp714
(dp715
S'hardware'
p716
S'64-bit PowerPC'
p717
ss(S'image'
p718
g62
tp719
(dp720
S'install-stem'
p721
S'vmlinux'
p722
sS'initramfs'
p723
I00
ss(S'base'
p724
g219
tp725
(dp726
S'kernel-arch'
p727
S'sparc'
p728
sg121
(lp729
g100
ass(S'base'
p730
S'or1k'
p731
tp732
(dp733
S'kernel-arch'
p734
S'openrisc'
p735
sS'featuresets'
p736
(lp737
ss(S'image'
p738
g364
NS'sh7785lcr'
p739
tp740
(dp741
S'check-size'
p742
S'4194304'
p743
sS'recommends'
p744
S'uboot-mkimage'
p745
ss(S'base'
p746
g187
tp747
(dp748
S'kernel-arch'
p749
S's390'
p750
sg121
(lp751
g100
ass(S'image'
p752
g87
tp753
(dp754
S'suggests'
p755
S'mkvmlinuz'
p756
sS'configs'
p757
(lp758
sS'install-stem'
p759
S'vmlinux'
p760
ss(S'image'
p761
g246
NS'arm64'
p762
tp763
(dp764
s(S'image'
p765
g147
tp766
(dp767
S'install-stem'
p768
S'vmlinuz'
p769
sS'configs'
p770
(lp771
sS'bootloaders'
p772
(lp773
S'grub-pc'
p774
aS'extlinux'
p775
aS'lilo'
p776
ass(g99
g26
g100
tp777
(dp778
g103
I01
sg104
(lp779
S'sparc64'
p780
aS'sparc64-smp'
p781
ass(S'base'
p782
g87
tp783
(dp784
S'kernel-arch'
p785
S'powerpc'
p786
sg121
(lp787
g100
ass(g99
g116
g100
tp788
(dp789
g103
I01
sg104
(lp790
S'alpha-generic'
p791
aS'alpha-smp'
p792
aS'alpha-legacy'
p793
ass(S'description'
p794
g147
g238
S'686-pae'
p795
tp796
(dp797
S'parts'
p798
(lp799
S'xen'
p800
ass(S'image'
p801
g194
NS'powerpc-smp'
p802
tp803
(dp804
S'configs'
p805
(lp806
S'powerpc/config.powerpc'
p807
aS'powerpc/config.powerpc-smp'
p808
ass(g99
g51
g100
tp809
(dp810
g103
I01
sg104
(lp811
S'itanium'
p812
aS'mckinley'
p813
ass(S'base'
p814
g246
S'none'
p815
tp816
(dp817
S'flavours'
p818
(lp819
S'arm64'
p820
ass(S'image'
p821
g108
NS'sb1-bcm91250a'
p822
tp823
(dp824
S'configs'
p825
(lp826
S'mips/config.sb1-bcm91250a'
p827
ass(S'build'
p828
g187
tp829
(dp830
S'image-file'
p831
S'arch/s390/boot/image'
p832
ss(g99
g62
g100
tp833
(dp834
g103
I01
sg104
(lp835
S'r4k-ip22'
p836
aS'r5k-ip32'
p837
aS'sb1-bcm91250a'
p838
aS'sb1a-bcm91480b'
p839
aS'4kc-malta'
p840
aS'5kc-malta'
p841
aS'octeon'
p842
ass(S'build'
p843
g62
tp844
(dp845
S'image-file'
p846
S'vmlinux'
p847
ss(S'description'
p848
g275
NS'kirkwood'
p849
tp850
(dp851
S'hardware'
p852
S'Marvell Kirkwood'
p853
sS'hardware-long'
p854
S'Marvell Kirkwood based systems (SheevaPlug, QNAP TS-119/TS-219, etc)'
p855
ss(S'description'
p856
g108
NS'loongson-2f'
p857
tp858
(dp859
S'hardware'
p860
S'Loongson 2F'
p861
sS'hardware-long'
p862
S'Lemote Loongson 2F systems'
p863
ss(S'image'
p864
g26
NS'sparc64-smp'
p865
tp866
(dp867
S'configs'
p868
(lp869
S'kernelarch-sparc/config-smp'
p870
ass(S'image'
p871
g147
NS'amd64'
p872
tp873
(dp874
S'configs'
p875
(lp876
S'kernelarch-x86/config-arch-64'
p877
asS'recommends'
p878
S'libc6-i686'
p879
ss(S'base'
p880
S'x32'
p881
tp882
(dp883
S'kernel-arch'
p884
S'x86'
p885
sS'featuresets'
p886
(lp887
ss(S'build'
p888
g364
tp889
(dp890
S'image-file'
p891
S'arch/sh/boot/zImage'
p892
ss(S'image'
p893
g340
tp894
(dp895
S'suggests'
p896
S'vmelilo, fdutils'
p897
sS'install-stem'
p898
S'vmlinuz'
p899
ss(S'image'
p900
g219
NS'sparc64-smp'
p901
tp902
(dp903
S'configs'
p904
(lp905
S'kernelarch-sparc/config-smp'
p906
ass(S'image'
p907
g87
NS'powerpc64'
p908
tp909
(dp910
S'configs'
p911
(lp912
S'kernelarch-powerpc/config-arch-64'
p913
ass(S'build'
p914
g51
tp915
(dp916
S'image-file'
p917
S'vmlinux.gz'
p918
ss(S'description'
p919
g219
NS'sparc64'
p920
tp921
(dp922
S'hardware'
p923
S'uniprocessor 64-bit UltraSPARC'
p924
ss(S'description'
p925
g246
NS'arm64'
p926
tp927
(dp928
S'hardware'
p929
S'64-bit ARMv8 machines'
p930
ss(S'image'
p931
g364
tp932
(dp933
S'suggests'
p934
S'fdutils'
p935
sS'install-stem'
p936
S'vmlinuz'
p937
ss(S'base'
p938
g138
tp939
(dp940
S'kernel-arch'
p941
S'parisc'
p942
sg121
(lp943
g100
ass(S'image'
p944
g147
NS'486'
p945
tp946
(dp947
S'configs'
p948
(lp949
S'kernelarch-x86/config-arch-32'
p950
aS'i386/config.486'
p951
ass(S'base'
p952
g364
tp953
(dp954
S'kernel-arch'
p955
S'sh'
p956
sg121
(lp957
g100
asS'compiler'
p958
S'gcc-4.7'
p959
ss(S'image'
p960
g5
NS'amd64'
p961
tp962
(dp963
S'configs'
p964
(lp965
S'kernelarch-x86/config-arch-64'
p966
ass(S'image'
p967
g26
tp968
(dp969
S'suggests'
p970
S'silo, fdutils'
p971
sS'configs'
p972
(lp973
sS'install-stem'
p974
S'vmlinuz'
p975
ss(S'description'
p976
tp977
(dp978
S'part-long-up'
p979
S'This kernel is not suitable for SMP (multi-processor,\nmulti-core or hyper-threaded) systems.'
p980
sS'part-long-xen'
p981
S'This kernel also runs on a Xen hypervisor.\nIt supports both privileged (dom0) and unprivileged (domU) operation.'
p982
ss(S'build'
p983
g219
tp984
(dp985
S'image-file'
p986
S'arch/sparc/boot/zImage'
p987
ss(S'relations'
p988
g124
tp989
(dp990
S'headers%gcc-4.8'
p991
S'linux-compiler-gcc-4.8-arm'
p992
ss(S'base'
p993
NS'rt'
p994
tp995
(dp996
S'enabled'
p997
I01
ss(S'description'
p998
g108
NS'sb1a-bcm91480b'
p999
tp1000
(dp1001
S'hardware'
p1002
S'BCM91480B'
p1003
sS'hardware-long'
p1004
S'Broadcom BCM91480B systems (aka BigSur)'
p1005
ss(S'description'
p1006
g116
NS'alpha-legacy'
p1007
tp1008
(dp1009
S'hardware'
p1010
S'Alpha Legacy'
p1011
sS'hardware-long'
p1012
S'DEC Alpha systems with legacy kernel start address'
p1013
ss(S'build'
p1014
g147
NS'686-pae'
p1015
tp1016
(dp1017
S'debug-info'
p1018
I01
ss(S'image'
p1019
g219
tp1020
(dp1021
S'suggests'
p1022
S'silo, fdutils'
p1023
sS'configs'
p1024
(lp1025
sS'install-stem'
p1026
S'vmlinuz'
p1027
ss(S'image'
p1028
g116
tp1029
(dp1030
S'suggests'
p1031
S'aboot, fdutils'
p1032
sS'install-stem'
p1033
S'vmlinuz'
p1034
ss(S'relations'
p1035
g187
tp1036
(dp1037
S'headers%gcc-4.8'
p1038
S'linux-compiler-gcc-4.8-s390'
p1039
ss(S'base'
p1040
g194
tp1041
(dp1042
S'kernel-arch'
p1043
S'powerpc'
p1044
sg121
(lp1045
g100
ass(S'image'
p1046
g108
NS'5kc-malta'
p1047
tp1048
(dp1049
S'configs'
p1050
(lp1051
S'mips/config.5kc-malta'
p1052
ass(S'description'
p1053
g108
NS'5kc-malta'
p1054
tp1055
(dp1056
S'hardware'
p1057
S'MIPS Malta (64-bit)'
p1058
sS'hardware-long'
p1059
S'MIPS Malta boards (64-bit)'
p1060
ss(S'description'
p1061
g26
NS'sparc64'
p1062
tp1063
(dp1064
S'hardware'
p1065
S'uniprocessor 64-bit UltraSPARC'
p1066
ss(S'image'
p1067
g275
NS'orion5x'
p1068
tp1069
(dp1070
S'check-size'
p1071
S'1572792'
p1072
sS'configs'
p1073
(lp1074
S'armel/config-reduced'
p1075
aS'armel/config.orion5x'
p1076
asS'recommends'
p1077
S'uboot-mkimage'
p1078
ss(S'image'
p1079
g124
tp1080
(dp1081
S'suggests'
p1082
S'fdutils'
p1083
sS'configs'
p1084
(lp1085
S'kernelarch-arm/config'
p1086
aS'armhf/config'
p1087
asS'install-stem'
p1088
S'vmlinuz'
p1089
ss(S'abi'
p1090
tp1091
(dp1092
S'abiname'
p1093
S'kali1'
p1094
sS'ignore-changes'
p1095
(lp1096
S'ib_update_cm_av'
p1097
aS'DAC1064_global_*'
p1098
aS'g450_mnp2f'
p1099
aS'matrox_*'
p1100
aS'matroxfb_*'
p1101
aS'vsock_core_init'
p1102
aS'nf_ct_extend_register'
p1103
ass(S'relations'
p1104
g87
tp1105
(dp1106
S'gcc-4.8'
p1107
S'gcc-4.8 (>= 4.8.2-21)'
p1108
ss(g99
g314
g100
tp1109
(dp1110
g103
I01
sg104
(lp1111
S'powerpcspe'
p1112
ass(g99
g340
g100
tp1113
(dp1114
g103
I01
sg104
(lp1115
S'm68k'
p1116
ass(S'description'
p1117
g364
NS'sh7751r'
p1118
tp1119
(dp1120
S'hardware'
p1121
S'sh7751r'
p1122
sS'hardware-long'
p1123
S'Renesas SH7751R R2D plus board'
p1124
ss(S'base'
p1125
g147
g238
tp1126
(dp1127
S'flavours'
p1128
(lp1129
S'486'
p1130
aS'686-pae'
p1131
aS'amd64'
p1132
ass(S'base'
p1133
tp1134
(dp1135
S'arches'
p1136
(lp1137
S'alpha'
p1138
aS'amd64'
p1139
aS'arm64'
p1140
aS'armel'
p1141
aS'armhf'
p1142
aS'hppa'
p1143
aS'i386'
p1144
aS'ia64'
p1145
aS'm68k'
p1146
aS'mips'
p1147
aS'mipsel'
p1148
aS'or1k'
p1149
aS'powerpc'
p1150
aS'powerpcspe'
p1151
aS'ppc64'
p1152
aS'ppc64el'
p1153
aS's390'
p1154
aS's390x'
p1155
aS'sh4'
p1156
aS'sparc'
p1157
aS'sparc64'
p1158
aS'x32'
p1159
asS'featuresets'
p1160
(lp1161
S'none'
p1162
aS'rt'
p1163
asS'compiler'
p1164
S'gcc-4.7'
p1165
ss(S'description'
p1166
g26
NS'sparc32'
p1167
tp1168
(dp1169
S'hardware'
p1170
S'uniprocessor sparc32 (sun4m)'
p1171
ss(S'build'
p1172
g187
NS's390x'
p1173
tp1174
(dp1175
S'debug-info'
p1176
I01
ss(S'description'
p1177
g18
NS's390x'
p1178
tp1179
(dp1180
S'hardware'
p1181
S'IBM zSeries'
p1182
ss(S'build'
p1183
g275
tp1184
(dp1185
S'image-file'
p1186
S'arch/arm/boot/zImage'
p1187
ss(g99
g194
g100
tp1188
(dp1189
g103
I01
sg104
(lp1190
S'powerpc'
p1191
aS'powerpc-smp'
p1192
aS'powerpc64'
p1193
ass(S'description'
p1194
g275
NS'orion5x'
p1195
tp1196
(dp1197
S'hardware'
p1198
S'Marvell Orion'
p1199
sS'hardware-long'
p1200
S'Marvell Orion 5181, 5182 and 5281 based systems (QNAP TS-109/TS-209, etc)'
p1201
ss(S'build'
p1202
g124
tp1203
(dp1204
S'image-file'
p1205
S'arch/arm/boot/zImage'
p1206
ss(S'base'
p1207
S'ppc64el'
p1208
tp1209
(dp1210
S'kernel-arch'
p1211
S'powerpc'
p1212
sS'featuresets'
p1213
(lp1214
ss(S'description'
p1215
g62
NS'octeon'
p1216
tp1217
(dp1218
S'hardware'
p1219
S'Octeon'
p1220
sS'hardware-long'
p1221
S'Cavium Networks Octeon'
p1222
ss(S'base'
p1223
g340
tp1224
(dp1225
S'kernel-arch'
p1226
S'm68k'
p1227
sg121
(lp1228
g100
asS'cflags'
p1229
S'-ffreestanding'
p1230
sS'compiler'
p1231
S'gcc-4.8'
p1232
ss(S'image'
p1233
tp1234
(dp1235
S'initramfs-generators'
p1236
(lp1237
S'initramfs-tools'
p1238
aS'initramfs-fallback'
p1239
asS'type'
p1240
S'plain'
p1241
ss(S'description'
p1242
g364
NS'sh7785lcr'
p1243
tp1244
(dp1245
S'hardware'
p1246
S'sh7785lcr'
p1247
sS'hardware-long'
p1248
S'Renesas SH7785 reference board'
p1249
ss(g99
g219
g100
tp1250
(dp1251
g103
I01
sg104
(lp1252
S'sparc64'
p1253
aS'sparc64-smp'
p1254
ass(S'description'
p1255
g219
NS'sparc64-smp'
p1256
tp1257
(dp1258
S'hardware'
p1259
S'multiprocessor 64-bit UltraSPARC'
p1260
ss(S'image'
p1261
g275
NS'kirkwood'
p1262
tp1263
(dp1264
S'check-size'
p1265
S'2097080'
p1266
sS'recommends'
p1267
S'uboot-mkimage'
p1268
ss(S'description'
p1269
Ng71
tp1270
(dp1271
S'part-long-rt'
p1272
S'This kernel includes the PREEMPT_RT realtime patch set.'
p1273
sS'parts'
p1274
(lp1275
S'rt'
p1276
asS'part-short-rt'
p1277
S'PREEMPT_RT'
p1278
ss(S'image'
p1279
g187
tp1280
(dp1281
S'install-stem'
p1282
S'vmlinuz'
p1283
sS'configs'
p1284
(lp1285
sS'bootloaders'
p1286
(lp1287
S's390-tools'
p1288
ass(S'description'
p1289
g124
NS'armmp-lpae'
p1290
tp1291
(dp1292
S'hardware'
p1293
S'ARMv7 multiplatform compatible SoCs supporting LPAE'
p1294
sS'hardware-long'
p1295
S'ARMv7 multiplatform kernel supporting LPAE'
p1296
ss(S'image'
p1297
g246
tp1298
(dp1299
S'install-stem'
p1300
S'vmlinuz'
p1301
ss(S'build'
p1302
g18
tp1303
(dp1304
S'image-file'
p1305
S'arch/s390/boot/image'
p1306
ss(S'build'
p1307
g147
tp1308
(dp1309
S'image-file'
p1310
S'arch/x86/boot/bzImage'
p1311
ss(S'image'
p1312
g124
NS'armmp-lpae'
p1313
tp1314
(dp1315
S'configs'
p1316
(lp1317
S'armhf/config.armmp'
p1318
aS'armhf/config.lpae'
p1319
asstp1320
Rp1321
.