ccopy_reg
_reconstructor
p0
(cdebian_linux.config
ConfigCore
p1
c__builtin__
dict
p2
(dp3
(S'build'
p4
S'armel'
p5
NS'mv78xx0'
p6
tp7
(dp8
S'image-file'
p9
S'arch/arm/boot/zImage'
p10
ss(S'image'
p11
S'amd64'
p12
tp13
(dp14
S'configs'
p15
(lp16
sS'bootloaders'
p17
(lp18
S'grub-pc'
p19
aS'extlinux'
p20
aS'lilo'
p21
ass(S'image'
p22
S'mipsel'
p23
NS'5kc-malta'
p24
tp25
(dp26
S'configs'
p27
(lp28
S'mips/config.5kc-malta'
p29
ass(S'base'
p30
g12
S'none'
p31
tp32
(dp33
S'flavours'
p34
(lp35
S'amd64'
p36
ass(S'description'
p37
NS'rt'
p38
tp39
(dp40
S'part-long-rt'
p41
S'This kernel includes the PREEMPT_RT realtime patch set.'
p42
sS'parts'
p43
(lp44
S'rt'
p45
asS'part-short-rt'
p46
S'PREEMPT_RT'
p47
ss(S'image'
p48
S'ia64'
p49
tp50
(dp51
S'suggests'
p52
S'fdutils'
p53
sS'bootloaders'
p54
(lp55
S'elilo'
p56
ass(S'description'
p57
S'powerpc'
p58
NS'powerpc64'
p59
tp60
(dp61
S'hardware'
p62
S'64-bit PowerPC'
p63
ss(S'version'
p64
tp65
(dp66
S'abiname'
p67
S'3.12-trunk'
p68
sS'source'
p69
V3.12.3-1~kali1
p70
sS'upstream'
p71
S'3.12'
p72
ss(S'description'
p73
g12
g31
S'amd64'
p74
tp75
(dp76
S'parts'
p77
(lp78
S'xen'
p79
ass(S'image'
p80
S'armhf'
p81
NS'armmp-lpae'
p82
tp83
(dp84
S'configs'
p85
(lp86
S'armhf/config.armmp'
p87
aS'armhf/config.lpae'
p88
ass(S'base'
p89
S'ppc64'
p90
S'none'
p91
tp92
(dp93
S'implicit-flavour'
p94
I01
sS'flavours'
p95
(lp96
S'powerpc64'
p97
ass(S'description'
p98
S's390x'
p99
NS's390x'
p100
tp101
(dp102
S'hardware'
p103
S'IBM zSeries'
p104
ss(S'description'
p105
g23
NS'loongson-2e'
p106
tp107
(dp108
S'hardware'
p109
S'Loongson 2E'
p110
sS'hardware-long'
p111
S'Lemote Loongson 2E systems'
p112
ss(S'description'
p113
S'i386'
p114
S'none'
p115
S'amd64'
p116
tp117
(dp118
S'parts'
p119
(lp120
S'xen'
p121
ass(S'base'
p122
S'alpha'
p123
tp124
(dp125
S'kernel-arch'
p126
S'alpha'
p127
sS'featuresets'
p128
(lp129
g91
ass(S'description'
p130
S'powerpcspe'
p131
tp132
(dp133
S'hardware'
p134
S'32-bit PowerPC with SPE (instead of AltiVec) with SMP support'
p135
ss(g89
g81
g91
tp136
(dp137
g94
I01
sg95
(lp138
S'armmp'
p139
aS'armmp-lpae'
p140
ass(S'base'
p141
g114
S'rt'
p142
tp143
(dp144
S'flavours'
p145
(lp146
S'686-pae'
p147
ass(S'description'
p148
g5
NS'kirkwood'
p149
tp150
(dp151
S'hardware'
p152
S'Marvell Kirkwood'
p153
sS'hardware-long'
p154
S'Marvell Kirkwood based systems (SheevaPlug, QNAP TS-119/TS-219, etc)'
p155
ss(S'description'
p156
S'hppa'
p157
NS'parisc64'
p158
tp159
(dp160
S'hardware'
p161
S'64-bit PA-RISC'
p162
ss(S'relations'
p163
g114
tp164
(dp165
S'headers%gcc-4.8'
p166
S'linux-compiler-gcc-4.8-x86'
p167
ss(S'image'
p168
g58
tp169
(dp170
S'suggests'
p171
S'mkvmlinuz'
p172
ss(S'base'
p173
g12
S'rt'
p174
tp175
(dp176
S'flavours'
p177
(lp178
S'amd64'
p179
ass(S'build'
p180
g5
NS'orion5x'
p181
tp182
(dp183
S'image-file'
p184
S'arch/arm/boot/zImage'
p185
ss(S'image'
p186
g5
NS'iop32x'
p187
tp188
(dp189
S'check-size'
p190
S'1441784'
p191
sS'configs'
p192
(lp193
S'armel/config-reduced'
p194
aS'armel/config-tiny'
p195
aS'armel/config.iop32x'
p196
ass(S'base'
p197
S'arm64'
p198
tp199
(dp200
S'kernel-arch'
p201
S'arm64'
p202
sS'featuresets'
p203
(lp204
ss(S'description'
p205
g23
NS'4kc-malta'
p206
tp207
(dp208
S'hardware'
p209
S'MIPS Malta'
p210
sS'hardware-long'
p211
S'MIPS Malta boards'
p212
ss(S'base'
p213
g114
tp214
(dp215
S'kernel-arch'
p216
S'x86'
p217
sS'featuresets'
p218
(lp219
S'none'
p220
aS'rt'
p221
ass(S'base'
p222
g23
tp223
(dp224
S'kernel-arch'
p225
S'mips'
p226
sg128
(lp227
g91
ass(S'description'
p228
g5
NS'versatile'
p229
tp230
(dp231
S'hardware'
p232
S'Versatile'
p233
sS'hardware-long'
p234
S'Versatile systems (PB, AB, Qemu)'
p235
ss(S'relations'
p236
g12
tp237
(dp238
S'headers%gcc-4.8'
p239
S'linux-compiler-gcc-4.8-x86'
p240
ss(S'description'
p241
S'm68k'
p242
NS'm68k'
p243
tp244
(dp245
S'hardware'
p246
S'Motorola MC68020+ family'
p247
ss(S'build'
p248
g81
NS'armmp-lpae'
p249
tp250
(dp251
S'image-file'
p252
S'arch/arm/boot/zImage'
p253
ss(S'base'
p254
g157
tp255
(dp256
S'kernel-arch'
p257
S'parisc'
p258
sg128
(lp259
g91
asS'compiler'
p260
S'gcc-4.4'
p261
ss(S'base'
p262
g157
NS'parisc64-smp'
p263
tp264
(dp265
S'override-host-type'
p266
S'hppa64-linux-gnu'
p267
sS'cflags'
p268
S'-fno-cse-follow-jumps'
p269
ss(S'relations'
p270
S's390'
p271
tp272
(dp273
S'headers%gcc-4.8'
p274
S'linux-compiler-gcc-4.8-s390'
p275
ss(g89
g23
g91
tp276
(dp277
g94
I01
sg95
(lp278
S'r5k-cobalt'
p279
aS'sb1-bcm91250a'
p280
aS'sb1a-bcm91480b'
p281
aS'4kc-malta'
p282
aS'5kc-malta'
p283
aS'loongson-2e'
p284
aS'loongson-2f'
p285
ass(S'description'
p286
S'mips'
p287
NS'4kc-malta'
p288
tp289
(dp290
S'hardware'
p291
S'MIPS Malta'
p292
sS'hardware-long'
p293
S'MIPS Malta boards'
p294
ss(S'description'
p295
g123
NS'alpha-legacy'
p296
tp297
(dp298
S'hardware'
p299
S'Alpha Legacy'
p300
sS'hardware-long'
p301
S'DEC Alpha systems with legacy kernel start address'
p302
ss(S'relations'
p303
tp304
(dp305
S'gcc-4.8'
p306
S'gcc-4.8'
p307
sS'initramfs-fallback'
p308
S'linux-initramfs-tool'
p309
sS'gcc-4.7'
p310
S'gcc-4.7'
p311
sS'gcc-4.6'
p312
S'gcc-4.6'
p313
sS'gcc-4.4'
p314
S'gcc-4.4'
p315
sS'initramfs-tools'
p316
S'initramfs-tools (>= 0.110~)'
p317
ss(S'description'
p318
S'sh4'
p319
NS'sh7751r'
p320
tp321
(dp322
S'hardware'
p323
S'sh7751r'
p324
sS'hardware-long'
p325
S'Renesas SH7751R R2D plus board'
p326
ss(S'description'
p327
g123
NS'alpha-smp'
p328
tp329
(dp330
S'hardware'
p331
S'Alpha SMP'
p332
sS'hardware-long'
p333
S'DEC Alpha SMP systems with extended kernel start address (Wildfire, Titan, Marvel)'
p334
ss(g89
g319
g91
tp335
(dp336
g94
I01
sg95
(lp337
S'sh7751r'
p338
aS'sh7785lcr'
p339
ass(S'image'
p340
g23
NS'4kc-malta'
p341
tp342
(dp343
S'configs'
p344
(lp345
S'mips/config.4kc-malta'
p346
ass(S'base'
p347
NS'rt'
p348
tp349
(dp350
S'enabled'
p351
I01
ss(S'description'
p352
g287
NS'r5k-ip32'
p353
tp354
(dp355
S'hardware'
p356
S'SGI IP32'
p357
sS'hardware-long'
p358
S'SGI IP32 systems (O2)'
p359
ss(S'description'
p360
g319
NS'sh7785lcr'
p361
tp362
(dp363
S'hardware'
p364
S'sh7785lcr'
p365
sS'hardware-long'
p366
S'Renesas SH7785 reference board'
p367
ss(S'base'
p368
g5
tp369
(dp370
S'kernel-arch'
p371
S'arm'
p372
sg128
(lp373
g91
ass(S'base'
p374
S'sparc'
p375
tp376
(dp377
S'kernel-arch'
p378
S'sparc'
p379
sg128
(lp380
g91
ass(S'base'
p381
g131
tp382
(dp383
S'kernel-arch'
p384
S'powerpc'
p385
sg128
(lp386
g91
ass(S'description'
p387
g114
NS'686-pae'
p388
tp389
(dp390
S'hardware'
p391
S'modern PCs'
p392
sS'parts'
p393
(lp394
S'pae'
p395
asS'hardware-long'
p396
S'PCs with one or more processors supporting PAE'
p397
ss(S'description'
p398
g90
NS'powerpc64'
p399
tp400
(dp401
S'hardware'
p402
S'64-bit PowerPC'
p403
ss(g89
g271
g91
tp404
(dp405
g94
I01
sg95
(lp406
S's390x'
p407
ass(S'image'
p408
g114
NS'486'
p409
tp410
(dp411
S'configs'
p412
(lp413
S'kernelarch-x86/config-arch-32'
p414
aS'i386/config.486'
p415
ass(g89
g99
g91
tp416
(dp417
g94
I01
sg95
(lp418
S's390x'
p419
ass(S'base'
p420
g287
tp421
(dp422
S'kernel-arch'
p423
S'mips'
p424
sg128
(lp425
g91
ass(S'build'
p426
g12
tp427
(dp428
S'debug-info'
p429
I01
ss(S'description'
p430
g271
NS's390x'
p431
tp432
(dp433
S'hardware'
p434
S'IBM zSeries'
p435
ss(S'description'
p436
g49
NS'mckinley'
p437
tp438
(dp439
S'hardware'
p440
S'Itanium II'
p441
ss(S'image'
p442
g23
tp443
(dp444
S'initramfs'
p445
I00
ss(S'description'
p446
g375
NS'sparc64-smp'
p447
tp448
(dp449
S'hardware'
p450
S'multiprocessor 64-bit UltraSPARC'
p451
ss(S'base'
p452
g99
tp453
(dp454
S'kernel-arch'
p455
S's390'
p456
sg128
(lp457
g91
ass(S'base'
p458
g12
tp459
(dp460
S'kernel-arch'
p461
S'x86'
p462
sS'featuresets'
p463
(lp464
S'none'
p465
aS'rt'
p466
ass(S'build'
p467
g5
NS'iop32x'
p468
tp469
(dp470
S'image-file'
p471
S'arch/arm/boot/zImage'
p472
ss(S'description'
p473
g23
NS'loongson-2f'
p474
tp475
(dp476
S'hardware'
p477
S'Loongson 2F'
p478
sS'hardware-long'
p479
S'Lemote Loongson 2F systems'
p480
ss(S'description'
p481
g157
NS'parisc64-smp'
p482
tp483
(dp484
S'hardware'
p485
S'multiprocessor 64-bit PA-RISC'
p486
ss(S'description'
p487
g81
NS'armmp'
p488
tp489
(dp490
S'hardware'
p491
S'ARMv7 multiplatform compatible SoCs'
p492
sS'hardware-long'
p493
S'ARMv7 multiplatform kernel for Marvell Armada 370/xp, Freescale iMX5x/iMX6'
p494
ss(S'build'
p495
g5
NS'ixp4xx'
p496
tp497
(dp498
S'image-file'
p499
S'arch/arm/boot/zImage'
p500
ss(S'base'
p501
g271
tp502
(dp503
S'kernel-arch'
p504
S's390'
p505
sg128
(lp506
g91
ass(g89
g5
g91
tp507
(dp508
g94
I01
sg95
(lp509
S'iop32x'
p510
aS'ixp4xx'
p511
aS'kirkwood'
p512
aS'mv78xx0'
p513
aS'orion5x'
p514
aS'versatile'
p515
ass(S'image'
p516
S'sparc64'
p517
NS'sparc64-smp'
p518
tp519
(dp520
S'configs'
p521
(lp522
S'sparc/config.sparc64-smp'
p523
ass(S'base'
p524
g49
tp525
(dp526
S'kernel-arch'
p527
S'ia64'
p528
sg128
(lp529
g91
asS'compiler'
p530
S'gcc-4.6'
p531
ss(S'description'
p532
g114
tp533
(dp534
S'part-long-pae'
p535
S'This kernel requires PAE (Physical Address Extension).\nThis feature is supported by the Intel Pentium Pro/II/III/4/4M/D, Xeon,\nCore and Atom; AMD Geode NX, Athlon (K7), Duron, Opteron, Sempron,\nTurion or Phenom; Transmeta Efficeon; VIA C7; and some other processors.'
p536
ss(S'build'
p537
g319
NS'sh7751r'
p538
tp539
(dp540
S'image-file'
p541
S'arch/sh/boot/zImage'
p542
ss(S'base'
p543
g114
g115
tp544
(dp545
S'flavours'
p546
(lp547
S'486'
p548
aS'686-pae'
p549
aS'amd64'
p550
ass(S'xen'
p551
g12
g31
S'amd64'
p552
tp553
(dp554
S'flavours'
p555
(lp556
S'amd64'
p557
ass(S'image'
p558
g5
tp559
(dp560
S'suggests'
p561
S'fdutils'
p562
ss(S'image'
p563
g271
tp564
(dp565
S'configs'
p566
(lp567
S's390x/config'
p568
asS'bootloaders'
p569
(lp570
S's390-tools'
p571
ass(S'image'
p572
g5
NS'ixp4xx'
p573
tp574
(dp575
S'check-size'
p576
S'1441760'
p577
sS'configs'
p578
(lp579
S'armel/config-reduced'
p580
aS'armel/config-tiny'
p581
aS'armel/config.ixp4xx'
p582
ass(S'description'
p583
g81
NS'armmp-lpae'
p584
tp585
(dp586
S'hardware'
p587
S'ARMv7 multiplatform compatible SoCs supporting LPAE'
p588
sS'hardware-long'
p589
S'ARMv7 multiplatform kernel supporting LPAE'
p590
ss(S'relations'
p591
g5
tp592
(dp593
S'headers%gcc-4.8'
p594
S'linux-compiler-gcc-4.8-arm'
p595
ss(S'image'
p596
g157
tp597
(dp598
S'suggests'
p599
S'palo'
p600
ss(S'image'
p601
g131
tp602
(dp603
S'suggests'
p604
S'mkvmlinuz'
p605
sS'configs'
p606
(lp607
S'powerpc/config'
p608
aS'powerpcspe/config.powerpcspe'
p609
ass(S'relations'
p610
g157
tp611
(dp612
S'gcc-4.4'
p613
S'gcc-4.4, binutils-hppa64, gcc-4.4-hppa64'
p614
ss(S'image'
p615
g23
NS'loongson-2f'
p616
tp617
(dp618
S'recommends'
p619
S'libc6-loongson2f'
p620
ss(S'description'
p621
g114
NS'amd64'
p622
tp623
(dp624
S'hardware'
p625
S'64-bit PCs'
p626
sS'parts'
p627
(lp628
S'xen'
p629
asS'hardware-long'
p630
S'PCs with AMD64, Intel 64 or VIA Nano processors'
p631
ss(S'description'
p632
g23
NS'sb1a-bcm91480b'
p633
tp634
(dp635
S'hardware'
p636
S'BCM91480B'
p637
sS'hardware-long'
p638
S'Broadcom BCM91480B systems (aka BigSur)'
p639
ss(S'image'
p640
g319
NS'sh7785lcr'
p641
tp642
(dp643
S'check-size'
p644
S'4194304'
p645
sS'recommends'
p646
S'uboot-mkimage'
p647
ss(S'build'
p648
g271
NS's390x'
p649
tp650
(dp651
S'debug-info'
p652
I01
ss(S'build'
p653
g319
NS'sh7785lcr'
p654
tp655
(dp656
S'image-file'
p657
S'arch/sh/boot/zImage'
p658
ss(S'description'
p659
g49
NS'itanium'
p660
tp661
(dp662
S'hardware'
p663
S'Itanium'
p664
ss(g89
g157
g91
tp665
(dp666
g94
I01
sg95
(lp667
S'parisc'
p668
aS'parisc-smp'
p669
aS'parisc64'
p670
aS'parisc64-smp'
p671
ass(S'image'
p672
g123
tp673
(dp674
S'suggests'
p675
S'aboot, fdutils'
p676
ss(S'base'
p677
g517
tp678
(dp679
S'kernel-arch'
p680
S'sparc'
p681
sg128
(lp682
g91
ass(S'image'
p683
g114
NS'686-pae'
p684
tp685
(dp686
S'configs'
p687
(lp688
S'kernelarch-x86/config-arch-32'
p689
aS'i386/config.686-pae'
p690
asS'recommends'
p691
S'libc6-i686'
p692
ss(S'description'
p693
g287
NS'r4k-ip22'
p694
tp695
(dp696
S'hardware'
p697
S'SGI IP22'
p698
sS'hardware-long'
p699
S'SGI IP22 systems (Indy, Indigo2)'
p700
ss(S'description'
p701
g375
NS'sparc32'
p702
tp703
(dp704
S'hardware'
p705
S'uniprocessor sparc32 (sun4m)'
p706
ss(S'description'
p707
g23
NS'r5k-cobalt'
p708
tp709
(dp710
S'hardware'
p711
S'Cobalt'
p712
sS'hardware-long'
p713
S'Cobalt systems (Qube, RaQ, Qube2, RaQ2)'
p714
ss(S'image'
p715
g23
NS'sb1a-bcm91480b'
p716
tp717
(dp718
S'configs'
p719
(lp720
S'mips/config.sb1a-bcm91480b'
p721
ass(S'description'
p722
g23
NS'5kc-malta'
p723
tp724
(dp725
S'hardware'
p726
S'MIPS Malta (64-bit)'
p727
sS'hardware-long'
p728
S'MIPS Malta boards (64-bit)'
p729
ss(S'image'
p730
g90
tp731
(dp732
S'suggests'
p733
S'mkvmlinuz'
p734
sS'configs'
p735
(lp736
S'powerpc/config'
p737
ass(S'image'
p738
g287
tp739
(dp740
S'initramfs'
p741
I00
ss(S'image'
p742
g114
tp743
(dp744
S'configs'
p745
(lp746
sS'bootloaders'
p747
(lp748
S'grub-pc'
p749
aS'extlinux'
p750
aS'lilo'
p751
ass(S'build'
p752
g5
NS'kirkwood'
p753
tp754
(dp755
S'image-file'
p756
S'arch/arm/boot/zImage'
p757
ss(g89
g375
g91
tp758
(dp759
g94
I01
sg95
(lp760
S'sparc64'
p761
aS'sparc64-smp'
p762
ass(S'abi'
p763
Ng38
tp764
(dp765
S'ignore-changes'
p766
(lp767
S'*'
p768
ass(S'base'
p769
g90
tp770
(dp771
S'kernel-arch'
p772
S'powerpc'
p773
sg128
(lp774
g91
ass(g89
g123
g91
tp775
(dp776
g94
I01
sg95
(lp777
S'alpha-generic'
p778
aS'alpha-smp'
p779
aS'alpha-legacy'
p780
ass(S'description'
p781
g114
g115
S'686-pae'
p782
tp783
(dp784
S'parts'
p785
(lp786
S'xen'
p787
ass(g89
g49
g91
tp788
(dp789
g94
I01
sg95
(lp790
S'itanium'
p791
aS'mckinley'
p792
ass(S'build'
p793
g81
NS'armmp'
p794
tp795
(dp796
S'image-file'
p797
S'arch/arm/boot/zImage'
p798
ss(g89
g287
g91
tp799
(dp800
g94
I01
sg95
(lp801
S'r4k-ip22'
p802
aS'r5k-ip32'
p803
aS'sb1-bcm91250a'
p804
aS'sb1a-bcm91480b'
p805
aS'4kc-malta'
p806
aS'5kc-malta'
p807
aS'octeon'
p808
ass(S'image'
p809
g114
NS'amd64'
p810
tp811
(dp812
S'configs'
p813
(lp814
S'kernelarch-x86/config-arch-64'
p815
asS'recommends'
p816
S'libc6-i686'
p817
ss(S'image'
p818
g90
NS'powerpc64'
p819
tp820
(dp821
S'configs'
p822
(lp823
S'powerpc/config.powerpc64'
p824
ass(S'description'
p825
g123
NS'alpha-generic'
p826
tp827
(dp828
S'hardware'
p829
S'Alpha'
p830
sS'hardware-long'
p831
S'DEC Alpha systems with extended kernel start address (Wildfire, Titan, Marvel)'
p832
ss(S'description'
p833
g5
NS'orion5x'
p834
tp835
(dp836
S'hardware'
p837
S'Marvell Orion'
p838
sS'hardware-long'
p839
S'Marvell Orion 5181, 5182 and 5281 based systems (QNAP TS-109/TS-209, etc)'
p840
ss(S'base'
p841
S'x32'
p842
tp843
(dp844
S'kernel-arch'
p845
S'x86'
p846
sS'featuresets'
p847
(lp848
ss(S'image'
p849
g23
NS'sb1-bcm91250a'
p850
tp851
(dp852
S'configs'
p853
(lp854
S'mips/config.sb1-bcm91250a'
p855
ass(S'image'
p856
g242
tp857
(dp858
S'suggests'
p859
S'vmelilo, fdutils'
p860
ss(S'description'
p861
g157
NS'parisc'
p862
tp863
(dp864
S'hardware'
p865
S'32-bit PA-RISC'
p866
ss(S'base'
p867
g81
tp868
(dp869
S'kernel-arch'
p870
S'arm'
p871
sg128
(lp872
g91
ass(S'description'
p873
g58
NS'powerpc'
p874
tp875
(dp876
S'hardware'
p877
S'uniprocessor 32-bit PowerPC'
p878
ss(S'image'
p879
g319
tp880
(dp881
S'suggests'
p882
S'fdutils'
p883
ss(S'description'
p884
g287
NS'sb1-bcm91250a'
p885
tp886
(dp887
S'hardware'
p888
S'BCM91250A'
p889
sS'hardware-long'
p890
S'Broadcom BCM91250A systems (aka SWARM)'
p891
ss(S'image'
p892
g58
NS'powerpc-smp'
p893
tp894
(dp895
S'configs'
p896
(lp897
S'powerpc/config.powerpc'
p898
aS'powerpc/config.powerpc-smp'
p899
ass(S'base'
p900
g319
tp901
(dp902
S'kernel-arch'
p903
S'sh'
p904
sg128
(lp905
g91
asS'compiler'
p906
S'gcc-4.7'
p907
ss(S'image'
p908
g375
tp909
(dp910
S'suggests'
p911
S'silo, fdutils'
p912
ss(S'description'
p913
tp914
(dp915
S'part-long-up'
p916
S'This kernel is not suitable for SMP (multi-processor,\nmulti-core or hyper-threaded) systems.'
p917
sS'part-long-xen'
p918
S'This kernel also runs on a Xen hypervisor.\nIt supports both privileged (dom0) and unprivileged (domU) operation.'
p919
ss(S'relations'
p920
g81
tp921
(dp922
S'headers%gcc-4.8'
p923
S'linux-compiler-gcc-4.8--arm'
p924
ss(S'description'
p925
g517
NS'sparc64'
p926
tp927
(dp928
S'hardware'
p929
S'uniprocessor 64-bit UltraSPARC'
p930
ss(S'description'
p931
g23
NS'sb1-bcm91250a'
p932
tp933
(dp934
S'hardware'
p935
S'BCM91250A'
p936
sS'hardware-long'
p937
S'Broadcom BCM91250A systems (aka SWARM)'
p938
ss(S'image'
p939
g517
tp940
(dp941
S'suggests'
p942
S'silo, fdutils'
p943
sS'configs'
p944
(lp945
S'sparc/config'
p946
ass(S'relations'
p947
g99
tp948
(dp949
S'headers%gcc-4.8'
p950
S'linux-compiler-gcc-4.8-s390'
p951
ss(S'description'
p952
g58
NS'powerpc-smp'
p953
tp954
(dp955
S'hardware'
p956
S'multiprocessor 32-bit PowerPC'
p957
ss(S'base'
p958
g58
tp959
(dp960
S'kernel-arch'
p961
S'powerpc'
p962
sg128
(lp963
g91
ass(S'description'
p964
g287
NS'octeon'
p965
tp966
(dp967
S'hardware'
p968
S'Octeon'
p969
sS'hardware-long'
p970
S'Cavium Networks Octeon'
p971
ss(S'description'
p972
g157
NS'parisc-smp'
p973
tp974
(dp975
S'hardware'
p976
S'multiprocessor 32-bit PA-RISC'
p977
ss(S'description'
p978
g287
NS'5kc-malta'
p979
tp980
(dp981
S'hardware'
p982
S'MIPS Malta (64-bit)'
p983
sS'hardware-long'
p984
S'MIPS Malta boards (64-bit)'
p985
ss(S'build'
p986
g114
NS'686-pae'
p987
tp988
(dp989
S'debug-info'
p990
I01
ss(S'description'
p991
g114
NS'486'
p992
tp993
(dp994
S'hardware'
p995
S'older PCs'
p996
sS'parts'
p997
(lp998
S'up'
p999
asS'hardware-long'
p1000
S'PCs with a single processor not supporting PAE'
p1001
ss(S'image'
p1002
g5
NS'orion5x'
p1003
tp1004
(dp1005
S'check-size'
p1006
S'1572792'
p1007
sS'configs'
p1008
(lp1009
S'armel/config-reduced'
p1010
aS'armel/config.orion5x'
p1011
asS'recommends'
p1012
S'uboot-mkimage'
p1013
ss(S'image'
p1014
g81
tp1015
(dp1016
S'suggests'
p1017
S'fdutils'
p1018
sS'configs'
p1019
(lp1020
S'armel/config'
p1021
aS'armhf/config'
p1022
ass(S'abi'
p1023
tp1024
(dp1025
S'abiname'
p1026
S'trunk'
p1027
ss(g89
g131
g91
tp1028
(dp1029
g94
I01
sg95
(lp1030
S'powerpcspe'
p1031
ass(g89
g242
g91
tp1032
(dp1033
g94
I01
sg95
(lp1034
S'm68k'
p1035
ass(S'description'
p1036
g12
NS'amd64'
p1037
tp1038
(dp1039
S'hardware'
p1040
S'64-bit PCs'
p1041
sS'hardware-long'
p1042
S'PCs with AMD64, Intel 64 or VIA Nano processors'
p1043
ss(S'base'
p1044
tp1045
(dp1046
S'arches'
p1047
(lp1048
S'alpha'
p1049
aS'amd64'
p1050
aS'arm64'
p1051
aS'armel'
p1052
aS'armhf'
p1053
aS'hppa'
p1054
aS'i386'
p1055
aS'ia64'
p1056
aS'm68k'
p1057
aS'mips'
p1058
aS'mipsel'
p1059
aS'powerpc'
p1060
aS'powerpcspe'
p1061
aS'ppc64'
p1062
aS's390'
p1063
aS's390x'
p1064
aS'sh4'
p1065
aS'sparc'
p1066
aS'sparc64'
p1067
aS'x32'
p1068
asS'featuresets'
p1069
(lp1070
S'none'
p1071
aS'rt'
p1072
asS'compiler'
p1073
S'gcc-4.6'
p1074
ss(g89
g58
g91
tp1075
(dp1076
g94
I01
sg95
(lp1077
S'powerpc'
p1078
aS'powerpc-smp'
p1079
aS'powerpc64'
p1080
ass(S'description'
p1081
g287
NS'sb1a-bcm91480b'
p1082
tp1083
(dp1084
S'hardware'
p1085
S'BCM91480B'
p1086
sS'hardware-long'
p1087
S'Broadcom BCM91480B systems (aka BigSur)'
p1088
ss(S'base'
p1089
g242
tp1090
(dp1091
S'kernel-arch'
p1092
S'm68k'
p1093
sg128
(lp1094
g91
asS'cflags'
p1095
S'-ffreestanding'
p1096
sS'compiler'
p1097
S'gcc-4.8'
p1098
ss(S'description'
p1099
g375
NS'sparc64'
p1100
tp1101
(dp1102
S'hardware'
p1103
S'uniprocessor 64-bit UltraSPARC'
p1104
ss(S'image'
p1105
tp1106
(dp1107
S'initramfs-generators'
p1108
(lp1109
S'initramfs-tools'
p1110
aS'initramfs-fallback'
p1111
asS'type'
p1112
S'plain'
p1113
ss(S'build'
p1114
g99
NS's390x'
p1115
tp1116
(dp1117
S'debug-info'
p1118
I01
ss(S'description'
p1119
g517
NS'sparc64-smp'
p1120
tp1121
(dp1122
S'hardware'
p1123
S'multiprocessor 64-bit UltraSPARC'
p1124
ss(g89
g517
g91
tp1125
(dp1126
g94
I01
sg95
(lp1127
S'sparc64'
p1128
aS'sparc64-smp'
p1129
ass(S'description'
p1130
g5
NS'iop32x'
p1131
tp1132
(dp1133
S'hardware'
p1134
S'IOP32x'
p1135
sS'hardware-long'
p1136
S'IOP32x based systems (Thecus N2100, etc)'
p1137
ss(S'image'
p1138
g12
NS'amd64'
p1139
tp1140
(dp1141
S'configs'
p1142
(lp1143
S'kernelarch-x86/config-arch-64'
p1144
ass(S'image'
p1145
g375
NS'sparc32'
p1146
tp1147
(dp1148
S'image-postproc'
p1149
S'sparc32-image-postproc'
p1150
ss(S'description'
p1151
g5
NS'ixp4xx'
p1152
tp1153
(dp1154
S'hardware'
p1155
S'IXP4xx'
p1156
sS'hardware-long'
p1157
S'IXP4xx based systems (Linksys NSLU2, etc)'
p1158
ss(S'image'
p1159
g99
tp1160
(dp1161
S'bootloaders'
p1162
(lp1163
S's390-tools'
p1164
ass(S'description'
p1165
g5
NS'mv78xx0'
p1166
tp1167
(dp1168
S'hardware'
p1169
S'Marvell 78xx0'
p1170
sS'hardware-long'
p1171
S'Marvell DB-78xx0-BP Development Board'
p1172
ss(S'image'
p1173
g517
NS'sparc64'
p1174
tp1175
(dp1176
S'configs'
p1177
(lp1178
S'sparc/config.sparc64'
p1179
ass(S'base'
p1180
g157
NS'parisc64'
p1181
tp1182
(dp1183
S'override-host-type'
p1184
S'hppa64-linux-gnu'
p1185
sS'cflags'
p1186
S'-fno-cse-follow-jumps'
p1187
ss(S'image'
p1188
g5
NS'kirkwood'
p1189
tp1190
(dp1191
S'check-size'
p1192
S'2097080'
p1193
sS'recommends'
p1194
S'uboot-mkimage'
p1195
ss(S'image'
p1196
g271
NS's390x'
p1197
tp1198
(dp1199
S'configs'
p1200
(lp1201
S's390x/config.s390x'
p1202
asstp1203
Rp1204
.