ccopy_reg
_reconstructor
p1
(cdebian_linux.config
ConfigCore
p2
c__builtin__
dict
p3
(dp4
(S'image'
S'amd64'
p5
tp6
(dp7
S'configs'
p8
(lp9
sS'bootloaders'
p10
(lp11
S'grub-pc'
p12
aS'extlinux'
p13
aS'lilo'
p14
ass(S'description'
S'armel'
p15
NS'versatile'
tp16
(dp17
S'hardware'
p18
S'Versatile'
p19
sS'hardware-long'
p20
S'Versatile systems (PB, AB, Qemu)'
p21
ss(S'description'
S'mips'
p22
NS'sb1-bcm91250a'
tp23
(dp24
S'hardware'
p25
S'BCM91250A'
p26
sS'hardware-long'
p27
S'Broadcom BCM91250A systems (aka SWARM)'
p28
ss(S'description'
S'm68k'
p29
NS'm68k'
tp30
(dp31
S'hardware'
p32
S'Motorola MC68020+ family'
p33
ss(S'base'
g5
S'none'
p34
tp35
(dp36
S'flavours'
p37
(lp38
S'amd64'
p39
ass(S'image'
S'ia64'
p40
tp41
(dp42
S'suggests'
p43
S'fdutils'
p44
sS'bootloaders'
p45
(lp46
S'elilo'
p47
ass(S'image'
g15
NS'ixp4xx'
tp48
(dp49
S'check-size'
p50
S'1441760'
p51
sS'configs'
p52
(lp53
S'armel/config-reduced'
p54
aS'armel/config.ixp4xx'
p55
ass(S'xen'
S'i386'
p56
S'none'
p57
S'amd64'
tp58
(dp59
S'flavours'
p60
(lp61
S'amd64'
p62
ass(S'version'
p63
tp64
(dp65
S'abiname'
p66
S'3.10-3'
p67
sS'source'
p68
V3.10.11-1kali1
p69
ss(S'description'
g5
g34
S'amd64'
tp70
(dp71
S'parts'
p72
(lp73
S'xen'
p74
ass(S'description'
S'mipsel'
p75
NS'sb1-bcm91250a'
tp76
(dp77
S'hardware'
p78
S'BCM91250A'
p79
sS'hardware-long'
p80
S'Broadcom BCM91250A systems (aka SWARM)'
p81
ss(S'description'
S'sparc'
p82
NS'sparc64-smp'
tp83
(dp84
S'hardware'
p85
S'multiprocessor 64-bit UltraSPARC'
p86
ss(S'base'
p87
S'ppc64'
p88
S'none'
p89
tp90
(dp91
S'implicit-flavour'
p92
I01
sS'flavours'
p93
(lp94
S'powerpc64'
p95
ass(S'description'
S'alpha'
p96
NS'alpha-generic'
tp97
(dp98
S'hardware'
p99
S'Alpha'
p100
sS'hardware-long'
p101
S'DEC Alpha systems with extended kernel start address (Wildfire, Titan, Marvel)'
p102
ss(S'description'
NS'rt'
p103
tp104
(dp105
S'part-long-rt'
p106
S'This kernel includes the PREEMPT_RT realtime patch set.'
p107
sS'parts'
p108
(lp109
S'rt'
p110
asS'part-short-rt'
p111
S'PREEMPT_RT'
p112
ss(S'base'
g96
tp113
(dp114
S'kernel-arch'
p115
S'alpha'
p116
sS'featuresets'
p117
(lp118
g89
ass(S'image'
S'armhf'
p119
NS'omap'
tp120
(dp121
S'recommends'
p122
S'uboot-mkimage'
p123
ss(g87
g119
g89
tp124
(dp125
g92
I01
sg93
(lp126
S'armmp'
p127
aS'mx5'
p128
aS'omap'
p129
aS'vexpress'
p130
ass(S'description'
S'sh4'
p131
NS'sh7785lcr'
tp132
(dp133
S'hardware'
p134
S'sh7785lcr'
p135
sS'hardware-long'
p136
S'Renesas SH7785 reference board'
p137
ss(S'base'
g56
S'rt'
tp138
(dp139
S'flavours'
p140
(lp141
S'686-pae'
p142
ass(g87
S'powerpc'
p143
g89
tp144
(dp145
g92
I01
sg93
(lp146
S'powerpc'
p147
aS'powerpc-smp'
p148
aS'powerpc64'
p149
ass(S'image'
g143
tp150
(dp151
S'suggests'
p152
S'mkvmlinuz'
p153
ss(S'build'
g15
NS'kirkwood'
tp154
(dp155
S'image-file'
p156
S'arch/arm/boot/zImage'
p157
ss(S'base'
g5
S'rt'
tp158
(dp159
S'flavours'
p160
(lp161
S'amd64'
p162
ass(S'description'
S'hppa'
p163
NS'parisc64'
tp164
(dp165
S'hardware'
p166
S'64-bit PA-RISC'
p167
ss(S'description'
g56
g57
S'amd64'
tp168
(dp169
S'parts'
p170
(lp171
S'xen'
p172
ass(S'build'
g119
NS'armmp'
tp173
(dp174
S'image-file'
p175
S'arch/arm/boot/zImage'
p176
ss(S'base'
g56
tp177
(dp178
S'kernel-arch'
p179
S'x86'
p180
sS'featuresets'
p181
(lp182
S'none'
p183
aS'rt'
p184
ass(S'base'
g75
tp185
(dp186
S'kernel-arch'
p187
S'mips'
p188
sg117
(lp189
g89
ass(S'build'
g131
NS'sh7751r'
tp190
(dp191
S'image-file'
p192
S'arch/sh/boot/zImage'
p193
ss(S'description'
g22
NS'sb1a-bcm91480b'
tp194
(dp195
S'hardware'
p196
S'BCM91480B'
p197
sS'hardware-long'
p198
S'Broadcom BCM91480B systems (aka BigSur)'
p199
ss(g87
g75
g89
tp200
(dp201
g92
I01
sg93
(lp202
S'r5k-cobalt'
p203
aS'sb1-bcm91250a'
p204
aS'sb1a-bcm91480b'
p205
aS'4kc-malta'
p206
aS'5kc-malta'
p207
aS'loongson-2f'
p208
ass(S'build'
S's390x'
p209
NS's390x'
tp210
(dp211
S'debug-info'
p212
I01
ss(S'description'
S'powerpcspe'
p213
tp214
(dp215
S'hardware'
p216
S'32-bit PowerPC with SPE (instead of AltiVec) with SMP support'
p217
ss(S'relations'
tp218
(dp219
S'gcc-4.8'
p220
S'gcc-4.8'
p221
sS'initramfs-fallback'
p222
S'linux-initramfs-tool'
p223
sS'gcc-4.7'
p224
S'gcc-4.7'
p225
sS'gcc-4.6'
p226
S'gcc-4.6'
p227
sS'gcc-4.4'
p228
S'gcc-4.4'
p229
sS'initramfs-tools'
p230
S'initramfs-tools (>= 0.110~)'
p231
ss(S'description'
g40
NS'mckinley'
tp232
(dp233
S'hardware'
p234
S'Itanium II'
p235
ss(S'description'
g15
NS'iop32x'
tp236
(dp237
S'hardware'
p238
S'IOP32x'
p239
sS'hardware-long'
p240
S'IOP32x based systems (Thecus N2100, etc)'
p241
ss(S'description'
g15
NS'ixp4xx'
tp242
(dp243
S'hardware'
p244
S'IXP4xx'
p245
sS'hardware-long'
p246
S'IXP4xx based systems (Linksys NSLU2, etc)'
p247
ss(g87
g131
g89
tp248
(dp249
g92
I01
sg93
(lp250
S'sh7751r'
p251
aS'sh7785lcr'
p252
ass(S'description'
g22
NS'5kc-malta'
tp253
(dp254
S'hardware'
p255
S'MIPS Malta (64-bit)'
p256
sS'hardware-long'
p257
S'MIPS Malta boards (64-bit)'
p258
ss(S'xen'
g56
g57
S'686-pae'
tp259
(dp260
S'flavours'
p261
(lp262
S'i386'
p263
aS'amd64'
p264
ass(S'description'
S'sparc64'
p265
NS'sparc64'
tp266
(dp267
S'hardware'
p268
S'uniprocessor 64-bit UltraSPARC'
p269
ss(S'base'
g163
NS'parisc64-smp'
tp270
(dp271
S'override-host-type'
p272
S'hppa64-linux-gnu'
p273
sS'cflags'
p274
S'-fno-cse-follow-jumps'
p275
ss(S'description'
g5
NS'amd64'
tp276
(dp277
S'hardware'
p278
S'64-bit PCs'
p279
sS'hardware-long'
p280
S'PCs with AMD64, Intel 64 or VIA Nano processors'
p281
ss(S'base'
g15
tp282
(dp283
S'kernel-arch'
p284
S'arm'
p285
sg117
(lp286
g89
ass(S'description'
g96
NS'alpha-legacy'
tp287
(dp288
S'hardware'
p289
S'Alpha Legacy'
p290
sS'hardware-long'
p291
S'DEC Alpha systems with legacy kernel start address'
p292
ss(S'base'
g82
tp293
(dp294
S'kernel-arch'
p295
S'sparc'
p296
sg117
(lp297
g89
ass(S'description'
S's390'
p298
NS's390'
tp299
(dp300
S'hardware'
p301
S'IBM S/390'
p302
ss(S'image'
g75
NS'5kc-malta'
tp303
(dp304
S'configs'
p305
(lp306
S'mips/config.5kc-malta'
p307
ass(S'image'
g56
NS'amd64'
tp308
(dp309
S'configs'
p310
(lp311
S'kernelarch-x86/config-arch-64'
p312
asS'recommends'
p313
S'libc6-i686'
p314
ss(S'image'
g131
NS'sh7785lcr'
tp315
(dp316
S'check-size'
p317
S'4194304'
p318
sS'recommends'
p319
S'uboot-mkimage'
p320
ss(S'build'
g298
NS's390x'
tp321
(dp322
S'debug-info'
p323
I01
ss(S'description'
g15
NS'orion5x'
tp324
(dp325
S'hardware'
p326
S'Marvell Orion'
p327
sS'hardware-long'
p328
S'Marvell Orion 5181, 5182 and 5281 based systems (QNAP TS-109/TS-209, etc)'
p329
ss(g87
g298
g89
tp330
(dp331
g92
I01
sg93
(lp332
S's390x'
p333
ass(g87
g209
g89
tp334
(dp335
g92
I01
sg93
(lp336
S's390x'
p337
ass(S'base'
g22
tp338
(dp339
S'kernel-arch'
p340
S'mips'
p341
sg117
(lp342
g89
ass(S'build'
g5
tp343
(dp344
S'debug-info'
p345
I01
ss(S'image'
g75
tp346
(dp347
S'initramfs'
p348
I00
ss(S'description'
g163
NS'parisc64-smp'
tp349
(dp350
S'hardware'
p351
S'multiprocessor 64-bit PA-RISC'
p352
ss(S'description'
g56
NS'486'
tp353
(dp354
S'hardware'
p355
S'older PCs'
p356
sS'parts'
p357
(lp358
S'up'
p359
asS'hardware-long'
p360
S'PCs with a single processor not supporting PAE'
p361
ss(S'description'
g119
NS'vexpress'
tp362
(dp363
S'hardware'
p364
S'ARM Ltd. Versatile Express'
p365
sS'hardware-long'
p366
S'ARM Ltd. Versatile Express family of processors'
p367
ss(S'description'
g96
NS'alpha-smp'
tp368
(dp369
S'hardware'
p370
S'Alpha SMP'
p371
sS'hardware-long'
p372
S'DEC Alpha SMP systems with extended kernel start address (Wildfire, Titan, Marvel)'
p373
ss(S'base'
g5
tp374
(dp375
S'kernel-arch'
p376
S'x86'
p377
sS'featuresets'
p378
(lp379
S'none'
p380
aS'rt'
p381
ass(S'base'
g40
tp382
(dp383
S'kernel-arch'
p384
S'ia64'
p385
sg117
(lp386
g89
ass(S'abi'
Ng103
tp387
(dp388
S'ignore-changes'
p389
(lp390
S'*'
ass(S'base'
g298
tp391
(dp392
S'kernel-arch'
p393
S's390'
p394
sg117
(lp395
g89
ass(g87
g15
g89
tp396
(dp397
g92
I01
sg93
(lp398
S'iop32x'
p399
aS'ixp4xx'
p400
aS'kirkwood'
p401
aS'mv78xx0'
p402
aS'orion5x'
p403
aS'versatile'
p404
ass(S'description'
g15
NS'kirkwood'
tp405
(dp406
S'hardware'
p407
S'Marvell Kirkwood'
p408
sS'hardware-long'
p409
S'Marvell Kirkwood based systems (SheevaPlug, QNAP TS-119/TS-219, etc)'
p410
ss(S'description'
g56
tp411
(dp412
S'part-long-pae'
p413
S'This kernel requires PAE (Physical Address Extension).\nThis feature is supported by the Intel Pentium Pro/II/III/4/4M/D, Xeon,\nCore and Atom; AMD Geode NX, Athlon (K7), Duron, Opteron, Sempron,\nTurion or Phenom; Transmeta Efficeon; VIA C7; and some other processors.'
p414
ss(S'base'
NS'rt'
tp415
(dp416
S'enabled'
p417
I01
ss(S'image'
g119
tp418
(dp419
S'suggests'
p420
S'fdutils'
p421
sS'configs'
p422
(lp423
S'armel/config'
p424
aS'armhf/config'
p425
ass(S'xen'
g5
g34
S'amd64'
tp426
(dp427
S'flavours'
p428
(lp429
S'amd64'
p430
ass(S'image'
g15
tp431
(dp432
S'suggests'
p433
S'fdutils'
p434
ss(S'image'
g298
tp435
(dp436
S'bootloaders'
p437
(lp438
S's390-tools'
p439
ass(S'description'
g265
NS'sparc64-smp'
tp440
(dp441
S'hardware'
p442
S'multiprocessor 64-bit UltraSPARC'
p443
ss(S'build'
g119
NS'omap'
tp444
(dp445
S'image-file'
p446
S'arch/arm/boot/zImage'
p447
ss(S'image'
g163
tp448
(dp449
S'suggests'
p450
S'palo'
p451
ss(S'description'
g22
NS'r4k-ip22'
tp452
(dp453
S'hardware'
p454
S'SGI IP22'
p455
sS'hardware-long'
p456
S'SGI IP22 systems (Indy, Indigo2)'
p457
ss(S'image'
g213
tp458
(dp459
S'suggests'
p460
S'mkvmlinuz'
p461
sS'configs'
p462
(lp463
S'powerpc/config'
p464
aS'powerpcspe/config.powerpcspe'
p465
ass(S'relations'
g163
tp466
(dp467
S'gcc-4.4'
p468
S'gcc-4.4, binutils-hppa64, gcc-4.4-hppa64'
p469
ss(S'image'
g209
NS's390x'
tp470
(dp471
S'configs'
p472
(lp473
S's390/config.s390x'
p474
ass(S'build'
g131
NS'sh7785lcr'
tp475
(dp476
S'image-file'
p477
S'arch/sh/boot/zImage'
p478
ss(S'image'
g82
NS'sparc32'
tp479
(dp480
S'image-postproc'
p481
S'sparc32-image-postproc'
p482
ss(S'description'
g119
NS'omap'
tp483
(dp484
S'hardware'
p485
S'TI OMAP3+'
p486
sS'hardware-long'
p487
S'Texas Instruments OMAP3 or OMAP4 based systems'
p488
ss(S'description'
g88
NS'powerpc64'
tp489
(dp490
S'hardware'
p491
S'64-bit PowerPC'
p492
ss(g87
g163
g89
tp493
(dp494
g92
I01
sg93
(lp495
S'parisc'
p496
aS'parisc-smp'
p497
aS'parisc64'
p498
aS'parisc64-smp'
p499
ass(S'image'
g96
tp500
(dp501
S'suggests'
p502
S'aboot, fdutils'
p503
ss(S'base'
g265
tp504
(dp505
S'kernel-arch'
p506
S'sparc'
p507
sg117
(lp508
g89
ass(S'image'
g56
tp509
(dp510
S'configs'
p511
(lp512
sS'bootloaders'
p513
(lp514
S'grub-pc'
p515
aS'extlinux'
p516
aS'lilo'
p517
ass(S'image'
g15
NS'kirkwood'
tp518
(dp519
S'check-size'
p520
S'2097080'
p521
sS'recommends'
p522
S'uboot-mkimage'
p523
ss(S'description'
g131
NS'sh7751r'
tp524
(dp525
S'hardware'
p526
S'sh7751r'
p527
sS'hardware-long'
p528
S'Renesas SH7751R R2D plus board'
p529
ss(S'base'
g209
tp530
(dp531
S'kernel-arch'
p532
S's390'
p533
sg117
(lp534
g89
ass(S'build'
g119
NS'vexpress'
tp535
(dp536
S'image-file'
p537
S'arch/arm/boot/zImage'
p538
ss(S'image'
g88
tp539
(dp540
S'suggests'
p541
S'mkvmlinuz'
p542
sS'configs'
p543
(lp544
S'powerpc/config'
p545
ass(S'image'
g22
tp546
(dp547
S'initramfs'
p548
I00
ss(S'description'
g82
NS'sparc64'
tp549
(dp550
S'hardware'
p551
S'uniprocessor 64-bit UltraSPARC'
p552
ss(g87
g82
g89
tp553
(dp554
g92
I01
sg93
(lp555
S'sparc64'
p556
aS'sparc64-smp'
p557
ass(S'base'
g88
tp558
(dp559
S'kernel-arch'
p560
S'powerpc'
p561
sg117
(lp562
g89
ass(g87
g96
g89
tp563
(dp564
g92
I01
sg93
(lp565
S'alpha-generic'
p566
aS'alpha-smp'
p567
aS'alpha-legacy'
p568
ass(S'description'
g56
g57
S'686-pae'
tp569
(dp570
S'parts'
p571
(lp572
S'xen'
p573
ass(S'base'
S'x32'
tp574
(dp575
S'kernel-arch'
p576
S'x86'
p577
sS'featuresets'
p578
(lp579
ss(S'build'
g15
NS'orion5x'
tp580
(dp581
S'image-file'
p582
S'arch/arm/boot/zImage'
p583
ss(g87
g22
g89
tp584
(dp585
g92
I01
sg93
(lp586
S'r4k-ip22'
p587
aS'r5k-ip32'
p588
aS'sb1-bcm91250a'
p589
aS'sb1a-bcm91480b'
p590
aS'4kc-malta'
p591
aS'5kc-malta'
p592
aS'octeon'
p593
ass(S'description'
g75
NS'4kc-malta'
tp594
(dp595
S'hardware'
p596
S'MIPS Malta'
p597
sS'hardware-long'
p598
S'MIPS Malta boards'
p599
ss(S'description'
g56
NS'amd64'
tp600
(dp601
S'hardware'
p602
S'64-bit PCs'
p603
sS'parts'
p604
(lp605
S'xen'
p606
asS'hardware-long'
p607
S'PCs with AMD64, Intel 64 or VIA Nano processors'
p608
ss(S'image'
g5
NS'amd64'
tp609
(dp610
S'configs'
p611
(lp612
S'kernelarch-x86/config-arch-64'
p613
ass(S'description'
g15
NS'mv78xx0'
tp614
(dp615
S'hardware'
p616
S'Marvell 78xx0'
p617
sS'hardware-long'
p618
S'Marvell DB-78xx0-BP Development Board'
p619
ss(g87
g40
g89
tp620
(dp621
g92
I01
sg93
(lp622
S'itanium'
p623
aS'mckinley'
p624
ass(S'image'
g29
tp625
(dp626
S'suggests'
p627
S'vmelilo, fdutils'
p628
ss(S'description'
g298
NS's390x'
tp629
(dp630
S'hardware'
p631
S'IBM zSeries'
p632
ss(S'description'
g22
NS'4kc-malta'
tp633
(dp634
S'hardware'
p635
S'MIPS Malta'
p636
sS'hardware-long'
p637
S'MIPS Malta boards'
p638
ss(S'base'
g163
NS'parisc64'
tp639
(dp640
S'override-host-type'
p641
S'hppa64-linux-gnu'
p642
sS'cflags'
p643
S'-fno-cse-follow-jumps'
p644
ss(S'base'
g119
tp645
(dp646
S'kernel-arch'
p647
S'arm'
p648
sg117
(lp649
g89
ass(S'description'
g22
NS'octeon'
tp650
(dp651
S'hardware'
p652
S'Octeon'
p653
sS'hardware-long'
p654
S'Cavium Networks Octeon'
p655
ss(S'image'
g131
tp656
(dp657
S'suggests'
p658
S'fdutils'
p659
ss(S'base'
g163
tp660
(dp661
S'kernel-arch'
p662
S'parisc'
p663
sg117
(lp664
g89
asS'compiler'
p665
S'gcc-4.4'
p666
ss(S'base'
g131
tp667
(dp668
S'kernel-arch'
p669
S'sh'
p670
sg117
(lp671
g89
ass(S'image'
g75
NS'4kc-malta'
tp672
(dp673
S'configs'
p674
(lp675
S'mips/config.4kc-malta'
p676
ass(S'description'
g119
NS'armmp'
tp677
(dp678
S'hardware'
p679
S'ARMv7 multiplatform compatible SoCs'
p680
sS'hardware-long'
p681
S'ARMv7 multiplatform kernel for Marvell Armada 370/xp, Freescale iMX5x/iMX6'
p682
ss(S'image'
g82
tp683
(dp684
S'suggests'
p685
S'silo, fdutils'
p686
ss(S'description'
g75
NS'loongson-2f'
tp687
(dp688
S'hardware'
p689
S'Loongson 2F'
p690
sS'hardware-long'
p691
S'Lemote Loongson 2F systems'
p692
ss(S'description'
g163
NS'parisc'
tp693
(dp694
S'hardware'
p695
S'32-bit PA-RISC'
p696
ss(S'description'
tp697
(dp698
S'part-long-up'
p699
S'This kernel is not suitable for SMP (multi-processor,\nmulti-core or hyper-threaded) systems.'
p700
sS'part-long-xen'
p701
S'This kernel also runs on a Xen hypervisor.\nIt supports both privileged (dom0) and unprivileged (domU) operation.'
p702
ss(S'image'
g15
NS'iop32x'
tp703
(dp704
S'check-size'
p705
S'1441784'
p706
sS'configs'
p707
(lp708
S'armel/config-reduced'
p709
aS'armel/config.iop32x'
p710
ass(S'image'
g56
NS'686-pae'
tp711
(dp712
S'configs'
p713
(lp714
S'kernelarch-x86/config-arch-32'
p715
aS'i386/config.686-pae'
p716
asS'recommends'
p717
S'libc6-i686'
p718
ss(S'image'
g265
tp719
(dp720
S'suggests'
p721
S'silo, fdutils'
p722
sS'configs'
p723
(lp724
S'sparc/config'
p725
ass(S'description'
g56
NS'686-pae'
tp726
(dp727
S'hardware'
p728
S'modern PCs'
p729
sS'parts'
p730
(lp731
S'pae'
p732
asS'hardware-long'
p733
S'PCs with one or more processors supporting PAE'
p734
ss(S'base'
g143
tp735
(dp736
S'kernel-arch'
p737
S'powerpc'
p738
sg117
(lp739
g89
ass(S'image'
g265
NS'sparc64'
tp740
(dp741
S'configs'
p742
(lp743
S'sparc/config.sparc64'
p744
ass(S'description'
g143
NS'powerpc'
tp745
(dp746
S'hardware'
p747
S'uniprocessor 32-bit PowerPC'
p748
ss(S'image'
g75
NS'loongson-2f'
tp749
(dp750
S'recommends'
p751
S'libc6-loongson2f'
p752
ss(S'description'
g75
NS'sb1a-bcm91480b'
tp753
(dp754
S'hardware'
p755
S'BCM91480B'
p756
sS'hardware-long'
p757
S'Broadcom BCM91480B systems (aka BigSur)'
p758
ss(S'image'
g143
NS'powerpc-smp'
tp759
(dp760
S'configs'
p761
(lp762
S'powerpc/config.powerpc'
p763
aS'powerpc/config.powerpc-smp'
p764
ass(S'base'
g56
g57
tp765
(dp766
S'flavours'
p767
(lp768
S'486'
p769
aS'686-pae'
p770
aS'amd64'
p771
ass(S'abi'
tp772
(dp773
S'abiname'
p774
S'3'
ss(S'description'
g22
NS'r5k-ip32'
tp775
(dp776
S'hardware'
p777
S'SGI IP32'
p778
sS'hardware-long'
p779
S'SGI IP32 systems (O2)'
p780
ss(g87
g213
g89
tp781
(dp782
g92
I01
sg93
(lp783
S'powerpcspe'
p784
ass(g87
g29
g89
tp785
(dp786
g92
I01
sg93
(lp787
S'm68k'
p788
ass(S'description'
g143
NS'powerpc64'
tp789
(dp790
S'hardware'
p791
S'64-bit PowerPC'
p792
ss(S'base'
tp793
(dp794
S'arches'
p795
(lp796
S'alpha'
p797
aS'amd64'
p798
aS'armel'
p799
aS'armhf'
p800
aS'hppa'
p801
aS'i386'
p802
aS'ia64'
p803
aS'm68k'
p804
aS'mips'
p805
aS'mipsel'
p806
aS'powerpc'
p807
aS'powerpcspe'
p808
aS'ppc64'
p809
aS's390'
p810
aS's390x'
p811
aS'sh4'
p812
aS'sparc'
p813
aS'sparc64'
p814
aS'x32'
p815
asS'featuresets'
p816
(lp817
S'none'
p818
aS'rt'
p819
asS'compiler'
p820
S'gcc-4.7'
p821
ss(S'image'
g88
NS'powerpc64'
tp822
(dp823
S'configs'
p824
(lp825
S'powerpc/config.powerpc64'
p826
ass(S'description'
g82
NS'sparc32'
tp827
(dp828
S'hardware'
p829
S'uniprocessor sparc32 (sun4m)'
p830
ss(S'description'
g75
NS'r5k-cobalt'
tp831
(dp832
S'hardware'
p833
S'Cobalt'
p834
sS'hardware-long'
p835
S'Cobalt systems (Qube, RaQ, Qube2, RaQ2)'
p836
ss(S'description'
g209
NS's390x'
tp837
(dp838
S'hardware'
p839
S'IBM zSeries'
p840
ss(S'image'
g75
NS'sb1a-bcm91480b'
tp841
(dp842
S'configs'
p843
(lp844
S'mips/config.sb1a-bcm91480b'
p845
ass(S'description'
g75
NS'5kc-malta'
tp846
(dp847
S'hardware'
p848
S'MIPS Malta (64-bit)'
p849
sS'hardware-long'
p850
S'MIPS Malta boards (64-bit)'
p851
ss(S'description'
g40
NS'itanium'
tp852
(dp853
S'hardware'
p854
S'Itanium'
p855
ss(S'base'
g29
tp856
(dp857
S'kernel-arch'
p858
S'm68k'
p859
sg117
(lp860
g89
asS'cflags'
p861
S'-ffreestanding'
p862
sS'compiler'
p863
S'gcc-4.8'
p864
ss(S'image'
tp865
(dp866
S'initramfs-generators'
p867
(lp868
S'initramfs-tools'
p869
aS'initramfs-fallback'
p870
asS'type'
p871
S'plain'
p872
ss(S'base'
g213
tp873
(dp874
S'kernel-arch'
p875
S'powerpc'
p876
sg117
(lp877
g89
ass(g87
g265
g89
tp878
(dp879
g92
I01
sg93
(lp880
S'sparc64'
p881
aS'sparc64-smp'
p882
ass(S'build'
g119
NS'mx5'
tp883
(dp884
S'image-file'
p885
S'arch/arm/boot/zImage'
p886
ss(S'build'
g15
NS'mv78xx0'
tp887
(dp888
S'image-file'
p889
S'arch/arm/boot/zImage'
p890
ss(S'build'
g56
NS'686-pae'
tp891
(dp892
S'debug-info'
p893
I01
ss(S'image'
g56
NS'486'
tp894
(dp895
S'configs'
p896
(lp897
S'kernelarch-x86/config-arch-32'
p898
aS'i386/config.486'
p899
ass(S'description'
g143
NS'powerpc-smp'
tp900
(dp901
S'hardware'
p902
S'multiprocessor 32-bit PowerPC'
p903
ss(S'description'
g119
NS'mx5'
tp904
(dp905
S'hardware'
p906
S'Freescale i.MX51/53'
p907
sS'hardware-long'
p908
S'Freescale i.MX51 or i.MX53 based systems'
p909
ss(S'image'
g209
tp910
(dp911
S'configs'
p912
(lp913
S's390/config'
p914
asS'bootloaders'
p915
(lp916
S's390-tools'
p917
ass(S'build'
g15
NS'iop32x'
tp918
(dp919
S'image-file'
p920
S'arch/arm/boot/zImage'
p921
ss(S'image'
g15
NS'orion5x'
tp922
(dp923
S'check-size'
p924
S'1572792'
p925
sS'configs'
p926
(lp927
S'armel/config-reduced'
p928
aS'armel/config.orion5x'
p929
asS'recommends'
p930
S'uboot-mkimage'
p931
ss(S'image'
g75
NS'sb1-bcm91250a'
tp932
(dp933
S'configs'
p934
(lp935
S'mips/config.sb1-bcm91250a'
p936
ass(S'build'
g15
NS'ixp4xx'
tp937
(dp938
S'image-file'
p939
S'arch/arm/boot/zImage'
p940
ss(S'description'
g163
NS'parisc-smp'
tp941
(dp942
S'hardware'
p943
S'multiprocessor 32-bit PA-RISC'
p944
ss(S'image'
g265
NS'sparc64-smp'
tp945
(dp946
S'configs'
p947
(lp948
S'sparc/config.sparc64-smp'
p949
asstRp950
.