cdebian_linux.config
ConfigCore
p0
(tRp1
(Vabi
p2
tp3
(dp4
Vabiname
p5
V2
p6
sVignore-changes
p7
(lp8
V__cpuhp_*
p9
aV__xive_vm_h_*
p10
aVbpf_analyzer
p11
aVcxl_*
p12
aVdax_flush
p13
aVieee80211_nullfunc_get
p14
aVinet_add_protocol
p15
aVinet_del_protocol
p16
aViommu_device_*
p17
aVkvm_async_pf_task_wait
p18
aVkvmppc_*
p19
aVmm_iommu_*
p20
aVmv_mbus_*
p21
aVperf_*
p22
aVregister_cxl_calls
p23
aVregister_key_type
p24
aVunregister_cxl_calls
p25
aV*_hw_breakpoint
p26
aVmodule:arch/x86/kvm/*
p27
aVmodule:drivers/crypto/ccp/*
p28
aVmodule:drivers/hv/*
p29
aVmodule:drivers/gpu/drm/sun4i/*
p30
aVmodule:drivers/iio/**
p31
aVmodule:drivers/misc/cxl/*
p32
aVmodule:drivers/mtd/nand/*
p33
aVmodule:drivers/net/ethernet/**
p34
aVmodule:drivers/net/wireless/**
p35
aVmodule:drivers/nvdimm/*
p36
aVmodule:drivers/power/supply/bq27xxx_battery
p37
aVmodule:drivers/scsi/cxgbi/*
p38
aVmodule:drivers/scsi/libiscs*
p39
aVmodule:drivers/scsi/qla2xxx/qla2xxx
p40
aVmodule:drivers/scsi/ufs/*
p41
aVmodule:drivers/target/**
p42
aVmodule:drivers/usb/chipidea/**
p43
aVmodule:drivers/usb/gadget/**
p44
aVmodule:drivers/usb/host/**
p45
aVmodule:drivers/usb/musb/**
p46
aVmodule:fs/nfs/**
p47
aVmodule:net/ceph/libceph
p48
aVmodule:net/l2tp/**
p49
aVmodule:net/rxrpc/rxrpc
p50
aVmodule:net/sctp/**
p51
aVmodule:sound/core/seq/**
p52
aVmodule:sound/firewire/snd-firewire-lib
p53
aVmodule:sound/pci/hda/*
p54
aVbtree_*
p55
aVvisitor*
p56
aVcan_rx_register
p57
aVip6_xmit
p58
aVmodule:net/dccp/dccp
p59
aVmodule:net/rds/rds
p60
aVdevfreq_*
p61
aVdevm_devfreq_*
p62
aVupdate_devfreq
p63
aVmodule:drivers/infiniband/**
p64
aVacpi_ec_add_query_handler
p65
aVacpi_ec_remove_query_handler
p66
aVfirst_ec
p67
aVdebugfs_create_automount
p68
aVmodule:drivers/iio/imu/inv_mpu6050/*
p69
aVdrm_crtc_accurate_vblank_count
p70
aVacpi_nfit_desc_init
p71
aVacpi_nfit_init
p72
aVloop_register_transfer
p73
aVxen_xlate_*
p74
aVnf_nat_masquerade_ipv4_register_notifier
p75
aVnf_nat_masquerade_ipv6_register_notifier
p76
aVmodule:drivers/scsi/hisi_sas/*
p77
ass(Vbase
p78
tp79
(dp80
Varches
p81
(lp82
Valpha
p83
aVamd64
p84
aVarm64
p85
aVarm64ilp32
p86
aVarmel
p87
aVarmhf
p88
aVhppa
p89
aVi386
p90
aVia64
p91
aVm68k
p92
aVmips
p93
aVmips64
p94
aVmips64el
p95
aVmips64r6
p96
aVmips64r6el
p97
aVmipsel
p98
aVmipsn32
p99
aVmipsn32el
p100
aVmipsn32r6
p101
aVmipsn32r6el
p102
aVmipsr6
p103
aVmipsr6el
p104
aVpowerpc
p105
aVppc64
p106
aVppc64el
p107
aVriscv64
p108
aVs390
p109
aVs390x
p110
aVsh3
p111
aVsh4
p112
aVsparc
p113
aVsparc64
p114
aVx32
p115
asVcompiler
p116
Vgcc-9
p117
sVfeaturesets
p118
(lp119
Vnone
p120
aVrt
p121
ass(Vbuild
p122
tp123
(dp124
Vdebug-info
p125
I01
sVsigned-code
p126
I00
ss(Vbase
p127
NVrt
p128
tp129
(dp130
Venabled
p131
I00
ss(Vdescription
p132
tp133
(dp134
Vpart-long-up
p135
VThis kernel is not suitable for SMP (multi-processor,\u000amulti-core or hyper-threaded) systems.
p136
ss(Vimage
p137
tp138
(dp139
Vinitramfs-generators
p140
(lp141
Vinitramfs-tools
p142
aVinitramfs-fallback
p143
asVrecommends
p144
(lp145
Vapparmor
p146
ass(Vrelations
p147
tp148
(dp149
Vgcc-9
p150
Vgcc-9 <!stage1 !cross !pkg.linux.nokernel>, gcc-9-@gnu-type-package@ <!stage1 cross !pkg.linux.nokernel>
p151
sVinitramfs-fallback
p152
Vlinux-initramfs-tool
p153
sVinitramfs-tools
p154
Vinitramfs-tools (>= 0.120+deb8u2)
p155
ss(Vbase
p156
Valpha
p157
tp158
(dp159
Vkernel-arch
p160
Valpha
p161
sVfeaturesets
p162
(lp163
Vnone
p164
ass(Vbuild
p165
g157
tp166
(dp167
Vimage-file
p168
Varch/alpha/boot/vmlinux.gz
p169
ss(Vimage
p170
g157
tp171
(dp172
Vsuggests
p173
(lp174
Vaboot
p175
aVfdutils
p176
asVinstall-stem
p177
Vvmlinuz
p178
ss(Vdescription
p179
g157
NValpha-generic
p180
tp181
(dp182
Vhardware
p183
VAlpha
p184
sVhardware-long
p185
VDEC Alpha systems with extended kernel start address (Wildfire, Titan, Marvel)
p186
ss(Vdescription
p187
g157
NValpha-smp
p188
tp189
(dp190
Vhardware
p191
VAlpha SMP
p192
sVhardware-long
p193
VDEC Alpha SMP systems with extended kernel start address (Wildfire, Titan, Marvel)
p194
ss(Vbase
p195
g157
g164
tp196
(dp197
Vflavours
p198
(lp199
Valpha-generic
p200
aValpha-smp
p201
asVimplicit-flavour
p202
I01
ss(Vbase
p203
Vamd64
p204
tp205
(dp206
Vfeaturesets
p207
(lp208
Vnone
p209
aVrt
p210
asVkernel-arch
p211
Vx86
p212
ss(Vbuild
p213
g204
tp214
(dp215
Vdebug-info
p216
I01
sVimage-file
p217
Varch/x86/boot/bzImage
p218
sVsigned-code
p219
I01
sVvdso
p220
I01
ss(Vimage
p221
g204
tp222
(dp223
Vbootloaders
p224
(lp225
Vgrub-pc
p226
aVgrub-efi-amd64
p227
aVextlinux
p228
asVinstall-stem
p229
Vvmlinuz
p230
sVbreaks
p231
(lp232
Vxserver-xorg-input-vmmouse (<< 1:13.0.99)
p233
ass(Vrelations
p234
g204
tp235
(dp236
Vheaders%gcc-9
p237
Vlinux-compiler-gcc-9-x86
p238
ss(Vdescription
p239
g204
NVamd64
p240
tp241
(dp242
Vhardware
p243
V64-bit PCs
p244
sVhardware-long
p245
VPCs with AMD64, Intel 64 or VIA Nano processors
p246
ss(Vdescription
p247
g204
NVcloud-amd64
p248
tp249
(dp250
Vhardware
p251
Vx86-64 cloud
p252
sVhardware-long
p253
VAmazon EC2, Google Compute Engine and Microsoft Azure cloud platforms
p254
ss(Vbase
p255
g204
Vnone
p256
tp257
(dp258
Vflavours
p259
(lp260
Vamd64
p261
aVcloud-amd64
p262
ass(Vbase
p263
g204
Vrt
p264
tp265
(dp266
Vflavours
p267
(lp268
Vamd64
p269
ass(Vbase
p270
Varm64
p271
tp272
(dp273
Vcross-compile-compat
p274
Varm-linux-gnueabihf-
p275
sVkernel-arch
p276
Varm64
p277
sVfeaturesets
p278
(lp279
Vnone
p280
aVrt
p281
ass(Vbuild
p282
g271
tp283
(dp284
Vdebug-info
p285
I01
sVimage-file
p286
Varch/arm64/boot/Image
p287
sVsigned-code
p288
I01
sVvdso
p289
I01
ss(Vimage
p290
g271
tp291
(dp292
Vinstall-stem
p293
Vvmlinuz
p294
sVbreaks
p295
(lp296
Vlibmozjs185-1.0
p297
aVlibmozjs-24-0 (<< 24.2.0-5.1~)
p298
ass(Vdescription
p299
g271
NVarm64
p300
tp301
(dp302
Vhardware
p303
V64-bit ARMv8 machines
p304
ss(Vimage
p305
g271
NVarm64
p306
tp307
(dp308
s(Vrelations
p309
g271
tp310
(dp311
Vgcc-9
p312
Vgcc-9 <!stage1 !cross !pkg.linux.nokernel>, gcc-9-aarch64-linux-gnu <!stage1 cross !pkg.linux.nokernel>, gcc-arm-linux-gnueabihf <!stage1 !pkg.linux.nokernel>
p313
sVheaders%gcc-9
p314
Vgcc-9
p315
ss(Vbase
p316
g271
Vnone
p317
tp318
(dp319
Vflavours
p320
(lp321
Varm64
p322
ass(Vbase
p323
g271
Vrt
p324
tp325
(dp326
Vflavours
p327
(lp328
Varm64
p329
ass(Vbase
p330
Varm64ilp32
p331
tp332
(dp333
Vkernel-arch
p334
Varm64
p335
sVfeaturesets
p336
(lp337
ss(Vbase
p338
Varmel
p339
tp340
(dp341
Vkernel-arch
p342
Varm
p343
sg162
(lp344
g164
ass(Vbuild
p345
g339
tp346
(dp347
Vimage-file
p348
Varch/arm/boot/zImage
p349
sVuncompressed-image-file
p350
Varch/arm/boot/Image
p351
ss(Vimage
p352
g339
tp353
(dp354
Vinstall-stem
p355
Vvmlinuz
p356
ss(Vrelations
p357
g339
tp358
(dp359
Vheaders%gcc-9
p360
Vlinux-compiler-gcc-9-arm
p361
ss(Vdescription
p362
g339
NVmarvell
p363
tp364
(dp365
Vhardware
p366
VMarvell Kirkwood/Orion
p367
sVhardware-long
p368
VMarvell Kirkwood and Orion based systems (https://wiki.debian.org/ArmEabiPort#Supported_hardware)
p369
ss(Vdescription
p370
g339
NVrpi
p371
tp372
(dp373
Vhardware
p374
VRaspberry Pi and Pi Zero
p375
sVhardware-long
p376
VRaspberry Pi, Raspberry Pi Zero based systems
p377
ss(Vimage
p378
g339
NVmarvell
p379
tp380
(dp381
Vrecommends
p382
(lp383
Vu-boot-tools
p384
asVcheck-size
p385
I2729712
sVcheck-size-with-dtb
p386
I01
sVcheck-uncompressed-size
p387
I7340032
sVbreaks
p388
(lp389
Vflash-kernel (<< 3.57~)
p390
ass(g195
g339
g164
tp391
(dp392
g198
(lp393
Vmarvell
p394
aVrpi
p395
asg202
I01
ss(Vbase
p396
Varmhf
p397
tp398
(dp399
Vfeaturesets
p400
(lp401
Vnone
p402
aVrt
p403
asVkernel-arch
p404
Varm
p405
ss(Vbuild
p406
g397
tp407
(dp408
Vimage-file
p409
Varch/arm/boot/zImage
p410
sVvdso
p411
I01
ss(Vimage
p412
g397
tp413
(dp414
Vinstall-stem
p415
Vvmlinuz
p416
ss(Vrelations
p417
g397
tp418
(dp419
Vheaders%gcc-9
p420
Vlinux-compiler-gcc-9-arm
p421
ss(Vdescription
p422
g397
NVarmmp
p423
tp424
(dp425
Vhardware
p426
VARMv7 multiplatform compatible SoCs
p427
sVhardware-long
p428
VARMv7 multiplatform kernel. See\u000ahttps://wiki.debian.org/DebianKernel/ARMMP for details of supported\u000aplatforms
p429
ss(Vdescription
p430
g397
NVarmmp-lpae
p431
tp432
(dp433
Vhardware
p434
VARMv7 multiplatform compatible SoCs supporting LPAE
p435
sVhardware-long
p436
VARMv7 multiplatform kernel supporting LPAE. See\u000ahttps://wiki.debian.org/DebianKernel/ARMMP for details of supported\u000aplatforms.
p437
ss(Vbase
p438
g397
Vnone
p439
tp440
(dp441
Vflavours
p442
(lp443
Varmmp
p444
aVarmmp-lpae
p445
ass(Vbase
p446
g397
Vrt
p447
tp448
(dp449
Vflavours
p450
(lp451
Varmmp
p452
ass(Vbase
p453
Vhppa
p454
tp455
(dp456
Vkernel-arch
p457
Vparisc
p458
sg162
(lp459
g164
ass(Vbuild
p460
g454
tp461
(dp462
Vimage-file
p463
Varch/parisc/boot/bzImage
p464
sVdebug-info
p465
I00
ss(Vimage
p466
g454
tp467
(dp468
Vsuggests
p469
(lp470
Vpalo
p471
asVinstall-stem
p472
Vvmlinuz
p473
ss(Vdescription
p474
g454
NVparisc
p475
tp476
(dp477
Vhardware
p478
V32-bit PA-RISC
p479
sVhardware-long
p480
VHP PA-RISC 32-bit systems with max 4 GB RAM
p481
ss(Vbase
p482
g454
NVparisc64
p483
tp484
(dp485
Vcflags
p486
V-fno-cse-follow-jumps
p487
sVoverride-host-type
p488
Vhppa64-linux-gnu
p489
ss(Vdescription
p490
g454
NVparisc64
p491
tp492
(dp493
Vhardware
p494
V64-bit PA-RISC
p495
sVhardware-long
p496
VHP PA-RISC 64-bit systems with support for more than 4 GB RAM
p497
ss(Vrelations
p498
g454
tp499
(dp500
Vgcc-9
p501
Vgcc-9 <!stage1 !cross !pkg.linux.nokernel>, gcc-9-hppa-linux-gnu <!stage1 cross !pkg.linux.nokernel>, binutils-hppa64-linux-gnu <!stage1 !pkg.linux.nokernel>, gcc-9-hppa64-linux-gnu <!stage1 !pkg.linux.nokernel>
p502
ss(g195
g454
g164
tp503
(dp504
g198
(lp505
Vparisc
p506
aVparisc64
p507
asg202
I01
ss(Vbase
p508
Vi386
p509
tp510
(dp511
Vfeaturesets
p512
(lp513
Vnone
p514
aVrt
p515
asVkernel-arch
p516
Vx86
p517
ss(Vbuild
p518
g509
tp519
(dp520
Vimage-file
p521
Varch/x86/boot/bzImage
p522
sVsigned-code
p523
I01
sVvdso
p524
I01
ss(Vdescription
p525
g509
tp526
(dp527
Vpart-long-pae
p528
VThis kernel requires PAE (Physical Address Extension).\u000aThis feature is supported by the Intel Pentium Pro/II/III/4/4M/D, Xeon,\u000aCore and Atom; AMD Geode NX, Athlon (K7), Duron, Opteron, Sempron,\u000aTurion or Phenom; Transmeta Efficeon; VIA C7; and some other processors.
p529
ss(Vimage
p530
g509
tp531
(dp532
Vbootloaders
p533
(lp534
Vgrub-pc
p535
aVgrub-efi-ia32
p536
aVextlinux
p537
asVinstall-stem
p538
Vvmlinuz
p539
sVbreaks
p540
(lp541
Vxserver-xorg-input-vmmouse (<< 1:13.0.99)
p542
ass(Vrelations
p543
g509
tp544
(dp545
Vheaders%gcc-9
p546
Vlinux-compiler-gcc-9-x86
p547
ss(Vdescription
p548
g509
NV686
p549
tp550
(dp551
Vhardware
p552
Volder PCs
p553
sVhardware-long
p554
VPCs with one or more processors not supporting PAE
p555
ss(Vbuild
p556
g509
NV686-pae
p557
tp558
(dp559
Vdebug-info
p560
I01
ss(Vdescription
p561
g509
NV686-pae
p562
tp563
(dp564
Vhardware
p565
Vmodern PCs
p566
sVhardware-long
p567
VPCs with one or more processors supporting PAE
p568
sVparts
p569
(lp570
Vpae
p571
ass(Vbase
p572
g509
Vnone
p573
tp574
(dp575
Vflavours
p576
(lp577
V686
p578
aV686-pae
p579
ass(Vbase
p580
g509
Vrt
p581
tp582
(dp583
Vflavours
p584
(lp585
V686-pae
p586
ass(Vbase
p587
Via64
p588
tp589
(dp590
Vkernel-arch
p591
Via64
p592
sg162
(lp593
g164
ass(Vbuild
p594
g588
tp595
(dp596
Vimage-file
p597
Vvmlinux.gz
p598
ss(Vimage
p599
g588
tp600
(dp601
Vbootloaders
p602
(lp603
Vgrub-efi-ia64
p604
asVinstall-stem
p605
Vvmlinuz
p606
ss(Vdescription
p607
g588
NVitanium
p608
tp609
(dp610
Vhardware
p611
VItanium (Merced)
p612
sVhardware-long
p613
Vsystems with original Itanium (Merced) processors
p614
ss(Vdescription
p615
g588
NVmckinley
p616
tp617
(dp618
Vhardware
p619
VItanium 2+
p620
sVhardware-long
p621
Vsystems with Itanium 2 or 9300/9500/9700-series processors
p622
ss(g195
g588
g164
tp623
(dp624
g198
(lp625
Vitanium
p626
aVmckinley
p627
asg202
I01
ss(Vbase
p628
Vm68k
p629
tp630
(dp631
Vcflags
p632
V-ffreestanding
p633
sVkernel-arch
p634
Vm68k
p635
sg162
(lp636
g164
ass(Vbuild
p637
g629
tp638
(dp639
Vimage-file
p640
Vvmlinux
p641
ss(Vimage
p642
g629
tp643
(dp644
Vsuggests
p645
(lp646
Vvmelilo
p647
aVfdutils
p648
asVinstall-stem
p649
Vvmlinux
p650
ss(Vdescription
p651
g629
NVm68k
p652
tp653
(dp654
Vhardware
p655
VMotorola MC68020+ family
p656
ss(g195
g629
g164
tp657
(dp658
g198
(lp659
Vm68k
p660
asg202
I01
ss(Vbase
p661
Vmips
p662
tp663
(dp664
Vkernel-arch
p665
Vmips
p666
sg162
(lp667
g164
ass(Vbuild
p668
g662
tp669
(dp670
Vimage-file
p671
Vvmlinux
p672
ss(Vimage
p673
g662
tp674
(dp675
Vinstall-stem
p676
Vvmlinux
p677
ss(Vdescription
p678
g662
NV4kc-malta
p679
tp680
(dp681
Vhardware
p682
VMIPS Malta
p683
sVhardware-long
p684
VMIPS Malta boards
p685
ss(Vimage
p686
g662
NV4kc-malta
p687
tp688
(dp689
Vconfigs
p690
(lp691
Vkernelarch-mips/config.malta
p692
aVkernelarch-mips/config.mips32r2
p693
ass(Vdescription
p694
g662
NV5kc-malta
p695
tp696
(dp697
Vhardware
p698
VMIPS Malta (64-bit)
p699
sVhardware-long
p700
VMIPS Malta boards (64-bit)
p701
ss(Vimage
p702
g662
NV5kc-malta
p703
tp704
(dp705
Vconfigs
p706
(lp707
Vkernelarch-mips/config.malta
p708
aVkernelarch-mips/config.mips64r2
p709
ass(Vdescription
p710
g662
NVocteon
p711
tp712
(dp713
Vhardware
p714
VOcteon
p715
sVhardware-long
p716
VCavium Networks Octeon
p717
ss(Vimage
p718
g662
NVocteon
p719
tp720
(dp721
Vconfigs
p722
(lp723
Vkernelarch-mips/config.octeon
p724
ass(g195
g662
g164
tp725
(dp726
g198
(lp727
V4kc-malta
p728
aV5kc-malta
p729
aVocteon
p730
asg202
I01
ss(Vbase
p731
Vmips64
p732
tp733
(dp734
Vkernel-arch
p735
Vmips
p736
sg162
(lp737
g164
ass(Vbuild
p738
g732
tp739
(dp740
Vimage-file
p741
Vvmlinux
p742
ss(Vimage
p743
g732
tp744
(dp745
Vinstall-stem
p746
Vvmlinux
p747
ss(Vdescription
p748
g732
NV5kc-malta
p749
tp750
(dp751
Vhardware
p752
VMIPS Malta
p753
sVhardware-long
p754
VMIPS Malta boards
p755
ss(Vimage
p756
g732
NV5kc-malta
p757
tp758
(dp759
Vconfigs
p760
(lp761
Vkernelarch-mips/config.malta
p762
aVkernelarch-mips/config.mips64r2
p763
ass(Vdescription
p764
g732
NVocteon
p765
tp766
(dp767
Vhardware
p768
VOcteon
p769
sVhardware-long
p770
VCavium Networks Octeon
p771
ss(Vimage
p772
g732
NVocteon
p773
tp774
(dp775
Vconfigs
p776
(lp777
Vkernelarch-mips/config.octeon
p778
ass(g195
g732
g164
tp779
(dp780
g198
(lp781
V5kc-malta
p782
aVocteon
p783
asg202
I01
ss(Vbase
p784
Vmips64el
p785
tp786
(dp787
Vkernel-arch
p788
Vmips
p789
sg162
(lp790
g164
ass(Vbuild
p791
g785
tp792
(dp793
Vimage-file
p794
Vvmlinux
p795
ss(Vimage
p796
g785
tp797
(dp798
Vinstall-stem
p799
Vvmlinux
p800
ss(Vdescription
p801
g785
NV5kc-malta
p802
tp803
(dp804
Vhardware
p805
VMIPS Malta
p806
sVhardware-long
p807
VMIPS Malta boards
p808
ss(Vimage
p809
g785
NV5kc-malta
p810
tp811
(dp812
Vconfigs
p813
(lp814
Vkernelarch-mips/config.malta
p815
aVkernelarch-mips/config.mips64r2
p816
ass(Vdescription
p817
g785
NVloongson-3
p818
tp819
(dp820
Vhardware
p821
VLoongson 3A/3B
p822
sVhardware-long
p823
VLoongson 3A or 3B based systems (e.g. from Loongson or Lemote)
p824
ss(Vimage
p825
g785
NVloongson-3
p826
tp827
(dp828
Vconfigs
p829
(lp830
Vkernelarch-mips/config.loongson-3
p831
ass(Vdescription
p832
g785
NVocteon
p833
tp834
(dp835
Vhardware
p836
VOcteon
p837
sVhardware-long
p838
VCavium Networks Octeon
p839
ss(Vimage
p840
g785
NVocteon
p841
tp842
(dp843
Vconfigs
p844
(lp845
Vkernelarch-mips/config.octeon
p846
ass(g195
g785
g164
tp847
(dp848
g198
(lp849
V5kc-malta
p850
aVloongson-3
p851
aVocteon
p852
asg202
I01
ss(Vbase
p853
Vmips64r6
p854
tp855
(dp856
Vkernel-arch
p857
Vmips
p858
sg162
(lp859
g164
ass(Vbuild
p860
g854
tp861
(dp862
Vimage-file
p863
Vvmlinux
p864
ss(Vimage
p865
g854
tp866
(dp867
Vinstall-stem
p868
Vvmlinux
p869
ss(Vdescription
p870
g854
NVmips64r6
p871
tp872
(dp873
Vhardware
p874
VMIPS R6 (64 bit, big endian)
p875
sVhardware-long
p876
VMIPS R6 (64 bit, big endian)
p877
ss(Vimage
p878
g854
NVmips64r6
p879
tp880
(dp881
Vconfigs
p882
(lp883
Vkernelarch-mips/config.boston
p884
aVkernelarch-mips/config.mips64r6
p885
ass(g195
g854
g164
tp886
(dp887
g198
(lp888
Vmips64r6
p889
asg202
I01
ss(Vbase
p890
Vmips64r6el
p891
tp892
(dp893
Vkernel-arch
p894
Vmips
p895
sg162
(lp896
g164
ass(Vbuild
p897
g891
tp898
(dp899
Vimage-file
p900
Vvmlinux
p901
ss(Vimage
p902
g891
tp903
(dp904
Vinstall-stem
p905
Vvmlinux
p906
ss(Vdescription
p907
g891
NVmips64r6el
p908
tp909
(dp910
Vhardware
p911
VMIPS R6 (64 bit, little endian)
p912
sVhardware-long
p913
VMIPS R6 (64 bit, little endian)
p914
ss(Vimage
p915
g891
NVmips64r6el
p916
tp917
(dp918
Vconfigs
p919
(lp920
Vkernelarch-mips/config.boston
p921
aVkernelarch-mips/config.mips64r6
p922
ass(g195
g891
g164
tp923
(dp924
g198
(lp925
Vmips64r6el
p926
asg202
I01
ss(Vbase
p927
Vmipsel
p928
tp929
(dp930
Vkernel-arch
p931
Vmips
p932
sg162
(lp933
g164
ass(Vbuild
p934
g928
tp935
(dp936
Vimage-file
p937
Vvmlinux
p938
ss(Vimage
p939
g928
tp940
(dp941
Vinstall-stem
p942
Vvmlinux
p943
ss(Vdescription
p944
g928
NV4kc-malta
p945
tp946
(dp947
Vhardware
p948
VMIPS Malta
p949
sVhardware-long
p950
VMIPS Malta boards
p951
ss(Vimage
p952
g928
NV4kc-malta
p953
tp954
(dp955
Vconfigs
p956
(lp957
Vkernelarch-mips/config.malta
p958
aVkernelarch-mips/config.mips32r2
p959
ass(Vdescription
p960
g928
NV5kc-malta
p961
tp962
(dp963
Vhardware
p964
VMIPS Malta (64-bit)
p965
sVhardware-long
p966
VMIPS Malta boards (64-bit)
p967
ss(Vimage
p968
g928
NV5kc-malta
p969
tp970
(dp971
Vconfigs
p972
(lp973
Vkernelarch-mips/config.malta
p974
aVkernelarch-mips/config.mips64r2
p975
ass(Vdescription
p976
g928
NVloongson-3
p977
tp978
(dp979
Vhardware
p980
VLoongson 3A/3B
p981
sVhardware-long
p982
VLoongson 3A or 3B based systems (e.g. from Loongson or Lemote)
p983
ss(Vimage
p984
g928
NVloongson-3
p985
tp986
(dp987
Vconfigs
p988
(lp989
Vkernelarch-mips/config.loongson-3
p990
ass(Vdescription
p991
g928
NVocteon
p992
tp993
(dp994
Vhardware
p995
VOcteon
p996
sVhardware-long
p997
VCavium Networks Octeon
p998
ss(Vimage
p999
g928
NVocteon
p1000
tp1001
(dp1002
Vconfigs
p1003
(lp1004
Vkernelarch-mips/config.octeon
p1005
ass(g195
g928
g164
tp1006
(dp1007
g198
(lp1008
V4kc-malta
p1009
aV5kc-malta
p1010
aVloongson-3
p1011
aVocteon
p1012
asg202
I01
ss(Vbase
p1013
Vmipsn32
p1014
tp1015
(dp1016
Vkernel-arch
p1017
Vmips
p1018
sVfeaturesets
p1019
(lp1020
ss(Vbase
p1021
Vmipsn32el
p1022
tp1023
(dp1024
Vkernel-arch
p1025
Vmips
p1026
sVfeaturesets
p1027
(lp1028
ss(Vbase
p1029
Vmipsn32r6
p1030
tp1031
(dp1032
Vkernel-arch
p1033
Vmips
p1034
sVfeaturesets
p1035
(lp1036
ss(Vbase
p1037
Vmipsn32r6el
p1038
tp1039
(dp1040
Vkernel-arch
p1041
Vmips
p1042
sVfeaturesets
p1043
(lp1044
ss(Vbase
p1045
Vmipsr6
p1046
tp1047
(dp1048
Vkernel-arch
p1049
Vmips
p1050
sg162
(lp1051
g164
ass(Vbuild
p1052
g1046
tp1053
(dp1054
Vimage-file
p1055
Vvmlinux
p1056
ss(Vimage
p1057
g1046
tp1058
(dp1059
Vinstall-stem
p1060
Vvmlinux
p1061
ss(Vdescription
p1062
g1046
NVmips32r6
p1063
tp1064
(dp1065
Vhardware
p1066
VMIPS R6 (32 bit, big endian)
p1067
sVhardware-long
p1068
VMIPS R6 (32 bit, big endian)
p1069
ss(Vimage
p1070
g1046
NVmips32r6
p1071
tp1072
(dp1073
Vconfigs
p1074
(lp1075
Vkernelarch-mips/config.boston
p1076
aVkernelarch-mips/config.mips32r6
p1077
ass(Vdescription
p1078
g1046
NVmips64r6
p1079
tp1080
(dp1081
Vhardware
p1082
VMIPS R6 (64 bit, big endian)
p1083
sVhardware-long
p1084
VMIPS R6 (64 bit, big endian)
p1085
ss(Vimage
p1086
g1046
NVmips64r6
p1087
tp1088
(dp1089
Vconfigs
p1090
(lp1091
Vkernelarch-mips/config.boston
p1092
aVkernelarch-mips/config.mips64r6
p1093
ass(g195
g1046
g164
tp1094
(dp1095
g198
(lp1096
Vmips32r6
p1097
aVmips64r6
p1098
asg202
I01
ss(Vbase
p1099
Vmipsr6el
p1100
tp1101
(dp1102
Vkernel-arch
p1103
Vmips
p1104
sg162
(lp1105
g164
ass(Vbuild
p1106
g1100
tp1107
(dp1108
Vimage-file
p1109
Vvmlinux
p1110
ss(Vimage
p1111
g1100
tp1112
(dp1113
Vinstall-stem
p1114
Vvmlinux
p1115
ss(Vdescription
p1116
g1100
NVmips32r6el
p1117
tp1118
(dp1119
Vhardware
p1120
VMIPS R6 (32 bit, little endian)
p1121
sVhardware-long
p1122
VMIPS R6 (32 bit, little endian)
p1123
ss(Vimage
p1124
g1100
NVmips32r6el
p1125
tp1126
(dp1127
Vconfigs
p1128
(lp1129
Vkernelarch-mips/config.boston
p1130
aVkernelarch-mips/config.mips32r6
p1131
ass(Vdescription
p1132
g1100
NVmips64r6el
p1133
tp1134
(dp1135
Vhardware
p1136
VMIPS R6 (64 bit, little endian)
p1137
sVhardware-long
p1138
VMIPS R6 (64 bit, little endian)
p1139
ss(Vimage
p1140
g1100
NVmips64r6el
p1141
tp1142
(dp1143
Vconfigs
p1144
(lp1145
Vkernelarch-mips/config.boston
p1146
aVkernelarch-mips/config.mips64r6
p1147
ass(g195
g1100
g164
tp1148
(dp1149
g198
(lp1150
Vmips32r6el
p1151
aVmips64r6el
p1152
asg202
I01
ss(Vbase
p1153
Vpowerpc
p1154
tp1155
(dp1156
Vkernel-arch
p1157
Vpowerpc
p1158
sg162
(lp1159
g164
ass(Vbuild
p1160
g1154
tp1161
(dp1162
Vimage-file
p1163
Vvmlinux
p1164
sVvdso
p1165
I01
ss(Vimage
p1166
g1154
tp1167
(dp1168
Vconfigs
p1169
(lp1170
sVbootloaders
p1171
(lp1172
Vgrub-ieee1275
p1173
asVsuggests
p1174
(lp1175
Vmkvmlinuz
p1176
asVinstall-stem
p1177
Vvmlinux
p1178
ss(Vdescription
p1179
g1154
NVpowerpc
p1180
tp1181
(dp1182
Vhardware
p1183
Vuniprocessor 32-bit PowerPC
p1184
ss(Vdescription
p1185
g1154
NVpowerpc-smp
p1186
tp1187
(dp1188
Vhardware
p1189
Vmultiprocessor 32-bit PowerPC
p1190
ss(Vimage
p1191
g1154
NVpowerpc-smp
p1192
tp1193
(dp1194
Vconfigs
p1195
(lp1196
Vpowerpc/config.powerpc
p1197
aVpowerpc/config.powerpc-smp
p1198
ass(Vdescription
p1199
g1154
NVpowerpc64
p1200
tp1201
(dp1202
Vhardware
p1203
V64-bit PowerPC
p1204
ss(Vimage
p1205
g1154
NVpowerpc64
p1206
tp1207
(dp1208
Vconfigs
p1209
(lp1210
Vkernelarch-powerpc/config-arch-64
p1211
aVkernelarch-powerpc/config-arch-64-be
p1212
ass(g195
g1154
g164
tp1213
(dp1214
g198
(lp1215
Vpowerpc
p1216
aVpowerpc-smp
p1217
aVpowerpc64
p1218
asg202
I01
ss(Vbase
p1219
Vppc64
p1220
tp1221
(dp1222
Vkernel-arch
p1223
Vpowerpc
p1224
sg162
(lp1225
g164
ass(Vbuild
p1226
g1220
tp1227
(dp1228
Vimage-file
p1229
Vvmlinux
p1230
sVvdso
p1231
I01
ss(Vimage
p1232
g1220
tp1233
(dp1234
Vconfigs
p1235
(lp1236
sVbootloaders
p1237
(lp1238
Vgrub-ieee1275
p1239
asVsuggests
p1240
(lp1241
Vmkvmlinuz
p1242
asVinstall-stem
p1243
Vvmlinux
p1244
ss(Vdescription
p1245
g1220
NVpowerpc64
p1246
tp1247
(dp1248
Vhardware
p1249
V64-bit PowerPC
p1250
ss(Vimage
p1251
g1220
NVpowerpc64
p1252
tp1253
(dp1254
Vconfigs
p1255
(lp1256
Vkernelarch-powerpc/config-arch-64
p1257
aVkernelarch-powerpc/config-arch-64-be
p1258
ass(g195
g1220
g164
tp1259
(dp1260
g198
(lp1261
Vpowerpc64
p1262
asg202
I01
ss(Vbase
p1263
Vppc64el
p1264
tp1265
(dp1266
Vkernel-arch
p1267
Vpowerpc
p1268
sg162
(lp1269
g164
ass(Vbuild
p1270
g1264
tp1271
(dp1272
Vimage-file
p1273
Vvmlinux
p1274
sVvdso
p1275
I01
ss(Vimage
p1276
g1264
tp1277
(dp1278
Vconfigs
p1279
(lp1280
sVbootloaders
p1281
(lp1282
Vgrub-ieee1275
p1283
asVsuggests
p1284
(lp1285
Vmkvmlinuz
p1286
asVinstall-stem
p1287
Vvmlinux
p1288
ss(Vdescription
p1289
g1264
NVpowerpc64le
p1290
tp1291
(dp1292
Vhardware
p1293
VLittle-endian 64-bit PowerPC
p1294
ss(Vimage
p1295
g1264
NVpowerpc64le
p1296
tp1297
(dp1298
Vconfigs
p1299
(lp1300
Vkernelarch-powerpc/config-arch-64
p1301
aVkernelarch-powerpc/config-arch-64-le
p1302
ass(g195
g1264
g164
tp1303
(dp1304
g198
(lp1305
Vpowerpc64le
p1306
asg202
I01
ss(Vbase
p1307
Vriscv64
p1308
tp1309
(dp1310
Vkernel-arch
p1311
Vriscv
p1312
sVfeaturesets
p1313
(lp1314
Vnone
p1315
ass(Vbuild
p1316
g1308
tp1317
(dp1318
Vimage-file
p1319
Varch/riscv/boot/Image
p1320
sVvdso
p1321
I01
ss(Vimage
p1322
g1308
tp1323
(dp1324
Vinstall-stem
p1325
Vvmlinux
p1326
ss(Vdescription
p1327
g1308
NVriscv64
p1328
tp1329
(dp1330
Vhardware
p1331
V64-bit RISC-V platforms
p1332
sVhardware-long
p1333
V64-bit RISC-V platforms
p1334
ss(Vbase
p1335
g1308
Vnone
p1336
tp1337
(dp1338
Vflavours
p1339
(lp1340
Vriscv64
p1341
ass(Vbase
p1342
Vs390
p1343
tp1344
(dp1345
Vkernel-arch
p1346
Vs390
p1347
sVfeaturesets
p1348
(lp1349
ss(Vbase
p1350
Vs390x
p1351
tp1352
(dp1353
Vkernel-arch
p1354
Vs390
p1355
sg162
(lp1356
g164
ass(Vbuild
p1357
g1351
tp1358
(dp1359
Vimage-file
p1360
Varch/s390/boot/bzImage
p1361
sVvdso
p1362
I01
ss(Vimage
p1363
g1351
tp1364
(dp1365
Vbootloaders
p1366
(lp1367
Vs390-tools
p1368
asVinstall-stem
p1369
Vvmlinuz
p1370
ss(Vrelations
p1371
g1351
tp1372
(dp1373
Vheaders%gcc-9
p1374
Vlinux-compiler-gcc-9-s390
p1375
ss(Vbuild
p1376
g1351
NVs390x
p1377
tp1378
(dp1379
Vdebug-info
p1380
I01
ss(Vdescription
p1381
g1351
NVs390x
p1382
tp1383
(dp1384
Vhardware
p1385
VIBM zSeries
p1386
ss(g195
g1351
g164
tp1387
(dp1388
g198
(lp1389
Vs390x
p1390
asg202
I01
ss(Vbase
p1391
Vsh3
p1392
tp1393
(dp1394
Vkernel-arch
p1395
Vsh
p1396
sVfeaturesets
p1397
(lp1398
ss(Vbase
p1399
Vsh4
p1400
tp1401
(dp1402
Vkernel-arch
p1403
Vsh
p1404
sg162
(lp1405
g164
ass(Vbuild
p1406
g1400
tp1407
(dp1408
Vimage-file
p1409
Varch/sh/boot/zImage
p1410
ss(Vimage
p1411
g1400
tp1412
(dp1413
Vinstall-stem
p1414
Vvmlinuz
p1415
ss(Vdescription
p1416
g1400
NVsh7751r
p1417
tp1418
(dp1419
Vhardware
p1420
Vsh7751r
p1421
sVhardware-long
p1422
VRenesas SH7751R R2D plus board
p1423
ss(Vdescription
p1424
g1400
NVsh7785lcr
p1425
tp1426
(dp1427
Vhardware
p1428
Vsh7785lcr
p1429
sVhardware-long
p1430
VRenesas SH7785 reference board
p1431
ss(Vimage
p1432
g1400
NVsh7785lcr
p1433
tp1434
(dp1435
Vrecommends
p1436
(lp1437
Vu-boot-tools
p1438
asVcheck-size
p1439
I4194304
ss(g195
g1400
g164
tp1440
(dp1441
g198
(lp1442
Vsh7751r
p1443
aVsh7785lcr
p1444
asg202
I01
ss(Vbase
p1445
Vsparc
p1446
tp1447
(dp1448
Vkernel-arch
p1449
Vsparc
p1450
sVfeaturesets
p1451
(lp1452
ss(Vbase
p1453
Vsparc64
p1454
tp1455
(dp1456
Vkernel-arch
p1457
Vsparc
p1458
sg162
(lp1459
g164
ass(Vbuild
p1460
g1454
tp1461
(dp1462
Vimage-file
p1463
Vvmlinux
p1464
ss(Vimage
p1465
g1454
tp1466
(dp1467
Vconfigs
p1468
(lp1469
sVbootloaders
p1470
(lp1471
Vgrub-ieee1275
p1472
asVsuggests
p1473
(lp1474
Vfdutils
p1475
asVinstall-stem
p1476
Vvmlinux
p1477
ss(Vdescription
p1478
g1454
NVsparc64
p1479
tp1480
(dp1481
Vhardware
p1482
Vuniprocessor 64-bit UltraSPARC
p1483
ss(Vimage
p1484
g1454
NVsparc64
p1485
tp1486
(dp1487
Vconfigs
p1488
(lp1489
Vkernelarch-sparc/config-up
p1490
ass(Vdescription
p1491
g1454
NVsparc64-smp
p1492
tp1493
(dp1494
Vhardware
p1495
Vmultiprocessor 64-bit UltraSPARC
p1496
ss(Vimage
p1497
g1454
NVsparc64-smp
p1498
tp1499
(dp1500
Vconfigs
p1501
(lp1502
Vkernelarch-sparc/config-smp
p1503
ass(g195
g1454
g164
tp1504
(dp1505
g198
(lp1506
Vsparc64
p1507
aVsparc64-smp
p1508
asg202
I01
ss(Vbase
p1509
Vx32
p1510
tp1511
(dp1512
Vkernel-arch
p1513
Vx86
p1514
sVfeaturesets
p1515
(lp1516
ss(Vabi
p1517
NVrt
p1518
tp1519
(dp1520
Vignore-changes
p1521
(lp1522
V*
p1523
ass(Vdescription
p1524
Ng1518
tp1525
(dp1526
Vpart-long-rt
p1527
VThis kernel includes the PREEMPT_RT realtime patch set.
p1528
sVpart-short-rt
p1529
VPREEMPT_RT
p1530
sVparts
p1531
(lp1532
Vrt
p1533
ass(Vversion
p1534
tp1535
(dp1536
Vsource
p1537
V5.3.9-1
p1538
sVupstream
p1539
V5.3
p1540
sVabiname_base
p1541
V5.3.0
p1542
sVabiname
p1543
V5.3.0-2
p1544
ss.