ccopy_reg
_reconstructor
p0
(cdebian_linux.config
ConfigCore
p1
c__builtin__
dict
p2
(dp3
(Vbase
p4
Varmhf
p5
tp6
(dp7
Vkernel-arch
p8
Varm
p9
sVfeaturesets
p10
(lp11
Vnone
p12
ass(Vdescription
p13
Vhppa
p14
NVparisc
p15
tp16
(dp17
Vhardware-long
p18
VHP PA-RISC 32-bit systems with max 4 GB RAM
p19
sVhardware
p20
V32-bit PA-RISC
p21
ss(Vdescription
p22
Vsh4
p23
NVsh7785lcr
p24
tp25
(dp26
Vhardware-long
p27
VRenesas SH7785 reference board
p28
sVhardware
p29
Vsh7785lcr
p30
ss(Vbuild
p31
Vpowerpcspe
p32
tp33
(dp34
Vsigned-modules
p35
I00
sVimage-file
p36
Vvmlinux
p37
sVvdso
p38
I01
ss(Vdescription
p39
Varm64
p40
NVarm64
p41
tp42
(dp43
Vhardware
p44
V64-bit ARMv8 machines
p45
ss(Vbase
p46
Vamd64
p47
Vnone
p48
tp49
(dp50
Vflavours
p51
(lp52
Vamd64
p53
ass(Vbase
p54
Vmips64el
p55
tp56
(dp57
Vkernel-arch
p58
Vmips
p59
sg10
(lp60
g12
ass(Vimage
p61
Vpowerpc
p62
NVpowerpc64
p63
tp64
(dp65
Vconfigs
p66
(lp67
Vkernelarch-powerpc/config-arch-64
p68
aVkernelarch-powerpc/config-arch-64-be
p69
ass(Vbase
p70
Vs390
p71
tp72
(dp73
Vkernel-arch
p74
Vs390
p75
sVfeaturesets
p76
(lp77
ss(Vimage
p78
g55
NVloongson-3
p79
tp80
(dp81
Vconfigs
p82
(lp83
Vkernelarch-mips/config.loongson-3
p84
ass(Vimage
p85
Vmips
p86
NV5kc-malta
p87
tp88
(dp89
Vconfigs
p90
(lp91
Vkernelarch-mips/config.malta
p92
aVkernelarch-mips/config.mips64r2
p93
ass(Vdescription
p94
g86
NV5kc-malta
p95
tp96
(dp97
Vhardware-long
p98
VMIPS Malta boards (64-bit)
p99
sVhardware
p100
VMIPS Malta (64-bit)
p101
ss(Vbuild
p102
Valpha
p103
tp104
(dp105
Vsigned-modules
p106
I00
sVimage-file
p107
Varch/alpha/boot/vmlinux.gz
p108
ss(Vbase
p109
Vmips64
p110
g12
tp111
(dp112
Vimplicit-flavour
p113
I01
sVflavours
p114
(lp115
V5kc-malta
p116
aVocteon
p117
ass(Vimage
p118
g23
NVsh7785lcr
p119
tp120
(dp121
Vcheck-size
p122
L4194304L
sVrecommends
p123
Vu-boot-tools
p124
ss(Vbase
p125
Vsparc
p126
tp127
(dp128
Vkernel-arch
p129
Vsparc
p130
sVfeaturesets
p131
(lp132
ss(g109
Vs390x
p133
g12
tp134
(dp135
g113
I01
sg114
(lp136
Vs390x
p137
ass(Vdescription
p138
g23
NVsh7751r
p139
tp140
(dp141
Vhardware-long
p142
VRenesas SH7751R R2D plus board
p143
sVhardware
p144
Vsh7751r
p145
ss(Vimage
p146
Vppc64
p147
NVpowerpc64
p148
tp149
(dp150
Vconfigs
p151
(lp152
Vkernelarch-powerpc/config-arch-64
p153
aVkernelarch-powerpc/config-arch-64-be
p154
ass(Vimage
p155
Vmipsel
p156
tp157
(dp158
Vinstall-stem
p159
Vvmlinux
p160
ss(Vrelations
p161
Varmel
p162
tp163
(dp164
Vheaders%gcc-5
p165
Vlinux-compiler-gcc-5-arm
p166
ss(Vdescription
p167
g55
NV5kc-malta
p168
tp169
(dp170
Vhardware-long
p171
VMIPS Malta boards
p172
sVhardware
p173
VMIPS Malta
p174
ss(Vbase
p175
Vi386
p176
Vnone
p177
tp178
(dp179
Vflavours
p180
(lp181
V686
p182
aV686-pae
p183
ass(Vbase
p184
g156
tp185
(dp186
Vkernel-arch
p187
Vmips
p188
sg10
(lp189
g12
ass(g109
g55
g12
tp190
(dp191
g113
I01
sg114
(lp192
V5kc-malta
p193
aVloongson-3
p194
aVocteon
p195
ass(Vdescription
p196
g32
tp197
(dp198
Vhardware
p199
V32-bit PowerPC with SPE (instead of AltiVec) with SMP support
p200
ss(Vbase
p201
g162
tp202
(dp203
Vkernel-arch
p204
Varm
p205
sg10
(lp206
g12
ass(Vdescription
p207
Vsparc64
p208
NVsparc64-smp
p209
tp210
(dp211
Vhardware
p212
Vmultiprocessor 64-bit UltraSPARC
p213
ss(Vdescription
p214
g62
NVpowerpc
p215
tp216
(dp217
Vhardware
p218
Vuniprocessor 32-bit PowerPC
p219
ss(Vdescription
p220
g133
NVs390x
p221
tp222
(dp223
Vhardware
p224
VIBM zSeries
p225
ss(Vimage
p226
g86
NV4kc-malta
p227
tp228
(dp229
Vconfigs
p230
(lp231
Vkernelarch-mips/config.malta
p232
aVkernelarch-mips/config.mips32r2
p233
ass(Vimage
p234
g32
tp235
(dp236
Vinstall-stem
p237
Vvmlinux
p238
sVsuggests
p239
Vmkvmlinuz
p240
ss(Vbase
p241
Vor1k
p242
tp243
(dp244
Vkernel-arch
p245
Vopenrisc
p246
sVfeaturesets
p247
(lp248
ss(Vdescription
p249
g156
NV4kc-malta
p250
tp251
(dp252
Vhardware-long
p253
VMIPS Malta boards
p254
sVhardware
p255
VMIPS Malta
p256
ss(g109
g23
g12
tp257
(dp258
g113
I01
sg114
(lp259
Vsh7751r
p260
aVsh7785lcr
p261
ass(Vbuild
p262
g40
tp263
(dp264
Vdebug-info
p265
I01
sVimage-file
p266
Varch/arm64/boot/Image
p267
sVvdso
p268
I01
ss(Vimage
p269
g55
NVocteon
p270
tp271
(dp272
Vconfigs
p273
(lp274
Vkernelarch-mips/config.octeon
p275
ass(Vbase
p276
g32
tp277
(dp278
Vkernel-arch
p279
Vpowerpc
p280
sg10
(lp281
g12
ass(Vdescription
p282
g208
NVsparc64
p283
tp284
(dp285
Vhardware
p286
Vuniprocessor 64-bit UltraSPARC
p287
ss(Vrelations
p288
g176
tp289
(dp290
Vheaders%gcc-5
p291
Vlinux-compiler-gcc-5-x86
p292
ss(Vbase
p293
g14
NVparisc64-smp
p294
tp295
(dp296
Voverride-host-type
p297
Vhppa64-linux-gnu
p298
sVcflags
p299
V-fno-cse-follow-jumps
p300
ss(Vimage
p301
Vm68k
p302
tp303
(dp304
Vinstall-stem
p305
Vvmlinuz
p306
sVsuggests
p307
Vvmelilo, fdutils
p308
ss(Vdescription
p309
g5
NVarmmp
p310
tp311
(dp312
Vhardware-long
p313
VARMv7 multiplatform kernel. See\u000ahttps://wiki.debian.org/DebianKernel/ARMMP for details of supported\u000aplatforms
p314
sVhardware
p315
VARMv7 multiplatform compatible SoCs
p316
ss(Vimage
p317
g86
NVocteon
p318
tp319
(dp320
Vconfigs
p321
(lp322
Vkernelarch-mips/config.octeon
p323
ass(g109
g147
g12
tp324
(dp325
g113
I01
sg114
(lp326
Vpowerpc64
p327
ass(Vbase
p328
g302
tp329
(dp330
g10
(lp331
g12
asVkernel-arch
p332
Vm68k
p333
sVcflags
p334
V-ffreestanding
p335
ss(Vrelations
p336
g5
tp337
(dp338
Vheaders%gcc-5
p339
Vlinux-compiler-gcc-5-arm
p340
ss(Vbuild
p341
g5
tp342
(dp343
Vimage-file
p344
Varch/arm/boot/zImage
p345
sVvdso
p346
I01
ss(Vdescription
p347
g62
NVpowerpc64
p348
tp349
(dp350
Vhardware
p351
V64-bit PowerPC
p352
ss(Vdescription
p353
g110
NV5kc-malta
p354
tp355
(dp356
Vhardware-long
p357
VMIPS Malta boards
p358
sVhardware
p359
VMIPS Malta
p360
ss(Vdescription
p361
g62
NVpowerpc-smp
p362
tp363
(dp364
Vhardware
p365
Vmultiprocessor 32-bit PowerPC
p366
ss(Vdescription
p367
g162
NVmarvell
p368
tp369
(dp370
Vhardware-long
p371
VMarvell Kirkwood based systems (SheevaPlug, QNAP TS-119/TS-219, etc)\u000aand Orion 5181, 5182 and 5281 based systems (QNAP TS-109/TS-209, etc)
p372
sVhardware
p373
VMarvell Kirkwood/Orion
p374
ss(Vimage
p375
g208
tp376
(dp377
Vconfigs
p378
(lp379
sVsuggests
p380
Vsilo, fdutils
p381
sVinstall-stem
p382
Vvmlinuz
p383
ss(Vimage
p384
g40
NVarm64
p385
tp386
(dp387
s(Vbuild
p388
g86
tp389
(dp390
Vsigned-modules
p391
I00
sVimage-file
p392
Vvmlinux
p393
ss(Vimage
p394
g14
tp395
(dp396
Vinstall-stem
p397
Vvmlinux
p398
sVsuggests
p399
Vpalo
p400
ss(Vbase
p401
g147
tp402
(dp403
Vkernel-arch
p404
Vpowerpc
p405
sg10
(lp406
g12
ass(Vdescription
p407
g302
NVm68k
p408
tp409
(dp410
Vhardware
p411
VMotorola MC68020+ family
p412
ss(Vbuild
p413
g162
tp414
(dp415
Vsigned-modules
p416
I00
sVimage-file
p417
Varch/arm/boot/zImage
p418
ss(Vbase
p419
g14
tp420
(dp421
Vkernel-arch
p422
Vparisc
p423
sg10
(lp424
g12
ass(Vimage
p425
g23
tp426
(dp427
Vinstall-stem
p428
Vvmlinuz
p429
ss(Vbuild
p430
g62
tp431
(dp432
Vimage-file
p433
Vvmlinux
p434
sVvdso
p435
I01
ss(Vdescription
p436
g103
NValpha-generic
p437
tp438
(dp439
Vhardware-long
p440
VDEC Alpha systems with extended kernel start address (Wildfire, Titan, Marvel)
p441
sVhardware
p442
VAlpha
p443
ss(Vdescription
p444
g176
NV686-pae
p445
tp446
(dp447
Vhardware-long
p448
VPCs with one or more processors supporting PAE
p449
sVparts
p450
(lp451
Vpae
p452
asVhardware
p453
Vmodern PCs
p454
ss(Vbase
p455
Vmipsn32el
p456
tp457
(dp458
Vkernel-arch
p459
Vmips
p460
sVfeaturesets
p461
(lp462
ss(Vdescription
p463
g156
NVloongson-3
p464
tp465
(dp466
Vhardware-long
p467
VLoongson 3A or 3B based systems (e.g. from Loongson or Lemote)
p468
sVhardware
p469
VLoongson 3A/3B
p470
ss(g109
g162
g12
tp471
(dp472
g113
I01
sg114
(lp473
Vmarvell
p474
aVversatile
p475
ass(Vimage
p476
g55
NV5kc-malta
p477
tp478
(dp479
Vconfigs
p480
(lp481
Vkernelarch-mips/config.malta
p482
aVkernelarch-mips/config.mips64r2
p483
ass(Vimage
p484
g208
NVsparc64-smp
p485
tp486
(dp487
Vconfigs
p488
(lp489
Vkernelarch-sparc/config-smp
p490
ass(Vimage
p491
g208
NVsparc64
p492
tp493
(dp494
Vconfigs
p495
(lp496
Vkernelarch-sparc/config-up
p497
ass(Vdescription
p498
g86
NVocteon
p499
tp500
(dp501
Vhardware-long
p502
VCavium Networks Octeon
p503
sVhardware
p504
VOcteon
p505
ss(Vimage
p506
g47
tp507
(dp508
Vinstall-stem
p509
Vvmlinuz
p510
sVbreaks
p511
Vxserver-xorg-input-vmmouse (<< 1:13.0.99)
p512
sVbootloaders
p513
(lp514
Vgrub-pc
p515
aVgrub-efi-amd64
p516
aVextlinux
p517
ass(Vbuild
p518
Vppc64el
p519
tp520
(dp521
Vimage-file
p522
Vvmlinux
p523
sVvdso
p524
I01
ss(Vbase
p525
g47
Vrt
p526
tp527
(dp528
Vflavours
p529
(lp530
Vamd64
p531
ass(Vdescription
p532
g176
g177
V686-pae
p533
tp534
(dp535
Vparts
p536
(lp537
Vxen
p538
ass(Vimage
p539
g40
tp540
(dp541
Vinstall-stem
p542
Vvmlinuz
p543
ss(Vbuild
p544
g55
tp545
(dp546
Vsigned-modules
p547
I00
sVimage-file
p548
Vvmlinux
p549
ss(Vbase
p550
g47
tp551
(dp552
Vfeaturesets
p553
(lp554
Vnone
p555
aVrt
p556
asVkernel-arch
p557
Vx86
p558
ss(g109
g62
g12
tp559
(dp560
g113
I01
sg114
(lp561
Vpowerpc
p562
aVpowerpc-smp
p563
aVpowerpc64
p564
ass(g109
g5
g12
tp565
(dp566
g113
I01
sg114
(lp567
Varmmp
p568
aVarmmp-lpae
p569
ass(Vdescription
p570
NVrt
p571
tp572
(dp573
Vpart-short-rt
p574
VPREEMPT_RT
p575
sVpart-long-rt
p576
VThis kernel includes the PREEMPT_RT realtime patch set.
p577
sVparts
p578
(lp579
Vrt
p580
ass(g109
g14
g12
tp581
(dp582
g113
I01
sg114
(lp583
Vparisc
p584
aVparisc64-smp
p585
ass(Vbuild
p586
g208
tp587
(dp588
Vsigned-modules
p589
I00
sVimage-file
p590
Varch/sparc/boot/zImage
p591
ss(Vdescription
p592
g47
g48
Vamd64
p593
tp594
(dp595
Vparts
p596
(lp597
Vxen
p598
ass(Vimage
p599
g110
NV5kc-malta
p600
tp601
(dp602
Vconfigs
p603
(lp604
Vkernelarch-mips/config.malta
p605
aVkernelarch-mips/config.mips64r2
p606
ass(Vabi
p607
Ng571
tp608
(dp609
Vignore-changes
p610
(lp611
V*
p612
ass(Vbase
p613
g133
tp614
(dp615
Vkernel-arch
p616
Vs390
p617
sg10
(lp618
g12
ass(Vbase
p619
g86
tp620
(dp621
Vkernel-arch
p622
Vmips
p623
sg10
(lp624
g12
ass(Vbase
p625
g23
tp626
(dp627
Vkernel-arch
p628
Vsh
p629
sg10
(lp630
g12
ass(Vimage
p631
g5
tp632
(dp633
Vinstall-stem
p634
Vvmlinuz
p635
ss(Vrelations
p636
g14
tp637
(dp638
Vgcc-5
p639
Vgcc-5 <!stage1 !cross>, binutils-hppa64-linux-gnu <!stage1 !cross>, gcc-5-hppa64-linux-gnu <!stage1 !cross>, gcc-5-hppa-linux-gnu:native <!stage1 cross>, binutils-hppa64-linux-gnu:native <!stage1 cross>, gcc-5-hppa64-linux-gnu:native <!stage1 cross>
p640
ss(Vimage
p641
g133
tp642
(dp643
Vinstall-stem
p644
Vvmlinuz
p645
sVbootloaders
p646
(lp647
Vs390-tools
p648
ass(Vbuild
p649
g156
tp650
(dp651
Vsigned-modules
p652
I00
sVimage-file
p653
Vvmlinux
p654
ss(Vbase
p655
g40
Vnone
p656
tp657
(dp658
Vflavours
p659
(lp660
Varm64
p661
ass(Vdescription
p662
g176
NV686
p663
tp664
(dp665
Vhardware-long
p666
VPCs with one or more processors not supporting PAE
p667
sVhardware
p668
Volder PCs
p669
ss(Vdescription
p670
g5
NVarmmp-lpae
p671
tp672
(dp673
Vhardware-long
p674
VARMv7 multiplatform kernel supporting LPAE. See\u000ahttps://wiki.debian.org/DebianKernel/ARMMP for details of supported\u000aplatforms.
p675
sVhardware
p676
VARMv7 multiplatform compatible SoCs supporting LPAE
p677
ss(Vimage
p678
g156
NVocteon
p679
tp680
(dp681
Vconfigs
p682
(lp683
Vkernelarch-mips/config.octeon
p684
ass(Vdescription
p685
g103
NValpha-smp
p686
tp687
(dp688
Vhardware-long
p689
VDEC Alpha SMP systems with extended kernel start address (Wildfire, Titan, Marvel)
p690
sVhardware
p691
VAlpha SMP
p692
ss(Vdescription
p693
g162
NVversatile
p694
tp695
(dp696
Vhardware-long
p697
VVersatile systems (PB, AB, Qemu)
p698
sVhardware
p699
VVersatile
p700
ss(Vimage
p701
g156
NV5kc-malta
p702
tp703
(dp704
Vconfigs
p705
(lp706
Vkernelarch-mips/config.malta
p707
aVkernelarch-mips/config.mips64r2
p708
ass(Vdescription
p709
g519
NVpowerpc64le
p710
tp711
(dp712
Vhardware
p713
VLittle-endian 64-bit PowerPC
p714
ss(Vdescription
p715
g55
NVloongson-3
p716
tp717
(dp718
Vhardware-long
p719
VLoongson 3A or 3B based systems (e.g. from Loongson or Lemote)
p720
sVhardware
p721
VLoongson 3A/3B
p722
ss(g109
g519
g12
tp723
(dp724
g113
I01
sg114
(lp725
Vpowerpc64le
p726
ass(Vimage
p727
g55
tp728
(dp729
Vinstall-stem
p730
Vvmlinux
p731
ss(Vrelations
p732
tp733
(dp734
Vinitramfs-fallback
p735
Vlinux-initramfs-tool
p736
sVgcc-5
p737
Vgcc-5 <!stage1 !cross>, gcc-5-@gnu-type-package@:native <!stage1 cross>
p738
sVinitramfs-tools
p739
Vinitramfs-tools (>= 0.110~)
p740
ss(Vbase
p741
Vtilegx
p742
tp743
(dp744
Vkernel-arch
p745
Vtile
p746
sVfeaturesets
p747
(lp748
ss(Vbase
p749
g62
tp750
(dp751
Vkernel-arch
p752
Vpowerpc
p753
sg10
(lp754
g12
ass(Vbase
p755
Vmipsn32
p756
tp757
(dp758
Vkernel-arch
p759
Vmips
p760
sVfeaturesets
p761
(lp762
ss(Vbase
p763
g110
tp764
(dp765
Vkernel-arch
p766
Vmips
p767
sg10
(lp768
g12
ass(Vxen
p769
g47
g48
Vamd64
p770
tp771
(dp772
Vflavours
p773
(lp774
Vamd64
p775
ass(Vimage
p776
g110
NVocteon
p777
tp778
(dp779
Vconfigs
p780
(lp781
Vkernelarch-mips/config.octeon
p782
ass(Vimage
p783
g62
tp784
(dp785
Vconfigs
p786
(lp787
sVsuggests
p788
Vmkvmlinuz
p789
sVinstall-stem
p790
Vvmlinux
p791
ss(Vbase
p792
g176
Vrt
p793
tp794
(dp795
Vflavours
p796
(lp797
V686-pae
p798
ass(Vimage
p799
g110
tp800
(dp801
Vinstall-stem
p802
Vvmlinux
p803
ss(Vimage
p804
g156
NVloongson-3
p805
tp806
(dp807
Vconfigs
p808
(lp809
Vkernelarch-mips/config.loongson-3
p810
ass(Vimage
p811
g103
tp812
(dp813
Vinstall-stem
p814
Vvmlinuz
p815
sVsuggests
p816
Vaboot, fdutils
p817
ss(Vversion
p818
tp819
(dp820
Vsource
p821
V4.7.5-1kali2
p822
sVabiname
p823
V4.7.0-kali1
p824
sVabiname_base
p825
V4.7.0
p826
sVupstream
p827
V4.7
p828
ss(Vimage
p829
g162
tp830
(dp831
Vinstall-stem
p832
Vvmlinuz
p833
ss(Vimage
p834
g86
tp835
(dp836
Vinstall-stem
p837
Vvmlinux
p838
ss(Vbuild
p839
g176
NV686-pae
p840
tp841
(dp842
Vdebug-info
p843
I01
ss(Vimage
p844
g156
NV4kc-malta
p845
tp846
(dp847
Vconfigs
p848
(lp849
Vkernelarch-mips/config.malta
p850
aVkernelarch-mips/config.mips32r2
p851
ass(Vbuild
p852
g14
tp853
(dp854
Vsigned-modules
p855
I00
sVimage-file
p856
Vvmlinux
p857
ss(Vdescription
p858
tp859
(dp860
Vpart-long-xen
p861
VThis kernel also runs on a Xen hypervisor.\u000aIt supports both privileged (dom0) and unprivileged (domU) operation.
p862
sVpart-long-up
p863
VThis kernel is not suitable for SMP (multi-processor,\u000amulti-core or hyper-threaded) systems.
p864
ss(Vdescription
p865
g55
NVocteon
p866
tp867
(dp868
Vhardware-long
p869
VCavium Networks Octeon
p870
sVhardware
p871
VOcteon
p872
ss(Vbase
p873
g176
tp874
(dp875
Vfeaturesets
p876
(lp877
Vnone
p878
aVrt
p879
asVkernel-arch
p880
Vx86
p881
ss(Vbuild
p882
g133
tp883
(dp884
Vimage-file
p885
Varch/s390/boot/image
p886
sVvdso
p887
I01
ss(Vimage
p888
tp889
(dp890
Vinitramfs-generators
p891
(lp892
Vinitramfs-tools
p893
aVinitramfs-fallback
p894
ass(g109
g208
g12
tp895
(dp896
g113
I01
sg114
(lp897
Vsparc64
p898
aVsparc64-smp
p899
ass(g109
g32
g12
tp900
(dp901
g113
I01
sg114
(lp902
Vpowerpcspe
p903
ass(Vimage
p904
g176
tp905
(dp906
Vinstall-stem
p907
Vvmlinuz
p908
sVbreaks
p909
Vxserver-xorg-input-vmmouse (<< 1:13.0.99)
p910
sVbootloaders
p911
(lp912
Vgrub-pc
p913
aVextlinux
p914
ass(Vdescription
p915
g47
NVamd64
p916
tp917
(dp918
Vhardware-long
p919
VPCs with AMD64, Intel 64 or VIA Nano processors
p920
sVhardware
p921
V64-bit PCs
p922
ss(g109
g86
g12
tp923
(dp924
g113
I01
sg114
(lp925
V4kc-malta
p926
aV5kc-malta
p927
aVocteon
p928
ass(Vdescription
p929
g176
tp930
(dp931
Vpart-long-pae
p932
VThis kernel requires PAE (Physical Address Extension).\u000aThis feature is supported by the Intel Pentium Pro/II/III/4/4M/D, Xeon,\u000aCore and Atom; AMD Geode NX, Athlon (K7), Duron, Opteron, Sempron,\u000aTurion or Phenom; Transmeta Efficeon; VIA C7; and some other processors.
p933
ss(Vimage
p934
g147
tp935
(dp936
Vconfigs
p937
(lp938
sVsuggests
p939
Vmkvmlinuz
p940
sVinstall-stem
p941
Vvmlinux
p942
ss(Vdescription
p943
g14
NVparisc64-smp
p944
tp945
(dp946
Vhardware-long
p947
VHP PA-RISC 64-bit SMP systems with support for more than 4 GB RAM
p948
sVhardware
p949
Vmultiprocessor 64-bit PA-RISC
p950
ss(Vdescription
p951
g110
NVocteon
p952
tp953
(dp954
Vhardware-long
p955
VCavium Networks Octeon
p956
sVhardware
p957
VOcteon
p958
ss(Vrelations
p959
g133
tp960
(dp961
Vheaders%gcc-5
p962
Vlinux-compiler-gcc-5-s390
p963
ss(Vbase
p964
g103
tp965
(dp966
Vkernel-arch
p967
Valpha
p968
sg10
(lp969
g12
ass(Vimage
p970
g62
NVpowerpc-smp
p971
tp972
(dp973
Vconfigs
p974
(lp975
Vpowerpc/config.powerpc
p976
aVpowerpc/config.powerpc-smp
p977
ass(Vdescription
p978
g156
NV5kc-malta
p979
tp980
(dp981
Vhardware-long
p982
VMIPS Malta boards (64-bit)
p983
sVhardware
p984
VMIPS Malta (64-bit)
p985
ss(Vbase
p986
g208
tp987
(dp988
Vkernel-arch
p989
Vsparc
p990
sg10
(lp991
g12
ass(Vbuild
p992
tp993
(dp994
Vsigned-modules
p995
I01
sVdebug-info
p996
I01
ss(Vimage
p997
g519
tp998
(dp999
Vconfigs
p1000
(lp1001
sVsuggests
p1002
Vmkvmlinuz
p1003
sVinstall-stem
p1004
Vvmlinux
p1005
ss(g109
g302
g12
tp1006
(dp1007
g113
I01
sg114
(lp1008
Vm68k
p1009
ass(Vbase
p1010
g519
tp1011
(dp1012
Vkernel-arch
p1013
Vpowerpc
p1014
sg10
(lp1015
g12
ass(Vbase
p1016
tp1017
(dp1018
Vfeaturesets
p1019
(lp1020
Vnone
p1021
aVrt
p1022
asVcompiler
p1023
Vgcc-5
p1024
sVarches
p1025
(lp1026
Valpha
p1027
aVamd64
p1028
aVarm64
p1029
aVarmel
p1030
aVarmhf
p1031
aVhppa
p1032
aVi386
p1033
aVm68k
p1034
aVmips
p1035
aVmipsel
p1036
aVmipsn32
p1037
aVmipsn32el
p1038
aVmips64
p1039
aVmips64el
p1040
aVor1k
p1041
aVpowerpc
p1042
aVpowerpcspe
p1043
aVppc64
p1044
aVppc64el
p1045
aVs390
p1046
aVs390x
p1047
aVsh4
p1048
aVsparc
p1049
aVsparc64
p1050
aVtilegx
p1051
aVx32
p1052
ass(Vrelations
p1053
g47
tp1054
(dp1055
Vheaders%gcc-5
p1056
Vlinux-compiler-gcc-5-x86
p1057
ss(Vimage
p1058
g162
NVmarvell
p1059
tp1060
(dp1061
Vcheck-size
p1062
L2097080L
sVrecommends
p1063
Vu-boot-tools
p1064
sVbreaks
p1065
Vflash-kernel (<< 3.57~)
p1066
sVcheck-size-with-dtb
p1067
I01
ss(Vbase
p1068
NVrt
p1069
tp1070
(dp1071
Venabled
p1072
I00
ss(Vbuild
p1073
g133
NVs390x
p1074
tp1075
(dp1076
Vdebug-info
p1077
I01
ss(g109
g156
g12
tp1078
(dp1079
g113
I01
sg114
(lp1080
V4kc-malta
p1081
aV5kc-malta
p1082
aVloongson-3
p1083
aVocteon
p1084
ass(Vabi
p1085
tp1086
(dp1087
Vabiname
p1088
Vkali1
p1089
ss(Vbuild
p1090
g302
tp1091
(dp1092
Vsigned-modules
p1093
I00
sVimage-file
p1094
Vvmlinux.gz
p1095
ss(g109
g103
g12
tp1096
(dp1097
g113
I01
sg114
(lp1098
Valpha-generic
p1099
aValpha-smp
p1100
ass(Vdescription
p1101
g147
NVpowerpc64
p1102
tp1103
(dp1104
Vhardware
p1105
V64-bit PowerPC
p1106
ss(Vbase
p1107
Vx32
p1108
tp1109
(dp1110
Vkernel-arch
p1111
Vx86
p1112
sVfeaturesets
p1113
(lp1114
ss(Vimage
p1115
g519
NVpowerpc64le
p1116
tp1117
(dp1118
Vconfigs
p1119
(lp1120
Vkernelarch-powerpc/config-arch-64
p1121
aVkernelarch-powerpc/config-arch-64-le
p1122
ass(Vbase
p1123
g40
tp1124
(dp1125
Vkernel-arch
p1126
Varm64
p1127
sVfeaturesets
p1128
(lp1129
Vnone
p1130
ass(Vbuild
p1131
g23
tp1132
(dp1133
Vsigned-modules
p1134
I00
sVimage-file
p1135
Varch/sh/boot/zImage
p1136
ss(Vbuild
p1137
g147
tp1138
(dp1139
Vsigned-modules
p1140
I00
sVimage-file
p1141
Vvmlinux
p1142
sVvdso
p1143
I01
ss(Vbuild
p1144
g47
tp1145
(dp1146
Vdebug-info
p1147
I01
sVimage-file
p1148
Varch/x86/boot/bzImage
p1149
sVvdso
p1150
I01
ss(Vbuild
p1151
g110
tp1152
(dp1153
Vsigned-modules
p1154
I00
sVimage-file
p1155
Vvmlinux
p1156
ss(Vdescription
p1157
g156
NVocteon
p1158
tp1159
(dp1160
Vhardware-long
p1161
VCavium Networks Octeon
p1162
sVhardware
p1163
VOcteon
p1164
ss(Vdescription
p1165
g86
NV4kc-malta
p1166
tp1167
(dp1168
Vhardware-long
p1169
VMIPS Malta boards
p1170
sVhardware
p1171
VMIPS Malta
p1172
ss(Vbuild
p1173
g176
tp1174
(dp1175
Vimage-file
p1176
Varch/x86/boot/bzImage
p1177
sVvdso
p1178
I01
sstp1179
Rp1180
.