cdebian_linux.config
ConfigCore
p0
(tRp1
(Vabi
p2
tp3
(dp4
Vabiname
p5
Vkali9
p6
sVignore-changes
p7
(lp8
V__cpuhp_*
p9
aV__udp_gso_segment
p10
aVbpf_analyzer
p11
aVcxl_*
p12
aVdax_flush
p13
aVieee80211_nullfunc_get
p14
aVinet_add_protocol
p15
aVinet_del_protocol
p16
aViommu_device_*
p17
aVmm_iommu_*
p18
aVmv_mbus_*
p19
aVperf_*
p20
aVregister_cxl_calls
p21
aVregister_key_type
p22
aVunregister_cxl_calls
p23
aV*_hw_breakpoint
p24
aVmodule:drivers/crypto/ccp/*
p25
aVmodule:drivers/hv/*
p26
aVmodule:drivers/gpu/drm/sun4i/*
p27
aVmodule:drivers/iio/**
p28
aVmodule:drivers/misc/cxl/*
p29
aVmodule:drivers/misc/lis3lv02d/*
p30
aVmodule:drivers/mtd/nand/*
p31
aVmodule:drivers/net/ethernet/**
p32
aVmodule:drivers/net/wireless/**
p33
aVmodule:drivers/nvdimm/*
p34
aVmodule:drivers/nvme/**
p35
aVmodule:drivers/power/supply/bq27xxx_battery
p36
aVmodule:drivers/scsi/cxgbi/*
p37
aVmodule:drivers/scsi/libiscs*
p38
aVmodule:drivers/scsi/qla2xxx/qla2xxx
p39
aVmodule:drivers/scsi/ufs/*
p40
aVmodule:drivers/target/**
p41
aVmodule:drivers/usb/chipidea/**
p42
aVmodule:drivers/usb/gadget/**
p43
aVmodule:drivers/usb/host/**
p44
aVmodule:drivers/usb/musb/**
p45
aVmodule:fs/nfs/**
p46
aVmodule:net/ceph/libceph
p47
aVmodule:net/l2tp/**
p48
aVmodule:net/openvswitch/**
p49
aVmodule:net/rxrpc/rxrpc
p50
aVmodule:net/sctp/**
p51
aVmodule:sound/core/seq/**
p52
aVmodule:sound/firewire/snd-firewire-lib
p53
aVmodule:sound/pci/hda/*
p54
aVbtree_*
p55
aVvisitor*
p56
aVcan_rx_register
p57
aVip6_xmit
p58
aVmodule:net/dccp/dccp
p59
aVmodule:net/rds/rds
p60
aVdevfreq_*
p61
aVdevm_devfreq_*
p62
aVupdate_devfreq
p63
aVmodule:drivers/infiniband/**
p64
aVacpi_ec_add_query_handler
p65
aVacpi_ec_remove_query_handler
p66
aVfirst_ec
p67
aVdebugfs_create_automount
p68
aVmodule:drivers/iio/imu/inv_mpu6050/*
p69
aVdrm_crtc_accurate_vblank_count
p70
aVacpi_nfit_desc_init
p71
aVacpi_nfit_init
p72
aVloop_register_transfer
p73
aVxen_xlate_*
p74
aVnf_nat_masquerade_ipv4_register_notifier
p75
aVnf_nat_masquerade_ipv6_register_notifier
p76
aVdfltcc_*
p77
aVmodule:drivers/scsi/hisi_sas/*
p78
aV__gfn_*
p79
aV__kvmhv_*
p80
aV__kvm_*
p81
aV__xive_vm_h_*
p82
aVgfn_*
p83
aVh_ipi_redirect
p84
aVhalt_poll_ns*
p85
aVkvm_*
p86
aVkvmhv_*
p87
aVkvmppc_*
p88
aVmark_page_dirty
p89
aVvcpu_*
p90
aVmodule:arch/powerpc/kvm/*
p91
aVmodule:arch/s390/kvm/*
p92
aVmodule:arch/x86/kvm/*
p93
aVuv_info
p94
aVxhci_init_driver
p95
ass(Vbase
p96
tp97
(dp98
Varches
p99
(lp100
Valpha
p101
aVamd64
p102
aVarm64
p103
aVarm64ilp32
p104
aVarmel
p105
aVarmhf
p106
aVhppa
p107
aVi386
p108
aVia64
p109
aVm68k
p110
aVmips
p111
aVmips64
p112
aVmips64el
p113
aVmips64r6
p114
aVmips64r6el
p115
aVmipsel
p116
aVmipsn32
p117
aVmipsn32el
p118
aVmipsn32r6
p119
aVmipsn32r6el
p120
aVmipsr6
p121
aVmipsr6el
p122
aVpowerpc
p123
aVppc64
p124
aVppc64el
p125
aVriscv64
p126
aVs390
p127
aVs390x
p128
aVsh3
p129
aVsh4
p130
aVsparc
p131
aVsparc64
p132
aVx32
p133
asVcompiler
p134
Vgcc-10
p135
sVfeaturesets
p136
(lp137
Vnone
p138
aVrt
p139
ass(Vbuild
p140
tp141
(dp142
Vdebug-info
p143
I01
sVsigned-code
p144
I00
ss(Vbase
p145
NVrt
p146
tp147
(dp148
Venabled
p149
I01
ss(Vdescription
p150
tp151
(dp152
Vpart-long-up
p153
VThis kernel is not suitable for SMP (multi-processor,\u000amulti-core or hyper-threaded) systems.
p154
ss(Vimage
p155
tp156
(dp157
Vinitramfs-generators
p158
(lp159
Vinitramfs-tools
p160
aVinitramfs-fallback
p161
asVbreaks
p162
(lp163
Vfwupdate (<< 12-7)
p164
aVwireless-regdb (<< 2019.06.03-1~)
p165
asVrecommends
p166
(lp167
Vapparmor
p168
ass(Vrelations
p169
tp170
(dp171
Vgcc-10
p172
Vgcc-10 <!stage1 !cross !pkg.linux.nokernel>, gcc-10-@gnu-type-package@ <!stage1 cross !pkg.linux.nokernel>
p173
sVinitramfs-fallback
p174
Vlinux-initramfs-tool
p175
sVinitramfs-tools
p176
Vinitramfs-tools (>= 0.120+deb8u2)
p177
ss(Vbase
p178
Valpha
p179
tp180
(dp181
Vdefault-flavour
p182
Valpha-smp
p183
sVkernel-arch
p184
Valpha
p185
sVfeaturesets
p186
(lp187
Vnone
p188
ass(Vbuild
p189
g179
tp190
(dp191
Vimage-file
p192
Varch/alpha/boot/vmlinux.gz
p193
ss(Vimage
p194
g179
tp195
(dp196
Vsuggests
p197
(lp198
Vaboot
p199
aVfdutils
p200
asVinstall-stem
p201
Vvmlinuz
p202
ss(Vdescription
p203
g179
NValpha-generic
p204
tp205
(dp206
Vhardware
p207
VAlpha
p208
sVhardware-long
p209
VDEC Alpha systems with extended kernel start address (Wildfire, Titan, Marvel)
p210
ss(Vdescription
p211
g179
NValpha-smp
p212
tp213
(dp214
Vhardware
p215
VAlpha SMP
p216
sVhardware-long
p217
VDEC Alpha SMP systems with extended kernel start address (Wildfire, Titan, Marvel)
p218
ss(Vbase
p219
g179
g188
tp220
(dp221
Vflavours
p222
(lp223
Valpha-generic
p224
aValpha-smp
p225
asVimplicit-flavour
p226
I01
ss(Vbase
p227
Vamd64
p228
tp229
(dp230
Vfeaturesets
p231
(lp232
Vnone
p233
aVrt
p234
asVkernel-arch
p235
Vx86
p236
ss(Vbuild
p237
g228
tp238
(dp239
Vimage-file
p240
Varch/x86/boot/bzImage
p241
sVsigned-code
p242
I00
sVvdso
p243
I01
ss(Vimage
p244
g228
tp245
(dp246
Vbootloaders
p247
(lp248
Vgrub-pc
p249
aVgrub-efi-amd64
p250
aVextlinux
p251
asVinstall-stem
p252
Vvmlinuz
p253
sVbreaks
p254
(lp255
Vxserver-xorg-input-vmmouse (<< 1:13.0.99)
p256
ass(Vrelations
p257
g228
tp258
(dp259
Vheaders%gcc-10
p260
Vlinux-compiler-gcc-10-x86
p261
ss(Vdescription
p262
g228
NVamd64
p263
tp264
(dp265
Vhardware
p266
V64-bit PCs
p267
sVhardware-long
p268
VPCs with AMD64, Intel 64 or VIA Nano processors
p269
ss(Vdescription
p270
g228
NVcloud-amd64
p271
tp272
(dp273
Vhardware
p274
Vx86-64 cloud
p275
sVhardware-long
p276
Vcloud platforms including Amazon EC2, Microsoft Azure, and Google Compute Engine
p277
ss(Vbase
p278
g228
Vnone
p279
tp280
(dp281
Vflavours
p282
(lp283
Vamd64
p284
aVcloud-amd64
p285
asVdefault-flavour
p286
Vamd64
p287
ss(Vimage
p288
g228
g279
Vcloud-amd64
p289
tp290
(dp291
Vconfigs
p292
(lp293
Vconfig.cloud
p294
aVamd64/config.cloud-amd64
p295
ass(Vbase
p296
g228
Vrt
p297
tp298
(dp299
Vflavours
p300
(lp301
Vamd64
p302
ass(Vbase
p303
Varm64
p304
tp305
(dp306
Vcross-compile-compat
p307
Varm-linux-gnueabihf-
p308
sVkernel-arch
p309
Varm64
p310
sVfeaturesets
p311
(lp312
Vnone
p313
aVrt
p314
ass(Vbuild
p315
g304
tp316
(dp317
Vimage-file
p318
Varch/arm64/boot/Image
p319
sVsigned-code
p320
I00
sVvdso
p321
I01
ss(Vimage
p322
g304
tp323
(dp324
Vinstall-stem
p325
Vvmlinuz
p326
sVbreaks
p327
(lp328
Vlibmozjs185-1.0
p329
aVlibmozjs-24-0 (<< 24.2.0-5.1~)
p330
ass(Vdescription
p331
g304
NVarm64
p332
tp333
(dp334
Vhardware
p335
V64-bit ARMv8 machines
p336
ss(Vdescription
p337
g304
NVcloud-arm64
p338
tp339
(dp340
Vhardware
p341
Varm64 cloud
p342
sVhardware-long
p343
Vcloud platforms supporting arm64 virtual machines
p344
ss(Vimage
p345
g304
NVarm64
p346
tp347
(dp348
s(Vrelations
p349
g304
tp350
(dp351
Vgcc-10
p352
Vgcc-10 <!stage1 !cross !pkg.linux.nokernel>, gcc-10-aarch64-linux-gnu <!stage1 cross !pkg.linux.nokernel>, gcc-arm-linux-gnueabihf <!stage1 !pkg.linux.nokernel>
p353
sVheaders%gcc-10
p354
Vgcc-10
p355
ss(Vbase
p356
g304
Vnone
p357
tp358
(dp359
Vflavours
p360
(lp361
Varm64
p362
aVcloud-arm64
p363
asVdefault-flavour
p364
Varm64
p365
ss(Vimage
p366
g304
g357
Vcloud-arm64
p367
tp368
(dp369
Vconfigs
p370
(lp371
Vconfig.cloud
p372
aVarm64/config.cloud-arm64
p373
ass(Vbase
p374
g304
Vrt
p375
tp376
(dp377
Vflavours
p378
(lp379
Varm64
p380
ass(Vbase
p381
Varm64ilp32
p382
tp383
(dp384
Vkernel-arch
p385
Varm64
p386
sVfeaturesets
p387
(lp388
ss(Vbase
p389
Varmel
p390
tp391
(dp392
Vkernel-arch
p393
Varm
p394
sg186
(lp395
g188
ass(Vbuild
p396
g390
tp397
(dp398
Vimage-file
p399
Varch/arm/boot/zImage
p400
sVuncompressed-image-file
p401
Varch/arm/boot/Image
p402
sVsigned-code
p403
I00
ss(Vimage
p404
g390
tp405
(dp406
Vinstall-stem
p407
Vvmlinuz
p408
ss(Vrelations
p409
g390
tp410
(dp411
Vheaders%gcc-10
p412
Vlinux-compiler-gcc-10-arm
p413
ss(Vdescription
p414
g390
NVmarvell
p415
tp416
(dp417
Vhardware
p418
VMarvell Kirkwood/Orion
p419
sVhardware-long
p420
VMarvell Kirkwood and Orion based systems (https://wiki.debian.org/ArmEabiPort#Supported_hardware)
p421
ss(Vdescription
p422
g390
NVrpi
p423
tp424
(dp425
Vhardware
p426
VRaspberry Pi and Pi Zero
p427
sVhardware-long
p428
VRaspberry Pi, Raspberry Pi Zero based systems
p429
ss(Vimage
p430
g390
NVmarvell
p431
tp432
(dp433
Vrecommends
p434
(lp435
Vu-boot-tools
p436
asVcheck-size
p437
I2729712
sVcheck-size-with-dtb
p438
I01
sVbreaks
p439
(lp440
Vflash-kernel (<< 3.57~)
p441
ass(g219
g390
g188
tp442
(dp443
g222
(lp444
Vmarvell
p445
aVrpi
p446
asg226
I01
ss(Vbase
p447
Varmhf
p448
tp449
(dp450
Vfeaturesets
p451
(lp452
Vnone
p453
aVrt
p454
asVkernel-arch
p455
Varm
p456
ss(Vbuild
p457
g448
tp458
(dp459
Vimage-file
p460
Varch/arm/boot/zImage
p461
sVvdso
p462
I01
sVsigned-code
p463
I00
ss(Vimage
p464
g448
tp465
(dp466
Vinstall-stem
p467
Vvmlinuz
p468
ss(Vrelations
p469
g448
tp470
(dp471
Vheaders%gcc-10
p472
Vlinux-compiler-gcc-10-arm
p473
ss(Vdescription
p474
g448
NVarmmp
p475
tp476
(dp477
Vhardware
p478
VARMv7 multiplatform compatible SoCs
p479
sVhardware-long
p480
VARMv7 multiplatform kernel. See\u000ahttps://wiki.debian.org/DebianKernel/ARMMP for details of supported\u000aplatforms
p481
ss(Vdescription
p482
g448
NVarmmp-lpae
p483
tp484
(dp485
Vhardware
p486
VARMv7 multiplatform compatible SoCs supporting LPAE
p487
sVhardware-long
p488
VARMv7 multiplatform kernel supporting LPAE. See\u000ahttps://wiki.debian.org/DebianKernel/ARMMP for details of supported\u000aplatforms.
p489
ss(Vbase
p490
g448
Vnone
p491
tp492
(dp493
Vflavours
p494
(lp495
Varmmp
p496
aVarmmp-lpae
p497
asVdefault-flavour
p498
Varmmp
p499
ss(Vbase
p500
g448
Vrt
p501
tp502
(dp503
Vflavours
p504
(lp505
Varmmp
p506
ass(Vbase
p507
Vhppa
p508
tp509
(dp510
Vdefault-flavour
p511
Vparisc
p512
sVkernel-arch
p513
Vparisc
p514
sg186
(lp515
g188
ass(Vbuild
p516
g508
tp517
(dp518
Vimage-file
p519
Varch/parisc/boot/bzImage
p520
sVdebug-info
p521
I00
ss(Vimage
p522
g508
tp523
(dp524
Vsuggests
p525
(lp526
Vpalo
p527
asVinstall-stem
p528
Vvmlinuz
p529
ss(Vdescription
p530
g508
NVparisc
p531
tp532
(dp533
Vhardware
p534
V32-bit PA-RISC
p535
sVhardware-long
p536
VHP PA-RISC 32-bit systems with max 4 GB RAM
p537
ss(Vbase
p538
g508
NVparisc64
p539
tp540
(dp541
Vcflags
p542
V-fno-cse-follow-jumps
p543
sVoverride-host-type
p544
Vhppa64-linux-gnu
p545
ss(Vdescription
p546
g508
NVparisc64
p547
tp548
(dp549
Vhardware
p550
V64-bit PA-RISC
p551
sVhardware-long
p552
VHP PA-RISC 64-bit systems with support for more than 4 GB RAM
p553
ss(Vrelations
p554
g508
tp555
(dp556
Vgcc-10
p557
Vgcc-10 <!stage1 !cross !pkg.linux.nokernel>, gcc-10-hppa-linux-gnu <!stage1 cross !pkg.linux.nokernel>, binutils-hppa64-linux-gnu <!stage1 !pkg.linux.nokernel>, gcc-10-hppa64-linux-gnu <!stage1 !pkg.linux.nokernel>
p558
ss(g219
g508
g188
tp559
(dp560
g222
(lp561
Vparisc
p562
aVparisc64
p563
asg226
I01
ss(Vbase
p564
Vi386
p565
tp566
(dp567
Vfeaturesets
p568
(lp569
Vnone
p570
aVrt
p571
asVkernel-arch
p572
Vx86
p573
ss(Vbuild
p574
g565
tp575
(dp576
Vimage-file
p577
Varch/x86/boot/bzImage
p578
sVsigned-code
p579
I00
sVvdso
p580
I01
ss(Vdescription
p581
g565
tp582
(dp583
Vpart-long-pae
p584
VThis kernel requires PAE (Physical Address Extension).\u000aThis feature is supported by the Intel Pentium Pro/II/III/4/4M/D, Xeon,\u000aCore and Atom; AMD Geode NX, Athlon (K7), Duron, Opteron, Sempron,\u000aTurion or Phenom; Transmeta Efficeon; VIA C7; and some other processors.
p585
ss(Vimage
p586
g565
tp587
(dp588
Vbootloaders
p589
(lp590
Vgrub-pc
p591
aVgrub-efi-ia32
p592
aVextlinux
p593
asVinstall-stem
p594
Vvmlinuz
p595
sVbreaks
p596
(lp597
Vxserver-xorg-input-vmmouse (<< 1:13.0.99)
p598
ass(Vrelations
p599
g565
tp600
(dp601
Vheaders%gcc-10
p602
Vlinux-compiler-gcc-10-x86
p603
ss(Vdescription
p604
g565
NV686
p605
tp606
(dp607
Vhardware
p608
Volder PCs
p609
sVhardware-long
p610
VPCs with one or more processors not supporting PAE
p611
ss(Vdescription
p612
g565
NV686-pae
p613
tp614
(dp615
Vhardware
p616
Vmodern PCs
p617
sVhardware-long
p618
VPCs with one or more processors supporting PAE
p619
sVparts
p620
(lp621
Vpae
p622
ass(Vbase
p623
g565
Vnone
p624
tp625
(dp626
Vflavours
p627
(lp628
V686
p629
aV686-pae
p630
asVdefault-flavour
p631
V686-pae
p632
ss(Vbase
p633
g565
Vrt
p634
tp635
(dp636
Vflavours
p637
(lp638
V686-pae
p639
ass(Vbase
p640
Via64
p641
tp642
(dp643
Vdefault-flavour
p644
Vitanium
p645
sVkernel-arch
p646
Via64
p647
sg186
(lp648
g188
ass(Vbuild
p649
g641
tp650
(dp651
Vimage-file
p652
Vvmlinux.gz
p653
ss(Vimage
p654
g641
tp655
(dp656
Vbootloaders
p657
(lp658
Vgrub-efi-ia64
p659
asVinstall-stem
p660
Vvmlinuz
p661
ss(Vdescription
p662
g641
NVitanium
p663
tp664
(dp665
Vhardware
p666
VItanium (Merced)
p667
sVhardware-long
p668
Vsystems with original Itanium (Merced) processors
p669
ss(Vdescription
p670
g641
NVmckinley
p671
tp672
(dp673
Vhardware
p674
VItanium 2+
p675
sVhardware-long
p676
Vsystems with Itanium 2 or 9300/9500/9700-series processors
p677
ss(g219
g641
g188
tp678
(dp679
g222
(lp680
Vitanium
p681
aVmckinley
p682
asg226
I01
ss(Vbase
p683
Vm68k
p684
tp685
(dp686
Vcflags
p687
V-ffreestanding
p688
sVdefault-flavour
p689
Vm68k
p690
sVkernel-arch
p691
Vm68k
p692
sg186
(lp693
g188
ass(Vbuild
p694
g684
tp695
(dp696
Vimage-file
p697
Vvmlinux
p698
ss(Vimage
p699
g684
tp700
(dp701
Vsuggests
p702
(lp703
Vvmelilo
p704
aVfdutils
p705
asVinstall-stem
p706
Vvmlinux
p707
ss(Vdescription
p708
g684
NVm68k
p709
tp710
(dp711
Vhardware
p712
VMotorola MC68020+ family
p713
ss(g219
g684
g188
tp714
(dp715
g222
(lp716
Vm68k
p717
asg226
I01
ss(Vbase
p718
Vmips
p719
tp720
(dp721
Vkernel-arch
p722
Vmips
p723
sg186
(lp724
g188
ass(Vbuild
p725
g719
tp726
(dp727
Vimage-file
p728
Vvmlinuz
p729
ss(Vimage
p730
g719
tp731
(dp732
Vinstall-stem
p733
Vvmlinuz
p734
ss(Vdescription
p735
g719
NV4kc-malta
p736
tp737
(dp738
Vhardware
p739
VMIPS Malta
p740
sVhardware-long
p741
VMIPS Malta boards
p742
ss(Vimage
p743
g719
NV4kc-malta
p744
tp745
(dp746
Vconfigs
p747
(lp748
Vkernelarch-mips/config.malta
p749
aVkernelarch-mips/config.mips32r2
p750
ass(Vdescription
p751
g719
NV5kc-malta
p752
tp753
(dp754
Vhardware
p755
VMIPS Malta (64-bit)
p756
sVhardware-long
p757
VMIPS Malta boards (64-bit)
p758
ss(Vimage
p759
g719
NV5kc-malta
p760
tp761
(dp762
Vconfigs
p763
(lp764
Vkernelarch-mips/config.malta
p765
aVkernelarch-mips/config.mips64r2
p766
ass(Vdescription
p767
g719
NVocteon
p768
tp769
(dp770
Vhardware
p771
VOcteon
p772
sVhardware-long
p773
VCavium Networks Octeon
p774
ss(Vbuild
p775
g719
NVocteon
p776
tp777
(dp778
Vimage-file
p779
Vvmlinux
p780
ss(Vimage
p781
g719
NVocteon
p782
tp783
(dp784
Vinstall-stem
p785
Vvmlinux
p786
sVconfigs
p787
(lp788
Vkernelarch-mips/config.octeon
p789
ass(g219
g719
g188
tp790
(dp791
g222
(lp792
V4kc-malta
p793
aV5kc-malta
p794
aVocteon
p795
asg226
I01
ss(Vbase
p796
Vmips64
p797
tp798
(dp799
Vkernel-arch
p800
Vmips
p801
sg186
(lp802
g188
ass(Vbuild
p803
g797
tp804
(dp805
Vimage-file
p806
Vvmlinuz
p807
ss(Vimage
p808
g797
tp809
(dp810
Vinstall-stem
p811
Vvmlinuz
p812
ss(Vdescription
p813
g797
NV5kc-malta
p814
tp815
(dp816
Vhardware
p817
VMIPS Malta
p818
sVhardware-long
p819
VMIPS Malta boards
p820
ss(Vimage
p821
g797
NV5kc-malta
p822
tp823
(dp824
Vconfigs
p825
(lp826
Vkernelarch-mips/config.malta
p827
aVkernelarch-mips/config.mips64r2
p828
ass(Vdescription
p829
g797
NVocteon
p830
tp831
(dp832
Vhardware
p833
VOcteon
p834
sVhardware-long
p835
VCavium Networks Octeon
p836
ss(Vbuild
p837
g797
NVocteon
p838
tp839
(dp840
Vimage-file
p841
Vvmlinux
p842
ss(Vimage
p843
g797
NVocteon
p844
tp845
(dp846
Vinstall-stem
p847
Vvmlinux
p848
sVconfigs
p849
(lp850
Vkernelarch-mips/config.octeon
p851
ass(g219
g797
g188
tp852
(dp853
g222
(lp854
V5kc-malta
p855
aVocteon
p856
asg226
I01
ss(Vbase
p857
Vmips64el
p858
tp859
(dp860
Vkernel-arch
p861
Vmips
p862
sg186
(lp863
g188
ass(Vbuild
p864
g858
tp865
(dp866
Vimage-file
p867
Vvmlinuz
p868
ss(Vimage
p869
g858
tp870
(dp871
Vinstall-stem
p872
Vvmlinuz
p873
ss(Vdescription
p874
g858
NV5kc-malta
p875
tp876
(dp877
Vhardware
p878
VMIPS Malta
p879
sVhardware-long
p880
VMIPS Malta boards
p881
ss(Vimage
p882
g858
NV5kc-malta
p883
tp884
(dp885
Vconfigs
p886
(lp887
Vkernelarch-mips/config.malta
p888
aVkernelarch-mips/config.mips64r2
p889
ass(Vdescription
p890
g858
NVloongson-3
p891
tp892
(dp893
Vhardware
p894
VLoongson 3A/3B
p895
sVhardware-long
p896
VLoongson 3A or 3B based systems (e.g. from Loongson or Lemote)
p897
ss(Vimage
p898
g858
NVloongson-3
p899
tp900
(dp901
Vconfigs
p902
(lp903
Vkernelarch-mips/config.loongson-3
p904
ass(Vdescription
p905
g858
NVocteon
p906
tp907
(dp908
Vhardware
p909
VOcteon
p910
sVhardware-long
p911
VCavium Networks Octeon
p912
ss(Vbuild
p913
g858
NVocteon
p914
tp915
(dp916
Vimage-file
p917
Vvmlinux
p918
ss(Vimage
p919
g858
NVocteon
p920
tp921
(dp922
Vinstall-stem
p923
Vvmlinux
p924
sVconfigs
p925
(lp926
Vkernelarch-mips/config.octeon
p927
ass(g219
g858
g188
tp928
(dp929
g222
(lp930
V5kc-malta
p931
aVloongson-3
p932
aVocteon
p933
asg226
I01
ss(Vbase
p934
Vmips64r6
p935
tp936
(dp937
Vdefault-flavour
p938
Vmips64r6
p939
sVkernel-arch
p940
Vmips
p941
sg186
(lp942
g188
ass(Vbuild
p943
g935
tp944
(dp945
Vimage-file
p946
Vvmlinux
p947
ss(Vimage
p948
g935
tp949
(dp950
Vinstall-stem
p951
Vvmlinux
p952
ss(Vdescription
p953
g935
NVmips64r6
p954
tp955
(dp956
Vhardware
p957
VMIPS R6 (64 bit, big endian)
p958
sVhardware-long
p959
VMIPS R6 (64 bit, big endian)
p960
ss(Vimage
p961
g935
NVmips64r6
p962
tp963
(dp964
Vconfigs
p965
(lp966
Vkernelarch-mips/config.boston
p967
aVkernelarch-mips/config.mips64r6
p968
ass(g219
g935
g188
tp969
(dp970
g222
(lp971
Vmips64r6
p972
asg226
I01
ss(Vbase
p973
Vmips64r6el
p974
tp975
(dp976
Vdefault-flavour
p977
Vmips64r6el
p978
sVkernel-arch
p979
Vmips
p980
sg186
(lp981
g188
ass(Vbuild
p982
g974
tp983
(dp984
Vimage-file
p985
Vvmlinux
p986
ss(Vimage
p987
g974
tp988
(dp989
Vinstall-stem
p990
Vvmlinux
p991
ss(Vdescription
p992
g974
NVmips64r6el
p993
tp994
(dp995
Vhardware
p996
VMIPS R6 (64 bit, little endian)
p997
sVhardware-long
p998
VMIPS R6 (64 bit, little endian)
p999
ss(Vimage
p1000
g974
NVmips64r6el
p1001
tp1002
(dp1003
Vconfigs
p1004
(lp1005
Vkernelarch-mips/config.boston
p1006
aVkernelarch-mips/config.mips64r6
p1007
ass(g219
g974
g188
tp1008
(dp1009
g222
(lp1010
Vmips64r6el
p1011
asg226
I01
ss(Vbase
p1012
Vmipsel
p1013
tp1014
(dp1015
Vkernel-arch
p1016
Vmips
p1017
sg186
(lp1018
g188
ass(Vbuild
p1019
g1013
tp1020
(dp1021
Vimage-file
p1022
Vvmlinuz
p1023
ss(Vimage
p1024
g1013
tp1025
(dp1026
Vinstall-stem
p1027
Vvmlinuz
p1028
ss(Vdescription
p1029
g1013
NV4kc-malta
p1030
tp1031
(dp1032
Vhardware
p1033
VMIPS Malta
p1034
sVhardware-long
p1035
VMIPS Malta boards
p1036
ss(Vimage
p1037
g1013
NV4kc-malta
p1038
tp1039
(dp1040
Vconfigs
p1041
(lp1042
Vkernelarch-mips/config.malta
p1043
aVkernelarch-mips/config.mips32r2
p1044
ass(Vdescription
p1045
g1013
NV5kc-malta
p1046
tp1047
(dp1048
Vhardware
p1049
VMIPS Malta (64-bit)
p1050
sVhardware-long
p1051
VMIPS Malta boards (64-bit)
p1052
ss(Vimage
p1053
g1013
NV5kc-malta
p1054
tp1055
(dp1056
Vconfigs
p1057
(lp1058
Vkernelarch-mips/config.malta
p1059
aVkernelarch-mips/config.mips64r2
p1060
ass(Vdescription
p1061
g1013
NVloongson-3
p1062
tp1063
(dp1064
Vhardware
p1065
VLoongson 3A/3B
p1066
sVhardware-long
p1067
VLoongson 3A or 3B based systems (e.g. from Loongson or Lemote)
p1068
ss(Vimage
p1069
g1013
NVloongson-3
p1070
tp1071
(dp1072
Vconfigs
p1073
(lp1074
Vkernelarch-mips/config.loongson-3
p1075
ass(Vdescription
p1076
g1013
NVocteon
p1077
tp1078
(dp1079
Vhardware
p1080
VOcteon
p1081
sVhardware-long
p1082
VCavium Networks Octeon
p1083
ss(Vbuild
p1084
g1013
NVocteon
p1085
tp1086
(dp1087
Vimage-file
p1088
Vvmlinux
p1089
ss(Vimage
p1090
g1013
NVocteon
p1091
tp1092
(dp1093
Vinstall-stem
p1094
Vvmlinux
p1095
sVconfigs
p1096
(lp1097
Vkernelarch-mips/config.octeon
p1098
ass(g219
g1013
g188
tp1099
(dp1100
g222
(lp1101
V4kc-malta
p1102
aV5kc-malta
p1103
aVloongson-3
p1104
aVocteon
p1105
asg226
I01
ss(Vbase
p1106
Vmipsn32
p1107
tp1108
(dp1109
Vkernel-arch
p1110
Vmips
p1111
sVfeaturesets
p1112
(lp1113
ss(Vbase
p1114
Vmipsn32el
p1115
tp1116
(dp1117
Vkernel-arch
p1118
Vmips
p1119
sVfeaturesets
p1120
(lp1121
ss(Vbase
p1122
Vmipsn32r6
p1123
tp1124
(dp1125
Vkernel-arch
p1126
Vmips
p1127
sVfeaturesets
p1128
(lp1129
ss(Vbase
p1130
Vmipsn32r6el
p1131
tp1132
(dp1133
Vkernel-arch
p1134
Vmips
p1135
sVfeaturesets
p1136
(lp1137
ss(Vbase
p1138
Vmipsr6
p1139
tp1140
(dp1141
Vdefault-flavour
p1142
Vmips32r6
p1143
sVkernel-arch
p1144
Vmips
p1145
sg186
(lp1146
g188
ass(Vbuild
p1147
g1139
tp1148
(dp1149
Vimage-file
p1150
Vvmlinux
p1151
ss(Vimage
p1152
g1139
tp1153
(dp1154
Vinstall-stem
p1155
Vvmlinux
p1156
ss(Vdescription
p1157
g1139
NVmips32r6
p1158
tp1159
(dp1160
Vhardware
p1161
VMIPS R6 (32 bit, big endian)
p1162
sVhardware-long
p1163
VMIPS R6 (32 bit, big endian)
p1164
ss(Vimage
p1165
g1139
NVmips32r6
p1166
tp1167
(dp1168
Vconfigs
p1169
(lp1170
Vkernelarch-mips/config.boston
p1171
aVkernelarch-mips/config.mips32r6
p1172
ass(Vdescription
p1173
g1139
NVmips64r6
p1174
tp1175
(dp1176
Vhardware
p1177
VMIPS R6 (64 bit, big endian)
p1178
sVhardware-long
p1179
VMIPS R6 (64 bit, big endian)
p1180
ss(Vimage
p1181
g1139
NVmips64r6
p1182
tp1183
(dp1184
Vconfigs
p1185
(lp1186
Vkernelarch-mips/config.boston
p1187
aVkernelarch-mips/config.mips64r6
p1188
ass(g219
g1139
g188
tp1189
(dp1190
g222
(lp1191
Vmips32r6
p1192
aVmips64r6
p1193
asg226
I01
ss(Vbase
p1194
Vmipsr6el
p1195
tp1196
(dp1197
Vdefault-flavour
p1198
Vmips32r6el
p1199
sVkernel-arch
p1200
Vmips
p1201
sg186
(lp1202
g188
ass(Vbuild
p1203
g1195
tp1204
(dp1205
Vimage-file
p1206
Vvmlinux
p1207
ss(Vimage
p1208
g1195
tp1209
(dp1210
Vinstall-stem
p1211
Vvmlinux
p1212
ss(Vdescription
p1213
g1195
NVmips32r6el
p1214
tp1215
(dp1216
Vhardware
p1217
VMIPS R6 (32 bit, little endian)
p1218
sVhardware-long
p1219
VMIPS R6 (32 bit, little endian)
p1220
ss(Vimage
p1221
g1195
NVmips32r6el
p1222
tp1223
(dp1224
Vconfigs
p1225
(lp1226
Vkernelarch-mips/config.boston
p1227
aVkernelarch-mips/config.mips32r6
p1228
ass(Vdescription
p1229
g1195
NVmips64r6el
p1230
tp1231
(dp1232
Vhardware
p1233
VMIPS R6 (64 bit, little endian)
p1234
sVhardware-long
p1235
VMIPS R6 (64 bit, little endian)
p1236
ss(Vimage
p1237
g1195
NVmips64r6el
p1238
tp1239
(dp1240
Vconfigs
p1241
(lp1242
Vkernelarch-mips/config.boston
p1243
aVkernelarch-mips/config.mips64r6
p1244
ass(g219
g1195
g188
tp1245
(dp1246
g222
(lp1247
Vmips32r6el
p1248
aVmips64r6el
p1249
asg226
I01
ss(Vbase
p1250
Vpowerpc
p1251
tp1252
(dp1253
Vkernel-arch
p1254
Vpowerpc
p1255
sg186
(lp1256
g188
ass(Vbuild
p1257
g1251
tp1258
(dp1259
Vimage-file
p1260
Vvmlinux
p1261
sVvdso
p1262
I01
ss(Vimage
p1263
g1251
tp1264
(dp1265
Vconfigs
p1266
(lp1267
sVbootloaders
p1268
(lp1269
Vgrub-ieee1275
p1270
asVsuggests
p1271
(lp1272
Vmkvmlinuz
p1273
asVinstall-stem
p1274
Vvmlinux
p1275
ss(Vdescription
p1276
g1251
NVpowerpc
p1277
tp1278
(dp1279
Vhardware
p1280
Vuniprocessor 32-bit PowerPC
p1281
ss(Vdescription
p1282
g1251
NVpowerpc-smp
p1283
tp1284
(dp1285
Vhardware
p1286
Vmultiprocessor 32-bit PowerPC
p1287
ss(Vimage
p1288
g1251
NVpowerpc-smp
p1289
tp1290
(dp1291
Vconfigs
p1292
(lp1293
Vpowerpc/config.powerpc
p1294
aVpowerpc/config.powerpc-smp
p1295
ass(Vdescription
p1296
g1251
NVpowerpc64
p1297
tp1298
(dp1299
Vhardware
p1300
V64-bit PowerPC
p1301
ss(Vimage
p1302
g1251
NVpowerpc64
p1303
tp1304
(dp1305
Vconfigs
p1306
(lp1307
Vkernelarch-powerpc/config-arch-64
p1308
aVkernelarch-powerpc/config-arch-64-be
p1309
ass(g219
g1251
g188
tp1310
(dp1311
g222
(lp1312
Vpowerpc
p1313
aVpowerpc-smp
p1314
aVpowerpc64
p1315
asg226
I01
ss(Vbase
p1316
Vppc64
p1317
tp1318
(dp1319
Vdefault-flavour
p1320
Vpowerpc64
p1321
sVkernel-arch
p1322
Vpowerpc
p1323
sg186
(lp1324
g188
ass(Vbuild
p1325
g1317
tp1326
(dp1327
Vimage-file
p1328
Vvmlinux
p1329
sVvdso
p1330
I01
ss(Vimage
p1331
g1317
tp1332
(dp1333
Vconfigs
p1334
(lp1335
sVbootloaders
p1336
(lp1337
Vgrub-ieee1275
p1338
asVsuggests
p1339
(lp1340
Vmkvmlinuz
p1341
asVinstall-stem
p1342
Vvmlinux
p1343
ss(Vdescription
p1344
g1317
NVpowerpc64
p1345
tp1346
(dp1347
Vhardware
p1348
V64-bit PowerPC
p1349
ss(Vimage
p1350
g1317
NVpowerpc64
p1351
tp1352
(dp1353
Vconfigs
p1354
(lp1355
Vkernelarch-powerpc/config-arch-64
p1356
aVkernelarch-powerpc/config-arch-64-be
p1357
ass(g219
g1317
g188
tp1358
(dp1359
g222
(lp1360
Vpowerpc64
p1361
asg226
I01
ss(Vbase
p1362
Vppc64el
p1363
tp1364
(dp1365
Vdefault-flavour
p1366
Vpowerpc64le
p1367
sVkernel-arch
p1368
Vpowerpc
p1369
sg186
(lp1370
g188
ass(Vbuild
p1371
g1363
tp1372
(dp1373
Vimage-file
p1374
Vvmlinux
p1375
sVvdso
p1376
I01
ss(Vimage
p1377
g1363
tp1378
(dp1379
Vconfigs
p1380
(lp1381
sVbootloaders
p1382
(lp1383
Vgrub-ieee1275
p1384
asVsuggests
p1385
(lp1386
Vmkvmlinuz
p1387
asVinstall-stem
p1388
Vvmlinux
p1389
ss(Vdescription
p1390
g1363
NVpowerpc64le
p1391
tp1392
(dp1393
Vhardware
p1394
VLittle-endian 64-bit PowerPC
p1395
ss(Vimage
p1396
g1363
NVpowerpc64le
p1397
tp1398
(dp1399
Vconfigs
p1400
(lp1401
Vkernelarch-powerpc/config-arch-64
p1402
aVkernelarch-powerpc/config-arch-64-le
p1403
ass(g219
g1363
g188
tp1404
(dp1405
g222
(lp1406
Vpowerpc64le
p1407
asg226
I01
ss(Vbase
p1408
Vriscv64
p1409
tp1410
(dp1411
Vkernel-arch
p1412
Vriscv
p1413
sVfeaturesets
p1414
(lp1415
Vnone
p1416
ass(Vbuild
p1417
g1409
tp1418
(dp1419
Vimage-file
p1420
Varch/riscv/boot/Image
p1421
sVvdso
p1422
I01
ss(Vimage
p1423
g1409
tp1424
(dp1425
Vinstall-stem
p1426
Vvmlinux
p1427
ss(Vdescription
p1428
g1409
NVriscv64
p1429
tp1430
(dp1431
Vhardware
p1432
V64-bit RISC-V platforms
p1433
sVhardware-long
p1434
V64-bit RISC-V platforms
p1435
ss(Vbase
p1436
g1409
Vnone
p1437
tp1438
(dp1439
Vflavours
p1440
(lp1441
Vriscv64
p1442
asVdefault-flavour
p1443
Vriscv64
p1444
ss(Vbase
p1445
Vs390
p1446
tp1447
(dp1448
Vkernel-arch
p1449
Vs390
p1450
sVfeaturesets
p1451
(lp1452
ss(Vbase
p1453
Vs390x
p1454
tp1455
(dp1456
Vdefault-flavour
p1457
Vs390x
p1458
sVkernel-arch
p1459
Vs390
p1460
sg186
(lp1461
g188
ass(Vbuild
p1462
g1454
tp1463
(dp1464
Vimage-file
p1465
Varch/s390/boot/bzImage
p1466
sVvdso
p1467
I01
ss(Vimage
p1468
g1454
tp1469
(dp1470
Vbootloaders
p1471
(lp1472
Vs390-tools
p1473
asVinstall-stem
p1474
Vvmlinuz
p1475
ss(Vrelations
p1476
g1454
tp1477
(dp1478
Vheaders%gcc-10
p1479
Vlinux-compiler-gcc-10-s390
p1480
ss(Vdescription
p1481
g1454
NVs390x
p1482
tp1483
(dp1484
Vhardware
p1485
VIBM zSeries
p1486
ss(g219
g1454
g188
tp1487
(dp1488
g222
(lp1489
Vs390x
p1490
asg226
I01
ss(Vbase
p1491
Vsh3
p1492
tp1493
(dp1494
Vkernel-arch
p1495
Vsh
p1496
sVfeaturesets
p1497
(lp1498
ss(Vbase
p1499
Vsh4
p1500
tp1501
(dp1502
Vkernel-arch
p1503
Vsh
p1504
sg186
(lp1505
g188
ass(Vbuild
p1506
g1500
tp1507
(dp1508
Vimage-file
p1509
Varch/sh/boot/zImage
p1510
ss(Vimage
p1511
g1500
tp1512
(dp1513
Vinstall-stem
p1514
Vvmlinuz
p1515
ss(Vdescription
p1516
g1500
NVsh7751r
p1517
tp1518
(dp1519
Vhardware
p1520
Vsh7751r
p1521
sVhardware-long
p1522
VRenesas SH7751R R2D plus board
p1523
ss(Vdescription
p1524
g1500
NVsh7785lcr
p1525
tp1526
(dp1527
Vhardware
p1528
Vsh7785lcr
p1529
sVhardware-long
p1530
VRenesas SH7785 reference board
p1531
ss(Vimage
p1532
g1500
NVsh7785lcr
p1533
tp1534
(dp1535
Vrecommends
p1536
(lp1537
Vu-boot-tools
p1538
asVcheck-size
p1539
I4194304
ss(g219
g1500
g188
tp1540
(dp1541
g222
(lp1542
Vsh7751r
p1543
aVsh7785lcr
p1544
asg226
I01
ss(Vbase
p1545
Vsparc
p1546
tp1547
(dp1548
Vkernel-arch
p1549
Vsparc
p1550
sVfeaturesets
p1551
(lp1552
ss(Vbase
p1553
Vsparc64
p1554
tp1555
(dp1556
Vdefault-flavour
p1557
Vsparc64-smp
p1558
sVkernel-arch
p1559
Vsparc
p1560
sg186
(lp1561
g188
ass(Vbuild
p1562
g1554
tp1563
(dp1564
Vimage-file
p1565
Vvmlinux
p1566
ss(Vimage
p1567
g1554
tp1568
(dp1569
Vconfigs
p1570
(lp1571
sVbootloaders
p1572
(lp1573
Vgrub-ieee1275
p1574
asVsuggests
p1575
(lp1576
Vfdutils
p1577
asVinstall-stem
p1578
Vvmlinux
p1579
ss(Vdescription
p1580
g1554
NVsparc64
p1581
tp1582
(dp1583
Vhardware
p1584
Vuniprocessor 64-bit UltraSPARC
p1585
ss(Vimage
p1586
g1554
NVsparc64
p1587
tp1588
(dp1589
Vconfigs
p1590
(lp1591
Vkernelarch-sparc/config-up
p1592
ass(Vdescription
p1593
g1554
NVsparc64-smp
p1594
tp1595
(dp1596
Vhardware
p1597
Vmultiprocessor 64-bit UltraSPARC
p1598
ss(Vimage
p1599
g1554
NVsparc64-smp
p1600
tp1601
(dp1602
Vconfigs
p1603
(lp1604
Vkernelarch-sparc/config-smp
p1605
ass(g219
g1554
g188
tp1606
(dp1607
g222
(lp1608
Vsparc64
p1609
aVsparc64-smp
p1610
asg226
I01
ss(Vbase
p1611
Vx32
p1612
tp1613
(dp1614
Vkernel-arch
p1615
Vx86
p1616
sVfeaturesets
p1617
(lp1618
ss(Vabi
p1619
NVrt
p1620
tp1621
(dp1622
Vignore-changes
p1623
(lp1624
V*
p1625
ass(Vdescription
p1626
Ng1620
tp1627
(dp1628
Vpart-long-rt
p1629
VThis kernel includes the PREEMPT_RT realtime patch set.
p1630
sVpart-short-rt
p1631
VPREEMPT_RT
p1632
sVparts
p1633
(lp1634
Vrt
p1635
ass(Vversion
p1636
tp1637
(dp1638
Vsource
p1639
V5.10.46-1kali1
p1640
sVupstream
p1641
V5.10
p1642
sVabiname_base
p1643
V5.10.0
p1644
sVabiname
p1645
V5.10.0-kali9
p1646
ss.