ccopy_reg
_reconstructor
p0
(cdebian_linux.config
ConfigCore
p1
c__builtin__
dict
p2
(dp3
(Vdescription
p4
Vmips
p5
NV5kc-malta
p6
tp7
(dp8
Vhardware-long
p9
VMIPS Malta boards (64-bit)
p10
sVhardware
p11
VMIPS Malta (64-bit)
p12
ss(Vdescription
p13
Vi386
p14
Vnone
p15
V686-pae
p16
tp17
(dp18
Vparts
p19
(lp20
Vxen
p21
ass(Vbase
p22
Vm68k
p23
Vnone
p24
tp25
(dp26
Vimplicit-flavour
p27
I01
sVflavours
p28
(lp29
Vm68k
p30
ass(Vimage
p31
Varm64
p32
tp33
(dp34
Vinstall-stem
p35
Vvmlinuz
p36
ss(Vbase
p37
Vmips64el
p38
tp39
(dp40
Vkernel-arch
p41
Vmips
p42
sVfeaturesets
p43
(lp44
g24
ass(Vbase
p45
Vppc64
p46
tp47
(dp48
Vkernel-arch
p49
Vpowerpc
p50
sg43
(lp51
g24
ass(Vimage
p52
g46
NVpowerpc64
p53
tp54
(dp55
Vconfigs
p56
(lp57
Vkernelarch-powerpc/config-arch-64
p58
aVkernelarch-powerpc/config-arch-64-be
p59
ass(Vbase
p60
tp61
(dp62
Varches
p63
(lp64
Valpha
p65
aVamd64
p66
aVarm64
p67
aVarmel
p68
aVarmhf
p69
aVhppa
p70
aVi386
p71
aVm68k
p72
aVmips
p73
aVmipsel
p74
aVmips64
p75
aVmips64el
p76
aVor1k
p77
aVpowerpc
p78
aVpowerpcspe
p79
aVppc64
p80
aVppc64el
p81
aVs390
p82
aVs390x
p83
aVsh4
p84
aVsparc
p85
aVsparc64
p86
aVx32
p87
asVcompiler
p88
Vgcc-4.9
p89
sVfeaturesets
p90
(lp91
Vnone
p92
aVrt
p93
ass(g22
Valpha
p94
g24
tp95
(dp96
g27
I01
sg28
(lp97
Valpha-generic
p98
aValpha-smp
p99
ass(Vimage
p100
g5
NVocteon
p101
tp102
(dp103
Vconfigs
p104
(lp105
Vkernelarch-mips/config.octeon
p106
ass(Vdescription
p107
Vhppa
p108
NVparisc64-smp
p109
tp110
(dp111
Vhardware-long
p112
VHP PA-RISC 64-bit SMP systems with support for more than 4 GB RAM
p113
sVhardware
p114
Vmultiprocessor 64-bit PA-RISC
p115
ss(g22
Vmips64
p116
g24
tp117
(dp118
g27
I01
sg28
(lp119
V5kc-malta
p120
aVocteon
p121
ass(Vbuild
p122
Vsh4
p123
tp124
(dp125
Vimage-file
p126
Varch/sh/boot/zImage
p127
ss(Vbase
p128
Varmel
p129
tp130
(dp131
Vkernel-arch
p132
Varm
p133
sg43
(lp134
g24
ass(Vimage
p135
Vmipsel
p136
NVloongson-2e
p137
tp138
(dp139
Vconfigs
p140
(lp141
Vkernelarch-mips/config.loongson-2e
p142
ass(Vdescription
p143
Vsparc64
p144
NVsparc64-smp
p145
tp146
(dp147
Vhardware
p148
Vmultiprocessor 64-bit UltraSPARC
p149
ss(Vimage
p150
tp151
(dp152
Vinitramfs-generators
p153
(lp154
Vinitramfs-tools
p155
aVinitramfs-fallback
p156
ass(Vdescription
p157
Vpowerpc
p158
NVpowerpc-smp
p159
tp160
(dp161
Vhardware
p162
Vmultiprocessor 32-bit PowerPC
p163
ss(Vbuild
p164
g32
tp165
(dp166
Vvdso
p167
I01
sVdebug-info
p168
I01
sVimage-file
p169
Varch/arm64/boot/Image
p170
ss(Vabi
p171
tp172
(dp173
Vignore-changes
p174
(lp175
V__scm_destroy
p176
aV__scm_send
p177
aVscm_detach_fds
p178
aVscm_fp_dup
p179
aVefivar_validate
p180
aVget_thermal_instance
p181
aVinet_csk_reqsk_queue_add
p182
aVtcp_req_err
p183
aVmodule:drivers/gpu/drm/drm_kms_helper
p184
aVmodule:drivers/hv/hv_vmbus
p185
aVmodule:drivers/md/dm-snapshot
p186
aVmodule:drivers/mmc/host/sdhci
p187
aVmodule:drivers/mmc/host/sdhci*
p188
aVmodule:net/ceph/libceph
p189
asVabiname
p190
V1
p191
ss(Vdescription
p192
g5
NV4kc-malta
p193
tp194
(dp195
Vhardware-long
p196
VMIPS Malta boards
p197
sVhardware
p198
VMIPS Malta
p199
ss(Vbuild
p200
g94
tp201
(dp202
Vimage-file
p203
Varch/alpha/boot/vmlinux.gz
p204
ss(Vbase
p205
Vamd64
p206
Vnone
p207
tp208
(dp209
Vflavours
p210
(lp211
Vamd64
p212
ass(Vrelations
p213
g206
tp214
(dp215
Vheaders%gcc-5
p216
Vlinux-compiler-gcc-5-x86
p217
ss(Vbuild
p218
Vs390x
p219
NVs390x
p220
tp221
(dp222
Vdebug-info
p223
I01
ss(Vbase
p224
g206
Vrt
p225
tp226
(dp227
Vflavours
p228
(lp229
Vamd64
p230
ass(Vdescription
p231
NVrt
p232
tp233
(dp234
Vpart-long-rt
p235
VThis kernel includes the PREEMPT_RT realtime patch set.
p236
sVpart-short-rt
p237
VPREEMPT_RT
p238
sVparts
p239
(lp240
Vrt
p241
ass(Vbuild
p242
Vpowerpcspe
p243
tp244
(dp245
Vvdso
p246
I01
sVimage-file
p247
Vvmlinux
p248
ss(Vbase
p249
Vppc64el
p250
tp251
(dp252
Vkernel-arch
p253
Vpowerpc
p254
sg43
(lp255
g24
ass(Vbase
p256
g158
tp257
(dp258
Vkernel-arch
p259
Vpowerpc
p260
sg43
(lp261
g24
ass(Vdescription
p262
g123
NVsh7785lcr
p263
tp264
(dp265
Vhardware-long
p266
VRenesas SH7785 reference board
p267
sVhardware
p268
Vsh7785lcr
p269
ss(Vdescription
p270
g94
NValpha-smp
p271
tp272
(dp273
Vhardware-long
p274
VDEC Alpha SMP systems with extended kernel start address (Wildfire, Titan, Marvel)
p275
sVhardware
p276
VAlpha SMP
p277
ss(Vimage
p278
g219
NVs390x
p279
tp280
(dp281
Vconfigs
p282
(lp283
Vkernelarch-s390/config-arch-64
p284
ass(Vimage
p285
g158
tp286
(dp287
Vsuggests
p288
Vmkvmlinuz
p289
sVinstall-stem
p290
Vvmlinux
p291
sVconfigs
p292
(lp293
ss(Vdescription
p294
g14
NV686
p295
tp296
(dp297
Vhardware-long
p298
VPCs with one or more processors not supporting PAE
p299
sVhardware
p300
Volder PCs
p301
ss(Vdescription
p302
g158
NVpowerpc
p303
tp304
(dp305
Vhardware
p306
Vuniprocessor 32-bit PowerPC
p307
ss(Vdescription
p308
g243
tp309
(dp310
Vhardware
p311
V32-bit PowerPC with SPE (instead of AltiVec) with SMP support
p312
ss(Vdescription
p313
g136
NV4kc-malta
p314
tp315
(dp316
Vhardware-long
p317
VMIPS Malta boards
p318
sVhardware
p319
VMIPS Malta
p320
ss(Vimage
p321
g116
NV5kc-malta
p322
tp323
(dp324
Vconfigs
p325
(lp326
Vkernelarch-mips/config.5kc-malta
p327
ass(Vimage
p328
g38
NVloongson-3
p329
tp330
(dp331
Vconfigs
p332
(lp333
Vkernelarch-mips/config.loongson-3
p334
ass(Vimage
p335
g116
tp336
(dp337
Vinstall-stem
p338
Vvmlinux
p339
ss(Vimage
p340
g23
tp341
(dp342
Vsuggests
p343
Vvmelilo, fdutils
p344
sVinstall-stem
p345
Vvmlinuz
p346
ss(Vdescription
p347
g136
NVloongson-2f
p348
tp349
(dp350
Vhardware-long
p351
VLemote Loongson 2F systems
p352
sVhardware
p353
VLoongson 2F
p354
ss(Vbase
p355
g14
tp356
(dp357
Vkernel-arch
p358
Vx86
p359
sVcompiler
p360
Vgcc-5
p361
sVfeaturesets
p362
(lp363
Vnone
p364
aVrt
p365
ass(Vimage
p366
g158
NVpowerpc64
p367
tp368
(dp369
Vconfigs
p370
(lp371
Vkernelarch-powerpc/config-arch-64
p372
aVkernelarch-powerpc/config-arch-64-be
p373
ass(Vbuild
p374
g14
tp375
(dp376
Vvdso
p377
I01
sVimage-file
p378
Varch/x86/boot/bzImage
p379
ss(Vimage
p380
g136
NVloongson-2f
p381
tp382
(dp383
Vconfigs
p384
(lp385
Vkernelarch-mips/config.loongson-2f
p386
asVrecommends
p387
Vlibc6-loongson2f
p388
ss(Vbase
p389
Vsparc
p390
tp391
(dp392
Vkernel-arch
p393
Vsparc
p394
sVfeaturesets
p395
(lp396
ss(Vbase
p397
NVrt
p398
tp399
(dp400
Venabled
p401
I01
ss(Vimage
p402
g5
tp403
(dp404
Vinstall-stem
p405
Vvmlinux
p406
ss(Vdescription
p407
Varmhf
p408
NVarmmp
p409
tp410
(dp411
Vhardware-long
p412
VARMv7 multiplatform kernel. See\u000ahttps://wiki.debian.org/DebianKernel/ARMMP for details of supported\u000aplatforms
p413
sVhardware
p414
VARMv7 multiplatform compatible SoCs
p415
ss(Vdescription
p416
g206
NVamd64
p417
tp418
(dp419
Vhardware-long
p420
VPCs with AMD64, Intel 64 or VIA Nano processors
p421
sVhardware
p422
V64-bit PCs
p423
ss(Vimage
p424
g38
tp425
(dp426
Vinstall-stem
p427
Vvmlinux
p428
ss(Vabi
p429
g219
tp430
(dp431
Vignore-changes
p432
(lp433
Vmodule:arch/s390/kvm/kvm
p434
ass(Vimage
p435
g108
tp436
(dp437
Vsuggests
p438
Vpalo
p439
sVinstall-stem
p440
Vvmlinux
p441
ss(Vbase
p442
g14
g15
tp443
(dp444
Vflavours
p445
(lp446
V686
p447
aV686-pae
p448
ass(Vimage
p449
g136
NVloongson-3
p450
tp451
(dp452
Vconfigs
p453
(lp454
Vkernelarch-mips/config.loongson-3
p455
ass(Vimage
p456
g123
tp457
(dp458
Vsuggests
p459
Vfdutils
p460
sVinstall-stem
p461
Vvmlinuz
p462
ss(Vbuild
p463
g206
tp464
(dp465
Vvdso
p466
I01
sVdebug-info
p467
I01
sVimage-file
p468
Varch/x86/boot/bzImage
p469
ss(Vdescription
p470
g123
NVsh7751r
p471
tp472
(dp473
Vhardware-long
p474
VRenesas SH7751R R2D plus board
p475
sVhardware
p476
Vsh7751r
p477
ss(Vimage
p478
g32
NVarm64
p479
tp480
(dp481
s(g22
g136
g24
tp482
(dp483
g27
I01
sg28
(lp484
V4kc-malta
p485
aV5kc-malta
p486
aVloongson-2e
p487
aVloongson-2f
p488
aVloongson-3
p489
ass(Vimage
p490
g94
tp491
(dp492
Vsuggests
p493
Vaboot, fdutils
p494
sVinstall-stem
p495
Vvmlinuz
p496
ss(Vdescription
p497
g129
NVmarvell
p498
tp499
(dp500
Vhardware-long
p501
VMarvell Kirkwood based systems (SheevaPlug, QNAP TS-119/TS-219, etc)\u000aand Orion 5181, 5182 and 5281 based systems (QNAP TS-109/TS-209, etc)
p502
sVhardware
p503
VMarvell Kirkwood/Orion
p504
ss(Vdescription
p505
g206
g207
Vamd64
p506
tp507
(dp508
Vparts
p509
(lp510
Vxen
p511
ass(Vbuild
p512
g136
tp513
(dp514
Vimage-file
p515
Vvmlinux
p516
ss(Vbase
p517
g94
tp518
(dp519
Vkernel-arch
p520
Valpha
p521
sg43
(lp522
g24
ass(Vabi
p523
g108
tp524
(dp525
Vignore-changes
p526
(lp527
Vdrm_dp_*
p528
ass(Vdescription
p529
g116
NV5kc-malta
p530
tp531
(dp532
Vhardware-long
p533
VMIPS Malta boards
p534
sVhardware
p535
VMIPS Malta
p536
ss(Vimage
p537
g250
NVpowerpc64le
p538
tp539
(dp540
Vconfigs
p541
(lp542
Vkernelarch-powerpc/config-arch-64
p543
aVkernelarch-powerpc/config-arch-64-le
p544
ass(Vimage
p545
g38
NV5kc-malta
p546
tp547
(dp548
Vconfigs
p549
(lp550
Vkernelarch-mips/config.5kc-malta
p551
ass(Vversion
p552
tp553
(dp554
Vsource
p555
V4.4.4-2
p556
sVabiname_base
p557
V4.4.0
p558
sVabiname
p559
V4.4.0-1
p560
sVupstream
p561
V4.4
p562
ss(Vimage
p563
g250
tp564
(dp565
Vsuggests
p566
Vmkvmlinuz
p567
sVinstall-stem
p568
Vvmlinux
p569
sVconfigs
p570
(lp571
ss(Vbuild
p572
g158
tp573
(dp574
Vvdso
p575
I01
sVimage-file
p576
Vvmlinux
p577
ss(Vbase
p578
Vor1k
p579
tp580
(dp581
Vkernel-arch
p582
Vopenrisc
p583
sVfeaturesets
p584
(lp585
ss(g22
g219
g24
tp586
(dp587
g27
I01
sg28
(lp588
Vs390x
p589
ass(Vbuild
p590
g14
NV686-pae
p591
tp592
(dp593
Vdebug-info
p594
I01
ss(Vdescription
p595
g14
tp596
(dp597
Vpart-long-pae
p598
VThis kernel requires PAE (Physical Address Extension).\u000aThis feature is supported by the Intel Pentium Pro/II/III/4/4M/D, Xeon,\u000aCore and Atom; AMD Geode NX, Athlon (K7), Duron, Opteron, Sempron,\u000aTurion or Phenom; Transmeta Efficeon; VIA C7; and some other processors.
p599
ss(Vdescription
p600
g129
NVversatile
p601
tp602
(dp603
Vhardware-long
p604
VVersatile systems (PB, AB, Qemu)
p605
sVhardware
p606
VVersatile
p607
ss(Vimage
p608
g14
NV686
p609
tp610
(dp611
Vconfigs
p612
(lp613
Vkernelarch-x86/config-arch-32
p614
aVi386/config.686
p615
asVrecommends
p616
Vlibc6-i686
p617
ss(Vdescription
p618
g250
NVpowerpc64le
p619
tp620
(dp621
Vhardware
p622
VLittle-endian 64-bit PowerPC
p623
ss(Vrelations
p624
g14
tp625
(dp626
Vheaders%gcc-5
p627
Vlinux-compiler-gcc-5-x86
p628
ss(g22
g38
g24
tp629
(dp630
g27
I01
sg28
(lp631
V5kc-malta
p632
aVloongson-3
p633
aVocteon
p634
ass(Vbase
p635
g206
tp636
(dp637
Vkernel-arch
p638
Vx86
p639
sVcompiler
p640
Vgcc-5
p641
sVfeaturesets
p642
(lp643
Vnone
p644
aVrt
p645
ass(g22
g144
g24
tp646
(dp647
g27
I01
sg28
(lp648
Vsparc64
p649
aVsparc64-smp
p650
ass(Vdescription
p651
g219
NVs390x
p652
tp653
(dp654
Vhardware
p655
VIBM zSeries
p656
ss(Vdescription
p657
g38
NVocteon
p658
tp659
(dp660
Vhardware-long
p661
VCavium Networks Octeon
p662
sVhardware
p663
VOcteon
p664
ss(Vimage
p665
g136
NV5kc-malta
p666
tp667
(dp668
Vconfigs
p669
(lp670
Vkernelarch-mips/config.5kc-malta
p671
ass(Vimage
p672
g136
tp673
(dp674
Vinstall-stem
p675
Vvmlinux
p676
ss(g22
g108
g24
tp677
(dp678
g27
I01
sg28
(lp679
Vparisc
p680
aVparisc64-smp
p681
ass(Vrelations
p682
g129
tp683
(dp684
Vheaders%gcc-4.9
p685
Vlinux-compiler-gcc-4.9-arm
p686
ss(Vbase
p687
g32
Vnone
p688
tp689
(dp690
Vflavours
p691
(lp692
Varm64
p693
ass(Vimage
p694
g408
tp695
(dp696
Vsuggests
p697
Vfdutils
p698
sVinstall-stem
p699
Vvmlinuz
p700
sVconfigs
p701
(lp702
Vkernelarch-arm/config
p703
ass(Vimage
p704
g144
NVsparc64
p705
tp706
(dp707
Vconfigs
p708
(lp709
Vkernelarch-sparc/config-up
p710
ass(Vrelations
p711
g408
tp712
(dp713
Vheaders%gcc-4.9
p714
Vlinux-compiler-gcc-4.9-arm
p715
ss(Vimage
p716
g116
NVocteon
p717
tp718
(dp719
Vconfigs
p720
(lp721
Vkernelarch-mips/config.octeon
p722
ass(g22
g123
g24
tp723
(dp724
g27
I01
sg28
(lp725
Vsh7751r
p726
aVsh7785lcr
p727
ass(Vbuild
p728
g46
tp729
(dp730
Vvdso
p731
I01
sVimage-file
p732
Vvmlinux
p733
ss(Vbase
p734
g5
tp735
(dp736
Vkernel-arch
p737
Vmips
p738
sg43
(lp739
g24
ass(Vbuild
p740
g38
tp741
(dp742
Vimage-file
p743
Vvmlinux
p744
ss(Vimage
p745
g206
NVamd64
p746
tp747
(dp748
Vconfigs
p749
(lp750
Vkernelarch-x86/config-arch-64
p751
ass(Vimage
p752
g206
tp753
(dp754
Vbootloaders
p755
(lp756
Vgrub-pc
p757
aVgrub-efi
p758
aVextlinux
p759
asVinstall-stem
p760
Vvmlinuz
p761
sVbreaks
p762
Vxserver-xorg-input-vmmouse (<< 1:13.0.99)
p763
sVconfigs
p764
(lp765
ss(Vbase
p766
g123
tp767
(dp768
Vkernel-arch
p769
Vsh
p770
sg43
(lp771
g24
ass(Vbase
p772
g108
tp773
(dp774
Vkernel-arch
p775
Vparisc
p776
sg43
(lp777
g24
ass(Vbase
p778
g32
tp779
(dp780
Vkernel-arch
p781
Varm64
p782
sVfeaturesets
p783
(lp784
Vnone
p785
ass(Vdescription
p786
g158
NVpowerpc64
p787
tp788
(dp789
Vhardware
p790
V64-bit PowerPC
p791
ss(Vbase
p792
g136
tp793
(dp794
Vkernel-arch
p795
Vmips
p796
sg43
(lp797
g24
ass(Vdescription
p798
g136
NVloongson-2e
p799
tp800
(dp801
Vhardware-long
p802
VLemote Loongson 2E systems
p803
sVhardware
p804
VLoongson 2E
p805
ss(Vbuild
p806
g116
tp807
(dp808
Vimage-file
p809
Vvmlinux
p810
ss(Vimage
p811
g144
tp812
(dp813
Vsuggests
p814
Vsilo, fdutils
p815
sVinstall-stem
p816
Vvmlinuz
p817
sVconfigs
p818
(lp819
ss(Vbuild
p820
g250
tp821
(dp822
Vvdso
p823
I01
sVimage-file
p824
Vvmlinux
p825
ss(Vbase
p826
g243
tp827
(dp828
Vkernel-arch
p829
Vpowerpc
p830
sg43
(lp831
g24
ass(Vbase
p832
g23
tp833
(dp834
Vkernel-arch
p835
Vm68k
p836
sVcflags
p837
V-ffreestanding
p838
sVcompiler
p839
Vgcc-4.8
p840
sg43
(lp841
g24
ass(Vimage
p842
g129
NVmarvell
p843
tp844
(dp845
Vbreaks
p846
Vflash-kernel (<< 3.57~)
p847
sVcheck-size-with-dtb
p848
I01
sVrecommends
p849
Vu-boot-tools
p850
sVcheck-size
p851
L2097080L
ss(Vxen
p852
g206
g207
Vamd64
p853
tp854
(dp855
Vflavours
p856
(lp857
Vamd64
p858
ass(Vdescription
p859
g46
NVpowerpc64
p860
tp861
(dp862
Vhardware
p863
V64-bit PowerPC
p864
ss(g22
g5
g24
tp865
(dp866
g27
I01
sg28
(lp867
V4kc-malta
p868
aV5kc-malta
p869
aVocteon
p870
ass(Vimage
p871
g5
NV4kc-malta
p872
tp873
(dp874
Vconfigs
p875
(lp876
Vkernelarch-mips/config.4kc-malta
p877
ass(Vrelations
p878
g219
tp879
(dp880
Vheaders%gcc-4.9
p881
Vlinux-compiler-gcc-4.9-s390
p882
ss(Vbase
p883
g14
Vrt
p884
tp885
(dp886
Vflavours
p887
(lp888
V686-pae
p889
ass(Vimage
p890
g46
tp891
(dp892
Vsuggests
p893
Vmkvmlinuz
p894
sVinstall-stem
p895
Vvmlinux
p896
sVconfigs
p897
(lp898
ss(Vdescription
p899
g23
NVm68k
p900
tp901
(dp902
Vhardware
p903
VMotorola MC68020+ family
p904
ss(Vdescription
p905
g144
NVsparc64
p906
tp907
(dp908
Vhardware
p909
Vuniprocessor 64-bit UltraSPARC
p910
ss(Vimage
p911
g408
NVarmmp-lpae
p912
tp913
(dp914
Vconfigs
p915
(lp916
Varmhf/config.armmp
p917
aVarmhf/config.lpae
p918
ass(Vbuild
p919
g129
tp920
(dp921
Vimage-file
p922
Varch/arm/boot/zImage
p923
ss(Vimage
p924
g144
NVsparc64-smp
p925
tp926
(dp927
Vconfigs
p928
(lp929
Vkernelarch-sparc/config-smp
p930
ass(Vbase
p931
g108
NVparisc64-smp
p932
tp933
(dp934
Voverride-host-type
p935
Vhppa64-linux-gnu
p936
sVcflags
p937
V-fno-cse-follow-jumps
p938
ss(Vimage
p939
g38
NVocteon
p940
tp941
(dp942
Vconfigs
p943
(lp944
Vkernelarch-mips/config.octeon
p945
ass(Vdescription
p946
g32
NVarm64
p947
tp948
(dp949
Vhardware
p950
V64-bit ARMv8 machines
p951
ss(Vimage
p952
g14
NV686-pae
p953
tp954
(dp955
Vconfigs
p956
(lp957
Vkernelarch-x86/config-arch-32
p958
aVi386/config.686-pae
p959
asVrecommends
p960
Vlibc6-i686
p961
ss(Vbuild
p962
g408
tp963
(dp964
Vvdso
p965
I01
sVimage-file
p966
Varch/arm/boot/zImage
p967
ss(Vdescription
p968
g94
NValpha-generic
p969
tp970
(dp971
Vhardware-long
p972
VDEC Alpha systems with extended kernel start address (Wildfire, Titan, Marvel)
p973
sVhardware
p974
VAlpha
p975
ss(g22
g243
g24
tp976
(dp977
g27
I01
sg28
(lp978
Vpowerpcspe
p979
ass(Vbase
p980
g219
tp981
(dp982
Vkernel-arch
p983
Vs390
p984
sg43
(lp985
g24
ass(Vbase
p986
Vx32
p987
tp988
(dp989
Vkernel-arch
p990
Vx86
p991
sVfeaturesets
p992
(lp993
ss(Vrelations
p994
g108
tp995
(dp996
Vgcc-4.9
p997
Vgcc-4.9 <!stage1>, binutils-hppa64 <!stage1>, gcc-4.9-hppa64 <!stage1>
p998
ss(Vimage
p999
g5
NV5kc-malta
p1000
tp1001
(dp1002
Vconfigs
p1003
(lp1004
Vkernelarch-mips/config.5kc-malta
p1005
ass(Vdescription
p1006
g38
NVloongson-3
p1007
tp1008
(dp1009
Vhardware-long
p1010
VLoongson 3A or 3B based systems (e.g. from Loongson or Lemote)
p1011
sVhardware
p1012
VLoongson 3A/3B
p1013
ss(Vimage
p1014
g158
NVpowerpc-smp
p1015
tp1016
(dp1017
Vconfigs
p1018
(lp1019
Vpowerpc/config.powerpc
p1020
aVpowerpc/config.powerpc-smp
p1021
ass(g22
g250
g24
tp1022
(dp1023
g27
I01
sg28
(lp1024
Vpowerpc64le
p1025
ass(Vdescription
p1026
tp1027
(dp1028
Vpart-long-xen
p1029
VThis kernel also runs on a Xen hypervisor.\u000aIt supports both privileged (dom0) and unprivileged (domU) operation.
p1030
sVpart-long-up
p1031
VThis kernel is not suitable for SMP (multi-processor,\u000amulti-core or hyper-threaded) systems.
p1032
ss(Vdescription
p1033
g116
NVocteon
p1034
tp1035
(dp1036
Vhardware-long
p1037
VCavium Networks Octeon
p1038
sVhardware
p1039
VOcteon
p1040
ss(Vdescription
p1041
g108
NVparisc
p1042
tp1043
(dp1044
Vhardware-long
p1045
VHP PA-RISC 32-bit systems with max 4 GB RAM
p1046
sVhardware
p1047
V32-bit PA-RISC
p1048
ss(Vabi
p1049
Ng232
tp1050
(dp1051
Vignore-changes
p1052
(lp1053
V*
p1054
ass(Vimage
p1055
g123
NVsh7785lcr
p1056
tp1057
(dp1058
Vrecommends
p1059
Vu-boot-tools
p1060
sVcheck-size
p1061
L4194304L
ss(g22
g408
g24
tp1062
(dp1063
g27
I01
sg28
(lp1064
Varmmp
p1065
aVarmmp-lpae
p1066
ass(Vbuild
p1067
g144
tp1068
(dp1069
Vimage-file
p1070
Varch/sparc/boot/zImage
p1071
ss(Vbuild
p1072
g219
tp1073
(dp1074
Vvdso
p1075
I01
sVimage-file
p1076
Varch/s390/boot/image
p1077
ss(Vbuild
p1078
g23
tp1079
(dp1080
Vimage-file
p1081
Vvmlinux.gz
p1082
ss(Vbase
p1083
g408
tp1084
(dp1085
Vkernel-arch
p1086
Varm
p1087
sg43
(lp1088
g24
ass(Vdescription
p1089
g136
NV5kc-malta
p1090
tp1091
(dp1092
Vhardware-long
p1093
VMIPS Malta boards (64-bit)
p1094
sVhardware
p1095
VMIPS Malta (64-bit)
p1096
ss(Vrelations
p1097
tp1098
(dp1099
Vinitramfs-tools
p1100
Vinitramfs-tools (>= 0.110~)
p1101
sVgcc-5
p1102
Vgcc-5 <!stage1>
p1103
sVgcc-4.8
p1104
Vgcc-4.8 <!stage1>
p1105
sVgcc-4.9
p1106
Vgcc-4.9 <!stage1>
p1107
sVinitramfs-fallback
p1108
Vlinux-initramfs-tool
p1109
ss(Vimage
p1110
g243
tp1111
(dp1112
Vsuggests
p1113
Vmkvmlinuz
p1114
sVinstall-stem
p1115
Vvmlinux
p1116
ss(g22
g46
g24
tp1117
(dp1118
g27
I01
sg28
(lp1119
Vpowerpc64
p1120
ass(Vimage
p1121
g14
tp1122
(dp1123
Vbootloaders
p1124
(lp1125
Vgrub-pc
p1126
aVextlinux
p1127
asVinstall-stem
p1128
Vvmlinuz
p1129
sVbreaks
p1130
Vxserver-xorg-input-vmmouse (<< 1:13.0.99)
p1131
sVconfigs
p1132
(lp1133
ss(Vdescription
p1134
g14
NV686-pae
p1135
tp1136
(dp1137
Vhardware-long
p1138
VPCs with one or more processors supporting PAE
p1139
sVparts
p1140
(lp1141
Vpae
p1142
asVhardware
p1143
Vmodern PCs
p1144
ss(g22
g158
g24
tp1145
(dp1146
g27
I01
sg28
(lp1147
Vpowerpc
p1148
aVpowerpc-smp
p1149
aVpowerpc64
p1150
ass(Vdescription
p1151
g38
NV5kc-malta
p1152
tp1153
(dp1154
Vhardware-long
p1155
VMIPS Malta boards
p1156
sVhardware
p1157
VMIPS Malta
p1158
ss(Vimage
p1159
g219
tp1160
(dp1161
Vbootloaders
p1162
(lp1163
Vs390-tools
p1164
asVinstall-stem
p1165
Vvmlinuz
p1166
sVconfigs
p1167
(lp1168
ss(Vbuild
p1169
g108
tp1170
(dp1171
Vimage-file
p1172
Vvmlinux
p1173
ss(Vdescription
p1174
g408
NVarmmp-lpae
p1175
tp1176
(dp1177
Vhardware-long
p1178
VARMv7 multiplatform kernel supporting LPAE. See\u000ahttps://wiki.debian.org/DebianKernel/ARMMP for details of supported\u000aplatforms.
p1179
sVhardware
p1180
VARMv7 multiplatform compatible SoCs supporting LPAE
p1181
ss(Vbuild
p1182
g5
tp1183
(dp1184
Vimage-file
p1185
Vvmlinux
p1186
ss(Vimage
p1187
g136
NV4kc-malta
p1188
tp1189
(dp1190
Vconfigs
p1191
(lp1192
Vkernelarch-mips/config.4kc-malta
p1193
ass(Vbase
p1194
g144
tp1195
(dp1196
Vkernel-arch
p1197
Vsparc
p1198
sg43
(lp1199
g24
ass(Vdescription
p1200
g5
NVocteon
p1201
tp1202
(dp1203
Vhardware-long
p1204
VCavium Networks Octeon
p1205
sVhardware
p1206
VOcteon
p1207
ss(Vdescription
p1208
g136
NVloongson-3
p1209
tp1210
(dp1211
Vhardware-long
p1212
VLoongson 3A or 3B based systems (e.g. from Loongson or Lemote)
p1213
sVhardware
p1214
VLoongson 3A/3B
p1215
ss(Vimage
p1216
g129
tp1217
(dp1218
Vsuggests
p1219
Vfdutils
p1220
sVinstall-stem
p1221
Vvmlinuz
p1222
sVconfigs
p1223
(lp1224
Vkernelarch-arm/config
p1225
aVarmel/config
p1226
ass(Vbase
p1227
Vs390
p1228
tp1229
(dp1230
Vkernel-arch
p1231
Vs390
p1232
sVfeaturesets
p1233
(lp1234
ss(g22
g129
g24
tp1235
(dp1236
g27
I01
sg28
(lp1237
Vmarvell
p1238
aVversatile
p1239
ass(Vbase
p1240
g116
tp1241
(dp1242
Vkernel-arch
p1243
Vmips
p1244
sg43
(lp1245
g24
asstp1246
Rp1247
.