ccopy_reg
_reconstructor
p0
(cdebian_linux.config
ConfigCore
p1
c__builtin__
dict
p2
(dp3
(Vbase
p4
Vppc64el
p5
tp6
(dp7
Vkernel-arch
p8
Vpowerpc
p9
sVfeaturesets
p10
(lp11
Vnone
p12
ass(Vimage
p13
Vmips64el
p14
NVocteon
p15
tp16
(dp17
Vconfigs
p18
(lp19
Vkernelarch-mips/config.octeon
p20
ass(Vdescription
p21
Vmips
p22
NV4kc-malta
p23
tp24
(dp25
Vhardware
p26
VMIPS Malta
p27
sVhardware-long
p28
VMIPS Malta boards
p29
ss(Vbase
p30
Vi386
p31
Vnone
p32
tp33
(dp34
Vflavours
p35
(lp36
V686
p37
aV686-pae
p38
ass(Vimage
p39
Valpha
p40
tp41
(dp42
Vsuggests
p43
Vaboot, fdutils
p44
sVinstall-stem
p45
Vvmlinuz
p46
ss(Vimage
p47
Varm64
p48
NVarm64
p49
tp50
(dp51
s(Vdescription
p52
Varmel
p53
NVversatile
p54
tp55
(dp56
Vhardware
p57
VVersatile
p58
sVhardware-long
p59
VVersatile systems (PB, AB, Qemu)
p60
ss(Vimage
p61
Vmips64
p62
NVocteon
p63
tp64
(dp65
Vconfigs
p66
(lp67
Vkernelarch-mips/config.octeon
p68
ass(Vimage
p69
g14
NVloongson-3
p70
tp71
(dp72
Vconfigs
p73
(lp74
Vkernelarch-mips/config.loongson-3
p75
ass(Vimage
p76
Vs390x
p77
tp78
(dp79
Vinstall-stem
p80
Vvmlinuz
p81
sVbootloaders
p82
(lp83
Vs390-tools
p84
ass(Vdescription
p85
Vpowerpcspe
p86
tp87
(dp88
Vhardware
p89
V32-bit PowerPC with SPE (instead of AltiVec) with SMP support
p90
ss(Vrelations
p91
g31
tp92
(dp93
Vheaders%gcc-5
p94
Vlinux-compiler-gcc-5-x86
p95
ss(Vbase
p96
g14
tp97
(dp98
Vkernel-arch
p99
Vmips
p100
sg10
(lp101
g12
ass(Vdescription
p102
Vhppa
p103
NVparisc
p104
tp105
(dp106
Vhardware
p107
V32-bit PA-RISC
p108
sVhardware-long
p109
VHP PA-RISC 32-bit systems with max 4 GB RAM
p110
ss(Vdescription
p111
Vsh4
p112
NVsh7751r
p113
tp114
(dp115
Vhardware
p116
Vsh7751r
p117
sVhardware-long
p118
VRenesas SH7751R R2D plus board
p119
ss(Vrelations
p120
tp121
(dp122
Vinitramfs-fallback
p123
Vlinux-initramfs-tool
p124
sVgcc-5
p125
Vgcc-5 <!stage1>
p126
sVinitramfs-tools
p127
Vinitramfs-tools (>= 0.110~)
p128
ss(Vbuild
p129
g31
tp130
(dp131
Vimage-file
p132
Varch/x86/boot/bzImage
p133
sVvdso
p134
I01
ss(Vbase
p135
Vpowerpc
p136
tp137
(dp138
Vkernel-arch
p139
Vpowerpc
p140
sg10
(lp141
g12
ass(Vbase
p142
Varmhf
p143
g12
tp144
(dp145
Vflavours
p146
(lp147
Varmmp
p148
aVarmmp-lpae
p149
asVimplicit-flavour
p150
I01
ss(Vimage
p151
Vmipsel
p152
NV5kc-malta
p153
tp154
(dp155
Vconfigs
p156
(lp157
Vkernelarch-mips/config.malta
p158
aVkernelarch-mips/config.mips64r1
p159
ass(Vbase
p160
Vm68k
p161
tp162
(dp163
Vkernel-arch
p164
Vm68k
p165
sg10
(lp166
g12
asVcflags
p167
V-ffreestanding
p168
ss(Vimage
p169
tp170
(dp171
Vinitramfs-generators
p172
(lp173
Vinitramfs-tools
p174
aVinitramfs-fallback
p175
ass(Vbase
p176
g103
NVparisc64-smp
p177
tp178
(dp179
Vcflags
p180
V-fno-cse-follow-jumps
p181
sVoverride-host-type
p182
Vhppa64-linux-gnu
p183
ss(Vdescription
p184
tp185
(dp186
Vpart-long-xen
p187
VThis kernel also runs on a Xen hypervisor.\u000aIt supports both privileged (dom0) and unprivileged (domU) operation.
p188
sVpart-long-up
p189
VThis kernel is not suitable for SMP (multi-processor,\u000amulti-core or hyper-threaded) systems.
p190
ss(g142
Vppc64
p191
g12
tp192
(dp193
g146
(lp194
Vpowerpc64
p195
asg150
I01
ss(Vrelations
p196
Vamd64
p197
tp198
(dp199
Vheaders%gcc-5
p200
Vlinux-compiler-gcc-5-x86
p201
ss(g142
g161
g12
tp202
(dp203
g146
(lp204
Vm68k
p205
asg150
I01
ss(Vrelations
p206
g77
tp207
(dp208
Vheaders%gcc-5
p209
Vlinux-compiler-gcc-5-s390
p210
ss(Vdescription
p211
g136
NVpowerpc-smp
p212
tp213
(dp214
Vhardware
p215
Vmultiprocessor 32-bit PowerPC
p216
ss(Vdescription
p217
g152
NVloongson-2f
p218
tp219
(dp220
Vhardware
p221
VLoongson 2F
p222
sVhardware-long
p223
VLemote Loongson 2F systems
p224
ss(Vbase
p225
NVrt
p226
tp227
(dp228
Venabled
p229
I01
ss(Vimage
p230
g86
tp231
(dp232
Vsuggests
p233
Vmkvmlinuz
p234
sVinstall-stem
p235
Vvmlinux
p236
ss(g142
g22
g12
tp237
(dp238
g146
(lp239
V4kc-malta
p240
aV5kc-malta
p241
aVocteon
p242
asg150
I01
ss(Vdescription
p243
g136
NVpowerpc
p244
tp245
(dp246
Vhardware
p247
Vuniprocessor 32-bit PowerPC
p248
ss(Vdescription
p249
g191
NVpowerpc64
p250
tp251
(dp252
Vhardware
p253
V64-bit PowerPC
p254
ss(Vbase
p255
g53
tp256
(dp257
Vkernel-arch
p258
Varm
p259
sg10
(lp260
g12
ass(Vimage
p261
g152
NVloongson-2f
p262
tp263
(dp264
Vrecommends
p265
Vlibc6-loongson2f
p266
sVconfigs
p267
(lp268
Vkernelarch-mips/config.loongson-2f
p269
ass(Vdescription
p270
g53
NVmarvell
p271
tp272
(dp273
Vhardware
p274
VMarvell Kirkwood/Orion
p275
sVhardware-long
p276
VMarvell Kirkwood based systems (SheevaPlug, QNAP TS-119/TS-219, etc)\u000aand Orion 5181, 5182 and 5281 based systems (QNAP TS-109/TS-209, etc)
p277
ss(Vimage
p278
g152
NVocteon
p279
tp280
(dp281
Vconfigs
p282
(lp283
Vkernelarch-mips/config.octeon
p284
ass(Vimage
p285
Vsparc64
p286
tp287
(dp288
Vconfigs
p289
(lp290
sVsuggests
p291
Vsilo, fdutils
p292
sVinstall-stem
p293
Vvmlinuz
p294
ss(Vimage
p295
g197
tp296
(dp297
Vbreaks
p298
Vxserver-xorg-input-vmmouse (<< 1:13.0.99)
p299
sVinstall-stem
p300
Vvmlinuz
p301
sVbootloaders
p302
(lp303
Vgrub-pc
p304
aVgrub-efi
p305
aVextlinux
p306
ass(Vimage
p307
g136
tp308
(dp309
Vconfigs
p310
(lp311
sVsuggests
p312
Vmkvmlinuz
p313
sVinstall-stem
p314
Vvmlinux
p315
ss(Vdescription
p316
g31
g32
V686-pae
p317
tp318
(dp319
Vparts
p320
(lp321
Vxen
p322
ass(Vdescription
p323
g197
Vnone
p324
Vamd64
p325
tp326
(dp327
Vparts
p328
(lp329
Vxen
p330
ass(Vimage
p331
g286
NVsparc64-smp
p332
tp333
(dp334
Vconfigs
p335
(lp336
Vkernelarch-sparc/config-smp
p337
ass(Vdescription
p338
g40
NValpha-smp
p339
tp340
(dp341
Vhardware
p342
VAlpha SMP
p343
sVhardware-long
p344
VDEC Alpha SMP systems with extended kernel start address (Wildfire, Titan, Marvel)
p345
ss(Vdescription
p346
g62
NV5kc-malta
p347
tp348
(dp349
Vhardware
p350
VMIPS Malta
p351
sVhardware-long
p352
VMIPS Malta boards
p353
ss(Vbase
p354
Vx32
p355
tp356
(dp357
Vkernel-arch
p358
Vx86
p359
sVfeaturesets
p360
(lp361
ss(Vdescription
p362
g14
NVloongson-3
p363
tp364
(dp365
Vhardware
p366
VLoongson 3A/3B
p367
sVhardware-long
p368
VLoongson 3A or 3B based systems (e.g. from Loongson or Lemote)
p369
ss(Vbase
p370
g31
tp371
(dp372
Vfeaturesets
p373
(lp374
Vnone
p375
aVrt
p376
asVkernel-arch
p377
Vx86
p378
ss(g142
g14
g12
tp379
(dp380
g146
(lp381
V5kc-malta
p382
aVloongson-3
p383
aVocteon
p384
asg150
I01
ss(Vdescription
p385
g152
NVloongson-3
p386
tp387
(dp388
Vhardware
p389
VLoongson 3A/3B
p390
sVhardware-long
p391
VLoongson 3A or 3B based systems (e.g. from Loongson or Lemote)
p392
ss(Vimage
p393
g62
tp394
(dp395
Vinstall-stem
p396
Vvmlinux
p397
ss(Vdescription
p398
g62
NVocteon
p399
tp400
(dp401
Vhardware
p402
VOcteon
p403
sVhardware-long
p404
VCavium Networks Octeon
p405
ss(Vimage
p406
g161
tp407
(dp408
Vsuggests
p409
Vvmelilo, fdutils
p410
sVinstall-stem
p411
Vvmlinuz
p412
ss(Vbase
p413
g286
tp414
(dp415
Vkernel-arch
p416
Vsparc
p417
sg10
(lp418
g12
ass(Vimage
p419
g22
NVocteon
p420
tp421
(dp422
Vconfigs
p423
(lp424
Vkernelarch-mips/config.octeon
p425
ass(Vimage
p426
g5
tp427
(dp428
Vconfigs
p429
(lp430
sVsuggests
p431
Vmkvmlinuz
p432
sVinstall-stem
p433
Vvmlinux
p434
ss(Vdescription
p435
g31
NV686-pae
p436
tp437
(dp438
Vparts
p439
(lp440
Vpae
p441
asVhardware
p442
Vmodern PCs
p443
sVhardware-long
p444
VPCs with one or more processors supporting PAE
p445
ss(Vdescription
p446
g5
NVpowerpc64le
p447
tp448
(dp449
Vhardware
p450
VLittle-endian 64-bit PowerPC
p451
ss(Vimage
p452
g112
tp453
(dp454
Vinstall-stem
p455
Vvmlinuz
p456
ss(Vabi
p457
g143
tp458
(dp459
Vignore-changes
p460
(lp461
Vmodule:drivers/gpu/drm/imx/*
p462
ass(Vdescription
p463
g40
NValpha-generic
p464
tp465
(dp466
Vhardware
p467
VAlpha
p468
sVhardware-long
p469
VDEC Alpha systems with extended kernel start address (Wildfire, Titan, Marvel)
p470
ss(Vdescription
p471
g152
NVocteon
p472
tp473
(dp474
Vhardware
p475
VOcteon
p476
sVhardware-long
p477
VCavium Networks Octeon
p478
ss(Vdescription
p479
NVrt
p480
tp481
(dp482
Vparts
p483
(lp484
Vrt
p485
asVpart-long-rt
p486
VThis kernel includes the PREEMPT_RT realtime patch set.
p487
sVpart-short-rt
p488
VPREEMPT_RT
p489
ss(Vimage
p490
g112
NVsh7785lcr
p491
tp492
(dp493
Vrecommends
p494
Vu-boot-tools
p495
sVcheck-size
p496
L4194304L
ss(g142
g62
g12
tp497
(dp498
g146
(lp499
V5kc-malta
p500
aVocteon
p501
asg150
I01
ss(Vdescription
p502
g197
NVamd64
p503
tp504
(dp505
Vhardware
p506
V64-bit PCs
p507
sVhardware-long
p508
VPCs with AMD64, Intel 64 or VIA Nano processors
p509
ss(Vdescription
p510
g14
NV5kc-malta
p511
tp512
(dp513
Vhardware
p514
VMIPS Malta
p515
sVhardware-long
p516
VMIPS Malta boards
p517
ss(Vbase
p518
g112
tp519
(dp520
Vkernel-arch
p521
Vsh
p522
sg10
(lp523
g12
ass(Vabi
p524
g152
tp525
(dp526
Vignore-changes
p527
(lp528
V__flush_icache_page
p529
ass(Vbase
p530
g103
tp531
(dp532
Vkernel-arch
p533
Vparisc
p534
sg10
(lp535
g12
ass(Vbase
p536
g143
tp537
(dp538
Vkernel-arch
p539
Varm
p540
sg10
(lp541
g12
ass(Vbuild
p542
g62
tp543
(dp544
Vimage-file
p545
Vvmlinux
p546
sVsigned-modules
p547
I00
ss(Vbuild
p548
g161
tp549
(dp550
Vimage-file
p551
Vvmlinux.gz
p552
sVsigned-modules
p553
I00
ss(Vimage
p554
g286
NVsparc64
p555
tp556
(dp557
Vconfigs
p558
(lp559
Vkernelarch-sparc/config-up
p560
ass(Vimage
p561
g22
tp562
(dp563
Vinstall-stem
p564
Vvmlinux
p565
ss(Vbase
p566
Vs390
p567
tp568
(dp569
Vkernel-arch
p570
Vs390
p571
sVfeaturesets
p572
(lp573
ss(Vrelations
p574
g103
tp575
(dp576
Vgcc-5
p577
Vgcc-5 <!stage1>, binutils-hppa64-linux-gnu <!stage1>, gcc-5-hppa64-linux-gnu <!stage1>
p578
ss(Vbase
p579
g197
g324
tp580
(dp581
Vflavours
p582
(lp583
Vamd64
p584
ass(Vbase
p585
g191
tp586
(dp587
Vkernel-arch
p588
Vpowerpc
p589
sg10
(lp590
g12
ass(Vdescription
p591
g152
NV4kc-malta
p592
tp593
(dp594
Vhardware
p595
VMIPS Malta
p596
sVhardware-long
p597
VMIPS Malta boards
p598
ss(Vdescription
p599
g112
NVsh7785lcr
p600
tp601
(dp602
Vhardware
p603
Vsh7785lcr
p604
sVhardware-long
p605
VRenesas SH7785 reference board
p606
ss(Vdescription
p607
g31
tp608
(dp609
Vpart-long-pae
p610
VThis kernel requires PAE (Physical Address Extension).\u000aThis feature is supported by the Intel Pentium Pro/II/III/4/4M/D, Xeon,\u000aCore and Atom; AMD Geode NX, Athlon (K7), Duron, Opteron, Sempron,\u000aTurion or Phenom; Transmeta Efficeon; VIA C7; and some other processors.
p611
ss(Vdescription
p612
g136
NVpowerpc64
p613
tp614
(dp615
Vhardware
p616
V64-bit PowerPC
p617
ss(g142
g5
g12
tp618
(dp619
g146
(lp620
Vpowerpc64le
p621
asg150
I01
ss(Vimage
p622
g22
NV4kc-malta
p623
tp624
(dp625
Vconfigs
p626
(lp627
Vkernelarch-mips/config.malta
p628
aVkernelarch-mips/config.mips32r2
p629
ass(Vbuild
p630
g136
tp631
(dp632
Vimage-file
p633
Vvmlinux
p634
sVvdso
p635
I01
ss(Vdescription
p636
g31
NV686
p637
tp638
(dp639
Vhardware
p640
Volder PCs
p641
sVhardware-long
p642
VPCs with one or more processors not supporting PAE
p643
ss(Vbuild
p644
g40
tp645
(dp646
Vimage-file
p647
Varch/alpha/boot/vmlinux.gz
p648
sVsigned-modules
p649
I00
ss(Vimage
p650
g103
tp651
(dp652
Vsuggests
p653
Vpalo
p654
sVinstall-stem
p655
Vvmlinux
p656
ss(Vbuild
p657
g53
NVmarvell
p658
tp659
(dp660
Vsigned-modules
p661
I00
ss(Vbase
p662
Vmipsn32
p663
tp664
(dp665
Vkernel-arch
p666
Vmips
p667
sVfeaturesets
p668
(lp669
ss(Vimage
p670
g152
tp671
(dp672
Vinstall-stem
p673
Vvmlinux
p674
ss(Vimage
p675
g136
NVpowerpc-smp
p676
tp677
(dp678
Vconfigs
p679
(lp680
Vpowerpc/config.powerpc
p681
aVpowerpc/config.powerpc-smp
p682
ass(Vabi
p683
g22
tp684
(dp685
Vignore-changes
p686
(lp687
V__flush_icache_page
p688
ass(Vbuild
p689
tp690
(dp691
Vsigned-modules
p692
I01
ss(Vbase
p693
g40
tp694
(dp695
Vkernel-arch
p696
Valpha
p697
sg10
(lp698
g12
ass(Vbuild
p699
g77
tp700
(dp701
Vimage-file
p702
Varch/s390/boot/image
p703
sVvdso
p704
I01
ss(Vbuild
p705
g103
tp706
(dp707
Vimage-file
p708
Vvmlinux
p709
sVsigned-modules
p710
I00
ss(Vbuild
p711
g191
tp712
(dp713
Vimage-file
p714
Vvmlinux
p715
sVsigned-modules
p716
I00
sVvdso
p717
I01
ss(Vimage
p718
g191
tp719
(dp720
Vconfigs
p721
(lp722
sVsuggests
p723
Vmkvmlinuz
p724
sVinstall-stem
p725
Vvmlinux
p726
ss(Vbuild
p727
g22
tp728
(dp729
Vimage-file
p730
Vvmlinux
p731
sVsigned-modules
p732
I00
ss(Vbase
p733
g31
Vrt
p734
tp735
(dp736
Vflavours
p737
(lp738
V686-pae
p739
ass(Vimage
p740
g14
NV5kc-malta
p741
tp742
(dp743
Vconfigs
p744
(lp745
Vkernelarch-mips/config.malta
p746
aVkernelarch-mips/config.mips64r2
p747
ass(Vimage
p748
g152
NV4kc-malta
p749
tp750
(dp751
Vconfigs
p752
(lp753
Vkernelarch-mips/config.malta
p754
aVkernelarch-mips/config.mips32r1
p755
ass(Vbase
p756
Vtilegx
p757
tp758
(dp759
Vkernel-arch
p760
Vtile
p761
sVfeaturesets
p762
(lp763
ss(Vbase
p764
g48
tp765
(dp766
Vkernel-arch
p767
Varm64
p768
sVfeaturesets
p769
(lp770
Vnone
p771
ass(Vdescription
p772
g286
NVsparc64-smp
p773
tp774
(dp775
Vhardware
p776
Vmultiprocessor 64-bit UltraSPARC
p777
ss(g142
g112
g12
tp778
(dp779
g146
(lp780
Vsh7751r
p781
aVsh7785lcr
p782
asg150
I01
ss(Vbuild
p783
g77
NVs390x
p784
tp785
(dp786
Vdebug-info
p787
I01
ss(Vbuild
p788
g197
tp789
(dp790
Vimage-file
p791
Varch/x86/boot/bzImage
p792
sVdebug-info
p793
I01
sVvdso
p794
I01
ss(Vdescription
p795
g286
NVsparc64
p796
tp797
(dp798
Vhardware
p799
Vuniprocessor 64-bit UltraSPARC
p800
ss(Vabi
p801
tp802
(dp803
Vabiname
p804
V1
p805
sVignore-changes
p806
(lp807
Vmodule:drivers/net/wireless/realtek/rtlwifi/*
p808
aVmodule:net/switchdev/*
p809
aVxt_compat_match_from_user
p810
ass(Vimage
p811
g136
NVpowerpc64
p812
tp813
(dp814
Vconfigs
p815
(lp816
Vkernelarch-powerpc/config-arch-64
p817
aVkernelarch-powerpc/config-arch-64-be
p818
ass(Vbase
p819
tp820
(dp821
Vfeaturesets
p822
(lp823
Vnone
p824
aVrt
p825
asVcompiler
p826
Vgcc-5
p827
sVarches
p828
(lp829
Valpha
p830
aVamd64
p831
aVarm64
p832
aVarmel
p833
aVarmhf
p834
aVhppa
p835
aVi386
p836
aVm68k
p837
aVmips
p838
aVmipsel
p839
aVmipsn32
p840
aVmipsn32el
p841
aVmips64
p842
aVmips64el
p843
aVor1k
p844
aVpowerpc
p845
aVpowerpcspe
p846
aVppc64
p847
aVppc64el
p848
aVs390
p849
aVs390x
p850
aVsh4
p851
aVsparc
p852
aVsparc64
p853
aVtilegx
p854
aVx32
p855
ass(Vimage
p856
g48
tp857
(dp858
Vinstall-stem
p859
Vvmlinuz
p860
ss(Vbuild
p861
g86
tp862
(dp863
Vimage-file
p864
Vvmlinux
p865
sVsigned-modules
p866
I00
sVvdso
p867
I01
ss(Vimage
p868
g62
NV5kc-malta
p869
tp870
(dp871
Vconfigs
p872
(lp873
Vkernelarch-mips/config.malta
p874
aVkernelarch-mips/config.mips64r2
p875
ass(Vdescription
p876
g152
NV5kc-malta
p877
tp878
(dp879
Vhardware
p880
VMIPS Malta (64-bit)
p881
sVhardware-long
p882
VMIPS Malta boards (64-bit)
p883
ss(Vabi
p884
g14
tp885
(dp886
Vignore-changes
p887
(lp888
V__flush_icache_page
p889
ass(Vbase
p890
g197
tp891
(dp892
Vfeaturesets
p893
(lp894
Vnone
p895
aVrt
p896
asVkernel-arch
p897
Vx86
p898
ss(Vbase
p899
g48
Vnone
p900
tp901
(dp902
Vflavours
p903
(lp904
Varm64
p905
ass(g142
g152
g12
tp906
(dp907
g146
(lp908
V4kc-malta
p909
aV5kc-malta
p910
aVloongson-2e
p911
aVloongson-2f
p912
aVloongson-3
p913
aVocteon
p914
asg150
I01
ss(Vxen
p915
g197
g324
Vamd64
p916
tp917
(dp918
Vflavours
p919
(lp920
Vamd64
p921
ass(Vbase
p922
Vor1k
p923
tp924
(dp925
Vkernel-arch
p926
Vopenrisc
p927
sVfeaturesets
p928
(lp929
ss(Vimage
p930
g53
NVmarvell
p931
tp932
(dp933
Vcheck-size-with-dtb
p934
I01
sVrecommends
p935
Vu-boot-tools
p936
sVcheck-size
p937
L2097080L
sVbreaks
p938
Vflash-kernel (<< 3.57~)
p939
ss(Vbuild
p940
g53
tp941
(dp942
Vimage-file
p943
Varch/arm/boot/zImage
p944
ss(Vbase
p945
g22
tp946
(dp947
Vkernel-arch
p948
Vmips
p949
sg10
(lp950
g12
ass(Vbase
p951
g86
tp952
(dp953
Vkernel-arch
p954
Vpowerpc
p955
sg10
(lp956
g12
ass(g142
g53
g12
tp957
(dp958
g146
(lp959
Vmarvell
p960
aVversatile
p961
asg150
I01
ss(g142
g286
g12
tp962
(dp963
g146
(lp964
Vsparc64
p965
aVsparc64-smp
p966
asg150
I01
ss(Vdescription
p967
g48
NVarm64
p968
tp969
(dp970
Vhardware
p971
V64-bit ARMv8 machines
p972
ss(Vdescription
p973
g22
NVocteon
p974
tp975
(dp976
Vhardware
p977
VOcteon
p978
sVhardware-long
p979
VCavium Networks Octeon
p980
ss(Vdescription
p981
g77
NVs390x
p982
tp983
(dp984
Vhardware
p985
VIBM zSeries
p986
ss(Vbuild
p987
g31
NV686-pae
p988
tp989
(dp990
Vdebug-info
p991
I01
ss(Vdescription
p992
g143
NVarmmp
p993
tp994
(dp995
Vhardware
p996
VARMv7 multiplatform compatible SoCs
p997
sVhardware-long
p998
VARMv7 multiplatform kernel. See\u000ahttps://wiki.debian.org/DebianKernel/ARMMP for details of supported\u000aplatforms
p999
ss(Vbase
p1000
g197
Vrt
p1001
tp1002
(dp1003
Vflavours
p1004
(lp1005
Vamd64
p1006
ass(Vversion
p1007
tp1008
(dp1009
Vabiname
p1010
V4.6.0-1
p1011
sVsource
p1012
V4.6.4-1
p1013
sVabiname_base
p1014
V4.6.0
p1015
sVupstream
p1016
V4.6
p1017
ss(Vimage
p1018
g53
tp1019
(dp1020
Vinstall-stem
p1021
Vvmlinuz
p1022
ss(Vbase
p1023
g152
tp1024
(dp1025
Vkernel-arch
p1026
Vmips
p1027
sg10
(lp1028
g12
ass(g142
g103
g12
tp1029
(dp1030
g146
(lp1031
Vparisc
p1032
aVparisc64-smp
p1033
asg150
I01
ss(Vdescription
p1034
g143
NVarmmp-lpae
p1035
tp1036
(dp1037
Vhardware
p1038
VARMv7 multiplatform compatible SoCs supporting LPAE
p1039
sVhardware-long
p1040
VARMv7 multiplatform kernel supporting LPAE. See\u000ahttps://wiki.debian.org/DebianKernel/ARMMP for details of supported\u000aplatforms.
p1041
ss(Vimage
p1042
g152
NVloongson-3
p1043
tp1044
(dp1045
Vconfigs
p1046
(lp1047
Vkernelarch-mips/config.loongson-3
p1048
ass(Vimage
p1049
g14
tp1050
(dp1051
Vinstall-stem
p1052
Vvmlinux
p1053
ss(Vbuild
p1054
g48
tp1055
(dp1056
Vimage-file
p1057
Varch/arm64/boot/Image
p1058
sVdebug-info
p1059
I01
sVvdso
p1060
I01
ss(g142
g86
g12
tp1061
(dp1062
g146
(lp1063
Vpowerpcspe
p1064
asg150
I01
ss(Vimage
p1065
g31
tp1066
(dp1067
Vbreaks
p1068
Vxserver-xorg-input-vmmouse (<< 1:13.0.99)
p1069
sVinstall-stem
p1070
Vvmlinuz
p1071
sVbootloaders
p1072
(lp1073
Vgrub-pc
p1074
aVextlinux
p1075
ass(Vbuild
p1076
g112
tp1077
(dp1078
Vimage-file
p1079
Varch/sh/boot/zImage
p1080
sVsigned-modules
p1081
I00
ss(Vrelations
p1082
g143
tp1083
(dp1084
Vheaders%gcc-5
p1085
Vlinux-compiler-gcc-5-arm
p1086
ss(Vdescription
p1087
g22
NV5kc-malta
p1088
tp1089
(dp1090
Vhardware
p1091
VMIPS Malta (64-bit)
p1092
sVhardware-long
p1093
VMIPS Malta boards (64-bit)
p1094
ss(Vbase
p1095
Vsparc
p1096
tp1097
(dp1098
Vkernel-arch
p1099
Vsparc
p1100
sVfeaturesets
p1101
(lp1102
ss(Vimage
p1103
g22
NV5kc-malta
p1104
tp1105
(dp1106
Vconfigs
p1107
(lp1108
Vkernelarch-mips/config.malta
p1109
aVkernelarch-mips/config.mips64r2
p1110
ass(g142
g77
g12
tp1111
(dp1112
g146
(lp1113
Vs390x
p1114
asg150
I01
ss(Vimage
p1115
g152
NVloongson-2e
p1116
tp1117
(dp1118
Vconfigs
p1119
(lp1120
Vkernelarch-mips/config.loongson-2e
p1121
ass(Vabi
p1122
Ng480
tp1123
(dp1124
Vignore-changes
p1125
(lp1126
V*
p1127
ass(Vbuild
p1128
g5
tp1129
(dp1130
Vimage-file
p1131
Vvmlinux
p1132
sVvdso
p1133
I01
ss(Vbase
p1134
Vmipsn32el
p1135
tp1136
(dp1137
Vkernel-arch
p1138
Vmips
p1139
sVfeaturesets
p1140
(lp1141
ss(g142
g40
g12
tp1142
(dp1143
g146
(lp1144
Valpha-generic
p1145
aValpha-smp
p1146
asg150
I01
ss(Vbuild
p1147
g152
tp1148
(dp1149
Vimage-file
p1150
Vvmlinux
p1151
sVsigned-modules
p1152
I00
ss(Vdescription
p1153
g103
NVparisc64-smp
p1154
tp1155
(dp1156
Vhardware
p1157
Vmultiprocessor 64-bit PA-RISC
p1158
sVhardware-long
p1159
VHP PA-RISC 64-bit SMP systems with support for more than 4 GB RAM
p1160
ss(Vrelations
p1161
g53
tp1162
(dp1163
Vheaders%gcc-5
p1164
Vlinux-compiler-gcc-5-arm
p1165
ss(Vdescription
p1166
g152
NVloongson-2e
p1167
tp1168
(dp1169
Vhardware
p1170
VLoongson 2E
p1171
sVhardware-long
p1172
VLemote Loongson 2E systems
p1173
ss(g142
g136
g12
tp1174
(dp1175
g146
(lp1176
Vpowerpc
p1177
aVpowerpc-smp
p1178
aVpowerpc64
p1179
asg150
I01
ss(Vdescription
p1180
g161
NVm68k
p1181
tp1182
(dp1183
Vhardware
p1184
VMotorola MC68020+ family
p1185
ss(Vbuild
p1186
g286
tp1187
(dp1188
Vimage-file
p1189
Varch/sparc/boot/zImage
p1190
sVsigned-modules
p1191
I00
ss(Vimage
p1192
g191
NVpowerpc64
p1193
tp1194
(dp1195
Vconfigs
p1196
(lp1197
Vkernelarch-powerpc/config-arch-64
p1198
aVkernelarch-powerpc/config-arch-64-be
p1199
ass(Vdescription
p1200
g14
NVocteon
p1201
tp1202
(dp1203
Vhardware
p1204
VOcteon
p1205
sVhardware-long
p1206
VCavium Networks Octeon
p1207
ss(Vbuild
p1208
g14
tp1209
(dp1210
Vimage-file
p1211
Vvmlinux
p1212
sVsigned-modules
p1213
I00
ss(Vbase
p1214
g62
tp1215
(dp1216
Vkernel-arch
p1217
Vmips
p1218
sg10
(lp1219
g12
ass(Vbase
p1220
g77
tp1221
(dp1222
Vkernel-arch
p1223
Vs390
p1224
sg10
(lp1225
g12
ass(Vimage
p1226
g143
tp1227
(dp1228
Vinstall-stem
p1229
Vvmlinuz
p1230
ss(Vbuild
p1231
g143
tp1232
(dp1233
Vimage-file
p1234
Varch/arm/boot/zImage
p1235
sVvdso
p1236
I01
ss(Vimage
p1237
g5
NVpowerpc64le
p1238
tp1239
(dp1240
Vconfigs
p1241
(lp1242
Vkernelarch-powerpc/config-arch-64
p1243
aVkernelarch-powerpc/config-arch-64-le
p1244
asstp1245
Rp1246
.