cdebian_linux.config
ConfigCore
p0
(tRp1
(Vbase
p2
tp3
(dp4
Varches
p5
(lp6
Valpha
p7
aVamd64
p8
aVarm64
p9
aVarmel
p10
aVarmhf
p11
aVhppa
p12
aVi386
p13
aVm68k
p14
aVmips
p15
aVmipsel
p16
aVmipsn32
p17
aVmipsn32el
p18
aVmips64
p19
aVmips64el
p20
aVpowerpc
p21
aVpowerpcspe
p22
aVppc64
p23
aVppc64el
p24
aVs390
p25
aVs390x
p26
aVsh3
p27
aVsh4
p28
aVsparc
p29
aVsparc64
p30
aVtilegx
p31
aVx32
p32
asVfeaturesets
p33
(lp34
Vnone
p35
aVrt
p36
asVcompiler
p37
Vgcc-6
p38
ss(Vbuild
p39
tp40
(dp41
Vsigned-modules
p42
I01
sVdebug-info
p43
I01
ss(Vbase
p44
NVrt
p45
tp46
(dp47
Venabled
p48
I01
ss(Vdescription
p49
tp50
(dp51
Vpart-long-up
p52
VThis kernel is not suitable for SMP (multi-processor,\u000amulti-core or hyper-threaded) systems.
p53
sVpart-long-xen
p54
VThis kernel also runs on a Xen hypervisor.\u000aIt supports both privileged (dom0) and unprivileged (domU) operation.
p55
ss(Vrelations
p56
tp57
(dp58
Vinitramfs-tools
p59
Vinitramfs-tools (>= 0.120+deb8u2)
p60
sVgcc-6
p61
Vgcc-6 <!stage1 !cross>, gcc-6-@gnu-type-package@:native <!stage1 cross>
p62
sVinitramfs-fallback
p63
Vlinux-initramfs-tool
p64
ss(Vimage
p65
tp66
(dp67
Vinitramfs-generators
p68
(lp69
Vinitramfs-tools
p70
aVinitramfs-fallback
p71
ass(Vabi
p72
tp73
(dp74
Vabiname
p75
Vkali2
p76
sVignore-changes
p77
(lp78
V__cpuhp_*
p79
aVmodule:drivers/iio/common/st_sensors/**
p80
aVmodule:drivers/net/wireless/**
p81
aVmodule:drivers/power/supply/bq27xxx_battery
p82
aVmodule:drivers/usb/host/**
p83
aVmodule:drivers/usb/musb/**
p84
aVmodule:net/ceph/libceph
p85
aVbtree_*
p86
aVvisitor*
p87
ass(Vbase
p88
Valpha
p89
tp90
(dp91
Vfeaturesets
p92
(lp93
Vnone
p94
asVkernel-arch
p95
Valpha
p96
ss(Vdescription
p97
g89
NValpha-smp
p98
tp99
(dp100
Vhardware
p101
VAlpha SMP
p102
sVhardware-long
p103
VDEC Alpha SMP systems with extended kernel start address (Wildfire, Titan, Marvel)
p104
ss(Vbuild
p105
g89
tp106
(dp107
Vsigned-modules
p108
I00
sVimage-file
p109
Varch/alpha/boot/vmlinux.gz
p110
ss(Vdescription
p111
g89
NValpha-generic
p112
tp113
(dp114
Vhardware
p115
VAlpha
p116
sVhardware-long
p117
VDEC Alpha systems with extended kernel start address (Wildfire, Titan, Marvel)
p118
ss(Vimage
p119
g89
tp120
(dp121
Vsuggests
p122
Vaboot, fdutils
p123
sVinstall-stem
p124
Vvmlinuz
p125
ss(Vbase
p126
g89
g94
tp127
(dp128
Vflavours
p129
(lp130
Valpha-generic
p131
aValpha-smp
p132
asVimplicit-flavour
p133
I01
ss(Vbase
p134
Vamd64
p135
tp136
(dp137
Vfeaturesets
p138
(lp139
Vnone
p140
aVrt
p141
asVkernel-arch
p142
Vx86
p143
ss(Vdescription
p144
g135
NVamd64
p145
tp146
(dp147
Vhardware
p148
V64-bit PCs
p149
sVhardware-long
p150
VPCs with AMD64, Intel 64 or VIA Nano processors
p151
ss(Vbuild
p152
g135
tp153
(dp154
Vvdso
p155
I01
sVimage-file
p156
Varch/x86/boot/bzImage
p157
sVdebug-info
p158
I01
sVsigned-modules
p159
I00
ss(Vrelations
p160
g135
tp161
(dp162
Vheaders%gcc-6
p163
Vlinux-compiler-gcc-6-x86
p164
ss(Vimage
p165
g135
tp166
(dp167
Vbreaks
p168
Vxserver-xorg-input-vmmouse (<< 1:13.0.99)
p169
sVinstall-stem
p170
Vvmlinuz
p171
sVbootloaders
p172
(lp173
Vgrub-pc
p174
aVgrub-efi-amd64
p175
aVextlinux
p176
ass(Vbase
p177
g135
Vnone
p178
tp179
(dp180
Vflavours
p181
(lp182
Vamd64
p183
ass(Vdescription
p184
g135
g178
Vamd64
p185
tp186
(dp187
Vparts
p188
(lp189
Vxen
p190
ass(Vbase
p191
g135
Vrt
p192
tp193
(dp194
Vflavours
p195
(lp196
Vamd64
p197
ass(Vbase
p198
Varm64
p199
tp200
(dp201
Vfeaturesets
p202
(lp203
Vnone
p204
asVkernel-arch
p205
Varm64
p206
ss(Vdescription
p207
g199
NVarm64
p208
tp209
(dp210
Vhardware
p211
V64-bit ARMv8 machines
p212
ss(Vbuild
p213
g199
tp214
(dp215
Vvdso
p216
I01
sVimage-file
p217
Varch/arm64/boot/Image
p218
sVdebug-info
p219
I01
sVsigned-modules
p220
I00
ss(Vimage
p221
g199
NVarm64
p222
tp223
(dp224
s(Vimage
p225
g199
tp226
(dp227
Vbreaks
p228
Vlibmozjs185-1.0, libmozjs-24-0 (<< 24.2.0-5.1~)
p229
sVinstall-stem
p230
Vvmlinuz
p231
ss(Vbase
p232
g199
Vnone
p233
tp234
(dp235
Vflavours
p236
(lp237
Varm64
p238
ass(Vbase
p239
Varmel
p240
tp241
(dp242
g92
(lp243
g94
asVkernel-arch
p244
Varm
p245
ss(Vbuild
p246
g240
tp247
(dp248
Vsigned-modules
p249
I00
sVimage-file
p250
Varch/arm/boot/zImage
p251
ss(Vimage
p252
g240
NVmarvell
p253
tp254
(dp255
Vrecommends
p256
Vu-boot-tools
p257
sVbreaks
p258
Vflash-kernel (<< 3.57~)
p259
sVcheck-size-with-dtb
p260
I01
sVcheck-size
p261
L2097080L
ss(Vdescription
p262
g240
NVmarvell
p263
tp264
(dp265
Vhardware
p266
VMarvell Kirkwood/Orion
p267
sVhardware-long
p268
VMarvell Kirkwood based systems (SheevaPlug, QNAP TS-119/TS-219, etc)\u000aand Orion 5181, 5182 and 5281 based systems (QNAP TS-109/TS-209, etc)
p269
ss(Vrelations
p270
g240
tp271
(dp272
Vheaders%gcc-6
p273
Vlinux-compiler-gcc-6-arm
p274
ss(Vimage
p275
g240
tp276
(dp277
Vinstall-stem
p278
Vvmlinuz
p279
ss(g126
g240
g94
tp280
(dp281
g129
(lp282
Vmarvell
p283
asg133
I01
ss(Vbase
p284
Varmhf
p285
tp286
(dp287
g92
(lp288
g94
asVkernel-arch
p289
Varm
p290
ss(Vdescription
p291
g285
NVarmmp
p292
tp293
(dp294
Vhardware
p295
VARMv7 multiplatform compatible SoCs
p296
sVhardware-long
p297
VARMv7 multiplatform kernel. See\u000ahttps://wiki.debian.org/DebianKernel/ARMMP for details of supported\u000aplatforms
p298
ss(Vbuild
p299
g285
tp300
(dp301
Vvdso
p302
I01
sVimage-file
p303
Varch/arm/boot/zImage
p304
sVsigned-modules
p305
I00
ss(Vdescription
p306
g285
NVarmmp-lpae
p307
tp308
(dp309
Vhardware
p310
VARMv7 multiplatform compatible SoCs supporting LPAE
p311
sVhardware-long
p312
VARMv7 multiplatform kernel supporting LPAE. See\u000ahttps://wiki.debian.org/DebianKernel/ARMMP for details of supported\u000aplatforms.
p313
ss(Vrelations
p314
g285
tp315
(dp316
Vheaders%gcc-6
p317
Vlinux-compiler-gcc-6-arm
p318
ss(Vimage
p319
g285
tp320
(dp321
Vinstall-stem
p322
Vvmlinuz
p323
ss(g126
g285
g94
tp324
(dp325
g129
(lp326
Varmmp
p327
aVarmmp-lpae
p328
asg133
I01
ss(Vbase
p329
Vhppa
p330
tp331
(dp332
g92
(lp333
g94
asVkernel-arch
p334
Vparisc
p335
ss(Vbuild
p336
g330
tp337
(dp338
Vsigned-modules
p339
I00
sVimage-file
p340
Vvmlinux
p341
ss(Vdescription
p342
g330
NVparisc64-smp
p343
tp344
(dp345
Vhardware
p346
Vmultiprocessor 64-bit PA-RISC
p347
sVhardware-long
p348
VHP PA-RISC 64-bit SMP systems with support for more than 4 GB RAM
p349
ss(Vbase
p350
g330
NVparisc64-smp
p351
tp352
(dp353
Vcflags
p354
V-fno-cse-follow-jumps
p355
sVoverride-host-type
p356
Vhppa64-linux-gnu
p357
ss(Vrelations
p358
g330
tp359
(dp360
Vgcc-6
p361
Vgcc-6 <!stage1 !cross>, binutils-hppa64-linux-gnu <!stage1 !cross>, gcc-6-hppa64-linux-gnu <!stage1 !cross>, gcc-6-hppa-linux-gnu:native <!stage1 cross>, binutils-hppa64-linux-gnu:native <!stage1 cross>, gcc-6-hppa64-linux-gnu:native <!stage1 cross>
p362
ss(Vdescription
p363
g330
NVparisc
p364
tp365
(dp366
Vhardware
p367
V32-bit PA-RISC
p368
sVhardware-long
p369
VHP PA-RISC 32-bit systems with max 4 GB RAM
p370
ss(Vimage
p371
g330
tp372
(dp373
Vsuggests
p374
Vpalo
p375
sVinstall-stem
p376
Vvmlinux
p377
ss(g126
g330
g94
tp378
(dp379
g129
(lp380
Vparisc
p381
aVparisc64-smp
p382
asg133
I01
ss(Vbase
p383
Vi386
p384
tp385
(dp386
Vfeaturesets
p387
(lp388
Vnone
p389
aVrt
p390
asVkernel-arch
p391
Vx86
p392
ss(Vbuild
p393
g384
tp394
(dp395
Vvdso
p396
I01
sVimage-file
p397
Varch/x86/boot/bzImage
p398
sVsigned-modules
p399
I00
ss(Vdescription
p400
g384
NV686-pae
p401
tp402
(dp403
Vhardware
p404
Vmodern PCs
p405
sVhardware-long
p406
VPCs with one or more processors supporting PAE
p407
sVparts
p408
(lp409
Vpae
p410
ass(Vdescription
p411
g384
tp412
(dp413
Vpart-long-pae
p414
VThis kernel requires PAE (Physical Address Extension).\u000aThis feature is supported by the Intel Pentium Pro/II/III/4/4M/D, Xeon,\u000aCore and Atom; AMD Geode NX, Athlon (K7), Duron, Opteron, Sempron,\u000aTurion or Phenom; Transmeta Efficeon; VIA C7; and some other processors.
p415
ss(Vbuild
p416
g384
NV686-pae
p417
tp418
(dp419
Vdebug-info
p420
I01
ss(Vdescription
p421
g384
NV686
p422
tp423
(dp424
Vhardware
p425
Volder PCs
p426
sVhardware-long
p427
VPCs with one or more processors not supporting PAE
p428
ss(Vrelations
p429
g384
tp430
(dp431
Vheaders%gcc-6
p432
Vlinux-compiler-gcc-6-x86
p433
ss(Vimage
p434
g384
tp435
(dp436
Vbreaks
p437
Vxserver-xorg-input-vmmouse (<< 1:13.0.99)
p438
sVinstall-stem
p439
Vvmlinuz
p440
sVbootloaders
p441
(lp442
Vgrub-pc
p443
aVextlinux
p444
ass(Vbase
p445
g384
Vnone
p446
tp447
(dp448
Vflavours
p449
(lp450
V686
p451
aV686-pae
p452
ass(Vdescription
p453
g384
g446
V686-pae
p454
tp455
(dp456
Vparts
p457
(lp458
Vxen
p459
ass(Vbase
p460
g384
Vrt
p461
tp462
(dp463
Vflavours
p464
(lp465
V686-pae
p466
ass(Vbase
p467
Vm68k
p468
tp469
(dp470
Vcflags
p471
V-ffreestanding
p472
sg92
(lp473
g94
asVkernel-arch
p474
Vm68k
p475
ss(Vbuild
p476
g468
tp477
(dp478
Vsigned-modules
p479
I00
sVimage-file
p480
Vvmlinux.gz
p481
ss(Vdescription
p482
g468
NVm68k
p483
tp484
(dp485
Vhardware
p486
VMotorola MC68020+ family
p487
ss(Vimage
p488
g468
tp489
(dp490
Vsuggests
p491
Vvmelilo, fdutils
p492
sVinstall-stem
p493
Vvmlinuz
p494
ss(g126
g468
g94
tp495
(dp496
g129
(lp497
Vm68k
p498
asg133
I01
ss(Vbase
p499
Vmips
p500
tp501
(dp502
g92
(lp503
g94
asVkernel-arch
p504
Vmips
p505
ss(Vbuild
p506
g500
tp507
(dp508
Vsigned-modules
p509
I00
sVimage-file
p510
Vvmlinux
p511
ss(Vimage
p512
g500
NV4kc-malta
p513
tp514
(dp515
Vconfigs
p516
(lp517
Vkernelarch-mips/config.malta
p518
aVkernelarch-mips/config.mips32r2
p519
ass(Vimage
p520
g500
NV5kc-malta
p521
tp522
(dp523
Vconfigs
p524
(lp525
Vkernelarch-mips/config.malta
p526
aVkernelarch-mips/config.mips64r2
p527
ass(Vdescription
p528
g500
NVocteon
p529
tp530
(dp531
Vhardware
p532
VOcteon
p533
sVhardware-long
p534
VCavium Networks Octeon
p535
ss(Vimage
p536
g500
NVocteon
p537
tp538
(dp539
Vconfigs
p540
(lp541
Vkernelarch-mips/config.octeon
p542
ass(Vimage
p543
g500
tp544
(dp545
Vinstall-stem
p546
Vvmlinux
p547
ss(Vdescription
p548
g500
NV5kc-malta
p549
tp550
(dp551
Vhardware
p552
VMIPS Malta (64-bit)
p553
sVhardware-long
p554
VMIPS Malta boards (64-bit)
p555
ss(Vdescription
p556
g500
NV4kc-malta
p557
tp558
(dp559
Vhardware
p560
VMIPS Malta
p561
sVhardware-long
p562
VMIPS Malta boards
p563
ss(g126
g500
g94
tp564
(dp565
g129
(lp566
V4kc-malta
p567
aV5kc-malta
p568
aVocteon
p569
asg133
I01
ss(Vbase
p570
Vmipsel
p571
tp572
(dp573
g92
(lp574
g94
asVkernel-arch
p575
Vmips
p576
ss(Vimage
p577
g571
NVloongson-3
p578
tp579
(dp580
Vconfigs
p581
(lp582
Vkernelarch-mips/config.loongson-3
p583
ass(Vbuild
p584
g571
tp585
(dp586
Vsigned-modules
p587
I00
sVimage-file
p588
Vvmlinux
p589
ss(Vimage
p590
g571
NV4kc-malta
p591
tp592
(dp593
Vconfigs
p594
(lp595
Vkernelarch-mips/config.malta
p596
aVkernelarch-mips/config.mips32r2
p597
ass(Vimage
p598
g571
NV5kc-malta
p599
tp600
(dp601
Vconfigs
p602
(lp603
Vkernelarch-mips/config.malta
p604
aVkernelarch-mips/config.mips64r2
p605
ass(Vdescription
p606
g571
NVocteon
p607
tp608
(dp609
Vhardware
p610
VOcteon
p611
sVhardware-long
p612
VCavium Networks Octeon
p613
ss(Vdescription
p614
g571
NVloongson-3
p615
tp616
(dp617
Vhardware
p618
VLoongson 3A/3B
p619
sVhardware-long
p620
VLoongson 3A or 3B based systems (e.g. from Loongson or Lemote)
p621
ss(Vimage
p622
g571
NVocteon
p623
tp624
(dp625
Vconfigs
p626
(lp627
Vkernelarch-mips/config.octeon
p628
ass(Vimage
p629
g571
tp630
(dp631
Vinstall-stem
p632
Vvmlinux
p633
ss(Vdescription
p634
g571
NV5kc-malta
p635
tp636
(dp637
Vhardware
p638
VMIPS Malta (64-bit)
p639
sVhardware-long
p640
VMIPS Malta boards (64-bit)
p641
ss(Vdescription
p642
g571
NV4kc-malta
p643
tp644
(dp645
Vhardware
p646
VMIPS Malta
p647
sVhardware-long
p648
VMIPS Malta boards
p649
ss(g126
g571
g94
tp650
(dp651
g129
(lp652
V4kc-malta
p653
aV5kc-malta
p654
aVloongson-3
p655
aVocteon
p656
asg133
I01
ss(Vbase
p657
Vmipsn32
p658
tp659
(dp660
Vfeaturesets
p661
(lp662
sVkernel-arch
p663
Vmips
p664
ss(Vbase
p665
Vmipsn32el
p666
tp667
(dp668
Vfeaturesets
p669
(lp670
sVkernel-arch
p671
Vmips
p672
ss(Vbase
p673
Vmips64
p674
tp675
(dp676
g92
(lp677
g94
asVkernel-arch
p678
Vmips
p679
ss(Vbuild
p680
g674
tp681
(dp682
Vsigned-modules
p683
I00
sVimage-file
p684
Vvmlinux
p685
ss(Vimage
p686
g674
NV5kc-malta
p687
tp688
(dp689
Vconfigs
p690
(lp691
Vkernelarch-mips/config.malta
p692
aVkernelarch-mips/config.mips64r2
p693
ass(Vdescription
p694
g674
NVocteon
p695
tp696
(dp697
Vhardware
p698
VOcteon
p699
sVhardware-long
p700
VCavium Networks Octeon
p701
ss(Vimage
p702
g674
tp703
(dp704
Vinstall-stem
p705
Vvmlinux
p706
ss(Vdescription
p707
g674
NV5kc-malta
p708
tp709
(dp710
Vhardware
p711
VMIPS Malta
p712
sVhardware-long
p713
VMIPS Malta boards
p714
ss(Vimage
p715
g674
NVocteon
p716
tp717
(dp718
Vconfigs
p719
(lp720
Vkernelarch-mips/config.octeon
p721
ass(g126
g674
g94
tp722
(dp723
g129
(lp724
V5kc-malta
p725
aVocteon
p726
asg133
I01
ss(Vbase
p727
Vmips64el
p728
tp729
(dp730
g92
(lp731
g94
asVkernel-arch
p732
Vmips
p733
ss(Vimage
p734
g728
NVloongson-3
p735
tp736
(dp737
Vconfigs
p738
(lp739
Vkernelarch-mips/config.loongson-3
p740
ass(Vbuild
p741
g728
tp742
(dp743
Vsigned-modules
p744
I00
sVimage-file
p745
Vvmlinux
p746
ss(Vimage
p747
g728
NV5kc-malta
p748
tp749
(dp750
Vconfigs
p751
(lp752
Vkernelarch-mips/config.malta
p753
aVkernelarch-mips/config.mips64r2
p754
ass(Vdescription
p755
g728
NVocteon
p756
tp757
(dp758
Vhardware
p759
VOcteon
p760
sVhardware-long
p761
VCavium Networks Octeon
p762
ss(Vdescription
p763
g728
NVloongson-3
p764
tp765
(dp766
Vhardware
p767
VLoongson 3A/3B
p768
sVhardware-long
p769
VLoongson 3A or 3B based systems (e.g. from Loongson or Lemote)
p770
ss(Vimage
p771
g728
tp772
(dp773
Vinstall-stem
p774
Vvmlinux
p775
ss(Vdescription
p776
g728
NV5kc-malta
p777
tp778
(dp779
Vhardware
p780
VMIPS Malta
p781
sVhardware-long
p782
VMIPS Malta boards
p783
ss(Vimage
p784
g728
NVocteon
p785
tp786
(dp787
Vconfigs
p788
(lp789
Vkernelarch-mips/config.octeon
p790
ass(g126
g728
g94
tp791
(dp792
g129
(lp793
V5kc-malta
p794
aVloongson-3
p795
aVocteon
p796
asg133
I01
ss(Vbase
p797
Vpowerpc
p798
tp799
(dp800
g92
(lp801
g94
asVkernel-arch
p802
Vpowerpc
p803
ss(Vdescription
p804
g798
NVpowerpc64
p805
tp806
(dp807
Vhardware
p808
V64-bit PowerPC
p809
ss(Vbuild
p810
g798
tp811
(dp812
Vvdso
p813
I01
sVimage-file
p814
Vvmlinux
p815
ss(Vimage
p816
g798
NVpowerpc-smp
p817
tp818
(dp819
Vconfigs
p820
(lp821
Vpowerpc/config.powerpc
p822
aVpowerpc/config.powerpc-smp
p823
ass(Vdescription
p824
g798
NVpowerpc
p825
tp826
(dp827
Vhardware
p828
Vuniprocessor 32-bit PowerPC
p829
ss(Vimage
p830
g798
NVpowerpc64
p831
tp832
(dp833
Vconfigs
p834
(lp835
Vkernelarch-powerpc/config-arch-64
p836
aVkernelarch-powerpc/config-arch-64-be
p837
ass(Vdescription
p838
g798
NVpowerpc-smp
p839
tp840
(dp841
Vhardware
p842
Vmultiprocessor 32-bit PowerPC
p843
ss(Vimage
p844
g798
tp845
(dp846
Vsuggests
p847
Vmkvmlinuz
p848
sVinstall-stem
p849
Vvmlinux
p850
sVconfigs
p851
(lp852
ss(g126
g798
g94
tp853
(dp854
g129
(lp855
Vpowerpc
p856
aVpowerpc-smp
p857
aVpowerpc64
p858
asg133
I01
ss(Vbase
p859
Vpowerpcspe
p860
tp861
(dp862
g92
(lp863
g94
asVkernel-arch
p864
Vpowerpc
p865
ss(Vbuild
p866
g860
tp867
(dp868
Vsigned-modules
p869
I00
sVimage-file
p870
Vvmlinux
p871
sVvdso
p872
I01
ss(Vimage
p873
g860
tp874
(dp875
Vsuggests
p876
Vmkvmlinuz
p877
sVinstall-stem
p878
Vvmlinux
p879
ss(Vdescription
p880
g860
tp881
(dp882
Vhardware
p883
V32-bit PowerPC with SPE (instead of AltiVec) with SMP support
p884
ss(g126
g860
g94
tp885
(dp886
g129
(lp887
Vpowerpcspe
p888
asg133
I01
ss(Vbase
p889
Vppc64
p890
tp891
(dp892
g92
(lp893
g94
asVkernel-arch
p894
Vpowerpc
p895
ss(Vdescription
p896
g890
NVpowerpc64
p897
tp898
(dp899
Vhardware
p900
V64-bit PowerPC
p901
ss(Vbuild
p902
g890
tp903
(dp904
Vsigned-modules
p905
I00
sVimage-file
p906
Vvmlinux
p907
sVvdso
p908
I01
ss(Vimage
p909
g890
NVpowerpc64
p910
tp911
(dp912
Vconfigs
p913
(lp914
Vkernelarch-powerpc/config-arch-64
p915
aVkernelarch-powerpc/config-arch-64-be
p916
ass(Vimage
p917
g890
tp918
(dp919
Vsuggests
p920
Vmkvmlinuz
p921
sVinstall-stem
p922
Vvmlinux
p923
sVconfigs
p924
(lp925
ss(g126
g890
g94
tp926
(dp927
g129
(lp928
Vpowerpc64
p929
asg133
I01
ss(Vbase
p930
Vppc64el
p931
tp932
(dp933
g92
(lp934
g94
asVkernel-arch
p935
Vpowerpc
p936
ss(Vdescription
p937
g931
NVpowerpc64le
p938
tp939
(dp940
Vhardware
p941
VLittle-endian 64-bit PowerPC
p942
ss(Vbuild
p943
g931
tp944
(dp945
Vvdso
p946
I01
sVimage-file
p947
Vvmlinux
p948
ss(Vimage
p949
g931
tp950
(dp951
Vsuggests
p952
Vmkvmlinuz
p953
sVinstall-stem
p954
Vvmlinux
p955
sVconfigs
p956
(lp957
ss(Vimage
p958
g931
NVpowerpc64le
p959
tp960
(dp961
Vconfigs
p962
(lp963
Vkernelarch-powerpc/config-arch-64
p964
aVkernelarch-powerpc/config-arch-64-le
p965
ass(g126
g931
g94
tp966
(dp967
g129
(lp968
Vpowerpc64le
p969
asg133
I01
ss(Vbase
p970
Vs390
p971
tp972
(dp973
Vfeaturesets
p974
(lp975
sVkernel-arch
p976
Vs390
p977
ss(Vbase
p978
Vs390x
p979
tp980
(dp981
g92
(lp982
g94
asVkernel-arch
p983
Vs390
p984
ss(Vdescription
p985
g979
NVs390x
p986
tp987
(dp988
Vhardware
p989
VIBM zSeries
p990
ss(Vbuild
p991
g979
tp992
(dp993
Vvdso
p994
I01
sVimage-file
p995
Varch/s390/boot/image
p996
ss(Vbuild
p997
g979
NVs390x
p998
tp999
(dp1000
Vdebug-info
p1001
I01
ss(Vrelations
p1002
g979
tp1003
(dp1004
Vheaders%gcc-6
p1005
Vlinux-compiler-gcc-6-s390
p1006
ss(Vimage
p1007
g979
tp1008
(dp1009
Vinstall-stem
p1010
Vvmlinuz
p1011
sVbootloaders
p1012
(lp1013
Vs390-tools
p1014
ass(g126
g979
g94
tp1015
(dp1016
g129
(lp1017
Vs390x
p1018
asg133
I01
ss(Vbase
p1019
Vsh3
p1020
tp1021
(dp1022
Vfeaturesets
p1023
(lp1024
sVkernel-arch
p1025
Vsh
p1026
ss(Vbase
p1027
Vsh4
p1028
tp1029
(dp1030
g92
(lp1031
g94
asVkernel-arch
p1032
Vsh
p1033
ss(Vbuild
p1034
g1028
tp1035
(dp1036
Vsigned-modules
p1037
I00
sVimage-file
p1038
Varch/sh/boot/zImage
p1039
ss(Vdescription
p1040
g1028
NVsh7751r
p1041
tp1042
(dp1043
Vhardware
p1044
Vsh7751r
p1045
sVhardware-long
p1046
VRenesas SH7751R R2D plus board
p1047
ss(Vdescription
p1048
g1028
NVsh7785lcr
p1049
tp1050
(dp1051
Vhardware
p1052
Vsh7785lcr
p1053
sVhardware-long
p1054
VRenesas SH7785 reference board
p1055
ss(Vimage
p1056
g1028
tp1057
(dp1058
Vinstall-stem
p1059
Vvmlinuz
p1060
ss(Vimage
p1061
g1028
NVsh7785lcr
p1062
tp1063
(dp1064
Vrecommends
p1065
Vu-boot-tools
p1066
sVcheck-size
p1067
L4194304L
ss(g126
g1028
g94
tp1068
(dp1069
g129
(lp1070
Vsh7751r
p1071
aVsh7785lcr
p1072
asg133
I01
ss(Vbase
p1073
Vsparc
p1074
tp1075
(dp1076
Vfeaturesets
p1077
(lp1078
sVkernel-arch
p1079
Vsparc
p1080
ss(Vbase
p1081
Vsparc64
p1082
tp1083
(dp1084
g92
(lp1085
g94
asVkernel-arch
p1086
Vsparc
p1087
ss(Vbuild
p1088
g1082
tp1089
(dp1090
Vsigned-modules
p1091
I00
sVimage-file
p1092
Varch/sparc/boot/zImage
p1093
ss(Vimage
p1094
g1082
NVsparc64
p1095
tp1096
(dp1097
Vconfigs
p1098
(lp1099
Vkernelarch-sparc/config-up
p1100
ass(Vimage
p1101
g1082
NVsparc64-smp
p1102
tp1103
(dp1104
Vconfigs
p1105
(lp1106
Vkernelarch-sparc/config-smp
p1107
ass(Vimage
p1108
g1082
tp1109
(dp1110
Vsuggests
p1111
Vsilo, fdutils
p1112
sVinstall-stem
p1113
Vvmlinuz
p1114
sVconfigs
p1115
(lp1116
ss(Vdescription
p1117
g1082
NVsparc64-smp
p1118
tp1119
(dp1120
Vhardware
p1121
Vmultiprocessor 64-bit UltraSPARC
p1122
ss(Vdescription
p1123
g1082
NVsparc64
p1124
tp1125
(dp1126
Vhardware
p1127
Vuniprocessor 64-bit UltraSPARC
p1128
ss(g126
g1082
g94
tp1129
(dp1130
g129
(lp1131
Vsparc64
p1132
aVsparc64-smp
p1133
asg133
I01
ss(Vbase
p1134
Vtilegx
p1135
tp1136
(dp1137
Vfeaturesets
p1138
(lp1139
sVkernel-arch
p1140
Vtile
p1141
ss(Vbase
p1142
Vx32
p1143
tp1144
(dp1145
Vfeaturesets
p1146
(lp1147
sVkernel-arch
p1148
Vx86
p1149
ss(Vdescription
p1150
NVrt
p1151
tp1152
(dp1153
Vparts
p1154
(lp1155
Vrt
p1156
asVpart-long-rt
p1157
VThis kernel includes the PREEMPT_RT realtime patch set.
p1158
sVpart-short-rt
p1159
VPREEMPT_RT
p1160
ss(Vabi
p1161
Ng1151
tp1162
(dp1163
Vignore-changes
p1164
(lp1165
V*
p1166
ass(Vversion
p1167
tp1168
(dp1169
Vupstream
p1170
V4.9
p1171
sVsource
p1172
V4.9.10-1kali1
p1173
sVabiname
p1174
V4.9.0-kali2
p1175
sVabiname_base
p1176
V4.9.0
p1177
ss.