ccopy_reg
_reconstructor
p0
(cdebian_linux.config
ConfigCore
p1
c__builtin__
dict
p2
(dp3
(Vbase
p4
Vmips
p5
tp6
(dp7
Vkernel-arch
p8
Vmips
p9
sVfeaturesets
p10
(lp11
Vnone
p12
ass(Vbase
p13
Vhppa
p14
NVparisc64-smp
p15
tp16
(dp17
Vcflags
p18
V-fno-cse-follow-jumps
p19
sVoverride-host-type
p20
Vhppa64-linux-gnu
p21
ss(Vrelations
p22
Varmel
p23
tp24
(dp25
Vheaders%gcc-5
p26
Vlinux-compiler-gcc-5-arm
p27
ss(Vbase
p28
Vm68k
p29
g12
tp30
(dp31
Vimplicit-flavour
p32
I01
sVflavours
p33
(lp34
Vm68k
p35
ass(Vimage
p36
Vmipsel
p37
NV5kc-malta
p38
tp39
(dp40
Vconfigs
p41
(lp42
Vkernelarch-mips/config.malta
p43
aVkernelarch-mips/config.mips64r2
p44
ass(Vbuild
p45
Vs390x
p46
tp47
(dp48
Vvdso
p49
I01
sVimage-file
p50
Varch/s390/boot/image
p51
ss(Vbuild
p52
Vamd64
p53
tp54
(dp55
Vsigned-modules
p56
I00
sVdebug-info
p57
I01
sVvdso
p58
I01
sVimage-file
p59
Varch/x86/boot/bzImage
p60
ss(g28
g37
g12
tp61
(dp62
g32
I01
sg33
(lp63
V4kc-malta
p64
aV5kc-malta
p65
aVloongson-3
p66
aVocteon
p67
ass(Vbase
p68
Vsparc64
p69
tp70
(dp71
Vkernel-arch
p72
Vsparc
p73
sg10
(lp74
g12
ass(Vdescription
p75
Vi386
p76
NV686-pae
p77
tp78
(dp79
Vhardware-long
p80
VPCs with one or more processors supporting PAE
p81
sVparts
p82
(lp83
Vpae
p84
asVhardware
p85
Vmodern PCs
p86
ss(Vbuild
p87
Vpowerpc
p88
tp89
(dp90
Vvdso
p91
I01
sVimage-file
p92
Vvmlinux
p93
ss(g28
Varmhf
p94
g12
tp95
(dp96
g32
I01
sg33
(lp97
Varmmp
p98
aVarmmp-lpae
p99
ass(Vimage
p100
Varm64
p101
NVarm64
p102
tp103
(dp104
s(Vdescription
p105
g46
NVs390x
p106
tp107
(dp108
Vhardware
p109
VIBM zSeries
p110
ss(Vimage
p111
Vpowerpcspe
p112
tp113
(dp114
Vinstall-stem
p115
Vvmlinux
p116
sVsuggests
p117
Vmkvmlinuz
p118
ss(Vdescription
p119
g76
NV686
p120
tp121
(dp122
Vhardware-long
p123
VPCs with one or more processors not supporting PAE
p124
sVhardware
p125
Volder PCs
p126
ss(Vbuild
p127
Vmips64el
p128
tp129
(dp130
Vsigned-modules
p131
I00
sVimage-file
p132
Vvmlinux
p133
ss(g28
g46
g12
tp134
(dp135
g32
I01
sg33
(lp136
Vs390x
p137
ass(Vimage
p138
g88
NVpowerpc64
p139
tp140
(dp141
Vconfigs
p142
(lp143
Vkernelarch-powerpc/config-arch-64
p144
aVkernelarch-powerpc/config-arch-64-be
p145
ass(Vimage
p146
g37
NVocteon
p147
tp148
(dp149
Vconfigs
p150
(lp151
Vkernelarch-mips/config.octeon
p152
ass(Vimage
p153
g23
NVmarvell
p154
tp155
(dp156
Vbreaks
p157
Vflash-kernel (<< 3.57~)
p158
sVrecommends
p159
Vu-boot-tools
p160
sVcheck-size
p161
L2097080L
sVcheck-size-with-dtb
p162
I01
ss(Vbuild
p163
Vsh4
p164
tp165
(dp166
Vsigned-modules
p167
I00
sVimage-file
p168
Varch/sh/boot/zImage
p169
ss(Vbuild
p170
Vppc64
p171
tp172
(dp173
Vvdso
p174
I01
sVsigned-modules
p175
I00
sVimage-file
p176
Vvmlinux
p177
ss(Vbuild
p178
g101
tp179
(dp180
Vsigned-modules
p181
I00
sVdebug-info
p182
I01
sVvdso
p183
I01
sVimage-file
p184
Varch/arm64/boot/Image
p185
ss(g28
g171
g12
tp186
(dp187
g32
I01
sg33
(lp188
Vpowerpc64
p189
ass(Vdescription
p190
g128
NVloongson-3
p191
tp192
(dp193
Vhardware-long
p194
VLoongson 3A or 3B based systems (e.g. from Loongson or Lemote)
p195
sVhardware
p196
VLoongson 3A/3B
p197
ss(Vdescription
p198
g5
NV5kc-malta
p199
tp200
(dp201
Vhardware-long
p202
VMIPS Malta boards (64-bit)
p203
sVhardware
p204
VMIPS Malta (64-bit)
p205
ss(Vbase
p206
Vmipsn32el
p207
tp208
(dp209
Vkernel-arch
p210
Vmips
p211
sVfeaturesets
p212
(lp213
ss(Vbase
p214
Vmips64
p215
tp216
(dp217
Vkernel-arch
p218
Vmips
p219
sg10
(lp220
g12
ass(Vbase
p221
g14
tp222
(dp223
Vkernel-arch
p224
Vparisc
p225
sg10
(lp226
g12
ass(Vdescription
p227
g53
Vnone
p228
Vamd64
p229
tp230
(dp231
Vparts
p232
(lp233
Vxen
p234
ass(g28
g164
g12
tp235
(dp236
g32
I01
sg33
(lp237
Vsh7751r
p238
aVsh7785lcr
p239
ass(Vdescription
p240
g69
NVsparc64
p241
tp242
(dp243
Vhardware
p244
Vuniprocessor 64-bit UltraSPARC
p245
ss(Vimage
p246
g164
NVsh7785lcr
p247
tp248
(dp249
Vrecommends
p250
Vu-boot-tools
p251
sVcheck-size
p252
L4194304L
ss(Vrelations
p253
tp254
(dp255
Vinitramfs-tools
p256
Vinitramfs-tools (>= 0.110~)
p257
sVinitramfs-fallback
p258
Vlinux-initramfs-tool
p259
sVgcc-5
p260
Vgcc-5 <!stage1 !cross>, gcc-5-@gnu-type-package@:native <!stage1 cross>
p261
ss(Vbase
p262
Vx32
p263
tp264
(dp265
Vkernel-arch
p266
Vx86
p267
sVfeaturesets
p268
(lp269
ss(Vrelations
p270
g94
tp271
(dp272
Vheaders%gcc-5
p273
Vlinux-compiler-gcc-5-arm
p274
ss(Vdescription
p275
g215
NV5kc-malta
p276
tp277
(dp278
Vhardware-long
p279
VMIPS Malta boards
p280
sVhardware
p281
VMIPS Malta
p282
ss(Vbase
p283
g23
tp284
(dp285
Vkernel-arch
p286
Varm
p287
sg10
(lp288
g12
ass(Vbase
p289
tp290
(dp291
Vfeaturesets
p292
(lp293
Vnone
p294
aVrt
p295
asVarches
p296
(lp297
Valpha
p298
aVamd64
p299
aVarm64
p300
aVarmel
p301
aVarmhf
p302
aVhppa
p303
aVi386
p304
aVm68k
p305
aVmips
p306
aVmipsel
p307
aVmipsn32
p308
aVmipsn32el
p309
aVmips64
p310
aVmips64el
p311
aVor1k
p312
aVpowerpc
p313
aVpowerpcspe
p314
aVppc64
p315
aVppc64el
p316
aVs390
p317
aVs390x
p318
aVsh4
p319
aVsparc
p320
aVsparc64
p321
aVtilegx
p322
aVx32
p323
asVcompiler
p324
Vgcc-5
p325
ss(Vimage
p326
g88
tp327
(dp328
Vconfigs
p329
(lp330
sVinstall-stem
p331
Vvmlinux
p332
sVsuggests
p333
Vmkvmlinuz
p334
ss(Vversion
p335
tp336
(dp337
Vabiname_base
p338
V4.8.0
p339
sVsource
p340
V4.8.5-1kali1
p341
sVupstream
p342
V4.8
p343
sVabiname
p344
V4.8.0-kali1
p345
ss(Vbuild
p346
Valpha
p347
tp348
(dp349
Vsigned-modules
p350
I00
sVimage-file
p351
Varch/alpha/boot/vmlinux.gz
p352
ss(Vimage
p353
g23
tp354
(dp355
Vinstall-stem
p356
Vvmlinuz
p357
ss(Vimage
p358
g128
NVloongson-3
p359
tp360
(dp361
Vconfigs
p362
(lp363
Vkernelarch-mips/config.loongson-3
p364
ass(Vdescription
p365
g5
NV4kc-malta
p366
tp367
(dp368
Vhardware-long
p369
VMIPS Malta boards
p370
sVhardware
p371
VMIPS Malta
p372
ss(g28
g69
g12
tp373
(dp374
g32
I01
sg33
(lp375
Vsparc64
p376
aVsparc64-smp
p377
ass(Vbase
p378
g164
tp379
(dp380
Vkernel-arch
p381
Vsh
p382
sg10
(lp383
g12
ass(Vdescription
p384
g94
NVarmmp
p385
tp386
(dp387
Vhardware-long
p388
VARMv7 multiplatform kernel. See\u000ahttps://wiki.debian.org/DebianKernel/ARMMP for details of supported\u000aplatforms
p389
sVhardware
p390
VARMv7 multiplatform compatible SoCs
p391
ss(Vbase
p392
Vtilegx
p393
tp394
(dp395
Vkernel-arch
p396
Vtile
p397
sVfeaturesets
p398
(lp399
ss(Vimage
p400
g5
NV4kc-malta
p401
tp402
(dp403
Vconfigs
p404
(lp405
Vkernelarch-mips/config.malta
p406
aVkernelarch-mips/config.mips32r2
p407
ass(Vdescription
p408
g53
NVamd64
p409
tp410
(dp411
Vhardware-long
p412
VPCs with AMD64, Intel 64 or VIA Nano processors
p413
sVhardware
p414
V64-bit PCs
p415
ss(Vdescription
p416
g5
NVocteon
p417
tp418
(dp419
Vhardware-long
p420
VCavium Networks Octeon
p421
sVhardware
p422
VOcteon
p423
ss(Vdescription
p424
g101
NVarm64
p425
tp426
(dp427
Vhardware
p428
V64-bit ARMv8 machines
p429
ss(Vimage
p430
g5
NVocteon
p431
tp432
(dp433
Vconfigs
p434
(lp435
Vkernelarch-mips/config.octeon
p436
ass(Vbuild
p437
g76
NV686-pae
p438
tp439
(dp440
Vdebug-info
p441
I01
ss(Vbuild
p442
g215
tp443
(dp444
Vsigned-modules
p445
I00
sVimage-file
p446
Vvmlinux
p447
ss(Vrelations
p448
g46
tp449
(dp450
Vheaders%gcc-5
p451
Vlinux-compiler-gcc-5-s390
p452
ss(g28
g215
g12
tp453
(dp454
g32
I01
sg33
(lp455
V5kc-malta
p456
aVocteon
p457
ass(Vimage
p458
g215
tp459
(dp460
Vinstall-stem
p461
Vvmlinux
p462
ss(Vabi
p463
tp464
(dp465
Vabiname
p466
Vkali1
p467
ss(g28
g23
g12
tp468
(dp469
g32
I01
sg33
(lp470
Vmarvell
p471
aVversatile
p472
ass(Vabi
p473
NVrt
p474
tp475
(dp476
Vignore-changes
p477
(lp478
V*
p479
ass(Vimage
p480
tp481
(dp482
Vinitramfs-generators
p483
(lp484
Vinitramfs-tools
p485
aVinitramfs-fallback
p486
ass(Vbase
p487
g88
tp488
(dp489
Vkernel-arch
p490
Vpowerpc
p491
sg10
(lp492
g12
ass(Vbase
p493
g37
tp494
(dp495
Vkernel-arch
p496
Vmips
p497
sg10
(lp498
g12
ass(Vbuild
p499
g37
tp500
(dp501
Vsigned-modules
p502
I00
sVimage-file
p503
Vvmlinux
p504
ss(Vbase
p505
Vmipsn32
p506
tp507
(dp508
Vkernel-arch
p509
Vmips
p510
sVfeaturesets
p511
(lp512
ss(Vbase
p513
g347
tp514
(dp515
Vkernel-arch
p516
Valpha
p517
sg10
(lp518
g12
ass(Vdescription
p519
g37
NVloongson-3
p520
tp521
(dp522
Vhardware-long
p523
VLoongson 3A or 3B based systems (e.g. from Loongson or Lemote)
p524
sVhardware
p525
VLoongson 3A/3B
p526
ss(Vimage
p527
g215
NV5kc-malta
p528
tp529
(dp530
Vconfigs
p531
(lp532
Vkernelarch-mips/config.malta
p533
aVkernelarch-mips/config.mips64r2
p534
ass(Vbuild
p535
g23
tp536
(dp537
Vsigned-modules
p538
I00
sVimage-file
p539
Varch/arm/boot/zImage
p540
ss(Vimage
p541
g347
tp542
(dp543
Vinstall-stem
p544
Vvmlinuz
p545
sVsuggests
p546
Vaboot, fdutils
p547
ss(Vdescription
p548
g94
NVarmmp-lpae
p549
tp550
(dp551
Vhardware-long
p552
VARMv7 multiplatform kernel supporting LPAE. See\u000ahttps://wiki.debian.org/DebianKernel/ARMMP for details of supported\u000aplatforms.
p553
sVhardware
p554
VARMv7 multiplatform compatible SoCs supporting LPAE
p555
ss(Vxen
p556
g53
g228
Vamd64
p557
tp558
(dp559
Vflavours
p560
(lp561
Vamd64
p562
ass(Vbase
p563
g128
tp564
(dp565
Vkernel-arch
p566
Vmips
p567
sg10
(lp568
g12
ass(Vdescription
p569
g37
NV5kc-malta
p570
tp571
(dp572
Vhardware-long
p573
VMIPS Malta boards (64-bit)
p574
sVhardware
p575
VMIPS Malta (64-bit)
p576
ss(Vdescription
p577
g37
NVocteon
p578
tp579
(dp580
Vhardware-long
p581
VCavium Networks Octeon
p582
sVhardware
p583
VOcteon
p584
ss(g28
g112
g12
tp585
(dp586
g32
I01
sg33
(lp587
Vpowerpcspe
p588
ass(Vrelations
p589
g53
tp590
(dp591
Vheaders%gcc-5
p592
Vlinux-compiler-gcc-5-x86
p593
ss(g28
g5
g12
tp594
(dp595
g32
I01
sg33
(lp596
V4kc-malta
p597
aV5kc-malta
p598
aVocteon
p599
ass(Vbase
p600
g46
tp601
(dp602
Vkernel-arch
p603
Vs390
p604
sg10
(lp605
g12
ass(Vbuild
p606
g14
tp607
(dp608
Vsigned-modules
p609
I00
sVimage-file
p610
Vvmlinux
p611
ss(Vdescription
p612
g347
NValpha-smp
p613
tp614
(dp615
Vhardware-long
p616
VDEC Alpha SMP systems with extended kernel start address (Wildfire, Titan, Marvel)
p617
sVhardware
p618
VAlpha SMP
p619
ss(Vbuild
p620
tp621
(dp622
Vdebug-info
p623
I01
sVsigned-modules
p624
I01
ss(Vimage
p625
g171
NVpowerpc64
p626
tp627
(dp628
Vconfigs
p629
(lp630
Vkernelarch-powerpc/config-arch-64
p631
aVkernelarch-powerpc/config-arch-64-be
p632
ass(Vdescription
p633
g171
NVpowerpc64
p634
tp635
(dp636
Vhardware
p637
V64-bit PowerPC
p638
ss(Vimage
p639
g76
tp640
(dp641
Vbootloaders
p642
(lp643
Vgrub-pc
p644
aVextlinux
p645
asVinstall-stem
p646
Vvmlinuz
p647
sVbreaks
p648
Vxserver-xorg-input-vmmouse (<< 1:13.0.99)
p649
ss(Vbase
p650
g53
tp651
(dp652
Vkernel-arch
p653
Vx86
p654
sVfeaturesets
p655
(lp656
Vnone
p657
aVrt
p658
ass(Vdescription
p659
Ng474
tp660
(dp661
Vpart-short-rt
p662
VPREEMPT_RT
p663
sVparts
p664
(lp665
Vrt
p666
asVpart-long-rt
p667
VThis kernel includes the PREEMPT_RT realtime patch set.
p668
ss(Vbase
p669
g53
g228
tp670
(dp671
Vflavours
p672
(lp673
Vamd64
p674
ass(Vdescription
p675
g14
NVparisc64-smp
p676
tp677
(dp678
Vhardware-long
p679
VHP PA-RISC 64-bit SMP systems with support for more than 4 GB RAM
p680
sVhardware
p681
Vmultiprocessor 64-bit PA-RISC
p682
ss(Vrelations
p683
g14
tp684
(dp685
Vgcc-5
p686
Vgcc-5 <!stage1 !cross>, binutils-hppa64-linux-gnu <!stage1 !cross>, gcc-5-hppa64-linux-gnu <!stage1 !cross>, gcc-5-hppa-linux-gnu:native <!stage1 cross>, binutils-hppa64-linux-gnu:native <!stage1 cross>, gcc-5-hppa64-linux-gnu:native <!stage1 cross>
p687
ss(Vimage
p688
g46
tp689
(dp690
Vbootloaders
p691
(lp692
Vs390-tools
p693
asVinstall-stem
p694
Vvmlinuz
p695
ss(Vimage
p696
g171
tp697
(dp698
Vconfigs
p699
(lp700
sVinstall-stem
p701
Vvmlinux
p702
sVsuggests
p703
Vmkvmlinuz
p704
ss(Vbase
p705
Vsparc
p706
tp707
(dp708
Vkernel-arch
p709
Vsparc
p710
sVfeaturesets
p711
(lp712
ss(Vimage
p713
g88
NVpowerpc-smp
p714
tp715
(dp716
Vconfigs
p717
(lp718
Vpowerpc/config.powerpc
p719
aVpowerpc/config.powerpc-smp
p720
ass(g28
g14
g12
tp721
(dp722
g32
I01
sg33
(lp723
Vparisc
p724
aVparisc64-smp
p725
ass(Vdescription
p726
g29
NVm68k
p727
tp728
(dp729
Vhardware
p730
VMotorola MC68020+ family
p731
ss(Vbase
p732
NVrt
p733
tp734
(dp735
Venabled
p736
I01
ss(Vbase
p737
g76
Vrt
p738
tp739
(dp740
Vflavours
p741
(lp742
V686-pae
p743
ass(Vdescription
p744
tp745
(dp746
Vpart-long-up
p747
VThis kernel is not suitable for SMP (multi-processor,\u000amulti-core or hyper-threaded) systems.
p748
sVpart-long-xen
p749
VThis kernel also runs on a Xen hypervisor.\u000aIt supports both privileged (dom0) and unprivileged (domU) operation.
p750
ss(Vimage
p751
Vppc64el
p752
NVpowerpc64le
p753
tp754
(dp755
Vconfigs
p756
(lp757
Vkernelarch-powerpc/config-arch-64
p758
aVkernelarch-powerpc/config-arch-64-le
p759
ass(Vbase
p760
Vor1k
p761
tp762
(dp763
Vkernel-arch
p764
Vopenrisc
p765
sVfeaturesets
p766
(lp767
ss(Vbase
p768
g171
tp769
(dp770
Vkernel-arch
p771
Vpowerpc
p772
sg10
(lp773
g12
ass(Vimage
p774
g69
NVsparc64-smp
p775
tp776
(dp777
Vconfigs
p778
(lp779
Vkernelarch-sparc/config-smp
p780
ass(Vbase
p781
g112
tp782
(dp783
Vkernel-arch
p784
Vpowerpc
p785
sg10
(lp786
g12
ass(Vdescription
p787
g128
NVocteon
p788
tp789
(dp790
Vhardware-long
p791
VCavium Networks Octeon
p792
sVhardware
p793
VOcteon
p794
ss(Vimage
p795
g5
tp796
(dp797
Vinstall-stem
p798
Vvmlinux
p799
ss(Vbuild
p800
g69
tp801
(dp802
Vsigned-modules
p803
I00
sVimage-file
p804
Varch/sparc/boot/zImage
p805
ss(Vimage
p806
g37
NVloongson-3
p807
tp808
(dp809
Vconfigs
p810
(lp811
Vkernelarch-mips/config.loongson-3
p812
ass(Vimage
p813
g29
tp814
(dp815
Vinstall-stem
p816
Vvmlinuz
p817
sVsuggests
p818
Vvmelilo, fdutils
p819
ss(Vbase
p820
g101
Vnone
p821
tp822
(dp823
Vflavours
p824
(lp825
Varm64
p826
ass(Vimage
p827
g69
tp828
(dp829
Vconfigs
p830
(lp831
sVinstall-stem
p832
Vvmlinuz
p833
sVsuggests
p834
Vsilo, fdutils
p835
ss(Vdescription
p836
g14
NVparisc
p837
tp838
(dp839
Vhardware-long
p840
VHP PA-RISC 32-bit systems with max 4 GB RAM
p841
sVhardware
p842
V32-bit PA-RISC
p843
ss(Vimage
p844
g53
tp845
(dp846
Vbootloaders
p847
(lp848
Vgrub-pc
p849
aVgrub-efi-amd64
p850
aVextlinux
p851
asVinstall-stem
p852
Vvmlinuz
p853
sVbreaks
p854
Vxserver-xorg-input-vmmouse (<< 1:13.0.99)
p855
ss(Vdescription
p856
g88
NVpowerpc
p857
tp858
(dp859
Vhardware
p860
Vuniprocessor 32-bit PowerPC
p861
ss(Vimage
p862
g94
tp863
(dp864
Vinstall-stem
p865
Vvmlinuz
p866
ss(Vdescription
p867
g88
NVpowerpc64
p868
tp869
(dp870
Vhardware
p871
V64-bit PowerPC
p872
ss(Vdescription
p873
g37
NV4kc-malta
p874
tp875
(dp876
Vhardware-long
p877
VMIPS Malta boards
p878
sVhardware
p879
VMIPS Malta
p880
ss(Vimage
p881
g37
NV4kc-malta
p882
tp883
(dp884
Vconfigs
p885
(lp886
Vkernelarch-mips/config.malta
p887
aVkernelarch-mips/config.mips32r2
p888
ass(g28
g347
g12
tp889
(dp890
g32
I01
sg33
(lp891
Valpha-generic
p892
aValpha-smp
p893
ass(Vimage
p894
g101
tp895
(dp896
Vinstall-stem
p897
Vvmlinuz
p898
ss(Vdescription
p899
g23
NVversatile
p900
tp901
(dp902
Vhardware-long
p903
VVersatile systems (PB, AB, Qemu)
p904
sVhardware
p905
VVersatile
p906
ss(Vdescription
p907
g752
NVpowerpc64le
p908
tp909
(dp910
Vhardware
p911
VLittle-endian 64-bit PowerPC
p912
ss(Vbase
p913
g101
tp914
(dp915
Vkernel-arch
p916
Varm64
p917
sVfeaturesets
p918
(lp919
Vnone
p920
ass(Vimage
p921
g164
tp922
(dp923
Vinstall-stem
p924
Vvmlinuz
p925
ss(Vrelations
p926
g76
tp927
(dp928
Vheaders%gcc-5
p929
Vlinux-compiler-gcc-5-x86
p930
ss(Vimage
p931
g69
NVsparc64
p932
tp933
(dp934
Vconfigs
p935
(lp936
Vkernelarch-sparc/config-up
p937
ass(Vbase
p938
Vs390
p939
tp940
(dp941
Vkernel-arch
p942
Vs390
p943
sVfeaturesets
p944
(lp945
ss(Vimage
p946
g128
NV5kc-malta
p947
tp948
(dp949
Vconfigs
p950
(lp951
Vkernelarch-mips/config.malta
p952
aVkernelarch-mips/config.mips64r2
p953
ass(Vdescription
p954
g69
NVsparc64-smp
p955
tp956
(dp957
Vhardware
p958
Vmultiprocessor 64-bit UltraSPARC
p959
ss(g28
g752
g12
tp960
(dp961
g32
I01
sg33
(lp962
Vpowerpc64le
p963
ass(Vimage
p964
g128
tp965
(dp966
Vinstall-stem
p967
Vvmlinux
p968
ss(Vdescription
p969
g76
tp970
(dp971
Vpart-long-pae
p972
VThis kernel requires PAE (Physical Address Extension).\u000aThis feature is supported by the Intel Pentium Pro/II/III/4/4M/D, Xeon,\u000aCore and Atom; AMD Geode NX, Athlon (K7), Duron, Opteron, Sempron,\u000aTurion or Phenom; Transmeta Efficeon; VIA C7; and some other processors.
p973
ss(Vbase
p974
g53
Vrt
p975
tp976
(dp977
Vflavours
p978
(lp979
Vamd64
p980
ass(Vbuild
p981
g112
tp982
(dp983
Vvdso
p984
I01
sVsigned-modules
p985
I00
sVimage-file
p986
Vvmlinux
p987
ss(Vbuild
p988
g5
tp989
(dp990
Vsigned-modules
p991
I00
sVimage-file
p992
Vvmlinux
p993
ss(Vbuild
p994
g76
tp995
(dp996
Vsigned-modules
p997
I00
sVvdso
p998
I01
sVimage-file
p999
Varch/x86/boot/bzImage
p1000
ss(Vbuild
p1001
g94
tp1002
(dp1003
Vsigned-modules
p1004
I00
sVvdso
p1005
I01
sVimage-file
p1006
Varch/arm/boot/zImage
p1007
ss(Vimage
p1008
g128
NVocteon
p1009
tp1010
(dp1011
Vconfigs
p1012
(lp1013
Vkernelarch-mips/config.octeon
p1014
ass(Vimage
p1015
g5
NV5kc-malta
p1016
tp1017
(dp1018
Vconfigs
p1019
(lp1020
Vkernelarch-mips/config.malta
p1021
aVkernelarch-mips/config.mips64r2
p1022
ass(Vdescription
p1023
g128
NV5kc-malta
p1024
tp1025
(dp1026
Vhardware-long
p1027
VMIPS Malta boards
p1028
sVhardware
p1029
VMIPS Malta
p1030
ss(Vdescription
p1031
g347
NValpha-generic
p1032
tp1033
(dp1034
Vhardware-long
p1035
VDEC Alpha systems with extended kernel start address (Wildfire, Titan, Marvel)
p1036
sVhardware
p1037
VAlpha
p1038
ss(Vbuild
p1039
g46
NVs390x
p1040
tp1041
(dp1042
Vdebug-info
p1043
I01
ss(Vdescription
p1044
g88
NVpowerpc-smp
p1045
tp1046
(dp1047
Vhardware
p1048
Vmultiprocessor 32-bit PowerPC
p1049
ss(Vbase
p1050
g29
tp1051
(dp1052
Vkernel-arch
p1053
Vm68k
p1054
sg10
(lp1055
g12
asVcflags
p1056
V-ffreestanding
p1057
ss(Vdescription
p1058
g76
Vnone
p1059
V686-pae
p1060
tp1061
(dp1062
Vparts
p1063
(lp1064
Vxen
p1065
ass(Vimage
p1066
g14
tp1067
(dp1068
Vinstall-stem
p1069
Vvmlinux
p1070
sVsuggests
p1071
Vpalo
p1072
ss(Vbuild
p1073
g29
tp1074
(dp1075
Vsigned-modules
p1076
I00
sVimage-file
p1077
Vvmlinux.gz
p1078
ss(Vimage
p1079
g752
tp1080
(dp1081
Vconfigs
p1082
(lp1083
sVinstall-stem
p1084
Vvmlinux
p1085
sVsuggests
p1086
Vmkvmlinuz
p1087
ss(Vbuild
p1088
g752
tp1089
(dp1090
Vvdso
p1091
I01
sVimage-file
p1092
Vvmlinux
p1093
ss(g28
g88
g12
tp1094
(dp1095
g32
I01
sg33
(lp1096
Vpowerpc
p1097
aVpowerpc-smp
p1098
aVpowerpc64
p1099
ass(Vimage
p1100
g215
NVocteon
p1101
tp1102
(dp1103
Vconfigs
p1104
(lp1105
Vkernelarch-mips/config.octeon
p1106
ass(Vbase
p1107
g76
g1059
tp1108
(dp1109
Vflavours
p1110
(lp1111
V686
p1112
aV686-pae
p1113
ass(g28
g128
g12
tp1114
(dp1115
g32
I01
sg33
(lp1116
V5kc-malta
p1117
aVloongson-3
p1118
aVocteon
p1119
ass(Vbase
p1120
g76
tp1121
(dp1122
Vkernel-arch
p1123
Vx86
p1124
sVfeaturesets
p1125
(lp1126
Vnone
p1127
aVrt
p1128
ass(Vdescription
p1129
g215
NVocteon
p1130
tp1131
(dp1132
Vhardware-long
p1133
VCavium Networks Octeon
p1134
sVhardware
p1135
VOcteon
p1136
ss(Vdescription
p1137
g112
tp1138
(dp1139
Vhardware
p1140
V32-bit PowerPC with SPE (instead of AltiVec) with SMP support
p1141
ss(Vdescription
p1142
g23
NVmarvell
p1143
tp1144
(dp1145
Vhardware-long
p1146
VMarvell Kirkwood based systems (SheevaPlug, QNAP TS-119/TS-219, etc)\u000aand Orion 5181, 5182 and 5281 based systems (QNAP TS-109/TS-209, etc)
p1147
sVhardware
p1148
VMarvell Kirkwood/Orion
p1149
ss(Vdescription
p1150
g164
NVsh7785lcr
p1151
tp1152
(dp1153
Vhardware-long
p1154
VRenesas SH7785 reference board
p1155
sVhardware
p1156
Vsh7785lcr
p1157
ss(Vbase
p1158
g752
tp1159
(dp1160
Vkernel-arch
p1161
Vpowerpc
p1162
sg10
(lp1163
g12
ass(Vdescription
p1164
g164
NVsh7751r
p1165
tp1166
(dp1167
Vhardware-long
p1168
VRenesas SH7751R R2D plus board
p1169
sVhardware
p1170
Vsh7751r
p1171
ss(Vimage
p1172
g37
tp1173
(dp1174
Vinstall-stem
p1175
Vvmlinux
p1176
ss(Vbase
p1177
g94
tp1178
(dp1179
Vkernel-arch
p1180
Varm
p1181
sg10
(lp1182
g12
asstp1183
Rp1184
.