cdebian_linux.config
ConfigCore
p0
(tRp1
(Vabi
p2
tp3
(dp4
Vabiname
p5
Vkali4
p6
sVignore-changes
p7
(lp8
V__cpuhp_*
p9
aV__udp_gso_segment
p10
aVbpf_analyzer
p11
aVbpf_offload_dev_create
p12
aVbpf_verifier_log_write
p13
aVcxl_*
p14
aVdax_flush
p15
aVieee80211_nullfunc_get
p16
aVinet_add_protocol
p17
aVinet_del_protocol
p18
aViommu_device_*
p19
aVmm_iommu_*
p20
aVmv_mbus_*
p21
aVperf_*
p22
aVregister_cxl_calls
p23
aVregister_key_type
p24
aVunregister_cxl_calls
p25
aV*_hw_breakpoint
p26
aVmodule:drivers/crypto/ccp/*
p27
aVmodule:drivers/hv/*
p28
aVmodule:drivers/gpu/drm/sun4i/*
p29
aVmodule:drivers/iio/**
p30
aVmodule:drivers/misc/cxl/*
p31
aVmodule:drivers/misc/lis3lv02d/*
p32
aVmodule:drivers/mtd/nand/*
p33
aVmodule:drivers/net/ethernet/**
p34
aVmodule:drivers/net/wireless/**
p35
aVmodule:drivers/nvdimm/*
p36
aVmodule:drivers/nvme/**
p37
aVmodule:drivers/power/supply/bq27xxx_battery
p38
aVmodule:drivers/scsi/cxgbi/*
p39
aVmodule:drivers/scsi/libiscs*
p40
aVmodule:drivers/scsi/qla2xxx/qla2xxx
p41
aVmodule:drivers/scsi/ufs/*
p42
aVmodule:drivers/target/**
p43
aVmodule:drivers/usb/chipidea/**
p44
aVmodule:drivers/usb/gadget/**
p45
aVmodule:drivers/usb/host/**
p46
aVmodule:drivers/usb/musb/**
p47
aVmodule:fs/nfs/**
p48
aVmodule:net/ceph/libceph
p49
aVmodule:net/l2tp/**
p50
aVmodule:net/openvswitch/**
p51
aVmodule:net/rxrpc/rxrpc
p52
aVmodule:net/sctp/**
p53
aVmodule:sound/core/seq/**
p54
aVmodule:sound/firewire/snd-firewire-lib
p55
aVmodule:sound/pci/hda/*
p56
aVbtree_*
p57
aVvisitor*
p58
aVcan_rx_register
p59
aVip6_xmit
p60
aVmodule:net/dccp/dccp
p61
aVmodule:net/rds/rds
p62
aVdevfreq_*
p63
aVdevm_devfreq_*
p64
aVupdate_devfreq
p65
aVmodule:drivers/infiniband/**
p66
aVacpi_ec_add_query_handler
p67
aVacpi_ec_remove_query_handler
p68
aVfirst_ec
p69
aVdebugfs_create_automount
p70
aVmodule:drivers/iio/imu/inv_mpu6050/*
p71
aVdrm_crtc_accurate_vblank_count
p72
aVacpi_nfit_desc_init
p73
aVacpi_nfit_init
p74
aVloop_register_transfer
p75
aVxen_xlate_*
p76
aVnf_nat_masquerade_ipv4_register_notifier
p77
aVnf_nat_masquerade_ipv6_register_notifier
p78
aVdfltcc_*
p79
aVmodule:drivers/scsi/hisi_sas/*
p80
aV__gfn_*
p81
aV__kvmhv_*
p82
aV__kvm_*
p83
aV__xive_vm_h_*
p84
aVgfn_*
p85
aVh_ipi_redirect
p86
aVhalt_poll_ns*
p87
aVkvm_*
p88
aVkvmhv_*
p89
aVkvmppc_*
p90
aVmark_page_dirty
p91
aVvcpu_*
p92
aVmodule:arch/powerpc/kvm/*
p93
aVmodule:arch/s390/kvm/*
p94
aVmodule:arch/x86/kvm/*
p95
aVuv_info
p96
aVxhci_init_driver
p97
ass(Vbase
p98
tp99
(dp100
Varches
p101
(lp102
Valpha
p103
aVamd64
p104
aVarm64
p105
aVarm64ilp32
p106
aVarmel
p107
aVarmhf
p108
aVhppa
p109
aVi386
p110
aVia64
p111
aVm68k
p112
aVmips
p113
aVmips64
p114
aVmips64el
p115
aVmips64r6
p116
aVmips64r6el
p117
aVmipsel
p118
aVmipsn32
p119
aVmipsn32el
p120
aVmipsn32r6
p121
aVmipsn32r6el
p122
aVmipsr6
p123
aVmipsr6el
p124
aVpowerpc
p125
aVppc64
p126
aVppc64el
p127
aVriscv64
p128
aVs390
p129
aVs390x
p130
aVsh3
p131
aVsh4
p132
aVsparc
p133
aVsparc64
p134
aVx32
p135
asVcompiler
p136
Vgcc-10
p137
sVfeaturesets
p138
(lp139
Vnone
p140
aVrt
p141
ass(Vbuild
p142
tp143
(dp144
Vdebug-info
p145
I01
sVsigned-code
p146
I00
sVtrusted-certs
p147
Vdebian/certs/debian-uefi-certs.pem
p148
ss(Vbase
p149
NVrt
p150
tp151
(dp152
Venabled
p153
I00
ss(Vdescription
p154
tp155
(dp156
Vpart-long-up
p157
VThis kernel is not suitable for SMP (multi-processor,\u000amulti-core or hyper-threaded) systems.
p158
ss(Vimage
p159
tp160
(dp161
Vinitramfs-generators
p162
(lp163
Vinitramfs-tools
p164
aVinitramfs-fallback
p165
asVbreaks
p166
(lp167
Vfwupdate (<< 12-7)
p168
aVwireless-regdb (<< 2019.06.03-1~)
p169
asVrecommends
p170
(lp171
Vapparmor
p172
ass(Vrelations
p173
tp174
(dp175
Vgcc-10
p176
Vgcc-10 <!stage1 !cross !pkg.linux.nokernel>, gcc-10-@gnu-type-package@ <!stage1 cross !pkg.linux.nokernel>
p177
sVinitramfs-fallback
p178
Vlinux-initramfs-tool
p179
sVinitramfs-tools
p180
Vinitramfs-tools (>= 0.120+deb8u2)
p181
ss(Vbase
p182
Valpha
p183
tp184
(dp185
Vdefault-flavour
p186
Valpha-smp
p187
sVkernel-arch
p188
Valpha
p189
sVfeaturesets
p190
(lp191
Vnone
p192
ass(Vbuild
p193
g183
tp194
(dp195
Vimage-file
p196
Varch/alpha/boot/vmlinux.gz
p197
ss(Vimage
p198
g183
tp199
(dp200
Vsuggests
p201
(lp202
Vaboot
p203
aVfdutils
p204
asVinstall-stem
p205
Vvmlinuz
p206
ss(Vdescription
p207
g183
NValpha-generic
p208
tp209
(dp210
Vhardware
p211
VAlpha
p212
sVhardware-long
p213
VDEC Alpha systems with extended kernel start address (Wildfire, Titan, Marvel)
p214
ss(Vdescription
p215
g183
NValpha-smp
p216
tp217
(dp218
Vhardware
p219
VAlpha SMP
p220
sVhardware-long
p221
VDEC Alpha SMP systems with extended kernel start address (Wildfire, Titan, Marvel)
p222
ss(Vbase
p223
g183
g192
tp224
(dp225
Vflavours
p226
(lp227
Valpha-generic
p228
aValpha-smp
p229
asVimplicit-flavour
p230
I01
ss(Vbase
p231
Vamd64
p232
tp233
(dp234
Vfeaturesets
p235
(lp236
Vnone
p237
aVrt
p238
asVkernel-arch
p239
Vx86
p240
ss(Vbuild
p241
g232
tp242
(dp243
Vimage-file
p244
Varch/x86/boot/bzImage
p245
sVsigned-code
p246
I00
sVvdso
p247
I01
ss(Vimage
p248
g232
tp249
(dp250
Vbootloaders
p251
(lp252
Vgrub-pc
p253
aVgrub-efi-amd64
p254
aVextlinux
p255
asVinstall-stem
p256
Vvmlinuz
p257
sVbreaks
p258
(lp259
Vxserver-xorg-input-vmmouse (<< 1:13.0.99)
p260
ass(Vrelations
p261
g232
tp262
(dp263
Vheaders%gcc-10
p264
Vlinux-compiler-gcc-10-x86
p265
ss(Vdescription
p266
g232
NVamd64
p267
tp268
(dp269
Vhardware
p270
V64-bit PCs
p271
sVhardware-long
p272
VPCs with AMD64, Intel 64 or VIA Nano processors
p273
ss(Vdescription
p274
g232
NVcloud-amd64
p275
tp276
(dp277
Vhardware
p278
Vx86-64 cloud
p279
sVhardware-long
p280
Vcloud platforms including Amazon EC2, Microsoft Azure, and Google Compute Engine
p281
ss(Vbase
p282
g232
Vnone
p283
tp284
(dp285
Vflavours
p286
(lp287
Vamd64
p288
aVcloud-amd64
p289
asVdefault-flavour
p290
Vamd64
p291
ss(Vimage
p292
g232
g283
Vcloud-amd64
p293
tp294
(dp295
Vconfigs
p296
(lp297
Vconfig.cloud
p298
aVamd64/config.cloud-amd64
p299
ass(Vbase
p300
g232
Vrt
p301
tp302
(dp303
Vflavours
p304
(lp305
Vamd64
p306
ass(Vbase
p307
Varm64
p308
tp309
(dp310
Vcross-compile-compat
p311
Varm-linux-gnueabihf-
p312
sVkernel-arch
p313
Varm64
p314
sVfeaturesets
p315
(lp316
Vnone
p317
aVrt
p318
ass(Vbuild
p319
g308
tp320
(dp321
Vimage-file
p322
Varch/arm64/boot/Image
p323
sVsigned-code
p324
I00
sVvdso
p325
I01
ss(Vimage
p326
g308
tp327
(dp328
Vinstall-stem
p329
Vvmlinuz
p330
sVbreaks
p331
(lp332
Vlibmozjs185-1.0
p333
aVlibmozjs-24-0 (<< 24.2.0-5.1~)
p334
ass(Vdescription
p335
g308
NVarm64
p336
tp337
(dp338
Vhardware
p339
V64-bit ARMv8 machines
p340
ss(Vdescription
p341
g308
NVcloud-arm64
p342
tp343
(dp344
Vhardware
p345
Varm64 cloud
p346
sVhardware-long
p347
Vcloud platforms supporting arm64 virtual machines
p348
ss(Vimage
p349
g308
NVarm64
p350
tp351
(dp352
s(Vrelations
p353
g308
tp354
(dp355
Vgcc-10
p356
Vgcc-10 <!stage1 !cross !pkg.linux.nokernel>, gcc-10-aarch64-linux-gnu <!stage1 cross !pkg.linux.nokernel>, gcc-arm-linux-gnueabihf <!stage1 !pkg.linux.nokernel>
p357
sVheaders%gcc-10
p358
Vgcc-10
p359
ss(Vbase
p360
g308
Vnone
p361
tp362
(dp363
Vflavours
p364
(lp365
Varm64
p366
aVcloud-arm64
p367
asVdefault-flavour
p368
Varm64
p369
ss(Vimage
p370
g308
g361
Vcloud-arm64
p371
tp372
(dp373
Vconfigs
p374
(lp375
Vconfig.cloud
p376
aVarm64/config.cloud-arm64
p377
ass(Vbase
p378
g308
Vrt
p379
tp380
(dp381
Vflavours
p382
(lp383
Varm64
p384
ass(Vbase
p385
Varm64ilp32
p386
tp387
(dp388
Vkernel-arch
p389
Varm64
p390
sVfeaturesets
p391
(lp392
ss(Vbase
p393
Varmel
p394
tp395
(dp396
Vkernel-arch
p397
Varm
p398
sg190
(lp399
g192
ass(Vbuild
p400
g394
tp401
(dp402
Vimage-file
p403
Varch/arm/boot/zImage
p404
sVuncompressed-image-file
p405
Varch/arm/boot/Image
p406
sVsigned-code
p407
I00
ss(Vimage
p408
g394
tp409
(dp410
Vinstall-stem
p411
Vvmlinuz
p412
ss(Vrelations
p413
g394
tp414
(dp415
Vheaders%gcc-10
p416
Vlinux-compiler-gcc-10-arm
p417
ss(Vdescription
p418
g394
NVmarvell
p419
tp420
(dp421
Vhardware
p422
VMarvell Kirkwood/Orion
p423
sVhardware-long
p424
VMarvell Kirkwood and Orion based systems (https://wiki.debian.org/ArmEabiPort#Supported_hardware)
p425
ss(Vdescription
p426
g394
NVrpi
p427
tp428
(dp429
Vhardware
p430
VRaspberry Pi and Pi Zero
p431
sVhardware-long
p432
VRaspberry Pi, Raspberry Pi Zero based systems
p433
ss(Vimage
p434
g394
NVmarvell
p435
tp436
(dp437
Vrecommends
p438
(lp439
Vu-boot-tools
p440
asVcheck-size
p441
I2729712
sVcheck-size-with-dtb
p442
I01
sVbreaks
p443
(lp444
Vflash-kernel (<< 3.57~)
p445
ass(g223
g394
g192
tp446
(dp447
g226
(lp448
Vmarvell
p449
aVrpi
p450
asg230
I01
ss(Vbase
p451
Varmhf
p452
tp453
(dp454
Vfeaturesets
p455
(lp456
Vnone
p457
aVrt
p458
asVkernel-arch
p459
Varm
p460
ss(Vbuild
p461
g452
tp462
(dp463
Vimage-file
p464
Varch/arm/boot/zImage
p465
sVvdso
p466
I01
sVsigned-code
p467
I00
ss(Vimage
p468
g452
tp469
(dp470
Vinstall-stem
p471
Vvmlinuz
p472
ss(Vrelations
p473
g452
tp474
(dp475
Vheaders%gcc-10
p476
Vlinux-compiler-gcc-10-arm
p477
ss(Vdescription
p478
g452
NVarmmp
p479
tp480
(dp481
Vhardware
p482
VARMv7 multiplatform compatible SoCs
p483
sVhardware-long
p484
VARMv7 multiplatform kernel. See\u000ahttps://wiki.debian.org/DebianKernel/ARMMP for details of supported\u000aplatforms
p485
ss(Vdescription
p486
g452
NVarmmp-lpae
p487
tp488
(dp489
Vhardware
p490
VARMv7 multiplatform compatible SoCs supporting LPAE
p491
sVhardware-long
p492
VARMv7 multiplatform kernel supporting LPAE. See\u000ahttps://wiki.debian.org/DebianKernel/ARMMP for details of supported\u000aplatforms.
p493
ss(Vbase
p494
g452
Vnone
p495
tp496
(dp497
Vflavours
p498
(lp499
Varmmp
p500
aVarmmp-lpae
p501
asVdefault-flavour
p502
Varmmp
p503
ss(Vbase
p504
g452
Vrt
p505
tp506
(dp507
Vflavours
p508
(lp509
Varmmp
p510
ass(Vbase
p511
Vhppa
p512
tp513
(dp514
Vdefault-flavour
p515
Vparisc
p516
sVkernel-arch
p517
Vparisc
p518
sg190
(lp519
g192
ass(Vbuild
p520
g512
tp521
(dp522
Vimage-file
p523
Varch/parisc/boot/bzImage
p524
sVdebug-info
p525
I00
ss(Vimage
p526
g512
tp527
(dp528
Vsuggests
p529
(lp530
Vpalo
p531
asVinstall-stem
p532
Vvmlinuz
p533
ss(Vdescription
p534
g512
NVparisc
p535
tp536
(dp537
Vhardware
p538
V32-bit PA-RISC
p539
sVhardware-long
p540
VHP PA-RISC 32-bit systems with max 4 GB RAM
p541
ss(Vbase
p542
g512
NVparisc64
p543
tp544
(dp545
Vcflags
p546
V-fno-cse-follow-jumps
p547
sVoverride-host-type
p548
Vhppa64-linux-gnu
p549
ss(Vdescription
p550
g512
NVparisc64
p551
tp552
(dp553
Vhardware
p554
V64-bit PA-RISC
p555
sVhardware-long
p556
VHP PA-RISC 64-bit systems with support for more than 4 GB RAM
p557
ss(Vrelations
p558
g512
tp559
(dp560
Vgcc-10
p561
Vgcc-10 <!stage1 !cross !pkg.linux.nokernel>, gcc-10-hppa-linux-gnu <!stage1 cross !pkg.linux.nokernel>, binutils-hppa64-linux-gnu <!stage1 !pkg.linux.nokernel>, gcc-10-hppa64-linux-gnu <!stage1 !pkg.linux.nokernel>
p562
ss(g223
g512
g192
tp563
(dp564
g226
(lp565
Vparisc
p566
aVparisc64
p567
asg230
I01
ss(Vbase
p568
Vi386
p569
tp570
(dp571
Vfeaturesets
p572
(lp573
Vnone
p574
aVrt
p575
asVkernel-arch
p576
Vx86
p577
ss(Vbuild
p578
g569
tp579
(dp580
Vimage-file
p581
Varch/x86/boot/bzImage
p582
sVsigned-code
p583
I00
sVvdso
p584
I01
ss(Vdescription
p585
g569
tp586
(dp587
Vpart-long-pae
p588
VThis kernel requires PAE (Physical Address Extension).\u000aThis feature is supported by the Intel Pentium Pro/II/III/4/4M/D, Xeon,\u000aCore and Atom; AMD Geode NX, Athlon (K7), Duron, Opteron, Sempron,\u000aTurion or Phenom; Transmeta Efficeon; VIA C7; and some other processors.
p589
ss(Vimage
p590
g569
tp591
(dp592
Vbootloaders
p593
(lp594
Vgrub-pc
p595
aVgrub-efi-ia32
p596
aVextlinux
p597
asVinstall-stem
p598
Vvmlinuz
p599
sVbreaks
p600
(lp601
Vxserver-xorg-input-vmmouse (<< 1:13.0.99)
p602
ass(Vrelations
p603
g569
tp604
(dp605
Vheaders%gcc-10
p606
Vlinux-compiler-gcc-10-x86
p607
ss(Vdescription
p608
g569
NV686
p609
tp610
(dp611
Vhardware
p612
Volder PCs
p613
sVhardware-long
p614
VPCs with one or more processors not supporting PAE
p615
ss(Vdescription
p616
g569
NV686-pae
p617
tp618
(dp619
Vhardware
p620
Vmodern PCs
p621
sVhardware-long
p622
VPCs with one or more processors supporting PAE
p623
sVparts
p624
(lp625
Vpae
p626
ass(Vbase
p627
g569
Vnone
p628
tp629
(dp630
Vflavours
p631
(lp632
V686
p633
aV686-pae
p634
asVdefault-flavour
p635
V686-pae
p636
ss(Vbase
p637
g569
Vrt
p638
tp639
(dp640
Vflavours
p641
(lp642
V686-pae
p643
ass(Vbase
p644
Via64
p645
tp646
(dp647
Vdefault-flavour
p648
Vitanium
p649
sVkernel-arch
p650
Via64
p651
sg190
(lp652
g192
ass(Vbuild
p653
g645
tp654
(dp655
Vimage-file
p656
Vvmlinux.gz
p657
ss(Vimage
p658
g645
tp659
(dp660
Vbootloaders
p661
(lp662
Vgrub-efi-ia64
p663
asVinstall-stem
p664
Vvmlinuz
p665
ss(Vdescription
p666
g645
NVitanium
p667
tp668
(dp669
Vhardware
p670
VItanium (Merced)
p671
sVhardware-long
p672
Vsystems with original Itanium (Merced) processors
p673
ss(Vdescription
p674
g645
NVmckinley
p675
tp676
(dp677
Vhardware
p678
VItanium 2+
p679
sVhardware-long
p680
Vsystems with Itanium 2 or 9300/9500/9700-series processors
p681
ss(g223
g645
g192
tp682
(dp683
g226
(lp684
Vitanium
p685
aVmckinley
p686
asg230
I01
ss(Vbase
p687
Vm68k
p688
tp689
(dp690
Vcflags
p691
V-ffreestanding
p692
sVdefault-flavour
p693
Vm68k
p694
sVkernel-arch
p695
Vm68k
p696
sg190
(lp697
g192
ass(Vbuild
p698
g688
tp699
(dp700
Vimage-file
p701
Vvmlinux
p702
ss(Vimage
p703
g688
tp704
(dp705
Vsuggests
p706
(lp707
Vvmelilo
p708
aVfdutils
p709
asVinstall-stem
p710
Vvmlinux
p711
ss(Vdescription
p712
g688
NVm68k
p713
tp714
(dp715
Vhardware
p716
VMotorola MC68020+ family
p717
ss(g223
g688
g192
tp718
(dp719
g226
(lp720
Vm68k
p721
asg230
I01
ss(Vbase
p722
Vmips
p723
tp724
(dp725
Vkernel-arch
p726
Vmips
p727
sg190
(lp728
g192
ass(Vbuild
p729
g723
tp730
(dp731
Vimage-file
p732
Vvmlinuz
p733
ss(Vimage
p734
g723
tp735
(dp736
Vinstall-stem
p737
Vvmlinuz
p738
ss(Vdescription
p739
g723
NV4kc-malta
p740
tp741
(dp742
Vhardware
p743
VMIPS Malta
p744
sVhardware-long
p745
VMIPS Malta boards
p746
ss(Vimage
p747
g723
NV4kc-malta
p748
tp749
(dp750
Vconfigs
p751
(lp752
Vkernelarch-mips/config.malta
p753
aVkernelarch-mips/config.mips32r2
p754
ass(Vdescription
p755
g723
NV5kc-malta
p756
tp757
(dp758
Vhardware
p759
VMIPS Malta (64-bit)
p760
sVhardware-long
p761
VMIPS Malta boards (64-bit)
p762
ss(Vimage
p763
g723
NV5kc-malta
p764
tp765
(dp766
Vconfigs
p767
(lp768
Vkernelarch-mips/config.malta
p769
aVkernelarch-mips/config.mips64r2
p770
ass(Vdescription
p771
g723
NVocteon
p772
tp773
(dp774
Vhardware
p775
VOcteon
p776
sVhardware-long
p777
VCavium Networks Octeon
p778
ss(Vbuild
p779
g723
NVocteon
p780
tp781
(dp782
Vimage-file
p783
Vvmlinux
p784
ss(Vimage
p785
g723
NVocteon
p786
tp787
(dp788
Vinstall-stem
p789
Vvmlinux
p790
sVconfigs
p791
(lp792
Vkernelarch-mips/config.octeon
p793
ass(g223
g723
g192
tp794
(dp795
g226
(lp796
V4kc-malta
p797
aV5kc-malta
p798
aVocteon
p799
asg230
I01
ss(Vbase
p800
Vmips64
p801
tp802
(dp803
Vkernel-arch
p804
Vmips
p805
sg190
(lp806
g192
ass(Vbuild
p807
g801
tp808
(dp809
Vimage-file
p810
Vvmlinuz
p811
ss(Vimage
p812
g801
tp813
(dp814
Vinstall-stem
p815
Vvmlinuz
p816
ss(Vdescription
p817
g801
NV5kc-malta
p818
tp819
(dp820
Vhardware
p821
VMIPS Malta
p822
sVhardware-long
p823
VMIPS Malta boards
p824
ss(Vimage
p825
g801
NV5kc-malta
p826
tp827
(dp828
Vconfigs
p829
(lp830
Vkernelarch-mips/config.malta
p831
aVkernelarch-mips/config.mips64r2
p832
ass(Vdescription
p833
g801
NVocteon
p834
tp835
(dp836
Vhardware
p837
VOcteon
p838
sVhardware-long
p839
VCavium Networks Octeon
p840
ss(Vbuild
p841
g801
NVocteon
p842
tp843
(dp844
Vimage-file
p845
Vvmlinux
p846
ss(Vimage
p847
g801
NVocteon
p848
tp849
(dp850
Vinstall-stem
p851
Vvmlinux
p852
sVconfigs
p853
(lp854
Vkernelarch-mips/config.octeon
p855
ass(g223
g801
g192
tp856
(dp857
g226
(lp858
V5kc-malta
p859
aVocteon
p860
asg230
I01
ss(Vbase
p861
Vmips64el
p862
tp863
(dp864
Vkernel-arch
p865
Vmips
p866
sg190
(lp867
g192
ass(Vbuild
p868
g862
tp869
(dp870
Vimage-file
p871
Vvmlinuz
p872
ss(Vimage
p873
g862
tp874
(dp875
Vinstall-stem
p876
Vvmlinuz
p877
ss(Vdescription
p878
g862
NV5kc-malta
p879
tp880
(dp881
Vhardware
p882
VMIPS Malta
p883
sVhardware-long
p884
VMIPS Malta boards
p885
ss(Vimage
p886
g862
NV5kc-malta
p887
tp888
(dp889
Vconfigs
p890
(lp891
Vkernelarch-mips/config.malta
p892
aVkernelarch-mips/config.mips64r2
p893
ass(Vdescription
p894
g862
NVloongson-3
p895
tp896
(dp897
Vhardware
p898
VLoongson 3A/3B
p899
sVhardware-long
p900
VLoongson 3A or 3B based systems (e.g. from Loongson or Lemote)
p901
ss(Vimage
p902
g862
NVloongson-3
p903
tp904
(dp905
Vconfigs
p906
(lp907
Vkernelarch-mips/config.loongson-3
p908
ass(Vdescription
p909
g862
NVocteon
p910
tp911
(dp912
Vhardware
p913
VOcteon
p914
sVhardware-long
p915
VCavium Networks Octeon
p916
ss(Vbuild
p917
g862
NVocteon
p918
tp919
(dp920
Vimage-file
p921
Vvmlinux
p922
ss(Vimage
p923
g862
NVocteon
p924
tp925
(dp926
Vinstall-stem
p927
Vvmlinux
p928
sVconfigs
p929
(lp930
Vkernelarch-mips/config.octeon
p931
ass(g223
g862
g192
tp932
(dp933
g226
(lp934
V5kc-malta
p935
aVloongson-3
p936
aVocteon
p937
asg230
I01
ss(Vbase
p938
Vmips64r6
p939
tp940
(dp941
Vdefault-flavour
p942
Vmips64r6
p943
sVkernel-arch
p944
Vmips
p945
sg190
(lp946
g192
ass(Vbuild
p947
g939
tp948
(dp949
Vimage-file
p950
Vvmlinux
p951
ss(Vimage
p952
g939
tp953
(dp954
Vinstall-stem
p955
Vvmlinux
p956
ss(Vdescription
p957
g939
NVmips64r6
p958
tp959
(dp960
Vhardware
p961
VMIPS R6 (64 bit, big endian)
p962
sVhardware-long
p963
VMIPS R6 (64 bit, big endian)
p964
ss(Vimage
p965
g939
NVmips64r6
p966
tp967
(dp968
Vconfigs
p969
(lp970
Vkernelarch-mips/config.boston
p971
aVkernelarch-mips/config.mips64r6
p972
ass(g223
g939
g192
tp973
(dp974
g226
(lp975
Vmips64r6
p976
asg230
I01
ss(Vbase
p977
Vmips64r6el
p978
tp979
(dp980
Vdefault-flavour
p981
Vmips64r6el
p982
sVkernel-arch
p983
Vmips
p984
sg190
(lp985
g192
ass(Vbuild
p986
g978
tp987
(dp988
Vimage-file
p989
Vvmlinux
p990
ss(Vimage
p991
g978
tp992
(dp993
Vinstall-stem
p994
Vvmlinux
p995
ss(Vdescription
p996
g978
NVmips64r6el
p997
tp998
(dp999
Vhardware
p1000
VMIPS R6 (64 bit, little endian)
p1001
sVhardware-long
p1002
VMIPS R6 (64 bit, little endian)
p1003
ss(Vimage
p1004
g978
NVmips64r6el
p1005
tp1006
(dp1007
Vconfigs
p1008
(lp1009
Vkernelarch-mips/config.boston
p1010
aVkernelarch-mips/config.mips64r6
p1011
ass(g223
g978
g192
tp1012
(dp1013
g226
(lp1014
Vmips64r6el
p1015
asg230
I01
ss(Vbase
p1016
Vmipsel
p1017
tp1018
(dp1019
Vkernel-arch
p1020
Vmips
p1021
sg190
(lp1022
g192
ass(Vbuild
p1023
g1017
tp1024
(dp1025
Vimage-file
p1026
Vvmlinuz
p1027
ss(Vimage
p1028
g1017
tp1029
(dp1030
Vinstall-stem
p1031
Vvmlinuz
p1032
ss(Vdescription
p1033
g1017
NV4kc-malta
p1034
tp1035
(dp1036
Vhardware
p1037
VMIPS Malta
p1038
sVhardware-long
p1039
VMIPS Malta boards
p1040
ss(Vimage
p1041
g1017
NV4kc-malta
p1042
tp1043
(dp1044
Vconfigs
p1045
(lp1046
Vkernelarch-mips/config.malta
p1047
aVkernelarch-mips/config.mips32r2
p1048
ass(Vdescription
p1049
g1017
NV5kc-malta
p1050
tp1051
(dp1052
Vhardware
p1053
VMIPS Malta (64-bit)
p1054
sVhardware-long
p1055
VMIPS Malta boards (64-bit)
p1056
ss(Vimage
p1057
g1017
NV5kc-malta
p1058
tp1059
(dp1060
Vconfigs
p1061
(lp1062
Vkernelarch-mips/config.malta
p1063
aVkernelarch-mips/config.mips64r2
p1064
ass(Vdescription
p1065
g1017
NVloongson-3
p1066
tp1067
(dp1068
Vhardware
p1069
VLoongson 3A/3B
p1070
sVhardware-long
p1071
VLoongson 3A or 3B based systems (e.g. from Loongson or Lemote)
p1072
ss(Vimage
p1073
g1017
NVloongson-3
p1074
tp1075
(dp1076
Vconfigs
p1077
(lp1078
Vkernelarch-mips/config.loongson-3
p1079
ass(Vdescription
p1080
g1017
NVocteon
p1081
tp1082
(dp1083
Vhardware
p1084
VOcteon
p1085
sVhardware-long
p1086
VCavium Networks Octeon
p1087
ss(Vbuild
p1088
g1017
NVocteon
p1089
tp1090
(dp1091
Vimage-file
p1092
Vvmlinux
p1093
ss(Vimage
p1094
g1017
NVocteon
p1095
tp1096
(dp1097
Vinstall-stem
p1098
Vvmlinux
p1099
sVconfigs
p1100
(lp1101
Vkernelarch-mips/config.octeon
p1102
ass(g223
g1017
g192
tp1103
(dp1104
g226
(lp1105
V4kc-malta
p1106
aV5kc-malta
p1107
aVloongson-3
p1108
aVocteon
p1109
asg230
I01
ss(Vbase
p1110
Vmipsn32
p1111
tp1112
(dp1113
Vkernel-arch
p1114
Vmips
p1115
sVfeaturesets
p1116
(lp1117
ss(Vbase
p1118
Vmipsn32el
p1119
tp1120
(dp1121
Vkernel-arch
p1122
Vmips
p1123
sVfeaturesets
p1124
(lp1125
ss(Vbase
p1126
Vmipsn32r6
p1127
tp1128
(dp1129
Vkernel-arch
p1130
Vmips
p1131
sVfeaturesets
p1132
(lp1133
ss(Vbase
p1134
Vmipsn32r6el
p1135
tp1136
(dp1137
Vkernel-arch
p1138
Vmips
p1139
sVfeaturesets
p1140
(lp1141
ss(Vbase
p1142
Vmipsr6
p1143
tp1144
(dp1145
Vdefault-flavour
p1146
Vmips32r6
p1147
sVkernel-arch
p1148
Vmips
p1149
sg190
(lp1150
g192
ass(Vbuild
p1151
g1143
tp1152
(dp1153
Vimage-file
p1154
Vvmlinux
p1155
ss(Vimage
p1156
g1143
tp1157
(dp1158
Vinstall-stem
p1159
Vvmlinux
p1160
ss(Vdescription
p1161
g1143
NVmips32r6
p1162
tp1163
(dp1164
Vhardware
p1165
VMIPS R6 (32 bit, big endian)
p1166
sVhardware-long
p1167
VMIPS R6 (32 bit, big endian)
p1168
ss(Vimage
p1169
g1143
NVmips32r6
p1170
tp1171
(dp1172
Vconfigs
p1173
(lp1174
Vkernelarch-mips/config.boston
p1175
aVkernelarch-mips/config.mips32r6
p1176
ass(Vdescription
p1177
g1143
NVmips64r6
p1178
tp1179
(dp1180
Vhardware
p1181
VMIPS R6 (64 bit, big endian)
p1182
sVhardware-long
p1183
VMIPS R6 (64 bit, big endian)
p1184
ss(Vimage
p1185
g1143
NVmips64r6
p1186
tp1187
(dp1188
Vconfigs
p1189
(lp1190
Vkernelarch-mips/config.boston
p1191
aVkernelarch-mips/config.mips64r6
p1192
ass(g223
g1143
g192
tp1193
(dp1194
g226
(lp1195
Vmips32r6
p1196
aVmips64r6
p1197
asg230
I01
ss(Vbase
p1198
Vmipsr6el
p1199
tp1200
(dp1201
Vdefault-flavour
p1202
Vmips32r6el
p1203
sVkernel-arch
p1204
Vmips
p1205
sg190
(lp1206
g192
ass(Vbuild
p1207
g1199
tp1208
(dp1209
Vimage-file
p1210
Vvmlinux
p1211
ss(Vimage
p1212
g1199
tp1213
(dp1214
Vinstall-stem
p1215
Vvmlinux
p1216
ss(Vdescription
p1217
g1199
NVmips32r6el
p1218
tp1219
(dp1220
Vhardware
p1221
VMIPS R6 (32 bit, little endian)
p1222
sVhardware-long
p1223
VMIPS R6 (32 bit, little endian)
p1224
ss(Vimage
p1225
g1199
NVmips32r6el
p1226
tp1227
(dp1228
Vconfigs
p1229
(lp1230
Vkernelarch-mips/config.boston
p1231
aVkernelarch-mips/config.mips32r6
p1232
ass(Vdescription
p1233
g1199
NVmips64r6el
p1234
tp1235
(dp1236
Vhardware
p1237
VMIPS R6 (64 bit, little endian)
p1238
sVhardware-long
p1239
VMIPS R6 (64 bit, little endian)
p1240
ss(Vimage
p1241
g1199
NVmips64r6el
p1242
tp1243
(dp1244
Vconfigs
p1245
(lp1246
Vkernelarch-mips/config.boston
p1247
aVkernelarch-mips/config.mips64r6
p1248
ass(g223
g1199
g192
tp1249
(dp1250
g226
(lp1251
Vmips32r6el
p1252
aVmips64r6el
p1253
asg230
I01
ss(Vbase
p1254
Vpowerpc
p1255
tp1256
(dp1257
Vkernel-arch
p1258
Vpowerpc
p1259
sg190
(lp1260
g192
ass(Vbuild
p1261
g1255
tp1262
(dp1263
Vimage-file
p1264
Vvmlinux
p1265
ss(Vimage
p1266
g1255
tp1267
(dp1268
Vconfigs
p1269
(lp1270
sVbootloaders
p1271
(lp1272
Vgrub-ieee1275
p1273
asVsuggests
p1274
(lp1275
Vmkvmlinuz
p1276
asVinstall-stem
p1277
Vvmlinux
p1278
ss(Vdescription
p1279
g1255
NVpowerpc
p1280
tp1281
(dp1282
Vhardware
p1283
Vuniprocessor 32-bit PowerPC
p1284
ss(Vdescription
p1285
g1255
NVpowerpc-smp
p1286
tp1287
(dp1288
Vhardware
p1289
Vmultiprocessor 32-bit PowerPC
p1290
ss(Vimage
p1291
g1255
NVpowerpc-smp
p1292
tp1293
(dp1294
Vconfigs
p1295
(lp1296
Vpowerpc/config.powerpc
p1297
aVpowerpc/config.powerpc-smp
p1298
ass(Vdescription
p1299
g1255
NVpowerpc64
p1300
tp1301
(dp1302
Vhardware
p1303
V64-bit PowerPC
p1304
ss(Vimage
p1305
g1255
NVpowerpc64
p1306
tp1307
(dp1308
Vconfigs
p1309
(lp1310
Vkernelarch-powerpc/config-arch-64
p1311
aVkernelarch-powerpc/config-arch-64-be
p1312
ass(g223
g1255
g192
tp1313
(dp1314
g226
(lp1315
Vpowerpc
p1316
aVpowerpc-smp
p1317
aVpowerpc64
p1318
asg230
I01
ss(Vbase
p1319
Vppc64
p1320
tp1321
(dp1322
Vdefault-flavour
p1323
Vpowerpc64
p1324
sVkernel-arch
p1325
Vpowerpc
p1326
sg190
(lp1327
g192
ass(Vbuild
p1328
g1320
tp1329
(dp1330
Vimage-file
p1331
Vvmlinux
p1332
ss(Vimage
p1333
g1320
tp1334
(dp1335
Vconfigs
p1336
(lp1337
sVbootloaders
p1338
(lp1339
Vgrub-ieee1275
p1340
asVsuggests
p1341
(lp1342
Vmkvmlinuz
p1343
asVinstall-stem
p1344
Vvmlinux
p1345
ss(Vdescription
p1346
g1320
NVpowerpc64
p1347
tp1348
(dp1349
Vhardware
p1350
V64-bit PowerPC
p1351
ss(Vimage
p1352
g1320
NVpowerpc64
p1353
tp1354
(dp1355
Vconfigs
p1356
(lp1357
Vkernelarch-powerpc/config-arch-64
p1358
aVkernelarch-powerpc/config-arch-64-be
p1359
ass(g223
g1320
g192
tp1360
(dp1361
g226
(lp1362
Vpowerpc64
p1363
asg230
I01
ss(Vbase
p1364
Vppc64el
p1365
tp1366
(dp1367
Vdefault-flavour
p1368
Vpowerpc64le
p1369
sVkernel-arch
p1370
Vpowerpc
p1371
sg190
(lp1372
g192
ass(Vbuild
p1373
g1365
tp1374
(dp1375
Vimage-file
p1376
Vvmlinux
p1377
ss(Vimage
p1378
g1365
tp1379
(dp1380
Vconfigs
p1381
(lp1382
sVbootloaders
p1383
(lp1384
Vgrub-ieee1275
p1385
asVsuggests
p1386
(lp1387
Vmkvmlinuz
p1388
asVinstall-stem
p1389
Vvmlinux
p1390
ss(Vdescription
p1391
g1365
NVpowerpc64le
p1392
tp1393
(dp1394
Vhardware
p1395
VLittle-endian 64-bit PowerPC
p1396
ss(Vimage
p1397
g1365
NVpowerpc64le
p1398
tp1399
(dp1400
Vconfigs
p1401
(lp1402
Vkernelarch-powerpc/config-arch-64
p1403
aVkernelarch-powerpc/config-arch-64-le
p1404
ass(g223
g1365
g192
tp1405
(dp1406
g226
(lp1407
Vpowerpc64le
p1408
asg230
I01
ss(Vbase
p1409
Vriscv64
p1410
tp1411
(dp1412
Vkernel-arch
p1413
Vriscv
p1414
sVfeaturesets
p1415
(lp1416
Vnone
p1417
ass(Vbuild
p1418
g1410
tp1419
(dp1420
Vimage-file
p1421
Varch/riscv/boot/Image
p1422
sVvdso
p1423
I01
ss(Vimage
p1424
g1410
tp1425
(dp1426
Vinstall-stem
p1427
Vvmlinux
p1428
ss(Vdescription
p1429
g1410
NVriscv64
p1430
tp1431
(dp1432
Vhardware
p1433
V64-bit RISC-V platforms
p1434
sVhardware-long
p1435
V64-bit RISC-V platforms
p1436
ss(Vbase
p1437
g1410
Vnone
p1438
tp1439
(dp1440
Vflavours
p1441
(lp1442
Vriscv64
p1443
asVdefault-flavour
p1444
Vriscv64
p1445
ss(Vbase
p1446
Vs390
p1447
tp1448
(dp1449
Vkernel-arch
p1450
Vs390
p1451
sVfeaturesets
p1452
(lp1453
ss(Vbase
p1454
Vs390x
p1455
tp1456
(dp1457
Vdefault-flavour
p1458
Vs390x
p1459
sVkernel-arch
p1460
Vs390
p1461
sg190
(lp1462
g192
ass(Vbuild
p1463
g1455
tp1464
(dp1465
Vimage-file
p1466
Varch/s390/boot/bzImage
p1467
sVvdso
p1468
I01
ss(Vimage
p1469
g1455
tp1470
(dp1471
Vbootloaders
p1472
(lp1473
Vs390-tools
p1474
asVinstall-stem
p1475
Vvmlinuz
p1476
ss(Vrelations
p1477
g1455
tp1478
(dp1479
Vheaders%gcc-10
p1480
Vlinux-compiler-gcc-10-s390
p1481
ss(Vdescription
p1482
g1455
NVs390x
p1483
tp1484
(dp1485
Vhardware
p1486
VIBM zSeries
p1487
ss(g223
g1455
g192
tp1488
(dp1489
g226
(lp1490
Vs390x
p1491
asg230
I01
ss(Vbase
p1492
Vsh3
p1493
tp1494
(dp1495
Vkernel-arch
p1496
Vsh
p1497
sVfeaturesets
p1498
(lp1499
ss(Vbase
p1500
Vsh4
p1501
tp1502
(dp1503
Vkernel-arch
p1504
Vsh
p1505
sg190
(lp1506
g192
ass(Vbuild
p1507
g1501
tp1508
(dp1509
Vimage-file
p1510
Varch/sh/boot/zImage
p1511
ss(Vimage
p1512
g1501
tp1513
(dp1514
Vinstall-stem
p1515
Vvmlinuz
p1516
ss(Vdescription
p1517
g1501
NVsh7751r
p1518
tp1519
(dp1520
Vhardware
p1521
Vsh7751r
p1522
sVhardware-long
p1523
VRenesas SH7751R R2D plus board
p1524
ss(Vdescription
p1525
g1501
NVsh7785lcr
p1526
tp1527
(dp1528
Vhardware
p1529
Vsh7785lcr
p1530
sVhardware-long
p1531
VRenesas SH7785 reference board
p1532
ss(Vimage
p1533
g1501
NVsh7785lcr
p1534
tp1535
(dp1536
Vrecommends
p1537
(lp1538
Vu-boot-tools
p1539
asVcheck-size
p1540
I4194304
ss(g223
g1501
g192
tp1541
(dp1542
g226
(lp1543
Vsh7751r
p1544
aVsh7785lcr
p1545
asg230
I01
ss(Vbase
p1546
Vsparc
p1547
tp1548
(dp1549
Vkernel-arch
p1550
Vsparc
p1551
sVfeaturesets
p1552
(lp1553
ss(Vbase
p1554
Vsparc64
p1555
tp1556
(dp1557
Vdefault-flavour
p1558
Vsparc64-smp
p1559
sVkernel-arch
p1560
Vsparc
p1561
sg190
(lp1562
g192
ass(Vbuild
p1563
g1555
tp1564
(dp1565
Vimage-file
p1566
Vvmlinux
p1567
ss(Vimage
p1568
g1555
tp1569
(dp1570
Vconfigs
p1571
(lp1572
sVbootloaders
p1573
(lp1574
Vgrub-ieee1275
p1575
asVsuggests
p1576
(lp1577
Vfdutils
p1578
asVinstall-stem
p1579
Vvmlinux
p1580
ss(Vdescription
p1581
g1555
NVsparc64
p1582
tp1583
(dp1584
Vhardware
p1585
Vuniprocessor 64-bit UltraSPARC
p1586
ss(Vimage
p1587
g1555
NVsparc64
p1588
tp1589
(dp1590
Vconfigs
p1591
(lp1592
Vkernelarch-sparc/config-up
p1593
ass(Vdescription
p1594
g1555
NVsparc64-smp
p1595
tp1596
(dp1597
Vhardware
p1598
Vmultiprocessor 64-bit UltraSPARC
p1599
ss(Vimage
p1600
g1555
NVsparc64-smp
p1601
tp1602
(dp1603
Vconfigs
p1604
(lp1605
Vkernelarch-sparc/config-smp
p1606
ass(g223
g1555
g192
tp1607
(dp1608
g226
(lp1609
Vsparc64
p1610
aVsparc64-smp
p1611
asg230
I01
ss(Vbase
p1612
Vx32
p1613
tp1614
(dp1615
Vkernel-arch
p1616
Vx86
p1617
sVfeaturesets
p1618
(lp1619
ss(Vabi
p1620
NVrt
p1621
tp1622
(dp1623
Vignore-changes
p1624
(lp1625
V*
p1626
ass(Vdescription
p1627
Ng1621
tp1628
(dp1629
Vpart-long-rt
p1630
VThis kernel includes the PREEMPT_RT realtime patch set.
p1631
sVpart-short-rt
p1632
VPREEMPT_RT
p1633
sVparts
p1634
(lp1635
Vrt
p1636
ass(Vversion
p1637
tp1638
(dp1639
Vsource
p1640
V5.14.16-1kali1
p1641
sVupstream
p1642
V5.14
p1643
sVabiname_base
p1644
V5.14.0
p1645
sVabiname
p1646
V5.14.0-kali4
p1647
ss.