cdebian_linux.config
ConfigCore
p0
(tRp1
(Vabi
p2
tp3
(dp4
Vabiname
p5
V3
p6
sVignore-changes
p7
(lp8
V__cpuhp_*
p9
aV__xive_vm_h_*
p10
aVbpf_analyzer
p11
aVcxl_*
p12
aVdax_flush
p13
aVieee80211_nullfunc_get
p14
aVinet_add_protocol
p15
aVinet_del_protocol
p16
aViommu_device_*
p17
aVkvm_async_pf_task_wait
p18
aVkvmppc_*
p19
aVmm_iommu_*
p20
aVmv_mbus_*
p21
aVperf_*
p22
aVregister_cxl_calls
p23
aVregister_key_type
p24
aVunregister_cxl_calls
p25
aV*_hw_breakpoint
p26
aVmodule:arch/x86/kvm/*
p27
aVmodule:drivers/crypto/ccp/*
p28
aVmodule:drivers/hv/*
p29
aVmodule:drivers/iio/common/hid-sensors/*
p30
aVmodule:drivers/iio/common/st_sensors/**
p31
aVmodule:drivers/mtd/nand/*
p32
aVmodule:drivers/net/wireless/**
p33
aVmodule:drivers/nvdimm/*
p34
aVmodule:drivers/power/supply/bq27xxx_battery
p35
aVmodule:drivers/scsi/cxgbi/*
p36
aVmodule:drivers/scsi/libiscs*
p37
aVmodule:drivers/scsi/qla2xxx/qla2xxx
p38
aVmodule:drivers/scsi/ufs/*
p39
aVmodule:drivers/target/**
p40
aVmodule:drivers/usb/chipidea/**
p41
aVmodule:drivers/usb/gadget/**
p42
aVmodule:drivers/usb/host/**
p43
aVmodule:drivers/usb/musb/**
p44
aVmodule:fs/nfs/**
p45
aVmodule:net/ceph/libceph
p46
aVmodule:net/l2tp/**
p47
aVmodule:net/rxrpc/rxrpc
p48
aVmodule:sound/core/seq/**
p49
aVmodule:sound/firewire/snd-firewire-lib
p50
aVbtree_*
p51
aVvisitor*
p52
aVcan_rx_register
p53
aVip6_xmit
p54
aVmodule:net/dccp/dccp
p55
aVmodule:net/rds/rds
p56
aVdevfreq_*
p57
aVdevm_devfreq_*
p58
aVupdate_devfreq
p59
aVmodule:drivers/infiniband/**
p60
aVacpi_ec_add_query_handler
p61
aVacpi_ec_remove_query_handler
p62
aVfirst_ec
p63
aVdebugfs_create_automount
p64
aVmodule:drivers/iio/imu/inv_mpu6050/*
p65
ass(Vbase
p66
tp67
(dp68
Varches
p69
(lp70
Valpha
p71
aVamd64
p72
aVarm64
p73
aVarm64ilp32
p74
aVarmel
p75
aVarmhf
p76
aVhppa
p77
aVi386
p78
aVm68k
p79
aVmips
p80
aVmips64
p81
aVmips64el
p82
aVmips64r6
p83
aVmips64r6el
p84
aVmipsel
p85
aVmipsn32
p86
aVmipsn32el
p87
aVmipsn32r6
p88
aVmipsn32r6el
p89
aVmipsr6
p90
aVmipsr6el
p91
aVpowerpc
p92
aVpowerpcspe
p93
aVppc64
p94
aVppc64el
p95
aVs390
p96
aVs390x
p97
aVsh3
p98
aVsh4
p99
aVsparc
p100
aVsparc64
p101
aVtilegx
p102
aVx32
p103
asVcompiler
p104
Vgcc-7
p105
sVfeaturesets
p106
(lp107
Vnone
p108
aVrt
p109
ass(Vbuild
p110
tp111
(dp112
Vdebug-info
p113
I01
sVsigned-modules
p114
I00
ss(Vbase
p115
NVrt
p116
tp117
(dp118
Venabled
p119
I01
ss(Vdescription
p120
tp121
(dp122
Vpart-long-up
p123
VThis kernel is not suitable for SMP (multi-processor,\u000amulti-core or hyper-threaded) systems.
p124
sVpart-long-xen
p125
VThis kernel also runs on a Xen hypervisor.\u000aIt supports both privileged (dom0) and unprivileged (domU) operation.
p126
ss(Vimage
p127
tp128
(dp129
Vinitramfs-generators
p130
(lp131
Vinitramfs-tools
p132
aVinitramfs-fallback
p133
asVrecommends
p134
Vapparmor
p135
ss(Vrelations
p136
tp137
(dp138
Vgcc-7
p139
Vgcc-7 <!stage1 !cross>, gcc-7-@gnu-type-package@ <!stage1 cross>
p140
sVinitramfs-fallback
p141
Vlinux-initramfs-tool
p142
sVinitramfs-tools
p143
Vinitramfs-tools (>= 0.120+deb8u2)
p144
ss(Vbase
p145
Valpha
p146
tp147
(dp148
Vkernel-arch
p149
Valpha
p150
sVfeaturesets
p151
(lp152
Vnone
p153
ass(Vbuild
p154
g146
tp155
(dp156
Vimage-file
p157
Varch/alpha/boot/vmlinux.gz
p158
sVsigned-modules
p159
I00
ss(Vimage
p160
g146
tp161
(dp162
Vsuggests
p163
Vaboot, fdutils
p164
sVinstall-stem
p165
Vvmlinuz
p166
ss(Vdescription
p167
g146
NValpha-generic
p168
tp169
(dp170
Vhardware
p171
VAlpha
p172
sVhardware-long
p173
VDEC Alpha systems with extended kernel start address (Wildfire, Titan, Marvel)
p174
ss(Vdescription
p175
g146
NValpha-smp
p176
tp177
(dp178
Vhardware
p179
VAlpha SMP
p180
sVhardware-long
p181
VDEC Alpha SMP systems with extended kernel start address (Wildfire, Titan, Marvel)
p182
ss(Vbase
p183
g146
g153
tp184
(dp185
Vflavours
p186
(lp187
Valpha-generic
p188
aValpha-smp
p189
asVimplicit-flavour
p190
I01
ss(Vbase
p191
Vamd64
p192
tp193
(dp194
Vfeaturesets
p195
(lp196
Vnone
p197
aVrt
p198
asVkernel-arch
p199
Vx86
p200
ss(Vbuild
p201
g192
tp202
(dp203
Vdebug-info
p204
I01
sVimage-file
p205
Varch/x86/boot/bzImage
p206
sVvdso
p207
I01
ss(Vimage
p208
g192
tp209
(dp210
Vbootloaders
p211
(lp212
Vgrub-pc
p213
aVgrub-efi-amd64
p214
aVextlinux
p215
asVinstall-stem
p216
Vvmlinuz
p217
sVbreaks
p218
Vxserver-xorg-input-vmmouse (<< 1:13.0.99)
p219
ss(Vrelations
p220
g192
tp221
(dp222
Vgcc-7
p223
Vgcc-7 (>= 7.2.0-20~) <!stage1 !cross>, gcc-7-x86-64-linux-gnu (>= 7.2.0-20~) <!stage1 cross>
p224
sVheaders%gcc-7
p225
Vlinux-compiler-gcc-7-x86 (>= 4.14.17-1~)
p226
ss(Vdescription
p227
g192
NVamd64
p228
tp229
(dp230
Vhardware
p231
V64-bit PCs
p232
sVhardware-long
p233
VPCs with AMD64, Intel 64 or VIA Nano processors
p234
ss(Vbase
p235
g192
Vnone
p236
tp237
(dp238
Vflavours
p239
(lp240
Vamd64
p241
ass(Vdescription
p242
g192
g236
Vamd64
p243
tp244
(dp245
Vparts
p246
(lp247
Vxen
p248
ass(Vbase
p249
g192
Vrt
p250
tp251
(dp252
Vflavours
p253
(lp254
Vamd64
p255
ass(Vbase
p256
Varm64
p257
tp258
(dp259
Vkernel-arch
p260
Varm64
p261
sVfeaturesets
p262
(lp263
Vnone
p264
ass(Vbuild
p265
g257
tp266
(dp267
Vdebug-info
p268
I01
sVimage-file
p269
Varch/arm64/boot/Image
p270
sVvdso
p271
I01
ss(Vimage
p272
g257
tp273
(dp274
Vinstall-stem
p275
Vvmlinuz
p276
sVbreaks
p277
Vlibmozjs185-1.0, libmozjs-24-0 (<< 24.2.0-5.1~)
p278
ss(Vdescription
p279
g257
NVarm64
p280
tp281
(dp282
Vhardware
p283
V64-bit ARMv8 machines
p284
ss(Vimage
p285
g257
NVarm64
p286
tp287
(dp288
s(Vbase
p289
g257
Vnone
p290
tp291
(dp292
Vflavours
p293
(lp294
Varm64
p295
ass(Vbase
p296
Varm64ilp32
p297
tp298
(dp299
Vkernel-arch
p300
Varm64
p301
sVfeaturesets
p302
(lp303
ss(Vbase
p304
Varmel
p305
tp306
(dp307
Vkernel-arch
p308
Varm
p309
sg151
(lp310
g153
ass(Vbuild
p311
g305
tp312
(dp313
Vimage-file
p314
Varch/arm/boot/zImage
p315
sVsigned-modules
p316
I00
sVuncompressed-image-file
p317
Varch/arm/boot/Image
p318
ss(Vimage
p319
g305
tp320
(dp321
Vinstall-stem
p322
Vvmlinuz
p323
ss(Vrelations
p324
g305
tp325
(dp326
Vheaders%gcc-7
p327
Vlinux-compiler-gcc-7-arm
p328
ss(Vdescription
p329
g305
NVmarvell
p330
tp331
(dp332
Vhardware
p333
VMarvell Kirkwood/Orion
p334
sVhardware-long
p335
VMarvell Kirkwood based systems (SheevaPlug, QNAP TS-119/TS-219, etc)\u000aand Orion 5181, 5182 and 5281 based systems (QNAP TS-109/TS-209, etc)
p336
ss(Vimage
p337
g305
NVmarvell
p338
tp339
(dp340
Vrecommends
p341
Vu-boot-tools
p342
sVcheck-size
p343
L2097080L
sVcheck-size-with-dtb
p344
I01
sVcheck-uncompressed-size
p345
L7340032L
sVbreaks
p346
Vflash-kernel (<< 3.57~)
p347
ss(g183
g305
g153
tp348
(dp349
g186
(lp350
Vmarvell
p351
asg190
I01
ss(Vbase
p352
Varmhf
p353
tp354
(dp355
Vkernel-arch
p356
Varm
p357
sg151
(lp358
g153
ass(Vbuild
p359
g353
tp360
(dp361
Vimage-file
p362
Varch/arm/boot/zImage
p363
sVvdso
p364
I01
ss(Vimage
p365
g353
tp366
(dp367
Vinstall-stem
p368
Vvmlinuz
p369
ss(Vrelations
p370
g353
tp371
(dp372
Vheaders%gcc-7
p373
Vlinux-compiler-gcc-7-arm
p374
ss(Vdescription
p375
g353
NVarmmp
p376
tp377
(dp378
Vhardware
p379
VARMv7 multiplatform compatible SoCs
p380
sVhardware-long
p381
VARMv7 multiplatform kernel. See\u000ahttps://wiki.debian.org/DebianKernel/ARMMP for details of supported\u000aplatforms
p382
ss(Vdescription
p383
g353
NVarmmp-lpae
p384
tp385
(dp386
Vhardware
p387
VARMv7 multiplatform compatible SoCs supporting LPAE
p388
sVhardware-long
p389
VARMv7 multiplatform kernel supporting LPAE. See\u000ahttps://wiki.debian.org/DebianKernel/ARMMP for details of supported\u000aplatforms.
p390
ss(g183
g353
g153
tp391
(dp392
g186
(lp393
Varmmp
p394
aVarmmp-lpae
p395
asg190
I01
ss(Vbase
p396
Vhppa
p397
tp398
(dp399
Vkernel-arch
p400
Vparisc
p401
sg151
(lp402
g153
ass(Vbuild
p403
g397
tp404
(dp405
Vimage-file
p406
Vvmlinux
p407
sVsigned-modules
p408
I00
ss(Vimage
p409
g397
tp410
(dp411
Vsuggests
p412
Vpalo
p413
sVinstall-stem
p414
Vvmlinux
p415
ss(Vdescription
p416
g397
NVparisc
p417
tp418
(dp419
Vhardware
p420
V32-bit PA-RISC
p421
sVhardware-long
p422
VHP PA-RISC 32-bit systems with max 4 GB RAM
p423
ss(Vbase
p424
g397
NVparisc64-smp
p425
tp426
(dp427
Vcflags
p428
V-fno-cse-follow-jumps
p429
sVoverride-host-type
p430
Vhppa64-linux-gnu
p431
ss(Vdescription
p432
g397
NVparisc64-smp
p433
tp434
(dp435
Vhardware
p436
Vmultiprocessor 64-bit PA-RISC
p437
sVhardware-long
p438
VHP PA-RISC 64-bit SMP systems with support for more than 4 GB RAM
p439
ss(Vrelations
p440
g397
tp441
(dp442
Vgcc-7
p443
Vgcc-7 <!stage1 !cross>, binutils-hppa64-linux-gnu <!stage1 !cross>, gcc-7-hppa64-linux-gnu <!stage1 !cross>, gcc-7-hppa-linux-gnu <!stage1 cross>, binutils-hppa64-linux-gnu <!stage1 cross>, gcc-7-hppa64-linux-gnu <!stage1 cross>
p444
ss(g183
g397
g153
tp445
(dp446
g186
(lp447
Vparisc
p448
aVparisc64-smp
p449
asg190
I01
ss(Vbase
p450
Vi386
p451
tp452
(dp453
Vfeaturesets
p454
(lp455
Vnone
p456
aVrt
p457
asVkernel-arch
p458
Vx86
p459
ss(Vbuild
p460
g451
tp461
(dp462
Vimage-file
p463
Varch/x86/boot/bzImage
p464
sVvdso
p465
I01
ss(Vdescription
p466
g451
tp467
(dp468
Vpart-long-pae
p469
VThis kernel requires PAE (Physical Address Extension).\u000aThis feature is supported by the Intel Pentium Pro/II/III/4/4M/D, Xeon,\u000aCore and Atom; AMD Geode NX, Athlon (K7), Duron, Opteron, Sempron,\u000aTurion or Phenom; Transmeta Efficeon; VIA C7; and some other processors.
p470
ss(Vimage
p471
g451
tp472
(dp473
Vbootloaders
p474
(lp475
Vgrub-pc
p476
aVextlinux
p477
asVinstall-stem
p478
Vvmlinuz
p479
sVbreaks
p480
Vxserver-xorg-input-vmmouse (<< 1:13.0.99)
p481
ss(Vrelations
p482
g451
tp483
(dp484
Vgcc-7
p485
Vgcc-7 (>= 7.2.0-20~) <!stage1 !cross>, gcc-7-i686-linux-gnu (>= 7.2.0-20~) <!stage1 cross>
p486
sVheaders%gcc-7
p487
Vlinux-compiler-gcc-7-x86 (>= 4.14.17-1~)
p488
ss(Vdescription
p489
g451
NV686
p490
tp491
(dp492
Vhardware
p493
Volder PCs
p494
sVhardware-long
p495
VPCs with one or more processors not supporting PAE
p496
ss(Vbuild
p497
g451
NV686-pae
p498
tp499
(dp500
Vdebug-info
p501
I01
ss(Vdescription
p502
g451
NV686-pae
p503
tp504
(dp505
Vhardware
p506
Vmodern PCs
p507
sVhardware-long
p508
VPCs with one or more processors supporting PAE
p509
sVparts
p510
(lp511
Vpae
p512
ass(Vbase
p513
g451
Vnone
p514
tp515
(dp516
Vflavours
p517
(lp518
V686
p519
aV686-pae
p520
ass(Vdescription
p521
g451
g514
V686-pae
p522
tp523
(dp524
Vparts
p525
(lp526
Vxen
p527
ass(Vbase
p528
g451
Vrt
p529
tp530
(dp531
Vflavours
p532
(lp533
V686-pae
p534
ass(Vbase
p535
Vm68k
p536
tp537
(dp538
Vcflags
p539
V-ffreestanding
p540
sVkernel-arch
p541
Vm68k
p542
sg151
(lp543
g153
ass(Vbuild
p544
g536
tp545
(dp546
Vimage-file
p547
Vvmlinux
p548
sVsigned-modules
p549
I00
ss(Vimage
p550
g536
tp551
(dp552
Vsuggests
p553
Vvmelilo, fdutils
p554
sVinstall-stem
p555
Vvmlinux
p556
ss(Vdescription
p557
g536
NVm68k
p558
tp559
(dp560
Vhardware
p561
VMotorola MC68020+ family
p562
ss(g183
g536
g153
tp563
(dp564
g186
(lp565
Vm68k
p566
asg190
I01
ss(Vbase
p567
Vmips
p568
tp569
(dp570
Vkernel-arch
p571
Vmips
p572
sg151
(lp573
g153
ass(Vbuild
p574
g568
tp575
(dp576
Vimage-file
p577
Vvmlinux
p578
sVsigned-modules
p579
I00
ss(Vimage
p580
g568
tp581
(dp582
Vinstall-stem
p583
Vvmlinux
p584
ss(Vdescription
p585
g568
NV4kc-malta
p586
tp587
(dp588
Vhardware
p589
VMIPS Malta
p590
sVhardware-long
p591
VMIPS Malta boards
p592
ss(Vimage
p593
g568
NV4kc-malta
p594
tp595
(dp596
Vconfigs
p597
(lp598
Vkernelarch-mips/config.malta
p599
aVkernelarch-mips/config.mips32r2
p600
ass(Vdescription
p601
g568
NV5kc-malta
p602
tp603
(dp604
Vhardware
p605
VMIPS Malta (64-bit)
p606
sVhardware-long
p607
VMIPS Malta boards (64-bit)
p608
ss(Vimage
p609
g568
NV5kc-malta
p610
tp611
(dp612
Vconfigs
p613
(lp614
Vkernelarch-mips/config.malta
p615
aVkernelarch-mips/config.mips64r2
p616
ass(Vdescription
p617
g568
NVocteon
p618
tp619
(dp620
Vhardware
p621
VOcteon
p622
sVhardware-long
p623
VCavium Networks Octeon
p624
ss(Vimage
p625
g568
NVocteon
p626
tp627
(dp628
Vconfigs
p629
(lp630
Vkernelarch-mips/config.octeon
p631
ass(g183
g568
g153
tp632
(dp633
g186
(lp634
V4kc-malta
p635
aV5kc-malta
p636
aVocteon
p637
asg190
I01
ss(Vbase
p638
Vmips64
p639
tp640
(dp641
Vkernel-arch
p642
Vmips
p643
sg151
(lp644
g153
ass(Vbuild
p645
g639
tp646
(dp647
Vimage-file
p648
Vvmlinux
p649
sVsigned-modules
p650
I00
ss(Vimage
p651
g639
tp652
(dp653
Vinstall-stem
p654
Vvmlinux
p655
ss(Vdescription
p656
g639
NV5kc-malta
p657
tp658
(dp659
Vhardware
p660
VMIPS Malta
p661
sVhardware-long
p662
VMIPS Malta boards
p663
ss(Vimage
p664
g639
NV5kc-malta
p665
tp666
(dp667
Vconfigs
p668
(lp669
Vkernelarch-mips/config.malta
p670
aVkernelarch-mips/config.mips64r2
p671
ass(Vdescription
p672
g639
NVocteon
p673
tp674
(dp675
Vhardware
p676
VOcteon
p677
sVhardware-long
p678
VCavium Networks Octeon
p679
ss(Vimage
p680
g639
NVocteon
p681
tp682
(dp683
Vconfigs
p684
(lp685
Vkernelarch-mips/config.octeon
p686
ass(g183
g639
g153
tp687
(dp688
g186
(lp689
V5kc-malta
p690
aVocteon
p691
asg190
I01
ss(Vbase
p692
Vmips64el
p693
tp694
(dp695
Vkernel-arch
p696
Vmips
p697
sg151
(lp698
g153
ass(Vbuild
p699
g693
tp700
(dp701
Vimage-file
p702
Vvmlinux
p703
sVsigned-modules
p704
I00
ss(Vimage
p705
g693
tp706
(dp707
Vinstall-stem
p708
Vvmlinux
p709
ss(Vdescription
p710
g693
NV5kc-malta
p711
tp712
(dp713
Vhardware
p714
VMIPS Malta
p715
sVhardware-long
p716
VMIPS Malta boards
p717
ss(Vimage
p718
g693
NV5kc-malta
p719
tp720
(dp721
Vconfigs
p722
(lp723
Vkernelarch-mips/config.malta
p724
aVkernelarch-mips/config.mips64r2
p725
ass(Vdescription
p726
g693
NVloongson-3
p727
tp728
(dp729
Vhardware
p730
VLoongson 3A/3B
p731
sVhardware-long
p732
VLoongson 3A or 3B based systems (e.g. from Loongson or Lemote)
p733
ss(Vimage
p734
g693
NVloongson-3
p735
tp736
(dp737
Vconfigs
p738
(lp739
Vkernelarch-mips/config.loongson-3
p740
ass(Vdescription
p741
g693
NVocteon
p742
tp743
(dp744
Vhardware
p745
VOcteon
p746
sVhardware-long
p747
VCavium Networks Octeon
p748
ss(Vimage
p749
g693
NVocteon
p750
tp751
(dp752
Vconfigs
p753
(lp754
Vkernelarch-mips/config.octeon
p755
ass(g183
g693
g153
tp756
(dp757
g186
(lp758
V5kc-malta
p759
aVloongson-3
p760
aVocteon
p761
asg190
I01
ss(Vbase
p762
Vmips64r6
p763
tp764
(dp765
Vkernel-arch
p766
Vmips
p767
sg151
(lp768
g153
ass(Vbuild
p769
g763
tp770
(dp771
Vimage-file
p772
Vvmlinux
p773
sVsigned-modules
p774
I00
ss(Vimage
p775
g763
tp776
(dp777
Vinstall-stem
p778
Vvmlinux
p779
ss(Vdescription
p780
g763
NVmips64r6
p781
tp782
(dp783
Vhardware
p784
VMIPS R6 (64 bit, big endian)
p785
sVhardware-long
p786
VMIPS R6 (64 bit, big endian)
p787
ss(Vimage
p788
g763
NVmips64r6
p789
tp790
(dp791
Vconfigs
p792
(lp793
Vkernelarch-mips/config.malta
p794
aVkernelarch-mips/config.mips64r6
p795
ass(g183
g763
g153
tp796
(dp797
g186
(lp798
Vmips64r6
p799
asg190
I01
ss(Vbase
p800
Vmips64r6el
p801
tp802
(dp803
Vkernel-arch
p804
Vmips
p805
sg151
(lp806
g153
ass(Vbuild
p807
g801
tp808
(dp809
Vimage-file
p810
Vvmlinux
p811
sVsigned-modules
p812
I00
ss(Vimage
p813
g801
tp814
(dp815
Vinstall-stem
p816
Vvmlinux
p817
ss(Vdescription
p818
g801
NVmips64r6el
p819
tp820
(dp821
Vhardware
p822
VMIPS R6 (64 bit, little endian)
p823
sVhardware-long
p824
VMIPS R6 (64 bit, little endian)
p825
ss(Vimage
p826
g801
NVmips64r6el
p827
tp828
(dp829
Vconfigs
p830
(lp831
Vkernelarch-mips/config.malta
p832
aVkernelarch-mips/config.mips64r6
p833
ass(g183
g801
g153
tp834
(dp835
g186
(lp836
Vmips64r6el
p837
asg190
I01
ss(Vbase
p838
Vmipsel
p839
tp840
(dp841
Vkernel-arch
p842
Vmips
p843
sg151
(lp844
g153
ass(Vbuild
p845
g839
tp846
(dp847
Vimage-file
p848
Vvmlinux
p849
sVsigned-modules
p850
I00
ss(Vimage
p851
g839
tp852
(dp853
Vinstall-stem
p854
Vvmlinux
p855
ss(Vdescription
p856
g839
NV4kc-malta
p857
tp858
(dp859
Vhardware
p860
VMIPS Malta
p861
sVhardware-long
p862
VMIPS Malta boards
p863
ss(Vimage
p864
g839
NV4kc-malta
p865
tp866
(dp867
Vconfigs
p868
(lp869
Vkernelarch-mips/config.malta
p870
aVkernelarch-mips/config.mips32r2
p871
ass(Vdescription
p872
g839
NV5kc-malta
p873
tp874
(dp875
Vhardware
p876
VMIPS Malta (64-bit)
p877
sVhardware-long
p878
VMIPS Malta boards (64-bit)
p879
ss(Vimage
p880
g839
NV5kc-malta
p881
tp882
(dp883
Vconfigs
p884
(lp885
Vkernelarch-mips/config.malta
p886
aVkernelarch-mips/config.mips64r2
p887
ass(Vdescription
p888
g839
NVloongson-3
p889
tp890
(dp891
Vhardware
p892
VLoongson 3A/3B
p893
sVhardware-long
p894
VLoongson 3A or 3B based systems (e.g. from Loongson or Lemote)
p895
ss(Vimage
p896
g839
NVloongson-3
p897
tp898
(dp899
Vconfigs
p900
(lp901
Vkernelarch-mips/config.loongson-3
p902
ass(Vdescription
p903
g839
NVocteon
p904
tp905
(dp906
Vhardware
p907
VOcteon
p908
sVhardware-long
p909
VCavium Networks Octeon
p910
ss(Vimage
p911
g839
NVocteon
p912
tp913
(dp914
Vconfigs
p915
(lp916
Vkernelarch-mips/config.octeon
p917
ass(g183
g839
g153
tp918
(dp919
g186
(lp920
V4kc-malta
p921
aV5kc-malta
p922
aVloongson-3
p923
aVocteon
p924
asg190
I01
ss(Vbase
p925
Vmipsn32
p926
tp927
(dp928
Vkernel-arch
p929
Vmips
p930
sVfeaturesets
p931
(lp932
ss(Vbase
p933
Vmipsn32el
p934
tp935
(dp936
Vkernel-arch
p937
Vmips
p938
sVfeaturesets
p939
(lp940
ss(Vbase
p941
Vmipsn32r6
p942
tp943
(dp944
Vkernel-arch
p945
Vmips
p946
sVfeaturesets
p947
(lp948
ss(Vbase
p949
Vmipsn32r6el
p950
tp951
(dp952
Vkernel-arch
p953
Vmips
p954
sVfeaturesets
p955
(lp956
ss(Vbase
p957
Vmipsr6
p958
tp959
(dp960
Vkernel-arch
p961
Vmips
p962
sg151
(lp963
g153
ass(Vbuild
p964
g958
tp965
(dp966
Vimage-file
p967
Vvmlinux
p968
sVsigned-modules
p969
I00
ss(Vimage
p970
g958
tp971
(dp972
Vinstall-stem
p973
Vvmlinux
p974
ss(Vdescription
p975
g958
NVmips32r6
p976
tp977
(dp978
Vhardware
p979
VMIPS R6 (32 bit, big endian)
p980
sVhardware-long
p981
VMIPS R6 (32 bit, big endian)
p982
ss(Vimage
p983
g958
NVmips32r6
p984
tp985
(dp986
Vconfigs
p987
(lp988
Vkernelarch-mips/config.malta
p989
aVkernelarch-mips/config.mips32r6
p990
ass(Vdescription
p991
g958
NVmips64r6
p992
tp993
(dp994
Vhardware
p995
VMIPS R6 (64 bit, big endian)
p996
sVhardware-long
p997
VMIPS R6 (64 bit, big endian)
p998
ss(Vimage
p999
g958
NVmips64r6
p1000
tp1001
(dp1002
Vconfigs
p1003
(lp1004
Vkernelarch-mips/config.malta
p1005
aVkernelarch-mips/config.mips64r6
p1006
ass(g183
g958
g153
tp1007
(dp1008
g186
(lp1009
Vmips32r6
p1010
aVmips64r6
p1011
asg190
I01
ss(Vbase
p1012
Vmipsr6el
p1013
tp1014
(dp1015
Vkernel-arch
p1016
Vmips
p1017
sg151
(lp1018
g153
ass(Vbuild
p1019
g1013
tp1020
(dp1021
Vimage-file
p1022
Vvmlinux
p1023
sVsigned-modules
p1024
I00
ss(Vimage
p1025
g1013
tp1026
(dp1027
Vinstall-stem
p1028
Vvmlinux
p1029
ss(Vdescription
p1030
g1013
NVmips32r6el
p1031
tp1032
(dp1033
Vhardware
p1034
VMIPS R6 (32 bit, little endian)
p1035
sVhardware-long
p1036
VMIPS R6 (32 bit, little endian)
p1037
ss(Vimage
p1038
g1013
NVmips32r6el
p1039
tp1040
(dp1041
Vconfigs
p1042
(lp1043
Vkernelarch-mips/config.malta
p1044
aVkernelarch-mips/config.mips32r6
p1045
ass(Vdescription
p1046
g1013
NVmips64r6el
p1047
tp1048
(dp1049
Vhardware
p1050
VMIPS R6 (64 bit, little endian)
p1051
sVhardware-long
p1052
VMIPS R6 (64 bit, little endian)
p1053
ss(Vimage
p1054
g1013
NVmips64r6el
p1055
tp1056
(dp1057
Vconfigs
p1058
(lp1059
Vkernelarch-mips/config.malta
p1060
aVkernelarch-mips/config.mips64r6
p1061
ass(g183
g1013
g153
tp1062
(dp1063
g186
(lp1064
Vmips32r6el
p1065
aVmips64r6el
p1066
asg190
I01
ss(Vbase
p1067
Vpowerpc
p1068
tp1069
(dp1070
Vkernel-arch
p1071
Vpowerpc
p1072
sg151
(lp1073
g153
ass(Vbuild
p1074
g1068
tp1075
(dp1076
Vimage-file
p1077
Vvmlinux
p1078
sVvdso
p1079
I01
ss(Vimage
p1080
g1068
tp1081
(dp1082
Vconfigs
p1083
(lp1084
sVsuggests
p1085
Vmkvmlinuz
p1086
sVinstall-stem
p1087
Vvmlinux
p1088
ss(Vdescription
p1089
g1068
NVpowerpc
p1090
tp1091
(dp1092
Vhardware
p1093
Vuniprocessor 32-bit PowerPC
p1094
ss(Vdescription
p1095
g1068
NVpowerpc-smp
p1096
tp1097
(dp1098
Vhardware
p1099
Vmultiprocessor 32-bit PowerPC
p1100
ss(Vimage
p1101
g1068
NVpowerpc-smp
p1102
tp1103
(dp1104
Vconfigs
p1105
(lp1106
Vpowerpc/config.powerpc
p1107
aVpowerpc/config.powerpc-smp
p1108
ass(Vdescription
p1109
g1068
NVpowerpc64
p1110
tp1111
(dp1112
Vhardware
p1113
V64-bit PowerPC
p1114
ss(Vimage
p1115
g1068
NVpowerpc64
p1116
tp1117
(dp1118
Vconfigs
p1119
(lp1120
Vkernelarch-powerpc/config-arch-64
p1121
aVkernelarch-powerpc/config-arch-64-be
p1122
ass(g183
g1068
g153
tp1123
(dp1124
g186
(lp1125
Vpowerpc
p1126
aVpowerpc-smp
p1127
aVpowerpc64
p1128
asg190
I01
ss(Vbase
p1129
Vpowerpcspe
p1130
tp1131
(dp1132
Vkernel-arch
p1133
Vpowerpc
p1134
sg151
(lp1135
g153
ass(Vbuild
p1136
g1130
tp1137
(dp1138
Vimage-file
p1139
Vvmlinux
p1140
sVsigned-modules
p1141
I00
sVvdso
p1142
I01
ss(Vimage
p1143
g1130
tp1144
(dp1145
Vsuggests
p1146
Vmkvmlinuz
p1147
sVinstall-stem
p1148
Vvmlinux
p1149
ss(Vdescription
p1150
g1130
tp1151
(dp1152
Vhardware
p1153
V32-bit PowerPC with SPE (instead of AltiVec) with SMP support
p1154
ss(g183
g1130
g153
tp1155
(dp1156
g186
(lp1157
Vpowerpcspe
p1158
asg190
I01
ss(Vbase
p1159
Vppc64
p1160
tp1161
(dp1162
Vkernel-arch
p1163
Vpowerpc
p1164
sg151
(lp1165
g153
ass(Vbuild
p1166
g1160
tp1167
(dp1168
Vimage-file
p1169
Vvmlinux
p1170
sVsigned-modules
p1171
I00
sVvdso
p1172
I01
ss(Vimage
p1173
g1160
tp1174
(dp1175
Vconfigs
p1176
(lp1177
sVsuggests
p1178
Vmkvmlinuz
p1179
sVinstall-stem
p1180
Vvmlinux
p1181
ss(Vdescription
p1182
g1160
NVpowerpc64
p1183
tp1184
(dp1185
Vhardware
p1186
V64-bit PowerPC
p1187
ss(Vimage
p1188
g1160
NVpowerpc64
p1189
tp1190
(dp1191
Vconfigs
p1192
(lp1193
Vkernelarch-powerpc/config-arch-64
p1194
aVkernelarch-powerpc/config-arch-64-be
p1195
ass(g183
g1160
g153
tp1196
(dp1197
g186
(lp1198
Vpowerpc64
p1199
asg190
I01
ss(Vbase
p1200
Vppc64el
p1201
tp1202
(dp1203
Vkernel-arch
p1204
Vpowerpc
p1205
sg151
(lp1206
g153
ass(Vbuild
p1207
g1201
tp1208
(dp1209
Vimage-file
p1210
Vvmlinux
p1211
sVvdso
p1212
I01
ss(Vimage
p1213
g1201
tp1214
(dp1215
Vconfigs
p1216
(lp1217
sVsuggests
p1218
Vmkvmlinuz
p1219
sVinstall-stem
p1220
Vvmlinux
p1221
ss(Vdescription
p1222
g1201
NVpowerpc64le
p1223
tp1224
(dp1225
Vhardware
p1226
VLittle-endian 64-bit PowerPC
p1227
ss(Vimage
p1228
g1201
NVpowerpc64le
p1229
tp1230
(dp1231
Vconfigs
p1232
(lp1233
Vkernelarch-powerpc/config-arch-64
p1234
aVkernelarch-powerpc/config-arch-64-le
p1235
ass(g183
g1201
g153
tp1236
(dp1237
g186
(lp1238
Vpowerpc64le
p1239
asg190
I01
ss(Vbase
p1240
Vs390
p1241
tp1242
(dp1243
Vkernel-arch
p1244
Vs390
p1245
sVfeaturesets
p1246
(lp1247
ss(Vbase
p1248
Vs390x
p1249
tp1250
(dp1251
Vkernel-arch
p1252
Vs390
p1253
sg151
(lp1254
g153
ass(Vbuild
p1255
g1249
tp1256
(dp1257
Vimage-file
p1258
Varch/s390/boot/image
p1259
sVvdso
p1260
I01
ss(Vimage
p1261
g1249
tp1262
(dp1263
Vbootloaders
p1264
(lp1265
Vs390-tools
p1266
asVinstall-stem
p1267
Vvmlinuz
p1268
ss(Vrelations
p1269
g1249
tp1270
(dp1271
Vheaders%gcc-7
p1272
Vlinux-compiler-gcc-7-s390
p1273
ss(Vbuild
p1274
g1249
NVs390x
p1275
tp1276
(dp1277
Vdebug-info
p1278
I01
ss(Vdescription
p1279
g1249
NVs390x
p1280
tp1281
(dp1282
Vhardware
p1283
VIBM zSeries
p1284
ss(g183
g1249
g153
tp1285
(dp1286
g186
(lp1287
Vs390x
p1288
asg190
I01
ss(Vbase
p1289
Vsh3
p1290
tp1291
(dp1292
Vkernel-arch
p1293
Vsh
p1294
sVfeaturesets
p1295
(lp1296
ss(Vbase
p1297
Vsh4
p1298
tp1299
(dp1300
Vkernel-arch
p1301
Vsh
p1302
sg151
(lp1303
g153
ass(Vbuild
p1304
g1298
tp1305
(dp1306
Vimage-file
p1307
Varch/sh/boot/zImage
p1308
sVsigned-modules
p1309
I00
ss(Vimage
p1310
g1298
tp1311
(dp1312
Vinstall-stem
p1313
Vvmlinuz
p1314
ss(Vdescription
p1315
g1298
NVsh7751r
p1316
tp1317
(dp1318
Vhardware
p1319
Vsh7751r
p1320
sVhardware-long
p1321
VRenesas SH7751R R2D plus board
p1322
ss(Vdescription
p1323
g1298
NVsh7785lcr
p1324
tp1325
(dp1326
Vhardware
p1327
Vsh7785lcr
p1328
sVhardware-long
p1329
VRenesas SH7785 reference board
p1330
ss(Vimage
p1331
g1298
NVsh7785lcr
p1332
tp1333
(dp1334
Vrecommends
p1335
Vu-boot-tools
p1336
sVcheck-size
p1337
L4194304L
ss(g183
g1298
g153
tp1338
(dp1339
g186
(lp1340
Vsh7751r
p1341
aVsh7785lcr
p1342
asg190
I01
ss(Vbase
p1343
Vsparc
p1344
tp1345
(dp1346
Vkernel-arch
p1347
Vsparc
p1348
sVfeaturesets
p1349
(lp1350
ss(Vbase
p1351
Vsparc64
p1352
tp1353
(dp1354
Vkernel-arch
p1355
Vsparc
p1356
sg151
(lp1357
g153
ass(Vbuild
p1358
g1352
tp1359
(dp1360
Vimage-file
p1361
Varch/sparc/boot/zImage
p1362
sVsigned-modules
p1363
I00
ss(Vimage
p1364
g1352
tp1365
(dp1366
Vconfigs
p1367
(lp1368
sVsuggests
p1369
Vsilo, fdutils
p1370
sVinstall-stem
p1371
Vvmlinuz
p1372
ss(Vdescription
p1373
g1352
NVsparc64
p1374
tp1375
(dp1376
Vhardware
p1377
Vuniprocessor 64-bit UltraSPARC
p1378
ss(Vimage
p1379
g1352
NVsparc64
p1380
tp1381
(dp1382
Vconfigs
p1383
(lp1384
Vkernelarch-sparc/config-up
p1385
ass(Vdescription
p1386
g1352
NVsparc64-smp
p1387
tp1388
(dp1389
Vhardware
p1390
Vmultiprocessor 64-bit UltraSPARC
p1391
ss(Vimage
p1392
g1352
NVsparc64-smp
p1393
tp1394
(dp1395
Vconfigs
p1396
(lp1397
Vkernelarch-sparc/config-smp
p1398
ass(g183
g1352
g153
tp1399
(dp1400
g186
(lp1401
Vsparc64
p1402
aVsparc64-smp
p1403
asg190
I01
ss(Vbase
p1404
Vtilegx
p1405
tp1406
(dp1407
Vkernel-arch
p1408
Vtile
p1409
sVfeaturesets
p1410
(lp1411
ss(Vbase
p1412
Vx32
p1413
tp1414
(dp1415
Vkernel-arch
p1416
Vx86
p1417
sVfeaturesets
p1418
(lp1419
ss(Vabi
p1420
NVrt
p1421
tp1422
(dp1423
Vignore-changes
p1424
(lp1425
V*
p1426
ass(Vdescription
p1427
Ng1421
tp1428
(dp1429
Vpart-long-rt
p1430
VThis kernel includes the PREEMPT_RT realtime patch set.
p1431
sVpart-short-rt
p1432
VPREEMPT_RT
p1433
sVparts
p1434
(lp1435
Vrt
p1436
ass(Vversion
p1437
tp1438
(dp1439
Vsource
p1440
V4.14.17-1
p1441
sVupstream
p1442
V4.14
p1443
sVabiname_base
p1444
V4.14.0
p1445
sVabiname
p1446
V4.14.0-3
p1447
ss.