ccopy_reg
_reconstructor
p0
(cdebian_linux.config
ConfigCore
p1
c__builtin__
dict
p2
(dp3
(S'image'
p4
S'amd64'
p5
tp6
(dp7
S'install-stem'
p8
S'vmlinuz'
p9
sS'configs'
p10
(lp11
sS'bootloaders'
p12
(lp13
S'grub-pc'
p14
aS'extlinux'
p15
aS'lilo'
p16
ass(S'base'
p17
g5
S'none'
p18
tp19
(dp20
S'flavours'
p21
(lp22
S'amd64'
p23
ass(S'description'
p24
S'armhf'
p25
NS'armmp'
p26
tp27
(dp28
S'hardware'
p29
S'ARMv7 multiplatform compatible SoCs'
p30
sS'hardware-long'
p31
S'ARMv7 multiplatform kernel for Marvell Armada 370/xp, Freescale iMX5x/iMX6'
p32
ss(S'description'
p33
S'hppa'
p34
NS'parisc'
p35
tp36
(dp37
S'hardware'
p38
S'32-bit PA-RISC'
p39
sS'hardware-long'
p40
S'HP PA-RISC 32-bit systems with max 4 GB RAM'
p41
ss(S'abi'
p42
NS'rt'
p43
tp44
(dp45
S'ignore-changes'
p46
(lp47
S'*'
p48
ass(S'build'
p49
S'armel'
p50
tp51
(dp52
S'image-file'
p53
S'arch/arm/boot/zImage'
p54
ss(S'image'
p55
S'ia64'
p56
tp57
(dp58
S'suggests'
p59
S'fdutils'
p60
sS'bootloaders'
p61
(lp62
S'elilo'
p63
asS'install-stem'
p64
S'vmlinuz'
p65
ss(S'abi'
p66
tp67
(dp68
S'abiname'
p69
S'1'
p70
sS'ignore-changes'
p71
(lp72
S'ib_update_cm_av'
p73
aS'DAC1064_global_*'
p74
aS'g450_mnp2f'
p75
aS'matrox_*'
p76
aS'matroxfb_*'
p77
ass(S'version'
p78
tp79
(dp80
S'abiname'
p81
S'3.14-1'
p82
sS'source'
p83
V3.14.4-1
p84
sS'upstream'
p85
S'3.14'
p86
ss(S'description'
p87
g5
g18
S'amd64'
p88
tp89
(dp90
S'parts'
p91
(lp92
S'xen'
p93
ass(S'description'
p94
S'sh4'
p95
NS'sh7751r'
p96
tp97
(dp98
S'hardware'
p99
S'sh7751r'
p100
sS'hardware-long'
p101
S'Renesas SH7751R R2D plus board'
p102
ss(S'description'
p103
S'mipsel'
p104
NS'4kc-malta'
p105
tp106
(dp107
S'hardware'
p108
S'MIPS Malta'
p109
sS'hardware-long'
p110
S'MIPS Malta boards'
p111
ss(S'image'
p112
S'sparc64'
p113
NS'sparc64'
p114
tp115
(dp116
S'configs'
p117
(lp118
S'kernelarch-sparc/config-up'
p119
ass(S'base'
p120
S'ppc64'
p121
S'none'
p122
tp123
(dp124
S'implicit-flavour'
p125
I01
sS'flavours'
p126
(lp127
S'powerpc64'
p128
ass(S'description'
p129
g34
NS'parisc64-smp'
p130
tp131
(dp132
S'hardware'
p133
S'multiprocessor 64-bit PA-RISC'
p134
sS'hardware-long'
p135
S'HP PA-RISC 64-bit SMP systems with support for more than 4 GB RAM'
p136
ss(S'image'
p137
g50
NS'ixp4xx'
p138
tp139
(dp140
S'check-size'
p141
S'1441760'
p142
sS'configs'
p143
(lp144
S'armel/config-reduced'
p145
aS'armel/config.ixp4xx'
p146
ass(S'image'
p147
S'i386'
p148
NS'686-pae'
p149
tp150
(dp151
S'configs'
p152
(lp153
S'kernelarch-x86/config-arch-32'
p154
aS'i386/config.686-pae'
p155
asS'recommends'
p156
S'libc6-i686'
p157
ss(S'description'
p158
Ng43
tp159
(dp160
S'part-long-rt'
p161
S'This kernel includes the PREEMPT_RT realtime patch set.'
p162
sS'parts'
p163
(lp164
S'rt'
p165
asS'part-short-rt'
p166
S'PREEMPT_RT'
p167
ss(S'base'
p168
S'alpha'
p169
tp170
(dp171
S'kernel-arch'
p172
S'alpha'
p173
sS'featuresets'
p174
(lp175
g122
ass(S'image'
p176
g25
NS'armmp-lpae'
p177
tp178
(dp179
S'configs'
p180
(lp181
S'armhf/config.armmp'
p182
aS'armhf/config.lpae'
p183
ass(S'description'
p184
S'sparc'
p185
NS'sparc64'
p186
tp187
(dp188
S'hardware'
p189
S'uniprocessor 64-bit UltraSPARC'
p190
ss(S'description'
p191
g148
NS'amd64'
p192
tp193
(dp194
S'hardware'
p195
S'64-bit PCs'
p196
sS'parts'
p197
(lp198
S'xen'
p199
asS'hardware-long'
p200
S'PCs with AMD64, Intel 64 or VIA Nano processors'
p201
ss(S'base'
p202
g25
tp203
(dp204
S'kernel-arch'
p205
S'arm'
p206
sg174
(lp207
g122
ass(S'base'
p208
g34
NS'parisc64-smp'
p209
tp210
(dp211
S'override-host-type'
p212
S'hppa64-linux-gnu'
p213
sS'cflags'
p214
S'-fno-cse-follow-jumps'
p215
ss(S'description'
p216
g50
NS'kirkwood'
p217
tp218
(dp219
S'hardware'
p220
S'Marvell Kirkwood'
p221
sS'hardware-long'
p222
S'Marvell Kirkwood based systems (SheevaPlug, QNAP TS-119/TS-219, etc)'
p223
ss(S'description'
p224
g25
NS'armmp-lpae'
p225
tp226
(dp227
S'hardware'
p228
S'ARMv7 multiplatform compatible SoCs supporting LPAE'
p229
sS'hardware-long'
p230
S'ARMv7 multiplatform kernel supporting LPAE'
p231
ss(S'build'
p232
g148
NS'686-pae'
p233
tp234
(dp235
S'debug-info'
p236
I01
ss(S'relations'
p237
g148
tp238
(dp239
S'headers%gcc-4.8'
p240
S'linux-compiler-gcc-4.8-x86'
p241
ss(S'image'
p242
S'powerpc'
p243
tp244
(dp245
S'suggests'
p246
S'mkvmlinuz'
p247
sS'configs'
p248
(lp249
sS'install-stem'
p250
S'vmlinux'
p251
ss(S'description'
p252
g104
NS'loongson-2f'
p253
tp254
(dp255
S'hardware'
p256
S'Loongson 2F'
p257
sS'hardware-long'
p258
S'Lemote Loongson 2F systems'
p259
ss(S'base'
p260
g5
S'rt'
p261
tp262
(dp263
S'flavours'
p264
(lp265
S'amd64'
p266
ass(S'description'
p267
g104
NS'loongson-2e'
p268
tp269
(dp270
S'hardware'
p271
S'Loongson 2E'
p272
sS'hardware-long'
p273
S'Lemote Loongson 2E systems'
p274
ss(S'image'
p275
g148
NS'amd64'
p276
tp277
(dp278
S'configs'
p279
(lp280
S'kernelarch-x86/config-arch-64'
p281
asS'recommends'
p282
S'libc6-i686'
p283
ss(S'build'
p284
g121
tp285
(dp286
S'image-file'
p287
S'vmlinux'
p288
ss(S'description'
p289
g148
S'none'
p290
S'amd64'
p291
tp292
(dp293
S'parts'
p294
(lp295
S'xen'
p296
ass(S'base'
p297
S'arm64'
p298
tp299
(dp300
S'kernel-arch'
p301
S'arm64'
p302
sS'featuresets'
p303
(lp304
ss(S'base'
p305
g148
tp306
(dp307
S'kernel-arch'
p308
S'x86'
p309
sS'featuresets'
p310
(lp311
S'none'
p312
aS'rt'
p313
ass(S'base'
p314
g104
tp315
(dp316
S'kernel-arch'
p317
S'mips'
p318
sg174
(lp319
g122
ass(S'description'
p320
g243
NS'powerpc-smp'
p321
tp322
(dp323
S'hardware'
p324
S'multiprocessor 32-bit PowerPC'
p325
ss(S'relations'
p326
g5
tp327
(dp328
S'headers%gcc-4.8'
p329
S'linux-compiler-gcc-4.8-x86'
p330
ss(S'description'
p331
S's390x'
p332
NS's390x'
p333
tp334
(dp335
S'hardware'
p336
S'IBM zSeries'
p337
ss(S'relations'
p338
S's390'
p339
tp340
(dp341
S'headers%gcc-4.8'
p342
S'linux-compiler-gcc-4.8-s390'
p343
ss(g120
g104
g122
tp344
(dp345
g125
I01
sg126
(lp346
S'sb1-bcm91250a'
p347
aS'sb1a-bcm91480b'
p348
aS'4kc-malta'
p349
aS'5kc-malta'
p350
aS'loongson-2e'
p351
aS'loongson-2f'
p352
ass(S'description'
p353
g185
NS'sparc64-smp'
p354
tp355
(dp356
S'hardware'
p357
S'multiprocessor 64-bit UltraSPARC'
p358
ss(S'description'
p359
S'powerpcspe'
p360
tp361
(dp362
S'hardware'
p363
S'32-bit PowerPC with SPE (instead of AltiVec) with SMP support'
p364
ss(S'relations'
p365
tp366
(dp367
S'gcc-4.8'
p368
S'gcc-4.8'
p369
sS'initramfs-fallback'
p370
S'linux-initramfs-tool'
p371
sS'gcc-4.7'
p372
S'gcc-4.7'
p373
sS'gcc-4.6'
p374
S'gcc-4.6'
p375
sS'gcc-4.4'
p376
S'gcc-4.4'
p377
sS'initramfs-tools'
p378
S'initramfs-tools (>= 0.110~)'
p379
ss(S'description'
p380
S'mips'
p381
NS'r4k-ip22'
p382
tp383
(dp384
S'hardware'
p385
S'SGI IP22'
p386
sS'hardware-long'
p387
S'SGI IP22 systems (Indy, Indigo2)'
p388
ss(S'image'
p389
g50
NS'kirkwood'
p390
tp391
(dp392
S'check-size'
p393
S'2097080'
p394
sS'recommends'
p395
S'uboot-mkimage'
p396
ss(S'build'
p397
g360
tp398
(dp399
S'image-file'
p400
S'vmlinux'
p401
ss(S'image'
p402
g104
NS'sb1-bcm91250a'
p403
tp404
(dp405
S'configs'
p406
(lp407
S'mips/config.sb1-bcm91250a'
p408
ass(g120
g95
g122
tp409
(dp410
g125
I01
sg126
(lp411
S'sh7751r'
p412
aS'sh7785lcr'
p413
ass(S'build'
p414
g34
tp415
(dp416
S'image-file'
p417
S'vmlinux'
p418
ss(S'description'
p419
g381
NS'5kc-malta'
p420
tp421
(dp422
S'hardware'
p423
S'MIPS Malta (64-bit)'
p424
sS'hardware-long'
p425
S'MIPS Malta boards (64-bit)'
p426
ss(S'base'
p427
g50
tp428
(dp429
S'kernel-arch'
p430
S'arm'
p431
sg174
(lp432
g122
ass(S'build'
p433
g25
tp434
(dp435
S'image-file'
p436
S'arch/arm/boot/zImage'
p437
ss(S'base'
p438
g185
tp439
(dp440
S'kernel-arch'
p441
S'sparc'
p442
sg174
(lp443
g122
ass(S'base'
p444
g360
tp445
(dp446
S'kernel-arch'
p447
S'powerpc'
p448
sg174
(lp449
g122
ass(S'description'
p450
g169
NS'alpha-legacy'
p451
tp452
(dp453
S'hardware'
p454
S'Alpha Legacy'
p455
sS'hardware-long'
p456
S'DEC Alpha systems with legacy kernel start address'
p457
ss(g120
g339
g122
tp458
(dp459
g125
I01
sg126
(lp460
S's390x'
p461
ass(S'build'
p462
g381
tp463
(dp464
S'image-file'
p465
S'vmlinux'
p466
ss(S'image'
p467
g95
NS'sh7785lcr'
p468
tp469
(dp470
S'check-size'
p471
S'4194304'
p472
sS'recommends'
p473
S'uboot-mkimage'
p474
ss(S'description'
p475
g381
NS'4kc-malta'
p476
tp477
(dp478
S'hardware'
p479
S'MIPS Malta'
p480
sS'hardware-long'
p481
S'MIPS Malta boards'
p482
ss(g120
g332
g122
tp483
(dp484
g125
I01
sg126
(lp485
S's390x'
p486
ass(S'base'
p487
g381
tp488
(dp489
S'kernel-arch'
p490
S'mips'
p491
sg174
(lp492
g122
ass(S'build'
p493
g5
tp494
(dp495
S'debug-info'
p496
I01
sS'image-file'
p497
S'arch/x86/boot/bzImage'
p498
ss(S'description'
p499
g185
NS'sparc32'
p500
tp501
(dp502
S'hardware'
p503
S'uniprocessor sparc32 (sun4m)'
p504
ss(S'build'
p505
g185
tp506
(dp507
S'image-file'
p508
S'arch/sparc/boot/zImage'
p509
ss(S'image'
p510
g104
tp511
(dp512
S'install-stem'
p513
S'vmlinux'
p514
sS'initramfs'
p515
I00
ss(S'build'
p516
g332
NS's390x'
p517
tp518
(dp519
S'debug-info'
p520
I01
ss(S'build'
p521
g243
tp522
(dp523
S'image-file'
p524
S'vmlinux'
p525
ss(S'image'
p526
g243
NS'powerpc64'
p527
tp528
(dp529
S'configs'
p530
(lp531
S'kernelarch-powerpc/config-arch-64'
p532
aS'powerpc/config.powerpc64'
p533
ass(S'build'
p534
g104
tp535
(dp536
S'image-file'
p537
S'vmlinux'
p538
ss(S'base'
p539
NS'rt'
p540
tp541
(dp542
S'enabled'
p543
I01
ss(S'description'
p544
g50
NS'orion5x'
p545
tp546
(dp547
S'hardware'
p548
S'Marvell Orion'
p549
sS'hardware-long'
p550
S'Marvell Orion 5181, 5182 and 5281 based systems (QNAP TS-109/TS-209, etc)'
p551
ss(S'base'
p552
g5
tp553
(dp554
S'kernel-arch'
p555
S'x86'
p556
sS'featuresets'
p557
(lp558
S'none'
p559
aS'rt'
p560
ass(S'base'
p561
g56
tp562
(dp563
S'kernel-arch'
p564
S'ia64'
p565
sg174
(lp566
g122
asS'compiler'
p567
S'gcc-4.6'
p568
ss(S'description'
p569
g50
NS'versatile'
p570
tp571
(dp572
S'hardware'
p573
S'Versatile'
p574
sS'hardware-long'
p575
S'Versatile systems (PB, AB, Qemu)'
p576
ss(S'base'
p577
g339
tp578
(dp579
S'kernel-arch'
p580
S's390'
p581
sg174
(lp582
g122
ass(g120
g50
g122
tp583
(dp584
g125
I01
sg126
(lp585
S'kirkwood'
p586
aS'mv78xx0'
p587
aS'orion5x'
p588
aS'versatile'
p589
ass(S'description'
p590
S'm68k'
p591
NS'm68k'
p592
tp593
(dp594
S'hardware'
p595
S'Motorola MC68020+ family'
p596
ss(S'description'
p597
g148
tp598
(dp599
S'part-long-pae'
p600
S'This kernel requires PAE (Physical Address Extension).\nThis feature is supported by the Intel Pentium Pro/II/III/4/4M/D, Xeon,\nCore and Atom; AMD Geode NX, Athlon (K7), Duron, Opteron, Sempron,\nTurion or Phenom; Transmeta Efficeon; VIA C7; and some other processors.'
p601
ss(S'base'
p602
g148
g290
tp603
(dp604
S'flavours'
p605
(lp606
S'486'
p607
aS'686-pae'
p608
aS'amd64'
p609
ass(S'xen'
p610
g5
g18
S'amd64'
p611
tp612
(dp613
S'flavours'
p614
(lp615
S'amd64'
p616
ass(S'image'
p617
g50
tp618
(dp619
S'suggests'
p620
S'fdutils'
p621
sS'configs'
p622
(lp623
S'kernelarch-arm/config'
p624
aS'armel/config'
p625
asS'install-stem'
p626
S'vmlinuz'
p627
ss(S'description'
p628
g56
NS'mckinley'
p629
tp630
(dp631
S'hardware'
p632
S'Itanium II'
p633
ss(S'relations'
p634
g50
tp635
(dp636
S'headers%gcc-4.8'
p637
S'linux-compiler-gcc-4.8-arm'
p638
ss(S'image'
p639
g34
tp640
(dp641
S'suggests'
p642
S'palo'
p643
sS'install-stem'
p644
S'vmlinux'
p645
ss(S'description'
p646
g148
NS'686-pae'
p647
tp648
(dp649
S'hardware'
p650
S'modern PCs'
p651
sS'parts'
p652
(lp653
S'pae'
p654
asS'hardware-long'
p655
S'PCs with one or more processors supporting PAE'
p656
ss(S'image'
p657
g360
tp658
(dp659
S'suggests'
p660
S'mkvmlinuz'
p661
sS'install-stem'
p662
S'vmlinux'
p663
ss(S'relations'
p664
g34
tp665
(dp666
S'gcc-4.8'
p667
S'gcc-4.8, binutils-hppa64, gcc-4.8-hppa64'
p668
ss(S'description'
p669
g56
NS'itanium'
p670
tp671
(dp672
S'hardware'
p673
S'Itanium'
p674
ss(S'image'
p675
g104
NS'loongson-2f'
p676
tp677
(dp678
S'recommends'
p679
S'libc6-loongson2f'
p680
ss(S'abi'
p681
g243
tp682
(dp683
S'ignore-changes'
p684
(lp685
S'nf_hooks_needed'
p686
ass(S'image'
p687
g50
NS'orion5x'
p688
tp689
(dp690
S'check-size'
p691
S'1572792'
p692
sS'configs'
p693
(lp694
S'armel/config-reduced'
p695
aS'armel/config.orion5x'
p696
asS'recommends'
p697
S'uboot-mkimage'
p698
ss(g120
g34
g122
tp699
(dp700
g125
I01
sg126
(lp701
S'parisc'
p702
aS'parisc64-smp'
p703
ass(S'image'
p704
g169
tp705
(dp706
S'suggests'
p707
S'aboot, fdutils'
p708
sS'install-stem'
p709
S'vmlinuz'
p710
ss(S'image'
p711
g5
NS'amd64'
p712
tp713
(dp714
S'configs'
p715
(lp716
S'kernelarch-x86/config-arch-64'
p717
ass(S'base'
p718
g113
tp719
(dp720
S'kernel-arch'
p721
S'sparc'
p722
sg174
(lp723
g122
ass(S'base'
p724
S'or1k'
p725
tp726
(dp727
S'kernel-arch'
p728
S'openrisc'
p729
sS'featuresets'
p730
(lp731
ss(S'base'
p732
g332
tp733
(dp734
S'kernel-arch'
p735
S's390'
p736
sg174
(lp737
g122
ass(S'image'
p738
g121
tp739
(dp740
S'suggests'
p741
S'mkvmlinuz'
p742
sS'configs'
p743
(lp744
sS'install-stem'
p745
S'vmlinux'
p746
ss(S'image'
p747
g381
tp748
(dp749
S'install-stem'
p750
S'vmlinux'
p751
sS'initramfs'
p752
I00
ss(S'image'
p753
g148
tp754
(dp755
S'install-stem'
p756
S'vmlinuz'
p757
sS'configs'
p758
(lp759
sS'bootloaders'
p760
(lp761
S'grub-pc'
p762
aS'extlinux'
p763
aS'lilo'
p764
ass(g120
g185
g122
tp765
(dp766
g125
I01
sg126
(lp767
S'sparc64'
p768
aS'sparc64-smp'
p769
ass(S'base'
p770
g121
tp771
(dp772
S'kernel-arch'
p773
S'powerpc'
p774
sg174
(lp775
g122
ass(g120
g169
g122
tp776
(dp777
g125
I01
sg126
(lp778
S'alpha-generic'
p779
aS'alpha-smp'
p780
aS'alpha-legacy'
p781
ass(S'description'
p782
g148
g290
S'686-pae'
p783
tp784
(dp785
S'parts'
p786
(lp787
S'xen'
p788
ass(g120
g56
g122
tp789
(dp790
g125
I01
sg126
(lp791
S'itanium'
p792
aS'mckinley'
p793
ass(S'build'
p794
g339
NS's390x'
p795
tp796
(dp797
S'debug-info'
p798
I01
ss(S'description'
p799
g50
NS'ixp4xx'
p800
tp801
(dp802
S'hardware'
p803
S'IXP4xx'
p804
sS'hardware-long'
p805
S'IXP4xx based systems (Linksys NSLU2, etc)'
p806
ss(S'build'
p807
g332
tp808
(dp809
S'image-file'
p810
S'arch/s390/boot/image'
p811
ss(S'description'
p812
g104
NS'sb1-bcm91250a'
p813
tp814
(dp815
S'hardware'
p816
S'BCM91250A'
p817
sS'hardware-long'
p818
S'Broadcom BCM91250A systems (aka SWARM)'
p819
ss(g120
g381
g122
tp820
(dp821
g125
I01
sg126
(lp822
S'r4k-ip22'
p823
aS'r5k-ip32'
p824
aS'sb1-bcm91250a'
p825
aS'sb1a-bcm91480b'
p826
aS'4kc-malta'
p827
aS'5kc-malta'
p828
aS'octeon'
p829
ass(S'image'
p830
g148
NS'486'
p831
tp832
(dp833
S'configs'
p834
(lp835
S'kernelarch-x86/config-arch-32'
p836
aS'i386/config.486'
p837
ass(S'build'
p838
g169
tp839
(dp840
S'image-file'
p841
S'arch/alpha/boot/vmlinux.gz'
p842
ss(S'relations'
p843
g332
tp844
(dp845
S'headers%gcc-4.8'
p846
S'linux-compiler-gcc-4.8-s390'
p847
ss(S'description'
p848
g121
NS'powerpc64'
p849
tp850
(dp851
S'hardware'
p852
S'64-bit PowerPC'
p853
ss(S'base'
p854
S'x32'
p855
tp856
(dp857
S'kernel-arch'
p858
S'x86'
p859
sS'featuresets'
p860
(lp861
ss(S'build'
p862
g95
tp863
(dp864
S'image-file'
p865
S'arch/sh/boot/zImage'
p866
ss(S'image'
p867
g591
tp868
(dp869
S'suggests'
p870
S'vmelilo, fdutils'
p871
sS'install-stem'
p872
S'vmlinuz'
p873
ss(g120
g25
g122
tp874
(dp875
g125
I01
sg126
(lp876
S'armmp'
p877
aS'armmp-lpae'
p878
ass(S'description'
p879
g104
NS'5kc-malta'
p880
tp881
(dp882
S'hardware'
p883
S'MIPS Malta (64-bit)'
p884
sS'hardware-long'
p885
S'MIPS Malta boards (64-bit)'
p886
ss(S'image'
p887
g104
NS'5kc-malta'
p888
tp889
(dp890
S'configs'
p891
(lp892
S'mips/config.5kc-malta'
p893
ass(S'build'
p894
g56
tp895
(dp896
S'image-file'
p897
S'vmlinux.gz'
p898
ss(S'description'
p899
g104
NS'sb1a-bcm91480b'
p900
tp901
(dp902
S'hardware'
p903
S'BCM91480B'
p904
sS'hardware-long'
p905
S'Broadcom BCM91480B systems (aka BigSur)'
p906
ss(S'image'
p907
g243
NS'powerpc-smp'
p908
tp909
(dp910
S'configs'
p911
(lp912
S'powerpc/config.powerpc'
p913
aS'powerpc/config.powerpc-smp'
p914
ass(S'description'
p915
g113
NS'sparc64-smp'
p916
tp917
(dp918
S'hardware'
p919
S'multiprocessor 64-bit UltraSPARC'
p920
ss(S'image'
p921
g339
NS's390x'
p922
tp923
(dp924
S'configs'
p925
(lp926
S'kernelarch-s390/config-arch-64'
p927
ass(S'image'
p928
g95
tp929
(dp930
S'suggests'
p931
S'fdutils'
p932
sS'install-stem'
p933
S'vmlinuz'
p934
ss(S'image'
p935
g185
NS'sparc32'
p936
tp937
(dp938
S'image-postproc'
p939
S'sparc32-image-postproc'
p940
ss(S'base'
p941
g34
tp942
(dp943
S'kernel-arch'
p944
S'parisc'
p945
sg174
(lp946
g122
ass(S'base'
p947
g148
S'rt'
p948
tp949
(dp950
S'flavours'
p951
(lp952
S'686-pae'
p953
ass(S'base'
p954
g95
tp955
(dp956
S'kernel-arch'
p957
S'sh'
p958
sg174
(lp959
g122
asS'compiler'
p960
S'gcc-4.7'
p961
ss(S'description'
p962
g381
NS'sb1a-bcm91480b'
p963
tp964
(dp965
S'hardware'
p966
S'BCM91480B'
p967
sS'hardware-long'
p968
S'Broadcom BCM91480B systems (aka BigSur)'
p969
ss(S'image'
p970
g185
tp971
(dp972
S'suggests'
p973
S'silo, fdutils'
p974
sS'configs'
p975
(lp976
sS'install-stem'
p977
S'vmlinuz'
p978
ss(S'description'
p979
g50
NS'mv78xx0'
p980
tp981
(dp982
S'hardware'
p983
S'Marvell 78xx0'
p984
sS'hardware-long'
p985
S'Marvell DB-78xx0-BP Development Board'
p986
ss(S'description'
p987
tp988
(dp989
S'part-long-up'
p990
S'This kernel is not suitable for SMP (multi-processor,\nmulti-core or hyper-threaded) systems.'
p991
sS'part-long-xen'
p992
S'This kernel also runs on a Xen hypervisor.\nIt supports both privileged (dom0) and unprivileged (domU) operation.'
p993
ss(S'build'
p994
g113
tp995
(dp996
S'image-file'
p997
S'arch/sparc/boot/zImage'
p998
ss(S'relations'
p999
g25
tp1000
(dp1001
S'headers%gcc-4.8'
p1002
S'linux-compiler-gcc-4.8-arm'
p1003
ss(S'image'
p1004
g104
NS'sb1a-bcm91480b'
p1005
tp1006
(dp1007
S'configs'
p1008
(lp1009
S'mips/config.sb1a-bcm91480b'
p1010
ass(S'image'
p1011
g332
NS's390x'
p1012
tp1013
(dp1014
S'configs'
p1015
(lp1016
S'kernelarch-s390/config-arch-64'
p1017
ass(S'image'
p1018
g113
tp1019
(dp1020
S'suggests'
p1021
S'silo, fdutils'
p1022
sS'configs'
p1023
(lp1024
sS'install-stem'
p1025
S'vmlinuz'
p1026
ss(S'image'
p1027
g185
NS'sparc64'
p1028
tp1029
(dp1030
S'configs'
p1031
(lp1032
S'kernelarch-sparc/config-up'
p1033
ass(S'description'
p1034
g169
NS'alpha-smp'
p1035
tp1036
(dp1037
S'hardware'
p1038
S'Alpha SMP'
p1039
sS'hardware-long'
p1040
S'DEC Alpha SMP systems with extended kernel start address (Wildfire, Titan, Marvel)'
p1041
ss(S'base'
p1042
g243
tp1043
(dp1044
S'kernel-arch'
p1045
S'powerpc'
p1046
sg174
(lp1047
g122
ass(S'description'
p1048
g381
NS'sb1-bcm91250a'
p1049
tp1050
(dp1051
S'hardware'
p1052
S'BCM91250A'
p1053
sS'hardware-long'
p1054
S'Broadcom BCM91250A systems (aka SWARM)'
p1055
ss(S'description'
p1056
g169
NS'alpha-generic'
p1057
tp1058
(dp1059
S'hardware'
p1060
S'Alpha'
p1061
sS'hardware-long'
p1062
S'DEC Alpha systems with extended kernel start address (Wildfire, Titan, Marvel)'
p1063
ss(S'build'
p1064
g339
tp1065
(dp1066
S'image-file'
p1067
S'arch/s390/boot/image'
p1068
ss(S'description'
p1069
g95
NS'sh7785lcr'
p1070
tp1071
(dp1072
S'hardware'
p1073
S'sh7785lcr'
p1074
sS'hardware-long'
p1075
S'Renesas SH7785 reference board'
p1076
ss(S'image'
p1077
g25
tp1078
(dp1079
S'suggests'
p1080
S'fdutils'
p1081
sS'configs'
p1082
(lp1083
S'kernelarch-arm/config'
p1084
aS'armhf/config'
p1085
asS'install-stem'
p1086
S'vmlinuz'
p1087
ss(S'description'
p1088
g113
NS'sparc64'
p1089
tp1090
(dp1091
S'hardware'
p1092
S'uniprocessor 64-bit UltraSPARC'
p1093
ss(S'relations'
p1094
g121
tp1095
(dp1096
S'gcc-4.8'
p1097
S'gcc-4.8 (>= 4.8.2-21)'
p1098
ss(g120
g360
g122
tp1099
(dp1100
g125
I01
sg126
(lp1101
S'powerpcspe'
p1102
ass(g120
g591
g122
tp1103
(dp1104
g125
I01
sg126
(lp1105
S'm68k'
p1106
ass(S'base'
p1107
tp1108
(dp1109
S'arches'
p1110
(lp1111
S'alpha'
p1112
aS'amd64'
p1113
aS'arm64'
p1114
aS'armel'
p1115
aS'armhf'
p1116
aS'hppa'
p1117
aS'i386'
p1118
aS'ia64'
p1119
aS'm68k'
p1120
aS'mips'
p1121
aS'mipsel'
p1122
aS'or1k'
p1123
aS'powerpc'
p1124
aS'powerpcspe'
p1125
aS'ppc64'
p1126
aS'ppc64el'
p1127
aS's390'
p1128
aS's390x'
p1129
aS'sh4'
p1130
aS'sparc'
p1131
aS'sparc64'
p1132
aS'x32'
p1133
asS'featuresets'
p1134
(lp1135
S'none'
p1136
aS'rt'
p1137
asS'compiler'
p1138
S'gcc-4.8'
p1139
ss(S'description'
p1140
g148
NS'486'
p1141
tp1142
(dp1143
S'hardware'
p1144
S'older PCs'
p1145
sS'parts'
p1146
(lp1147
S'up'
p1148
asS'hardware-long'
p1149
S'PCs with a single processor not supporting PAE'
p1150
ss(S'description'
p1151
g381
NS'octeon'
p1152
tp1153
(dp1154
S'hardware'
p1155
S'Octeon'
p1156
sS'hardware-long'
p1157
S'Cavium Networks Octeon'
p1158
ss(S'build'
p1159
g591
tp1160
(dp1161
S'image-file'
p1162
S'vmlinux.gz'
p1163
ss(S'description'
p1164
g243
NS'powerpc64'
p1165
tp1166
(dp1167
S'hardware'
p1168
S'64-bit PowerPC'
p1169
ss(g120
g243
g122
tp1170
(dp1171
g125
I01
sg126
(lp1172
S'powerpc'
p1173
aS'powerpc-smp'
p1174
aS'powerpc64'
p1175
ass(S'image'
p1176
g339
tp1177
(dp1178
S'install-stem'
p1179
S'vmlinuz'
p1180
sS'configs'
p1181
(lp1182
sS'bootloaders'
p1183
(lp1184
S's390-tools'
p1185
ass(S'image'
p1186
g121
NS'powerpc64'
p1187
tp1188
(dp1189
S'configs'
p1190
(lp1191
S'kernelarch-powerpc/config-arch-64'
p1192
ass(S'description'
p1193
g339
NS's390x'
p1194
tp1195
(dp1196
S'hardware'
p1197
S'IBM zSeries'
p1198
ss(S'base'
p1199
S'ppc64el'
p1200
tp1201
(dp1202
S'kernel-arch'
p1203
S'powerpc'
p1204
sS'featuresets'
p1205
(lp1206
ss(S'image'
p1207
g113
NS'sparc64-smp'
p1208
tp1209
(dp1210
S'configs'
p1211
(lp1212
S'kernelarch-sparc/config-smp'
p1213
ass(S'base'
p1214
g591
tp1215
(dp1216
S'kernel-arch'
p1217
S'm68k'
p1218
sg174
(lp1219
g122
asS'cflags'
p1220
S'-ffreestanding'
p1221
sS'compiler'
p1222
S'gcc-4.8'
p1223
ss(S'image'
p1224
tp1225
(dp1226
S'initramfs-generators'
p1227
(lp1228
S'initramfs-tools'
p1229
aS'initramfs-fallback'
p1230
asS'type'
p1231
S'plain'
p1232
ss(S'description'
p1233
g5
NS'amd64'
p1234
tp1235
(dp1236
S'hardware'
p1237
S'64-bit PCs'
p1238
sS'hardware-long'
p1239
S'PCs with AMD64, Intel 64 or VIA Nano processors'
p1240
ss(S'image'
p1241
g185
NS'sparc64-smp'
p1242
tp1243
(dp1244
S'configs'
p1245
(lp1246
S'kernelarch-sparc/config-smp'
p1247
ass(g120
g113
g122
tp1248
(dp1249
g125
I01
sg126
(lp1250
S'sparc64'
p1251
aS'sparc64-smp'
p1252
ass(S'description'
p1253
g243
NS'powerpc'
p1254
tp1255
(dp1256
S'hardware'
p1257
S'uniprocessor 32-bit PowerPC'
p1258
ss(S'image'
p1259
g332
tp1260
(dp1261
S'install-stem'
p1262
S'vmlinuz'
p1263
sS'configs'
p1264
(lp1265
sS'bootloaders'
p1266
(lp1267
S's390-tools'
p1268
ass(S'description'
p1269
g381
NS'r5k-ip32'
p1270
tp1271
(dp1272
S'hardware'
p1273
S'SGI IP32'
p1274
sS'hardware-long'
p1275
S'SGI IP32 systems (O2)'
p1276
ss(S'image'
p1277
g104
NS'4kc-malta'
p1278
tp1279
(dp1280
S'configs'
p1281
(lp1282
S'mips/config.4kc-malta'
p1283
ass(S'build'
p1284
g148
tp1285
(dp1286
S'image-file'
p1287
S'arch/x86/boot/bzImage'
p1288
sstp1289
Rp1290
.