ccopy_reg
_reconstructor
p0
(cdebian_linux.config
ConfigCore
p1
c__builtin__
dict
p2
(dp3
(Vdescription
p4
Vm68k
p5
NVm68k
p6
tp7
(dp8
Vhardware
p9
VMotorola MC68020+ family
p10
ss(Vxen
p11
Vamd64
p12
Vnone
p13
Vamd64
p14
tp15
(dp16
Vflavours
p17
(lp18
Vamd64
p19
ass(Vimage
p20
Varmel
p21
NVkirkwood
p22
tp23
(dp24
Vcheck-size
p25
L2097080L
sVbreaks
p26
Vflash-kernel (<< 3.37~)
p27
sVrecommends
p28
Vu-boot-tools
p29
sVcheck-size-with-dtb
p30
I01
sVconfigs
p31
(lp32
Varmel/config-reduced
p33
aVarmel/config.kirkwood
p34
ass(Vdescription
p35
Vi386
p36
tp37
(dp38
Vpart-long-pae
p39
VThis kernel requires PAE (Physical Address Extension).\u000aThis feature is supported by the Intel Pentium Pro/II/III/4/4M/D, Xeon,\u000aCore and Atom; AMD Geode NX, Athlon (K7), Duron, Opteron, Sempron,\u000aTurion or Phenom; Transmeta Efficeon; VIA C7; and some other processors.
p40
ss(Vbase
p41
Vsparc
p42
tp43
(dp44
Vfeaturesets
p45
(lp46
sVkernel-arch
p47
Vsparc
p48
ss(Vbase
p49
g36
tp50
(dp51
Vfeaturesets
p52
(lp53
Vnone
p54
aVrt
p55
asVcompiler
p56
Vgcc-5
p57
sVkernel-arch
p58
Vx86
p59
ss(Vdescription
p60
Vmipsel
p61
NVloongson-2e
p62
tp63
(dp64
Vhardware
p65
VLoongson 2E
p66
sVhardware-long
p67
VLemote Loongson 2E systems
p68
ss(Vrelations
p69
Vs390x
p70
tp71
(dp72
Vheaders%gcc-4.9
p73
Vlinux-compiler-gcc-4.9-s390
p74
ss(Vbase
p75
g61
tp76
(dp77
Vfeaturesets
p78
(lp79
Vnone
p80
asVkernel-arch
p81
Vmips
p82
ss(Vdescription
p83
Varmhf
p84
NVarmmp
p85
tp86
(dp87
Vhardware
p88
VARMv7 multiplatform compatible SoCs
p89
sVhardware-long
p90
VARMv7 multiplatform kernel. See\u000ahttps://wiki.debian.org/DebianKernel/ARMMP for details of supported\u000aplatforms
p91
ss(Vbase
p92
Vhppa
p93
NVparisc64-smp
p94
tp95
(dp96
Vcflags
p97
V-fno-cse-follow-jumps
p98
sVoverride-host-type
p99
Vhppa64-linux-gnu
p100
ss(Vbase
p101
Vmips64el
p102
tp103
(dp104
g78
(lp105
g80
asVkernel-arch
p106
Vmips
p107
ss(Vbuild
p108
g21
tp109
(dp110
Vimage-file
p111
Varch/arm/boot/zImage
p112
ss(Vimage
p113
g61
NVloongson-2f
p114
tp115
(dp116
Vconfigs
p117
(lp118
Vkernelarch-mips/config.loongson-2f
p119
asVrecommends
p120
Vlibc6-loongson2f
p121
ss(Vbase
p122
g61
g80
tp123
(dp124
Vimplicit-flavour
p125
I01
sVflavours
p126
(lp127
V4kc-malta
p128
aV5kc-malta
p129
aVloongson-2e
p130
aVloongson-2f
p131
aVloongson-3
p132
ass(g122
g5
g80
tp133
(dp134
g125
I01
sg126
(lp135
Vm68k
p136
ass(Vimage
p137
Vsparc64
p138
NVsparc64
p139
tp140
(dp141
Vconfigs
p142
(lp143
Vkernelarch-sparc/config-up
p144
ass(Vdescription
p145
g84
NVarmmp-lpae
p146
tp147
(dp148
Vhardware
p149
VARMv7 multiplatform compatible SoCs supporting LPAE
p150
sVhardware-long
p151
VARMv7 multiplatform kernel supporting LPAE. See\u000ahttps://wiki.debian.org/DebianKernel/ARMMP for details of supported\u000aplatforms.
p152
ss(Vimage
p153
Vsh4
p154
NVsh7785lcr
p155
tp156
(dp157
Vcheck-size
p158
L4194304L
sVrecommends
p159
Vu-boot-tools
p160
ss(Vrelations
p161
g84
tp162
(dp163
Vheaders%gcc-4.9
p164
Vlinux-compiler-gcc-4.9-arm
p165
ss(Vdescription
p166
g21
NVkirkwood
p167
tp168
(dp169
Vhardware
p170
VMarvell Kirkwood
p171
sVhardware-long
p172
VMarvell Kirkwood based systems (SheevaPlug, QNAP TS-119/TS-219, etc)
p173
ss(Vimage
p174
g61
NVloongson-3
p175
tp176
(dp177
Vconfigs
p178
(lp179
Vkernelarch-mips/config.loongson-3
p180
ass(Vimage
p181
g84
tp182
(dp183
Vconfigs
p184
(lp185
Vkernelarch-arm/config
p186
asVinstall-stem
p187
Vvmlinuz
p188
sVsuggests
p189
Vfdutils
p190
ss(Vimage
p191
Vpowerpc
p192
NVpowerpc64
p193
tp194
(dp195
Vconfigs
p196
(lp197
Vkernelarch-powerpc/config-arch-64
p198
aVkernelarch-powerpc/config-arch-64-be
p199
ass(Vbase
p200
Varm64
p201
Vnone
p202
tp203
(dp204
Vflavours
p205
(lp206
Varm64
p207
ass(g122
g138
g80
tp208
(dp209
g125
I01
sg126
(lp210
Vsparc64
p211
aVsparc64-smp
p212
ass(Vbase
p213
Vmips
p214
tp215
(dp216
g78
(lp217
g80
asVkernel-arch
p218
Vmips
p219
ss(Vdescription
p220
g201
NVarm64
p221
tp222
(dp223
Vhardware
p224
V64-bit ARMv8 machines
p225
ss(Vrelations
p226
g36
tp227
(dp228
Vheaders%gcc-5
p229
Vlinux-compiler-gcc-5-x86
p230
ss(Vdescription
p231
g61
NV5kc-malta
p232
tp233
(dp234
Vhardware
p235
VMIPS Malta (64-bit)
p236
sVhardware-long
p237
VMIPS Malta boards (64-bit)
p238
ss(Vimage
p239
g93
tp240
(dp241
Vinstall-stem
p242
Vvmlinux
p243
sVsuggests
p244
Vpalo
p245
ss(Vimage
p246
g61
tp247
(dp248
Vinstall-stem
p249
Vvmlinux
p250
ss(Vbuild
p251
g192
tp252
(dp253
Vimage-file
p254
Vvmlinux
p255
sVvdso
p256
I01
ss(Vimage
p257
g138
NVsparc64-smp
p258
tp259
(dp260
Vconfigs
p261
(lp262
Vkernelarch-sparc/config-smp
p263
ass(Vbuild
p264
g70
NVs390x
p265
tp266
(dp267
Vdebug-info
p268
I01
ss(Vbase
p269
Vs390
p270
tp271
(dp272
Vfeaturesets
p273
(lp274
sVkernel-arch
p275
Vs390
p276
ss(Vdescription
p277
Vppc64
p278
NVpowerpc64
p279
tp280
(dp281
Vhardware
p282
V64-bit PowerPC
p283
ss(Vbuild
p284
g70
tp285
(dp286
Vimage-file
p287
Varch/s390/boot/image
p288
sVvdso
p289
I01
ss(Vbuild
p290
g154
tp291
(dp292
Vimage-file
p293
Varch/sh/boot/zImage
p294
ss(Vdescription
p295
Vpowerpcspe
p296
tp297
(dp298
Vhardware
p299
V32-bit PowerPC with SPE (instead of AltiVec) with SMP support
p300
ss(Vbuild
p301
g61
tp302
(dp303
Vimage-file
p304
Vvmlinux
p305
ss(Vbuild
p306
g93
tp307
(dp308
Vimage-file
p309
Vvmlinux
p310
ss(Vdescription
p311
g102
NVloongson-3
p312
tp313
(dp314
Vhardware
p315
VLoongson 3A/3B
p316
sVhardware-long
p317
VLoongson 3A or 3B based systems (e.g. from Loongson or Lemote)
p318
ss(Vbase
p319
NVrt
p320
tp321
(dp322
Venabled
p323
I00
ss(Vbase
p324
g93
tp325
(dp326
g78
(lp327
g80
asVkernel-arch
p328
Vparisc
p329
ss(Vimage
p330
Vmips64
p331
tp332
(dp333
Vinstall-stem
p334
Vvmlinux
p335
ss(Vbase
p336
g154
tp337
(dp338
g78
(lp339
g80
asVkernel-arch
p340
Vsh
p341
ss(g122
g192
g80
tp342
(dp343
g125
I01
sg126
(lp344
Vpowerpc
p345
aVpowerpc-smp
p346
aVpowerpc64
p347
ass(Vdescription
p348
g12
NVamd64
p349
tp350
(dp351
Vhardware
p352
V64-bit PCs
p353
sVhardware-long
p354
VPCs with AMD64, Intel 64 or VIA Nano processors
p355
ss(Vbase
p356
g21
tp357
(dp358
g78
(lp359
g80
asVkernel-arch
p360
Varm
p361
ss(Vdescription
p362
g93
NVparisc
p363
tp364
(dp365
Vhardware
p366
V32-bit PA-RISC
p367
sVhardware-long
p368
VHP PA-RISC 32-bit systems with max 4 GB RAM
p369
ss(Vbuild
p370
g36
NV686-pae
p371
tp372
(dp373
Vdebug-info
p374
I01
ss(Vdescription
p375
g138
NVsparc64
p376
tp377
(dp378
Vhardware
p379
Vuniprocessor 64-bit UltraSPARC
p380
ss(Vdescription
p381
g154
NVsh7785lcr
p382
tp383
(dp384
Vhardware
p385
Vsh7785lcr
p386
sVhardware-long
p387
VRenesas SH7785 reference board
p388
ss(Vdescription
p389
g192
NVpowerpc64
p390
tp391
(dp392
Vhardware
p393
V64-bit PowerPC
p394
ss(g122
g102
g80
tp395
(dp396
g125
I01
sg126
(lp397
V5kc-malta
p398
aVloongson-3
p399
aVocteon
p400
ass(Vimage
p401
g61
NV5kc-malta
p402
tp403
(dp404
Vconfigs
p405
(lp406
Vkernelarch-mips/config.5kc-malta
p407
ass(Vdescription
p408
tp409
(dp410
Vpart-long-up
p411
VThis kernel is not suitable for SMP (multi-processor,\u000amulti-core or hyper-threaded) systems.
p412
sVpart-long-xen
p413
VThis kernel also runs on a Xen hypervisor.\u000aIt supports both privileged (dom0) and unprivileged (domU) operation.
p414
ss(Vbase
p415
g12
Vrt
p416
tp417
(dp418
Vflavours
p419
(lp420
Vamd64
p421
ass(Vimage
p422
g12
NVamd64
p423
tp424
(dp425
Vconfigs
p426
(lp427
Vkernelarch-x86/config-arch-64
p428
ass(Vbase
p429
g36
Vrt
p430
tp431
(dp432
Vflavours
p433
(lp434
V686-pae
p435
ass(Vdescription
p436
g12
g13
Vamd64
p437
tp438
(dp439
Vparts
p440
(lp441
Vxen
p442
ass(Vbuild
p443
g278
tp444
(dp445
Vimage-file
p446
Vvmlinux
p447
sVvdso
p448
I01
ss(Vimage
p449
g154
tp450
(dp451
Vinstall-stem
p452
Vvmlinuz
p453
sVsuggests
p454
Vfdutils
p455
ss(Vimage
p456
g214
NV4kc-malta
p457
tp458
(dp459
Vconfigs
p460
(lp461
Vkernelarch-mips/config.4kc-malta
p462
ass(Vdescription
p463
g192
NVpowerpc-smp
p464
tp465
(dp466
Vhardware
p467
Vmultiprocessor 32-bit PowerPC
p468
ss(Vimage
p469
g201
tp470
(dp471
Vinstall-stem
p472
Vvmlinuz
p473
ss(Vbuild
p474
g214
tp475
(dp476
Vimage-file
p477
Vvmlinux
p478
ss(Vimage
p479
g21
tp480
(dp481
Vconfigs
p482
(lp483
Vkernelarch-arm/config
p484
aVarmel/config
p485
asVinstall-stem
p486
Vvmlinuz
p487
sVsuggests
p488
Vfdutils
p489
ss(Vdescription
p490
g21
NVversatile
p491
tp492
(dp493
Vhardware
p494
VVersatile
p495
sVhardware-long
p496
VVersatile systems (PB, AB, Qemu)
p497
ss(Vimage
p498
g102
tp499
(dp500
Vinstall-stem
p501
Vvmlinux
p502
ss(Vdescription
p503
g214
NV4kc-malta
p504
tp505
(dp506
Vhardware
p507
VMIPS Malta
p508
sVhardware-long
p509
VMIPS Malta boards
p510
ss(Vbase
p511
g12
tp512
(dp513
Vfeaturesets
p514
(lp515
Vnone
p516
aVrt
p517
asVcompiler
p518
Vgcc-5
p519
sVkernel-arch
p520
Vx86
p521
ss(Vbuild
p522
g84
tp523
(dp524
Vimage-file
p525
Varch/arm/boot/zImage
p526
sVvdso
p527
I01
ss(Vdescription
p528
g331
NVocteon
p529
tp530
(dp531
Vhardware
p532
VOcteon
p533
sVhardware-long
p534
VCavium Networks Octeon
p535
ss(Vimage
p536
g84
NVarmmp-lpae
p537
tp538
(dp539
Vconfigs
p540
(lp541
Varmhf/config.armmp
p542
aVarmhf/config.lpae
p543
ass(Vdescription
p544
Vppc64el
p545
NVpowerpc64le
p546
tp547
(dp548
Vhardware
p549
VLittle-endian 64-bit PowerPC
p550
ss(Vimage
p551
g278
tp552
(dp553
Vconfigs
p554
(lp555
sVinstall-stem
p556
Vvmlinux
p557
sVsuggests
p558
Vmkvmlinuz
p559
ss(g122
g296
g80
tp560
(dp561
g125
I01
sg126
(lp562
Vpowerpcspe
p563
ass(Vimage
p564
g70
NVs390x
p565
tp566
(dp567
Vconfigs
p568
(lp569
Vkernelarch-s390/config-arch-64
p570
ass(Vbase
p571
Vor1k
p572
tp573
(dp574
Vfeaturesets
p575
(lp576
sVkernel-arch
p577
Vopenrisc
p578
ss(Vdescription
p579
g61
NVloongson-2f
p580
tp581
(dp582
Vhardware
p583
VLoongson 2F
p584
sVhardware-long
p585
VLemote Loongson 2F systems
p586
ss(Vdescription
p587
g102
NV5kc-malta
p588
tp589
(dp590
Vhardware
p591
VMIPS Malta
p592
sVhardware-long
p593
VMIPS Malta boards
p594
ss(Vbuild
p595
g296
tp596
(dp597
Vimage-file
p598
Vvmlinux
p599
sVvdso
p600
I01
ss(Vdescription
p601
Valpha
p602
NValpha-generic
p603
tp604
(dp605
Vhardware
p606
VAlpha
p607
sVhardware-long
p608
VDEC Alpha systems with extended kernel start address (Wildfire, Titan, Marvel)
p609
ss(Vimage
p610
g12
tp611
(dp612
Vconfigs
p613
(lp614
sVbootloaders
p615
(lp616
Vgrub-pc
p617
aVgrub-efi
p618
aVextlinux
p619
asVinstall-stem
p620
Vvmlinuz
p621
sVbreaks
p622
Vxserver-xorg-input-vmmouse (<< 1:13.0.99)
p623
ss(Vbuild
p624
g36
tp625
(dp626
Vimage-file
p627
Varch/x86/boot/bzImage
p628
sVvdso
p629
I01
ss(Vbase
p630
g602
tp631
(dp632
g78
(lp633
g80
asVkernel-arch
p634
Valpha
p635
ss(Vbase
p636
g331
tp637
(dp638
g78
(lp639
g80
asVkernel-arch
p640
Vmips
p641
ss(Vimage
p642
g602
tp643
(dp644
Vinstall-stem
p645
Vvmlinuz
p646
sVsuggests
p647
Vaboot, fdutils
p648
ss(Vimage
p649
g214
NV5kc-malta
p650
tp651
(dp652
Vconfigs
p653
(lp654
Vkernelarch-mips/config.5kc-malta
p655
ass(Vimage
p656
g192
NVpowerpc-smp
p657
tp658
(dp659
Vconfigs
p660
(lp661
Vpowerpc/config.powerpc
p662
aVpowerpc/config.powerpc-smp
p663
ass(Vrelations
p664
g12
tp665
(dp666
Vheaders%gcc-5
p667
Vlinux-compiler-gcc-5-x86
p668
ss(Vimage
p669
g296
tp670
(dp671
Vinstall-stem
p672
Vvmlinux
p673
sVsuggests
p674
Vmkvmlinuz
p675
ss(g122
g545
g80
tp676
(dp677
g125
I01
sg126
(lp678
Vpowerpc64le
p679
ass(Vrelations
p680
g21
tp681
(dp682
Vheaders%gcc-4.9
p683
Vlinux-compiler-gcc-4.9-arm
p684
ss(Vdescription
p685
g61
NVloongson-3
p686
tp687
(dp688
Vhardware
p689
VLoongson 3A/3B
p690
sVhardware-long
p691
VLoongson 3A or 3B based systems (e.g. from Loongson or Lemote)
p692
ss(Vbase
p693
g12
g13
tp694
(dp695
Vflavours
p696
(lp697
Vamd64
p698
ass(Vbase
p699
g36
Vnone
p700
tp701
(dp702
Vflavours
p703
(lp704
V686
p705
aV686-pae
p706
ass(Vimage
p707
g331
NVocteon
p708
tp709
(dp710
Vconfigs
p711
(lp712
Vkernelarch-mips/config.octeon
p713
ass(Vdescription
p714
g214
NV5kc-malta
p715
tp716
(dp717
Vhardware
p718
VMIPS Malta (64-bit)
p719
sVhardware-long
p720
VMIPS Malta boards (64-bit)
p721
ss(Vrelations
p722
tp723
(dp724
Vgcc-4.9
p725
Vgcc-4.9 <!stage1>
p726
sVinitramfs-tools
p727
Vinitramfs-tools (>= 0.110~)
p728
sVgcc-5
p729
Vgcc-5 <!stage1>
p730
sVinitramfs-fallback
p731
Vlinux-initramfs-tool
p732
sVgcc-4.8
p733
Vgcc-4.8 <!stage1>
p734
ss(Vbase
p735
g278
tp736
(dp737
g78
(lp738
g80
asVkernel-arch
p739
Vpowerpc
p740
ss(g122
g93
g80
tp741
(dp742
g125
I01
sg126
(lp743
Vparisc
p744
aVparisc64-smp
p745
ass(Vimage
p746
g331
NV5kc-malta
p747
tp748
(dp749
Vconfigs
p750
(lp751
Vkernelarch-mips/config.5kc-malta
p752
ass(Vbuild
p753
g12
tp754
(dp755
Vimage-file
p756
Varch/x86/boot/bzImage
p757
sVvdso
p758
I01
sVdebug-info
p759
I01
ss(Vimage
p760
g70
tp761
(dp762
Vconfigs
p763
(lp764
sVbootloaders
p765
(lp766
Vs390-tools
p767
asVinstall-stem
p768
Vvmlinuz
p769
ss(Vbase
p770
g138
tp771
(dp772
g78
(lp773
g80
asVkernel-arch
p774
Vsparc
p775
ss(Vdescription
p776
g70
NVs390x
p777
tp778
(dp779
Vhardware
p780
VIBM zSeries
p781
ss(g122
g154
g80
tp782
(dp783
g125
I01
sg126
(lp784
Vsh7751r
p785
aVsh7785lcr
p786
ass(Vimage
p787
g201
NVarm64
p788
tp789
(dp790
s(Vimage
p791
g214
tp792
(dp793
Vinstall-stem
p794
Vvmlinux
p795
ss(Vbuild
p796
g201
tp797
(dp798
Vimage-file
p799
Varch/arm64/boot/Image
p800
sVvdso
p801
I01
sVdebug-info
p802
I01
ss(Vimage
p803
g36
tp804
(dp805
Vconfigs
p806
(lp807
sVbootloaders
p808
(lp809
Vgrub-pc
p810
aVextlinux
p811
asVinstall-stem
p812
Vvmlinuz
p813
sVbreaks
p814
Vxserver-xorg-input-vmmouse (<< 1:13.0.99)
p815
ss(Vbase
p816
g70
tp817
(dp818
g78
(lp819
g80
asVkernel-arch
p820
Vs390
p821
ss(Vbase
p822
Vx32
p823
tp824
(dp825
Vfeaturesets
p826
(lp827
sVkernel-arch
p828
Vx86
p829
ss(Vbuild
p830
g5
tp831
(dp832
Vimage-file
p833
Vvmlinux.gz
p834
ss(Vdescription
p835
g602
NValpha-smp
p836
tp837
(dp838
Vhardware
p839
VAlpha SMP
p840
sVhardware-long
p841
VDEC Alpha SMP systems with extended kernel start address (Wildfire, Titan, Marvel)
p842
ss(Vdescription
p843
g192
NVpowerpc
p844
tp845
(dp846
Vhardware
p847
Vuniprocessor 32-bit PowerPC
p848
ss(Vbase
p849
g84
tp850
(dp851
g78
(lp852
g80
asVkernel-arch
p853
Varm
p854
ss(Vdescription
p855
g102
NVocteon
p856
tp857
(dp858
Vhardware
p859
VOcteon
p860
sVhardware-long
p861
VCavium Networks Octeon
p862
ss(Vabi
p863
tp864
(dp865
Vignore-changes
p866
(lp867
Vmodule:net/dccp/dccp
p868
aVfl6_*
p869
aVinet_sk_diag_fill
p870
aVip6_append_data
p871
aVip6_datagram_send_ctl
p872
aVip6_xmit
p873
aVipv6_dup_options
p874
aVipv6_fixup_options
p875
aVipv6_push_nfrag_opts
p876
aVtcp_cong_avoid_ai
p877
aVtcp_slow_start
p878
aVpin_is_valid
p879
aVpinctrl_*
p880
asVabiname
p881
Vkali1
p882
ss(Vdescription
p883
g154
NVsh7751r
p884
tp885
(dp886
Vhardware
p887
Vsh7751r
p888
sVhardware-long
p889
VRenesas SH7751R R2D plus board
p890
ss(Vimage
p891
g36
NV686-pae
p892
tp893
(dp894
Vconfigs
p895
(lp896
Vkernelarch-x86/config-arch-32
p897
aVi386/config.686-pae
p898
asVrecommends
p899
Vlibc6-i686
p900
ss(Vdescription
p901
g36
NV686-pae
p902
tp903
(dp904
Vhardware
p905
Vmodern PCs
p906
sVparts
p907
(lp908
Vpae
p909
asVhardware-long
p910
VPCs with one or more processors supporting PAE
p911
ss(g122
g84
g80
tp912
(dp913
g125
I01
sg126
(lp914
Varmmp
p915
aVarmmp-lpae
p916
ass(Vimage
p917
g102
NVloongson-3
p918
tp919
(dp920
Vconfigs
p921
(lp922
Vkernelarch-mips/config.loongson-3
p923
ass(Vimage
p924
g5
tp925
(dp926
Vinstall-stem
p927
Vvmlinuz
p928
sVsuggests
p929
Vvmelilo, fdutils
p930
ss(Vdescription
p931
g36
NV686
p932
tp933
(dp934
Vhardware
p935
Volder PCs
p936
sVhardware-long
p937
VPCs with one or more processors not supporting PAE
p938
ss(Vimage
p939
tp940
(dp941
Vtype
p942
Vplain
p943
sVinitramfs-generators
p944
(lp945
Vinitramfs-tools
p946
aVinitramfs-fallback
p947
ass(Vbase
p948
tp949
(dp950
Varches
p951
(lp952
Valpha
p953
aVamd64
p954
aVarm64
p955
aVarmel
p956
aVarmhf
p957
aVhppa
p958
aVi386
p959
aVm68k
p960
aVmips
p961
aVmipsel
p962
aVmips64
p963
aVmips64el
p964
aVor1k
p965
aVpowerpc
p966
aVpowerpcspe
p967
aVppc64
p968
aVppc64el
p969
aVs390
p970
aVs390x
p971
aVsh4
p972
aVsparc
p973
aVsparc64
p974
aVx32
p975
asVcompiler
p976
Vgcc-4.9
p977
sVfeaturesets
p978
(lp979
Vnone
p980
aVrt
p981
ass(Vdescription
p982
g21
NVorion5x
p983
tp984
(dp985
Vhardware
p986
VMarvell Orion
p987
sVhardware-long
p988
VMarvell Orion 5181, 5182 and 5281 based systems (QNAP TS-109/TS-209, etc)
p989
ss(g122
g214
g80
tp990
(dp991
g125
I01
sg126
(lp992
V4kc-malta
p993
aV5kc-malta
p994
aVocteon
p995
ass(Vbase
p996
g296
tp997
(dp998
g78
(lp999
g80
asVkernel-arch
p1000
Vpowerpc
p1001
ss(Vbase
p1002
g192
tp1003
(dp1004
g78
(lp1005
g80
asVkernel-arch
p1006
Vpowerpc
p1007
ss(Vimage
p1008
g214
NVocteon
p1009
tp1010
(dp1011
Vconfigs
p1012
(lp1013
Vkernelarch-mips/config.octeon
p1014
ass(g122
g602
g80
tp1015
(dp1016
g125
I01
sg126
(lp1017
Valpha-generic
p1018
aValpha-smp
p1019
ass(Vimage
p1020
g102
NV5kc-malta
p1021
tp1022
(dp1023
Vconfigs
p1024
(lp1025
Vkernelarch-mips/config.5kc-malta
p1026
ass(Vversion
p1027
tp1028
(dp1029
Vabiname
p1030
V4.3.0-kali1
p1031
sVabiname_base
p1032
V4.3.0
p1033
sVupstream
p1034
V4.3
p1035
sVsource
p1036
V4.3.3-7kali1
p1037
ss(Vdescription
p1038
g93
NVparisc64-smp
p1039
tp1040
(dp1041
Vhardware
p1042
Vmultiprocessor 64-bit PA-RISC
p1043
sVhardware-long
p1044
VHP PA-RISC 64-bit SMP systems with support for more than 4 GB RAM
p1045
ss(Vdescription
p1046
g61
NV4kc-malta
p1047
tp1048
(dp1049
Vhardware
p1050
VMIPS Malta
p1051
sVhardware-long
p1052
VMIPS Malta boards
p1053
ss(Vdescription
p1054
g214
NVocteon
p1055
tp1056
(dp1057
Vhardware
p1058
VOcteon
p1059
sVhardware-long
p1060
VCavium Networks Octeon
p1061
ss(Vimage
p1062
g278
NVpowerpc64
p1063
tp1064
(dp1065
Vconfigs
p1066
(lp1067
Vkernelarch-powerpc/config-arch-64
p1068
aVkernelarch-powerpc/config-arch-64-be
p1069
ass(Vbuild
p1070
g602
tp1071
(dp1072
Vimage-file
p1073
Varch/alpha/boot/vmlinux.gz
p1074
ss(Vimage
p1075
g61
NVloongson-2e
p1076
tp1077
(dp1078
Vconfigs
p1079
(lp1080
Vkernelarch-mips/config.loongson-2e
p1081
ass(Vimage
p1082
g36
NV686
p1083
tp1084
(dp1085
Vconfigs
p1086
(lp1087
Vkernelarch-x86/config-arch-32
p1088
aVi386/config.686
p1089
asVrecommends
p1090
Vlibc6-i686
p1091
ss(Vbase
p1092
g545
tp1093
(dp1094
g78
(lp1095
g80
asVkernel-arch
p1096
Vpowerpc
p1097
ss(g122
g278
g80
tp1098
(dp1099
g125
I01
sg126
(lp1100
Vpowerpc64
p1101
ass(Vbuild
p1102
g545
tp1103
(dp1104
Vimage-file
p1105
Vvmlinux
p1106
sVvdso
p1107
I01
ss(g122
g70
g80
tp1108
(dp1109
g125
I01
sg126
(lp1110
Vs390x
p1111
ass(Vdescription
p1112
g331
NV5kc-malta
p1113
tp1114
(dp1115
Vhardware
p1116
VMIPS Malta
p1117
sVhardware-long
p1118
VMIPS Malta boards
p1119
ss(Vbuild
p1120
g331
tp1121
(dp1122
Vimage-file
p1123
Vvmlinux
p1124
ss(Vdescription
p1125
NVrt
p1126
tp1127
(dp1128
Vpart-long-rt
p1129
VThis kernel includes the PREEMPT_RT realtime patch set.
p1130
sVpart-short-rt
p1131
VPREEMPT_RT
p1132
sVparts
p1133
(lp1134
Vrt
p1135
ass(Vrelations
p1136
g93
tp1137
(dp1138
Vgcc-4.9
p1139
Vgcc-4.9 <!stage1>, binutils-hppa64 <!stage1>, gcc-4.9-hppa64 <!stage1>
p1140
ss(Vbuild
p1141
g138
tp1142
(dp1143
Vimage-file
p1144
Varch/sparc/boot/zImage
p1145
ss(Vimage
p1146
g545
NVpowerpc64le
p1147
tp1148
(dp1149
Vconfigs
p1150
(lp1151
Vkernelarch-powerpc/config-arch-64
p1152
aVkernelarch-powerpc/config-arch-64-le
p1153
ass(Vbuild
p1154
g102
tp1155
(dp1156
Vimage-file
p1157
Vvmlinux
p1158
ss(g122
g331
g80
tp1159
(dp1160
g125
I01
sg126
(lp1161
V5kc-malta
p1162
aVocteon
p1163
ass(Vimage
p1164
g192
tp1165
(dp1166
Vconfigs
p1167
(lp1168
sVinstall-stem
p1169
Vvmlinux
p1170
sVsuggests
p1171
Vmkvmlinuz
p1172
ss(Vimage
p1173
g21
NVorion5x
p1174
tp1175
(dp1176
Vcheck-size
p1177
L2097080L
sVrecommends
p1178
Vu-boot-tools
p1179
sVcheck-size-with-dtb
p1180
I01
sVconfigs
p1181
(lp1182
Varmel/config-reduced
p1183
aVarmel/config.orion5x
p1184
ass(Vimage
p1185
g138
tp1186
(dp1187
Vconfigs
p1188
(lp1189
sVinstall-stem
p1190
Vvmlinuz
p1191
sVsuggests
p1192
Vsilo, fdutils
p1193
ss(Vbase
p1194
g201
tp1195
(dp1196
Vfeaturesets
p1197
(lp1198
Vnone
p1199
asVkernel-arch
p1200
Varm64
p1201
ss(Vdescription
p1202
g36
g700
V686-pae
p1203
tp1204
(dp1205
Vparts
p1206
(lp1207
Vxen
p1208
ass(Vdescription
p1209
g138
NVsparc64-smp
p1210
tp1211
(dp1212
Vhardware
p1213
Vmultiprocessor 64-bit UltraSPARC
p1214
ss(Vbase
p1215
g5
tp1216
(dp1217
g78
(lp1218
g80
asVcompiler
p1219
Vgcc-4.8
p1220
sVcflags
p1221
V-ffreestanding
p1222
sVkernel-arch
p1223
Vm68k
p1224
ss(g122
g21
g80
tp1225
(dp1226
g125
I01
sg126
(lp1227
Vkirkwood
p1228
aVorion5x
p1229
aVversatile
p1230
ass(Vimage
p1231
g545
tp1232
(dp1233
Vconfigs
p1234
(lp1235
sVinstall-stem
p1236
Vvmlinux
p1237
sVsuggests
p1238
Vmkvmlinuz
p1239
ss(Vabi
p1240
Ng1126
tp1241
(dp1242
Vignore-changes
p1243
(lp1244
V*
p1245
ass(Vimage
p1246
g61
NV4kc-malta
p1247
tp1248
(dp1249
Vconfigs
p1250
(lp1251
Vkernelarch-mips/config.4kc-malta
p1252
ass(Vimage
p1253
g102
NVocteon
p1254
tp1255
(dp1256
Vconfigs
p1257
(lp1258
Vkernelarch-mips/config.octeon
p1259
asstp1260
Rp1261
.