ccopy_reg
_reconstructor
p0
(cdebian_linux.config
ConfigCore
p1
c__builtin__
dict
p2
(dp3
(Vimage
p4
Vpowerpc
p5
NVpowerpc-smp
p6
tp7
(dp8
Vconfigs
p9
(lp10
Vpowerpc/config.powerpc
p11
aVpowerpc/config.powerpc-smp
p12
ass(Vdescription
p13
Vi386
p14
NV686
p15
tp16
(dp17
Vhardware-long
p18
VPCs with one or more processors not supporting PAE
p19
sVhardware
p20
Volder PCs
p21
ss(Vxen
p22
Vamd64
p23
Vnone
p24
Vamd64
p25
tp26
(dp27
Vflavours
p28
(lp29
Vamd64
p30
ass(Vdescription
p31
Vmipsel
p32
NV4kc-malta
p33
tp34
(dp35
Vhardware-long
p36
VMIPS Malta boards
p37
sVhardware
p38
VMIPS Malta
p39
ss(Vbuild
p40
Vppc64
p41
tp42
(dp43
Vsigned-modules
p44
I00
sVvdso
p45
I01
sVimage-file
p46
Vvmlinux
p47
ss(Vimage
p48
Vmips64el
p49
tp50
(dp51
Vinstall-stem
p52
Vvmlinux
p53
ss(Vdescription
p54
g49
NV5kc-malta
p55
tp56
(dp57
Vhardware-long
p58
VMIPS Malta boards
p59
sVhardware
p60
VMIPS Malta
p61
ss(Vversion
p62
tp63
(dp64
Vsource
p65
V4.8.15-1kali1
p66
sVabiname_base
p67
V4.8.0
p68
sVabiname
p69
V4.8.0-kali2
p70
sVupstream
p71
V4.8
p72
ss(Vimage
p73
g41
tp74
(dp75
Vconfigs
p76
(lp77
sVsuggests
p78
Vmkvmlinuz
p79
sVinstall-stem
p80
Vvmlinux
p81
ss(Vdescription
p82
Vmips64
p83
NV5kc-malta
p84
tp85
(dp86
Vhardware-long
p87
VMIPS Malta boards
p88
sVhardware
p89
VMIPS Malta
p90
ss(Vimage
p91
Varmhf
p92
tp93
(dp94
Vinstall-stem
p95
Vvmlinuz
p96
ss(Vbuild
p97
Vm68k
p98
tp99
(dp100
Vsigned-modules
p101
I00
sVimage-file
p102
Vvmlinux.gz
p103
ss(Vbase
p104
Vsparc64
p105
tp106
(dp107
Vfeaturesets
p108
(lp109
Vnone
p110
asVkernel-arch
p111
Vsparc
p112
ss(Vdescription
p113
Vhppa
p114
NVparisc
p115
tp116
(dp117
Vhardware-long
p118
VHP PA-RISC 32-bit systems with max 4 GB RAM
p119
sVhardware
p120
V32-bit PA-RISC
p121
ss(Vbuild
p122
g14
tp123
(dp124
Vsigned-modules
p125
I00
sVvdso
p126
I01
sVimage-file
p127
Varch/x86/boot/bzImage
p128
ss(Vimage
p129
g98
tp130
(dp131
Vsuggests
p132
Vvmelilo, fdutils
p133
sVinstall-stem
p134
Vvmlinuz
p135
ss(Vdescription
p136
Vsh4
p137
NVsh7751r
p138
tp139
(dp140
Vhardware-long
p141
VRenesas SH7751R R2D plus board
p142
sVhardware
p143
Vsh7751r
p144
ss(Vbase
p145
Valpha
p146
tp147
(dp148
g108
(lp149
g110
asVkernel-arch
p150
Valpha
p151
ss(Vdescription
p152
g146
NValpha-generic
p153
tp154
(dp155
Vhardware-long
p156
VDEC Alpha systems with extended kernel start address (Wildfire, Titan, Marvel)
p157
sVhardware
p158
VAlpha
p159
ss(Vbase
p160
g5
g110
tp161
(dp162
Vimplicit-flavour
p163
I01
sVflavours
p164
(lp165
Vpowerpc
p166
aVpowerpc-smp
p167
aVpowerpc64
p168
ass(Vbase
p169
Varmel
p170
tp171
(dp172
g108
(lp173
g110
asVkernel-arch
p174
Varm
p175
ss(Vimage
p176
g137
tp177
(dp178
Vinstall-stem
p179
Vvmlinuz
p180
ss(Vbuild
p181
Vs390x
p182
NVs390x
p183
tp184
(dp185
Vdebug-info
p186
I01
ss(Vbase
p187
Vs390
p188
tp189
(dp190
Vfeaturesets
p191
(lp192
sVkernel-arch
p193
Vs390
p194
ss(Vbuild
p195
g137
tp196
(dp197
Vsigned-modules
p198
I00
sVimage-file
p199
Varch/sh/boot/zImage
p200
ss(Vimage
p201
Vmips
p202
tp203
(dp204
Vinstall-stem
p205
Vvmlinux
p206
ss(Vimage
p207
g114
tp208
(dp209
Vsuggests
p210
Vpalo
p211
sVinstall-stem
p212
Vvmlinux
p213
ss(Vimage
p214
g49
NVocteon
p215
tp216
(dp217
Vconfigs
p218
(lp219
Vkernelarch-mips/config.octeon
p220
ass(Vbase
p221
g14
Vrt
p222
tp223
(dp224
Vflavours
p225
(lp226
V686-pae
p227
ass(Vbuild
p228
g202
tp229
(dp230
Vsigned-modules
p231
I00
sVimage-file
p232
Vvmlinux
p233
ss(Vimage
p234
g5
tp235
(dp236
Vconfigs
p237
(lp238
sVsuggests
p239
Vmkvmlinuz
p240
sVinstall-stem
p241
Vvmlinux
p242
ss(Vdescription
p243
g182
NVs390x
p244
tp245
(dp246
Vhardware
p247
VIBM zSeries
p248
ss(Vrelations
p249
g92
tp250
(dp251
Vheaders%gcc-5
p252
Vlinux-compiler-gcc-5-arm
p253
ss(Vbase
p254
g98
tp255
(dp256
g108
(lp257
g110
asVcflags
p258
V-ffreestanding
p259
sVkernel-arch
p260
Vm68k
p261
ss(Vimage
p262
g5
NVpowerpc64
p263
tp264
(dp265
Vconfigs
p266
(lp267
Vkernelarch-powerpc/config-arch-64
p268
aVkernelarch-powerpc/config-arch-64-be
p269
ass(Vimage
p270
Vpowerpcspe
p271
tp272
(dp273
Vsuggests
p274
Vmkvmlinuz
p275
sVinstall-stem
p276
Vvmlinux
p277
ss(Vbase
p278
g202
tp279
(dp280
g108
(lp281
g110
asVkernel-arch
p282
Vmips
p283
ss(Vbase
p284
Vsparc
p285
tp286
(dp287
Vfeaturesets
p288
(lp289
sVkernel-arch
p290
Vsparc
p291
ss(Vdescription
p292
g32
NVloongson-3
p293
tp294
(dp295
Vhardware-long
p296
VLoongson 3A or 3B based systems (e.g. from Loongson or Lemote)
p297
sVhardware
p298
VLoongson 3A/3B
p299
ss(Vrelations
p300
g182
tp301
(dp302
Vheaders%gcc-5
p303
Vlinux-compiler-gcc-5-s390
p304
ss(Vdescription
p305
g105
NVsparc64
p306
tp307
(dp308
Vhardware
p309
Vuniprocessor 64-bit UltraSPARC
p310
ss(Vbase
p311
g23
g24
tp312
(dp313
Vflavours
p314
(lp315
Vamd64
p316
ass(Vbuild
p317
g92
tp318
(dp319
Vsigned-modules
p320
I00
sVvdso
p321
I01
sVimage-file
p322
Varch/arm/boot/zImage
p323
ss(Vbase
p324
tp325
(dp326
Varches
p327
(lp328
Valpha
p329
aVamd64
p330
aVarm64
p331
aVarmel
p332
aVarmhf
p333
aVhppa
p334
aVi386
p335
aVm68k
p336
aVmips
p337
aVmipsel
p338
aVmipsn32
p339
aVmipsn32el
p340
aVmips64
p341
aVmips64el
p342
aVor1k
p343
aVpowerpc
p344
aVpowerpcspe
p345
aVppc64
p346
aVppc64el
p347
aVs390
p348
aVs390x
p349
aVsh4
p350
aVsparc
p351
aVsparc64
p352
aVtilegx
p353
aVx32
p354
asVfeaturesets
p355
(lp356
Vnone
p357
aVrt
p358
asVcompiler
p359
Vgcc-5
p360
ss(Vdescription
p361
g5
NVpowerpc64
p362
tp363
(dp364
Vhardware
p365
V64-bit PowerPC
p366
ss(Vabi
p367
NVrt
p368
tp369
(dp370
Vignore-changes
p371
(lp372
V*
p373
ass(Vbase
p374
g5
tp375
(dp376
g108
(lp377
g110
asVkernel-arch
p378
Vpowerpc
p379
ss(Vimage
p380
g14
tp381
(dp382
Vbootloaders
p383
(lp384
Vgrub-pc
p385
aVextlinux
p386
asVbreaks
p387
Vxserver-xorg-input-vmmouse (<< 1:13.0.99)
p388
sVinstall-stem
p389
Vvmlinuz
p390
ss(Vbuild
p391
tp392
(dp393
Vdebug-info
p394
I01
sVsigned-modules
p395
I01
ss(Vimage
p396
g32
NV4kc-malta
p397
tp398
(dp399
Vconfigs
p400
(lp401
Vkernelarch-mips/config.malta
p402
aVkernelarch-mips/config.mips32r2
p403
ass(Vimage
p404
g83
NV5kc-malta
p405
tp406
(dp407
Vconfigs
p408
(lp409
Vkernelarch-mips/config.malta
p410
aVkernelarch-mips/config.mips64r2
p411
ass(Vdescription
p412
g92
NVarmmp
p413
tp414
(dp415
Vhardware-long
p416
VARMv7 multiplatform kernel. See\u000ahttps://wiki.debian.org/DebianKernel/ARMMP for details of supported\u000aplatforms
p417
sVhardware
p418
VARMv7 multiplatform compatible SoCs
p419
ss(Vdescription
p420
g137
NVsh7785lcr
p421
tp422
(dp423
Vhardware-long
p424
VRenesas SH7785 reference board
p425
sVhardware
p426
Vsh7785lcr
p427
ss(Vimage
p428
Varm64
p429
NVarm64
p430
tp431
(dp432
s(Vbase
p433
g14
Vnone
p434
tp435
(dp436
Vflavours
p437
(lp438
V686
p439
aV686-pae
p440
ass(Vdescription
p441
g14
NV686-pae
p442
tp443
(dp444
Vhardware-long
p445
VPCs with one or more processors supporting PAE
p446
sVhardware
p447
Vmodern PCs
p448
sVparts
p449
(lp450
Vpae
p451
ass(g160
g83
g110
tp452
(dp453
g163
I01
sg164
(lp454
V5kc-malta
p455
aVocteon
p456
ass(Vdescription
p457
g5
NVpowerpc-smp
p458
tp459
(dp460
Vhardware
p461
Vmultiprocessor 32-bit PowerPC
p462
ss(Vimage
p463
g23
tp464
(dp465
Vbootloaders
p466
(lp467
Vgrub-pc
p468
aVgrub-efi-amd64
p469
aVextlinux
p470
asVbreaks
p471
Vxserver-xorg-input-vmmouse (<< 1:13.0.99)
p472
sVinstall-stem
p473
Vvmlinuz
p474
ss(Vdescription
p475
g114
NVparisc64-smp
p476
tp477
(dp478
Vhardware-long
p479
VHP PA-RISC 64-bit SMP systems with support for more than 4 GB RAM
p480
sVhardware
p481
Vmultiprocessor 64-bit PA-RISC
p482
ss(Vbase
p483
g14
tp484
(dp485
Vfeaturesets
p486
(lp487
Vnone
p488
aVrt
p489
asVkernel-arch
p490
Vx86
p491
ss(Vbase
p492
g114
NVparisc64-smp
p493
tp494
(dp495
Vcflags
p496
V-fno-cse-follow-jumps
p497
sVoverride-host-type
p498
Vhppa64-linux-gnu
p499
ss(Vdescription
p500
Vppc64el
p501
NVpowerpc64le
p502
tp503
(dp504
Vhardware
p505
VLittle-endian 64-bit PowerPC
p506
ss(g160
g146
g110
tp507
(dp508
g163
I01
sg164
(lp509
Valpha-generic
p510
aValpha-smp
p511
ass(Vdescription
p512
g41
NVpowerpc64
p513
tp514
(dp515
Vhardware
p516
V64-bit PowerPC
p517
ss(Vimage
p518
g170
NVmarvell
p519
tp520
(dp521
Vrecommends
p522
Vu-boot-tools
p523
sVbreaks
p524
Vflash-kernel (<< 3.57~)
p525
sVcheck-size-with-dtb
p526
I01
sVcheck-size
p527
L2097080L
ss(Vbuild
p528
g271
tp529
(dp530
Vsigned-modules
p531
I00
sVvdso
p532
I01
sVimage-file
p533
Vvmlinux
p534
ss(g160
g32
g110
tp535
(dp536
g163
I01
sg164
(lp537
V4kc-malta
p538
aV5kc-malta
p539
aVloongson-3
p540
aVocteon
p541
ass(Vimage
p542
g32
tp543
(dp544
Vinstall-stem
p545
Vvmlinux
p546
ss(Vbase
p547
Vmipsn32
p548
tp549
(dp550
Vfeaturesets
p551
(lp552
sVkernel-arch
p553
Vmips
p554
ss(Vbase
p555
g137
tp556
(dp557
g108
(lp558
g110
asVkernel-arch
p559
Vsh
p560
ss(Vbase
p561
g23
Vrt
p562
tp563
(dp564
Vflavours
p565
(lp566
Vamd64
p567
ass(Vbase
p568
g501
tp569
(dp570
g108
(lp571
g110
asVkernel-arch
p572
Vpowerpc
p573
ss(Vimage
p574
g202
NV4kc-malta
p575
tp576
(dp577
Vconfigs
p578
(lp579
Vkernelarch-mips/config.malta
p580
aVkernelarch-mips/config.mips32r2
p581
ass(Vdescription
p582
g32
NVocteon
p583
tp584
(dp585
Vhardware-long
p586
VCavium Networks Octeon
p587
sVhardware
p588
VOcteon
p589
ss(Vbase
p590
Vx32
p591
tp592
(dp593
Vfeaturesets
p594
(lp595
sVkernel-arch
p596
Vx86
p597
ss(Vdescription
p598
g170
NVversatile
p599
tp600
(dp601
Vhardware-long
p602
VVersatile systems (PB, AB, Qemu)
p603
sVhardware
p604
VVersatile
p605
ss(Vrelations
p606
tp607
(dp608
Vgcc-5
p609
Vgcc-5 <!stage1 !cross>, gcc-5-@gnu-type-package@:native <!stage1 cross>
p610
sVinitramfs-fallback
p611
Vlinux-initramfs-tool
p612
sVinitramfs-tools
p613
Vinitramfs-tools (>= 0.110~)
p614
ss(Vdescription
p615
g202
NV5kc-malta
p616
tp617
(dp618
Vhardware-long
p619
VMIPS Malta boards (64-bit)
p620
sVhardware
p621
VMIPS Malta (64-bit)
p622
ss(Vdescription
p623
g105
NVsparc64-smp
p624
tp625
(dp626
Vhardware
p627
Vmultiprocessor 64-bit UltraSPARC
p628
ss(Vimage
p629
g202
NV5kc-malta
p630
tp631
(dp632
Vconfigs
p633
(lp634
Vkernelarch-mips/config.malta
p635
aVkernelarch-mips/config.mips64r2
p636
ass(Vbase
p637
Vor1k
p638
tp639
(dp640
Vfeaturesets
p641
(lp642
sVkernel-arch
p643
Vopenrisc
p644
ss(Vbuild
p645
g83
tp646
(dp647
Vsigned-modules
p648
I00
sVimage-file
p649
Vvmlinux
p650
ss(g160
g41
g110
tp651
(dp652
g163
I01
sg164
(lp653
Vpowerpc64
p654
ass(Vdescription
p655
g202
NVocteon
p656
tp657
(dp658
Vhardware-long
p659
VCavium Networks Octeon
p660
sVhardware
p661
VOcteon
p662
ss(Vimage
p663
g83
tp664
(dp665
Vinstall-stem
p666
Vvmlinux
p667
ss(Vdescription
p668
g5
NVpowerpc
p669
tp670
(dp671
Vhardware
p672
Vuniprocessor 32-bit PowerPC
p673
ss(Vdescription
p674
g146
NValpha-smp
p675
tp676
(dp677
Vhardware-long
p678
VDEC Alpha SMP systems with extended kernel start address (Wildfire, Titan, Marvel)
p679
sVhardware
p680
VAlpha SMP
p681
ss(Vbase
p682
g271
tp683
(dp684
g108
(lp685
g110
asVkernel-arch
p686
Vpowerpc
p687
ss(Vdescription
p688
g429
NVarm64
p689
tp690
(dp691
Vhardware
p692
V64-bit ARMv8 machines
p693
ss(Vimage
p694
g105
NVsparc64-smp
p695
tp696
(dp697
Vconfigs
p698
(lp699
Vkernelarch-sparc/config-smp
p700
ass(Vdescription
p701
g202
NV4kc-malta
p702
tp703
(dp704
Vhardware-long
p705
VMIPS Malta boards
p706
sVhardware
p707
VMIPS Malta
p708
ss(Vbuild
p709
g23
tp710
(dp711
Vdebug-info
p712
I01
sVsigned-modules
p713
I00
sVimage-file
p714
Varch/x86/boot/bzImage
p715
sVvdso
p716
I01
ss(Vabi
p717
tp718
(dp719
Vabiname
p720
Vkali2
p721
sVignore-changes
p722
(lp723
Vmodule:arch/x86/kvm/*
p724
aVmodule:drivers/nvdimm/libnvdimm
p725
ass(Vrelations
p726
g14
tp727
(dp728
Vheaders%gcc-5
p729
Vlinux-compiler-gcc-5-x86
p730
ss(Vrelations
p731
g23
tp732
(dp733
Vheaders%gcc-5
p734
Vlinux-compiler-gcc-5-x86
p735
ss(Vdescription
p736
g271
tp737
(dp738
Vhardware
p739
V32-bit PowerPC with SPE (instead of AltiVec) with SMP support
p740
ss(Vimage
p741
g32
NVloongson-3
p742
tp743
(dp744
Vconfigs
p745
(lp746
Vkernelarch-mips/config.loongson-3
p747
ass(Vbuild
p748
g146
tp749
(dp750
Vsigned-modules
p751
I00
sVimage-file
p752
Varch/alpha/boot/vmlinux.gz
p753
ss(Vdescription
p754
Ng368
tp755
(dp756
Vparts
p757
(lp758
Vrt
p759
asVpart-short-rt
p760
VPREEMPT_RT
p761
sVpart-long-rt
p762
VThis kernel includes the PREEMPT_RT realtime patch set.
p763
ss(Vdescription
p764
g49
NVocteon
p765
tp766
(dp767
Vhardware-long
p768
VCavium Networks Octeon
p769
sVhardware
p770
VOcteon
p771
ss(Vbase
p772
Vtilegx
p773
tp774
(dp775
Vfeaturesets
p776
(lp777
sVkernel-arch
p778
Vtile
p779
ss(Vbuild
p780
g32
tp781
(dp782
Vsigned-modules
p783
I00
sVimage-file
p784
Vvmlinux
p785
ss(Vimage
p786
g202
NVocteon
p787
tp788
(dp789
Vconfigs
p790
(lp791
Vkernelarch-mips/config.octeon
p792
ass(Vbuild
p793
g114
tp794
(dp795
Vsigned-modules
p796
I00
sVimage-file
p797
Vvmlinux
p798
ss(g160
g114
g110
tp799
(dp800
g163
I01
sg164
(lp801
Vparisc
p802
aVparisc64-smp
p803
ass(Vimage
p804
g105
NVsparc64
p805
tp806
(dp807
Vconfigs
p808
(lp809
Vkernelarch-sparc/config-up
p810
ass(Vbase
p811
g92
tp812
(dp813
g108
(lp814
g110
asVkernel-arch
p815
Varm
p816
ss(g160
g137
g110
tp817
(dp818
g163
I01
sg164
(lp819
Vsh7751r
p820
aVsh7785lcr
p821
ass(Vimage
p822
g137
NVsh7785lcr
p823
tp824
(dp825
Vrecommends
p826
Vu-boot-tools
p827
sVcheck-size
p828
L4194304L
ss(Vbase
p829
g83
tp830
(dp831
g108
(lp832
g110
asVkernel-arch
p833
Vmips
p834
ss(Vdescription
p835
g14
g434
V686-pae
p836
tp837
(dp838
Vparts
p839
(lp840
Vxen
p841
ass(Vdescription
p842
g92
NVarmmp-lpae
p843
tp844
(dp845
Vhardware-long
p846
VARMv7 multiplatform kernel supporting LPAE. See\u000ahttps://wiki.debian.org/DebianKernel/ARMMP for details of supported\u000aplatforms.
p847
sVhardware
p848
VARMv7 multiplatform compatible SoCs supporting LPAE
p849
ss(g160
g182
g110
tp850
(dp851
g163
I01
sg164
(lp852
Vs390x
p853
ass(Vbase
p854
g41
tp855
(dp856
g108
(lp857
g110
asVkernel-arch
p858
Vpowerpc
p859
ss(Vdescription
p860
g14
tp861
(dp862
Vpart-long-pae
p863
VThis kernel requires PAE (Physical Address Extension).\u000aThis feature is supported by the Intel Pentium Pro/II/III/4/4M/D, Xeon,\u000aCore and Atom; AMD Geode NX, Athlon (K7), Duron, Opteron, Sempron,\u000aTurion or Phenom; Transmeta Efficeon; VIA C7; and some other processors.
p864
ss(Vimage
p865
g182
tp866
(dp867
Vbootloaders
p868
(lp869
Vs390-tools
p870
asVinstall-stem
p871
Vvmlinuz
p872
ss(Vimage
p873
g83
NVocteon
p874
tp875
(dp876
Vconfigs
p877
(lp878
Vkernelarch-mips/config.octeon
p879
ass(Vbase
p880
g23
tp881
(dp882
Vfeaturesets
p883
(lp884
Vnone
p885
aVrt
p886
asVkernel-arch
p887
Vx86
p888
ss(Vbuild
p889
g14
NV686-pae
p890
tp891
(dp892
Vdebug-info
p893
I01
ss(Vdescription
p894
g170
NVmarvell
p895
tp896
(dp897
Vhardware-long
p898
VMarvell Kirkwood based systems (SheevaPlug, QNAP TS-119/TS-219, etc)\u000aand Orion 5181, 5182 and 5281 based systems (QNAP TS-109/TS-209, etc)
p899
sVhardware
p900
VMarvell Kirkwood/Orion
p901
ss(g160
g105
g110
tp902
(dp903
g163
I01
sg164
(lp904
Vsparc64
p905
aVsparc64-smp
p906
ass(Vdescription
p907
g23
NVamd64
p908
tp909
(dp910
Vhardware-long
p911
VPCs with AMD64, Intel 64 or VIA Nano processors
p912
sVhardware
p913
V64-bit PCs
p914
ss(Vimage
p915
tp916
(dp917
Vinitramfs-generators
p918
(lp919
Vinitramfs-tools
p920
aVinitramfs-fallback
p921
ass(Vimage
p922
g170
tp923
(dp924
Vinstall-stem
p925
Vvmlinuz
p926
ss(Vbase
p927
g429
Vnone
p928
tp929
(dp930
Vflavours
p931
(lp932
Varm64
p933
ass(Vimage
p934
g49
NV5kc-malta
p935
tp936
(dp937
Vconfigs
p938
(lp939
Vkernelarch-mips/config.malta
p940
aVkernelarch-mips/config.mips64r2
p941
ass(Vimage
p942
g32
NVocteon
p943
tp944
(dp945
Vconfigs
p946
(lp947
Vkernelarch-mips/config.octeon
p948
ass(Vdescription
p949
g32
NV5kc-malta
p950
tp951
(dp952
Vhardware-long
p953
VMIPS Malta boards (64-bit)
p954
sVhardware
p955
VMIPS Malta (64-bit)
p956
ss(Vbase
p957
g32
tp958
(dp959
g108
(lp960
g110
asVkernel-arch
p961
Vmips
p962
ss(Vbuild
p963
g501
tp964
(dp965
Vvdso
p966
I01
sVimage-file
p967
Vvmlinux
p968
ss(Vbuild
p969
g429
tp970
(dp971
Vdebug-info
p972
I01
sVsigned-modules
p973
I00
sVimage-file
p974
Varch/arm64/boot/Image
p975
sVvdso
p976
I01
ss(Vbase
p977
g114
tp978
(dp979
g108
(lp980
g110
asVkernel-arch
p981
Vparisc
p982
ss(Vdescription
p983
g49
NVloongson-3
p984
tp985
(dp986
Vhardware-long
p987
VLoongson 3A or 3B based systems (e.g. from Loongson or Lemote)
p988
sVhardware
p989
VLoongson 3A/3B
p990
ss(Vimage
p991
g501
tp992
(dp993
Vconfigs
p994
(lp995
sVsuggests
p996
Vmkvmlinuz
p997
sVinstall-stem
p998
Vvmlinux
p999
ss(Vimage
p1000
g429
tp1001
(dp1002
Vinstall-stem
p1003
Vvmlinuz
p1004
ss(Vbuild
p1005
g49
tp1006
(dp1007
Vsigned-modules
p1008
I00
sVimage-file
p1009
Vvmlinux
p1010
ss(Vimage
p1011
g32
NV5kc-malta
p1012
tp1013
(dp1014
Vconfigs
p1015
(lp1016
Vkernelarch-mips/config.malta
p1017
aVkernelarch-mips/config.mips64r2
p1018
ass(Vbase
p1019
g182
tp1020
(dp1021
g108
(lp1022
g110
asVkernel-arch
p1023
Vs390
p1024
ss(g160
g170
g110
tp1025
(dp1026
g163
I01
sg164
(lp1027
Vmarvell
p1028
aVversatile
p1029
ass(g160
g98
g110
tp1030
(dp1031
g163
I01
sg164
(lp1032
Vm68k
p1033
ass(g160
g202
g110
tp1034
(dp1035
g163
I01
sg164
(lp1036
V4kc-malta
p1037
aV5kc-malta
p1038
aVocteon
p1039
ass(Vimage
p1040
g49
NVloongson-3
p1041
tp1042
(dp1043
Vconfigs
p1044
(lp1045
Vkernelarch-mips/config.loongson-3
p1046
ass(g160
g49
g110
tp1047
(dp1048
g163
I01
sg164
(lp1049
V5kc-malta
p1050
aVloongson-3
p1051
aVocteon
p1052
ass(Vdescription
p1053
tp1054
(dp1055
Vpart-long-up
p1056
VThis kernel is not suitable for SMP (multi-processor,\u000amulti-core or hyper-threaded) systems.
p1057
sVpart-long-xen
p1058
VThis kernel also runs on a Xen hypervisor.\u000aIt supports both privileged (dom0) and unprivileged (domU) operation.
p1059
ss(Vbase
p1060
Vmipsn32el
p1061
tp1062
(dp1063
Vfeaturesets
p1064
(lp1065
sVkernel-arch
p1066
Vmips
p1067
ss(Vbase
p1068
g49
tp1069
(dp1070
g108
(lp1071
g110
asVkernel-arch
p1072
Vmips
p1073
ss(Vbuild
p1074
g182
tp1075
(dp1076
Vvdso
p1077
I01
sVimage-file
p1078
Varch/s390/boot/image
p1079
ss(Vdescription
p1080
g98
NVm68k
p1081
tp1082
(dp1083
Vhardware
p1084
VMotorola MC68020+ family
p1085
ss(Vrelations
p1086
g114
tp1087
(dp1088
Vgcc-5
p1089
Vgcc-5 <!stage1 !cross>, binutils-hppa64-linux-gnu <!stage1 !cross>, gcc-5-hppa64-linux-gnu <!stage1 !cross>, gcc-5-hppa-linux-gnu:native <!stage1 cross>, binutils-hppa64-linux-gnu:native <!stage1 cross>, gcc-5-hppa64-linux-gnu:native <!stage1 cross>
p1090
ss(Vdescription
p1091
g83
NVocteon
p1092
tp1093
(dp1094
Vhardware-long
p1095
VCavium Networks Octeon
p1096
sVhardware
p1097
VOcteon
p1098
ss(g160
g501
g110
tp1099
(dp1100
g163
I01
sg164
(lp1101
Vpowerpc64le
p1102
ass(Vimage
p1103
g501
NVpowerpc64le
p1104
tp1105
(dp1106
Vconfigs
p1107
(lp1108
Vkernelarch-powerpc/config-arch-64
p1109
aVkernelarch-powerpc/config-arch-64-le
p1110
ass(Vbase
p1111
g429
tp1112
(dp1113
Vfeaturesets
p1114
(lp1115
Vnone
p1116
asVkernel-arch
p1117
Varm64
p1118
ss(Vbuild
p1119
g105
tp1120
(dp1121
Vsigned-modules
p1122
I00
sVimage-file
p1123
Varch/sparc/boot/zImage
p1124
ss(g160
g271
g110
tp1125
(dp1126
g163
I01
sg164
(lp1127
Vpowerpcspe
p1128
ass(Vimage
p1129
g105
tp1130
(dp1131
Vconfigs
p1132
(lp1133
sVsuggests
p1134
Vsilo, fdutils
p1135
sVinstall-stem
p1136
Vvmlinuz
p1137
ss(Vdescription
p1138
g23
g24
Vamd64
p1139
tp1140
(dp1141
Vparts
p1142
(lp1143
Vxen
p1144
ass(Vbuild
p1145
g5
tp1146
(dp1147
Vvdso
p1148
I01
sVimage-file
p1149
Vvmlinux
p1150
ss(Vbuild
p1151
g170
tp1152
(dp1153
Vsigned-modules
p1154
I00
sVimage-file
p1155
Varch/arm/boot/zImage
p1156
ss(Vimage
p1157
g41
NVpowerpc64
p1158
tp1159
(dp1160
Vconfigs
p1161
(lp1162
Vkernelarch-powerpc/config-arch-64
p1163
aVkernelarch-powerpc/config-arch-64-be
p1164
ass(Vimage
p1165
g146
tp1166
(dp1167
Vsuggests
p1168
Vaboot, fdutils
p1169
sVinstall-stem
p1170
Vvmlinuz
p1171
ss(Vrelations
p1172
g170
tp1173
(dp1174
Vheaders%gcc-5
p1175
Vlinux-compiler-gcc-5-arm
p1176
ss(Vbase
p1177
NVrt
p1178
tp1179
(dp1180
Venabled
p1181
I01
ss(g160
g92
g110
tp1182
(dp1183
g163
I01
sg164
(lp1184
Varmmp
p1185
aVarmmp-lpae
p1186
asstp1187
Rp1188
.