ccopy_reg
_reconstructor
p1
(cdebian_linux.config
ConfigCore
p2
c__builtin__
dict
p3
(dp4
(S'build'
S's390x'
p5
NS's390x'
tp6
(dp7
S'debug-info'
p8
I01
ss(S'image'
S'amd64'
p9
tp10
(dp11
S'configs'
p12
(lp13
sS'bootloaders'
p14
(lp15
S'grub-pc'
p16
aS'extlinux'
p17
aS'lilo'
p18
ass(S'build'
S'armel'
p19
NS'ixp4xx'
tp20
(dp21
S'image-file'
p22
S'arch/arm/boot/zImage'
p23
ss(S'base'
g9
S'none'
p24
tp25
(dp26
S'flavours'
p27
(lp28
S'amd64'
p29
ass(S'base'
S'hppa'
p30
NS'parisc64-smp'
tp31
(dp32
S'override-host-type'
p33
S'hppa64-linux-gnu'
p34
sS'cflags'
p35
S'-fno-cse-follow-jumps'
p36
ss(S'build'
g19
NS'iop32x'
tp37
(dp38
S'image-file'
p39
S'arch/arm/boot/zImage'
p40
ss(S'image'
S'sparc'
p41
NS'sparc32'
tp42
(dp43
S'image-postproc'
p44
S'sparc32-image-postproc'
p45
ss(S'image'
S'ia64'
p46
tp47
(dp48
S'suggests'
p49
S'fdutils'
p50
sS'bootloaders'
p51
(lp52
S'elilo'
p53
ass(S'image'
g5
NS's390x'
tp54
(dp55
S'configs'
p56
(lp57
S's390/config.s390x'
p58
ass(S'xen'
S'i386'
p59
S'none'
p60
S'amd64'
tp61
(dp62
S'flavours'
p63
(lp64
S'amd64'
p65
ass(S'version'
p66
tp67
(dp68
S'abiname'
p69
S'3.10-3'
p70
sS'source'
p71
V3.10.11-1
p72
ss(S'description'
g9
g24
S'amd64'
tp73
(dp74
S'parts'
p75
(lp76
S'xen'
p77
ass(S'description'
S'sparc64'
p78
NS'sparc64-smp'
tp79
(dp80
S'hardware'
p81
S'multiprocessor 64-bit UltraSPARC'
p82
ss(S'description'
g30
NS'parisc-smp'
tp83
(dp84
S'hardware'
p85
S'multiprocessor 32-bit PA-RISC'
p86
ss(S'image'
S'armhf'
p87
NS'omap'
tp88
(dp89
S'recommends'
p90
S'uboot-mkimage'
p91
ss(S'description'
S'ppc64'
p92
NS'powerpc64'
tp93
(dp94
S'hardware'
p95
S'64-bit PowerPC'
p96
ss(S'base'
p97
g87
S'none'
p98
tp99
(dp100
S'implicit-flavour'
p101
I01
sS'flavours'
p102
(lp103
S'armmp'
p104
aS'mx5'
p105
aS'omap'
p106
aS'vexpress'
p107
ass(S'description'
g19
NS'iop32x'
tp108
(dp109
S'hardware'
p110
S'IOP32x'
p111
sS'hardware-long'
p112
S'IOP32x based systems (Thecus N2100, etc)'
p113
ss(S'base'
g59
S'rt'
tp114
(dp115
S'flavours'
p116
(lp117
S'686-pae'
p118
ass(S'description'
S'sh4'
p119
NS'sh7785lcr'
tp120
(dp121
S'hardware'
p122
S'sh7785lcr'
p123
sS'hardware-long'
p124
S'Renesas SH7785 reference board'
p125
ss(S'image'
g19
NS'ixp4xx'
tp126
(dp127
S'check-size'
p128
S'1441760'
p129
sS'configs'
p130
(lp131
S'armel/config-reduced'
p132
aS'armel/config.ixp4xx'
p133
ass(g97
S'powerpc'
p134
g98
tp135
(dp136
g101
I01
sg102
(lp137
S'powerpc'
p138
aS'powerpc-smp'
p139
aS'powerpc64'
p140
ass(S'image'
g134
tp141
(dp142
S'suggests'
p143
S'mkvmlinuz'
p144
ss(S'description'
g134
NS'powerpc-smp'
tp145
(dp146
S'hardware'
p147
S'multiprocessor 32-bit PowerPC'
p148
ss(S'base'
g9
S'rt'
tp149
(dp150
S'flavours'
p151
(lp152
S'amd64'
p153
ass(S'description'
g59
g60
S'amd64'
tp154
(dp155
S'parts'
p156
(lp157
S'xen'
p158
ass(S'base'
g59
tp159
(dp160
S'kernel-arch'
p161
S'x86'
p162
sS'featuresets'
p163
(lp164
S'none'
p165
aS'rt'
p166
ass(S'description'
g30
NS'parisc64'
tp167
(dp168
S'hardware'
p169
S'64-bit PA-RISC'
p170
ss(S'base'
S'mipsel'
p171
tp172
(dp173
S'kernel-arch'
p174
S'mips'
p175
sS'featuresets'
p176
(lp177
g98
ass(S'image'
g19
NS'orion5x'
tp178
(dp179
S'check-size'
p180
S'1572792'
p181
sS'configs'
p182
(lp183
S'armel/config-reduced'
p184
aS'armel/config.orion5x'
p185
asS'recommends'
p186
S'uboot-mkimage'
p187
ss(S'base'
S'powerpcspe'
p188
tp189
(dp190
S'kernel-arch'
p191
S'powerpc'
p192
sg176
(lp193
g98
ass(g97
g171
g98
tp194
(dp195
g101
I01
sg102
(lp196
S'r5k-cobalt'
p197
aS'sb1-bcm91250a'
p198
aS'sb1a-bcm91480b'
p199
aS'4kc-malta'
p200
aS'5kc-malta'
p201
aS'loongson-2f'
p202
ass(S'description'
S'm68k'
p203
NS'm68k'
tp204
(dp205
S'hardware'
p206
S'Motorola MC68020+ family'
p207
ss(S'image'
g9
NS'amd64'
tp208
(dp209
S'configs'
p210
(lp211
S'kernelarch-x86/config-arch-64'
p212
ass(S'description'
g188
tp213
(dp214
S'hardware'
p215
S'32-bit PowerPC with SPE (instead of AltiVec) with SMP support'
p216
ss(S'base'
g30
NS'parisc64'
tp217
(dp218
S'override-host-type'
p219
S'hppa64-linux-gnu'
p220
sS'cflags'
p221
S'-fno-cse-follow-jumps'
p222
ss(S'image'
g78
NS'sparc64'
tp223
(dp224
S'configs'
p225
(lp226
S'sparc/config.sparc64'
p227
ass(S'description'
g171
NS'sb1-bcm91250a'
tp228
(dp229
S'hardware'
p230
S'BCM91250A'
p231
sS'hardware-long'
p232
S'Broadcom BCM91250A systems (aka SWARM)'
p233
ss(S'build'
g19
NS'orion5x'
tp234
(dp235
S'image-file'
p236
S'arch/arm/boot/zImage'
p237
ss(S'description'
g46
NS'mckinley'
tp238
(dp239
S'hardware'
p240
S'Itanium II'
p241
ss(S'description'
S'alpha'
p242
NS'alpha-smp'
tp243
(dp244
S'hardware'
p245
S'Alpha SMP'
p246
sS'hardware-long'
p247
S'DEC Alpha SMP systems with extended kernel start address (Wildfire, Titan, Marvel)'
p248
ss(g97
g119
g98
tp249
(dp250
g101
I01
sg102
(lp251
S'sh7751r'
p252
aS'sh7785lcr'
p253
ass(S'build'
g119
NS'sh7751r'
tp254
(dp255
S'image-file'
p256
S'arch/sh/boot/zImage'
p257
ss(S'description'
g19
NS'mv78xx0'
tp258
(dp259
S'hardware'
p260
S'Marvell 78xx0'
p261
sS'hardware-long'
p262
S'Marvell DB-78xx0-BP Development Board'
p263
ss(S'image'
g59
NS'amd64'
tp264
(dp265
S'configs'
p266
(lp267
S'kernelarch-x86/config-arch-64'
p268
asS'recommends'
p269
S'libc6-i686'
p270
ss(S'base'
g19
tp271
(dp272
S'kernel-arch'
p273
S'arm'
p274
sg176
(lp275
g98
ass(S'image'
g78
NS'sparc64-smp'
tp276
(dp277
S'configs'
p278
(lp279
S'sparc/config.sparc64-smp'
p280
ass(S'base'
g41
tp281
(dp282
S'kernel-arch'
p283
S'sparc'
p284
sg176
(lp285
g98
ass(S'description'
g9
NS'amd64'
tp286
(dp287
S'hardware'
p288
S'64-bit PCs'
p289
sS'hardware-long'
p290
S'PCs with AMD64, Intel 64 or VIA Nano processors'
p291
ss(S'base'
g242
tp292
(dp293
S'kernel-arch'
p294
S'alpha'
p295
sg176
(lp296
g98
ass(S'base'
g87
tp297
(dp298
S'kernel-arch'
p299
S'arm'
p300
sg176
(lp301
g98
ass(S'description'
S'mips'
p302
NS'4kc-malta'
tp303
(dp304
S'hardware'
p305
S'MIPS Malta'
p306
sS'hardware-long'
p307
S'MIPS Malta boards'
p308
ss(S'description'
NS'rt'
p309
tp310
(dp311
S'part-long-rt'
p312
S'This kernel includes the PREEMPT_RT realtime patch set.'
p313
sS'parts'
p314
(lp315
S'rt'
p316
asS'part-short-rt'
p317
S'PREEMPT_RT'
p318
ss(g97
S's390'
p319
g98
tp320
(dp321
g101
I01
sg102
(lp322
S's390x'
p323
ass(g97
g5
g98
tp324
(dp325
g101
I01
sg102
(lp326
S's390x'
p327
ass(S'base'
g302
tp328
(dp329
S'kernel-arch'
p330
S'mips'
p331
sg176
(lp332
g98
ass(S'description'
g319
NS's390'
tp333
(dp334
S'hardware'
p335
S'IBM S/390'
p336
ss(S'build'
g9
tp337
(dp338
S'debug-info'
p339
I01
ss(S'image'
g59
NS'486'
tp340
(dp341
S'configs'
p342
(lp343
S'kernelarch-x86/config-arch-32'
p344
aS'i386/config.486'
p345
ass(S'build'
g119
NS'sh7785lcr'
tp346
(dp347
S'image-file'
p348
S'arch/sh/boot/zImage'
p349
ss(S'description'
g46
NS'itanium'
tp350
(dp351
S'hardware'
p352
S'Itanium'
p353
ss(S'image'
g171
tp354
(dp355
S'initramfs'
p356
I00
ss(S'xen'
g59
g60
S'686-pae'
tp357
(dp358
S'flavours'
p359
(lp360
S'i386'
p361
aS'amd64'
p362
ass(S'description'
g134
NS'powerpc64'
tp363
(dp364
S'hardware'
p365
S'64-bit PowerPC'
p366
ss(S'build'
g87
NS'omap'
tp367
(dp368
S'image-file'
p369
S'arch/arm/boot/zImage'
p370
ss(S'description'
g302
NS'5kc-malta'
tp371
(dp372
S'hardware'
p373
S'MIPS Malta (64-bit)'
p374
sS'hardware-long'
p375
S'MIPS Malta boards (64-bit)'
p376
ss(S'base'
g9
tp377
(dp378
S'kernel-arch'
p379
S'x86'
p380
sS'featuresets'
p381
(lp382
S'none'
p383
aS'rt'
p384
ass(S'base'
g46
tp385
(dp386
S'kernel-arch'
p387
S'ia64'
p388
sg176
(lp389
g98
ass(S'description'
g41
NS'sparc32'
tp390
(dp391
S'hardware'
p392
S'uniprocessor sparc32 (sun4m)'
p393
ss(S'description'
g87
NS'omap'
tp394
(dp395
S'hardware'
p396
S'TI OMAP3+'
p397
sS'hardware-long'
p398
S'Texas Instruments OMAP3 or OMAP4 based systems'
p399
ss(S'description'
g59
NS'amd64'
tp400
(dp401
S'hardware'
p402
S'64-bit PCs'
p403
sS'parts'
p404
(lp405
S'xen'
p406
asS'hardware-long'
p407
S'PCs with AMD64, Intel 64 or VIA Nano processors'
p408
ss(g97
g92
g98
tp409
(dp410
g101
I01
sg102
(lp411
S'powerpc64'
p412
ass(S'base'
g319
tp413
(dp414
S'kernel-arch'
p415
S's390'
p416
sg176
(lp417
g98
ass(g97
g19
g98
tp418
(dp419
g101
I01
sg102
(lp420
S'iop32x'
p421
aS'ixp4xx'
p422
aS'kirkwood'
p423
aS'mv78xx0'
p424
aS'orion5x'
p425
aS'versatile'
p426
ass(S'description'
g5
NS's390x'
tp427
(dp428
S'hardware'
p429
S'IBM zSeries'
p430
ss(S'image'
g19
NS'iop32x'
tp431
(dp432
S'check-size'
p433
S'1441784'
p434
sS'configs'
p435
(lp436
S'armel/config-reduced'
p437
aS'armel/config.iop32x'
p438
ass(S'description'
g302
NS'sb1a-bcm91480b'
tp439
(dp440
S'hardware'
p441
S'BCM91480B'
p442
sS'hardware-long'
p443
S'Broadcom BCM91480B systems (aka BigSur)'
p444
ss(S'description'
g59
tp445
(dp446
S'part-long-pae'
p447
S'This kernel requires PAE (Physical Address Extension).\nThis feature is supported by the Intel Pentium Pro/II/III/4/4M/D, Xeon,\nCore and Atom; AMD Geode NX, Athlon (K7), Duron, Opteron, Sempron,\nTurion or Phenom; Transmeta Efficeon; VIA C7; and some other processors.'
p448
ss(S'relations'
tp449
(dp450
S'gcc-4.8'
p451
S'gcc-4.8'
p452
sS'initramfs-fallback'
p453
S'linux-initramfs-tool'
p454
sS'gcc-4.7'
p455
S'gcc-4.7'
p456
sS'gcc-4.6'
p457
S'gcc-4.6'
p458
sS'gcc-4.4'
p459
S'gcc-4.4'
p460
sS'initramfs-tools'
p461
S'initramfs-tools (>= 0.110~)'
p462
ss(S'image'
g87
tp463
(dp464
S'suggests'
p465
S'fdutils'
p466
sS'configs'
p467
(lp468
S'armel/config'
p469
aS'armhf/config'
p470
ass(S'xen'
g9
g24
S'amd64'
tp471
(dp472
S'flavours'
p473
(lp474
S'amd64'
p475
ass(S'image'
g19
tp476
(dp477
S'suggests'
p478
S'fdutils'
p479
ss(S'image'
g319
tp480
(dp481
S'bootloaders'
p482
(lp483
S's390-tools'
p484
ass(S'image'
g30
tp485
(dp486
S'suggests'
p487
S'palo'
p488
ss(S'image'
g188
tp489
(dp490
S'suggests'
p491
S'mkvmlinuz'
p492
sS'configs'
p493
(lp494
S'powerpc/config'
p495
aS'powerpcspe/config.powerpcspe'
p496
ass(S'relations'
g30
tp497
(dp498
S'gcc-4.4'
p499
S'gcc-4.4, binutils-hppa64, gcc-4.4-hppa64'
p500
ss(S'image'
g171
NS'loongson-2f'
tp501
(dp502
S'recommends'
p503
S'libc6-loongson2f'
p504
ss(S'description'
g171
NS'5kc-malta'
tp505
(dp506
S'hardware'
p507
S'MIPS Malta (64-bit)'
p508
sS'hardware-long'
p509
S'MIPS Malta boards (64-bit)'
p510
ss(S'image'
g171
NS'sb1a-bcm91480b'
tp511
(dp512
S'configs'
p513
(lp514
S'mips/config.sb1a-bcm91480b'
p515
ass(S'build'
g319
NS's390x'
tp516
(dp517
S'debug-info'
p518
I01
ss(S'description'
g78
NS'sparc64'
tp519
(dp520
S'hardware'
p521
S'uniprocessor 64-bit UltraSPARC'
p522
ss(g97
g30
g98
tp523
(dp524
g101
I01
sg102
(lp525
S'parisc'
p526
aS'parisc-smp'
p527
aS'parisc64'
p528
aS'parisc64-smp'
p529
ass(S'description'
g87
NS'vexpress'
tp530
(dp531
S'hardware'
p532
S'ARM Ltd. Versatile Express'
p533
sS'hardware-long'
p534
S'ARM Ltd. Versatile Express family of processors'
p535
ss(S'image'
g242
tp536
(dp537
S'suggests'
p538
S'aboot, fdutils'
p539
ss(S'description'
g302
NS'r5k-ip32'
tp540
(dp541
S'hardware'
p542
S'SGI IP32'
p543
sS'hardware-long'
p544
S'SGI IP32 systems (O2)'
p545
ss(S'description'
g41
NS'sparc64-smp'
tp546
(dp547
S'hardware'
p548
S'multiprocessor 64-bit UltraSPARC'
p549
ss(S'image'
g59
NS'686-pae'
tp550
(dp551
S'configs'
p552
(lp553
S'kernelarch-x86/config-arch-32'
p554
aS'i386/config.686-pae'
p555
asS'recommends'
p556
S'libc6-i686'
p557
ss(S'base'
g78
tp558
(dp559
S'kernel-arch'
p560
S'sparc'
p561
sg176
(lp562
g98
ass(S'description'
g19
NS'versatile'
tp563
(dp564
S'hardware'
p565
S'Versatile'
p566
sS'hardware-long'
p567
S'Versatile systems (PB, AB, Qemu)'
p568
ss(S'build'
g87
NS'armmp'
tp569
(dp570
S'image-file'
p571
S'arch/arm/boot/zImage'
p572
ss(S'base'
g5
tp573
(dp574
S'kernel-arch'
p575
S's390'
p576
sg176
(lp577
g98
ass(S'build'
g87
NS'vexpress'
tp578
(dp579
S'image-file'
p580
S'arch/arm/boot/zImage'
p581
ss(S'description'
g171
NS'r5k-cobalt'
tp582
(dp583
S'hardware'
p584
S'Cobalt'
p585
sS'hardware-long'
p586
S'Cobalt systems (Qube, RaQ, Qube2, RaQ2)'
p587
ss(S'description'
g242
NS'alpha-generic'
tp588
(dp589
S'hardware'
p590
S'Alpha'
p591
sS'hardware-long'
p592
S'DEC Alpha systems with extended kernel start address (Wildfire, Titan, Marvel)'
p593
ss(S'image'
g92
tp594
(dp595
S'suggests'
p596
S'mkvmlinuz'
p597
sS'configs'
p598
(lp599
S'powerpc/config'
p600
ass(S'image'
g302
tp601
(dp602
S'initramfs'
p603
I00
ss(S'image'
g59
tp604
(dp605
S'configs'
p606
(lp607
sS'bootloaders'
p608
(lp609
S'grub-pc'
p610
aS'extlinux'
p611
aS'lilo'
p612
ass(g97
g41
g98
tp613
(dp614
g101
I01
sg102
(lp615
S'sparc64'
p616
aS'sparc64-smp'
p617
ass(S'description'
g19
NS'orion5x'
tp618
(dp619
S'hardware'
p620
S'Marvell Orion'
p621
sS'hardware-long'
p622
S'Marvell Orion 5181, 5182 and 5281 based systems (QNAP TS-109/TS-209, etc)'
p623
ss(S'base'
g92
tp624
(dp625
S'kernel-arch'
p626
S'powerpc'
p627
sg176
(lp628
g98
ass(g97
g242
g98
tp629
(dp630
g101
I01
sg102
(lp631
S'alpha-generic'
p632
aS'alpha-smp'
p633
aS'alpha-legacy'
p634
ass(S'description'
g59
g60
S'686-pae'
tp635
(dp636
S'parts'
p637
(lp638
S'xen'
p639
ass(g97
g46
g98
tp640
(dp641
g101
I01
sg102
(lp642
S'itanium'
p643
aS'mckinley'
p644
ass(g97
g302
g98
tp645
(dp646
g101
I01
sg102
(lp647
S'r4k-ip22'
p648
aS'r5k-ip32'
p649
aS'sb1-bcm91250a'
p650
aS'sb1a-bcm91480b'
p651
aS'4kc-malta'
p652
aS'5kc-malta'
p653
aS'octeon'
p654
ass(S'image'
g19
NS'kirkwood'
tp655
(dp656
S'check-size'
p657
S'2097080'
p658
sS'recommends'
p659
S'uboot-mkimage'
p660
ss(S'description'
g302
NS'sb1-bcm91250a'
tp661
(dp662
S'hardware'
p663
S'BCM91250A'
p664
sS'hardware-long'
p665
S'Broadcom BCM91250A systems (aka SWARM)'
p666
ss(S'image'
g134
NS'powerpc-smp'
tp667
(dp668
S'configs'
p669
(lp670
S'powerpc/config.powerpc'
p671
aS'powerpc/config.powerpc-smp'
p672
ass(S'base'
S'x32'
tp673
(dp674
S'kernel-arch'
p675
S'x86'
p676
sS'featuresets'
p677
(lp678
ss(S'base'
NS'rt'
tp679
(dp680
S'enabled'
p681
I01
ss(S'image'
g203
tp682
(dp683
S'suggests'
p684
S'vmelilo, fdutils'
p685
ss(S'description'
g19
NS'ixp4xx'
tp686
(dp687
S'hardware'
p688
S'IXP4xx'
p689
sS'hardware-long'
p690
S'IXP4xx based systems (Linksys NSLU2, etc)'
p691
ss(S'description'
g30
NS'parisc64-smp'
tp692
(dp693
S'hardware'
p694
S'multiprocessor 64-bit PA-RISC'
p695
ss(S'description'
g119
NS'sh7751r'
tp696
(dp697
S'hardware'
p698
S'sh7751r'
p699
sS'hardware-long'
p700
S'Renesas SH7751R R2D plus board'
p701
ss(S'description'
g171
NS'4kc-malta'
tp702
(dp703
S'hardware'
p704
S'MIPS Malta'
p705
sS'hardware-long'
p706
S'MIPS Malta boards'
p707
ss(S'image'
g171
NS'sb1-bcm91250a'
tp708
(dp709
S'configs'
p710
(lp711
S'mips/config.sb1-bcm91250a'
p712
ass(S'description'
g302
NS'octeon'
tp713
(dp714
S'hardware'
p715
S'Octeon'
p716
sS'hardware-long'
p717
S'Cavium Networks Octeon'
p718
ss(S'image'
g119
tp719
(dp720
S'suggests'
p721
S'fdutils'
p722
ss(S'base'
g30
tp723
(dp724
S'kernel-arch'
p725
S'parisc'
p726
sg176
(lp727
g98
asS'compiler'
p728
S'gcc-4.4'
p729
ss(S'base'
g119
tp730
(dp731
S'kernel-arch'
p732
S'sh'
p733
sg176
(lp734
g98
ass(S'image'
g41
tp735
(dp736
S'suggests'
p737
S'silo, fdutils'
p738
ss(S'description'
tp739
(dp740
S'part-long-up'
p741
S'This kernel is not suitable for SMP (multi-processor,\nmulti-core or hyper-threaded) systems.'
p742
sS'part-long-xen'
p743
S'This kernel also runs on a Xen hypervisor.\nIt supports both privileged (dom0) and unprivileged (domU) operation.'
p744
ss(S'description'
g171
NS'loongson-2f'
tp745
(dp746
S'hardware'
p747
S'Loongson 2F'
p748
sS'hardware-long'
p749
S'Lemote Loongson 2F systems'
p750
ss(S'description'
g41
NS'sparc64'
tp751
(dp752
S'hardware'
p753
S'uniprocessor 64-bit UltraSPARC'
p754
ss(S'description'
g134
NS'powerpc'
tp755
(dp756
S'hardware'
p757
S'uniprocessor 32-bit PowerPC'
p758
ss(S'build'
g87
NS'mx5'
tp759
(dp760
S'image-file'
p761
S'arch/arm/boot/zImage'
p762
ss(S'image'
g78
tp763
(dp764
S'suggests'
p765
S'silo, fdutils'
p766
sS'configs'
p767
(lp768
S'sparc/config'
p769
ass(S'description'
g59
NS'686-pae'
tp770
(dp771
S'hardware'
p772
S'modern PCs'
p773
sS'parts'
p774
(lp775
S'pae'
p776
asS'hardware-long'
p777
S'PCs with one or more processors supporting PAE'
p778
ss(S'base'
g134
tp779
(dp780
S'kernel-arch'
p781
S'powerpc'
p782
sg176
(lp783
g98
ass(S'abi'
tp784
(dp785
S'abiname'
p786
S'3'
ss(S'description'
g30
NS'parisc'
tp787
(dp788
S'hardware'
p789
S'32-bit PA-RISC'
p790
ss(S'description'
g242
NS'alpha-legacy'
tp791
(dp792
S'hardware'
p793
S'Alpha Legacy'
p794
sS'hardware-long'
p795
S'DEC Alpha systems with legacy kernel start address'
p796
ss(S'build'
g19
NS'kirkwood'
tp797
(dp798
S'image-file'
p799
S'arch/arm/boot/zImage'
p800
ss(S'description'
g302
NS'r4k-ip22'
tp801
(dp802
S'hardware'
p803
S'SGI IP22'
p804
sS'hardware-long'
p805
S'SGI IP22 systems (Indy, Indigo2)'
p806
ss(g97
g188
g98
tp807
(dp808
g101
I01
sg102
(lp809
S'powerpcspe'
p810
ass(g97
g203
g98
tp811
(dp812
g101
I01
sg102
(lp813
S'm68k'
p814
ass(S'base'
g59
g60
tp815
(dp816
S'flavours'
p817
(lp818
S'486'
p819
aS'686-pae'
p820
aS'amd64'
p821
ass(S'base'
tp822
(dp823
S'arches'
p824
(lp825
S'alpha'
p826
aS'amd64'
p827
aS'armel'
p828
aS'armhf'
p829
aS'hppa'
p830
aS'i386'
p831
aS'ia64'
p832
aS'm68k'
p833
aS'mips'
p834
aS'mipsel'
p835
aS'powerpc'
p836
aS'powerpcspe'
p837
aS'ppc64'
p838
aS's390'
p839
aS's390x'
p840
aS'sh4'
p841
aS'sparc'
p842
aS'sparc64'
p843
aS'x32'
p844
asS'featuresets'
p845
(lp846
S'none'
p847
aS'rt'
p848
asS'compiler'
p849
S'gcc-4.7'
p850
ss(S'description'
g59
NS'486'
tp851
(dp852
S'hardware'
p853
S'older PCs'
p854
sS'parts'
p855
(lp856
S'up'
p857
asS'hardware-long'
p858
S'PCs with a single processor not supporting PAE'
p859
ss(S'description'
g87
NS'mx5'
tp860
(dp861
S'hardware'
p862
S'Freescale i.MX51/53'
p863
sS'hardware-long'
p864
S'Freescale i.MX51 or i.MX53 based systems'
p865
ss(S'base'
g203
tp866
(dp867
S'kernel-arch'
p868
S'm68k'
p869
sg176
(lp870
g98
asS'cflags'
p871
S'-ffreestanding'
p872
sS'compiler'
p873
S'gcc-4.8'
p874
ss(S'image'
tp875
(dp876
S'initramfs-generators'
p877
(lp878
S'initramfs-tools'
p879
aS'initramfs-fallback'
p880
asS'type'
p881
S'plain'
p882
ss(S'image'
g119
NS'sh7785lcr'
tp883
(dp884
S'check-size'
p885
S'4194304'
p886
sS'recommends'
p887
S'uboot-mkimage'
p888
ss(g97
g78
g98
tp889
(dp890
g101
I01
sg102
(lp891
S'sparc64'
p892
aS'sparc64-smp'
p893
ass(S'description'
g171
NS'sb1a-bcm91480b'
tp894
(dp895
S'hardware'
p896
S'BCM91480B'
p897
sS'hardware-long'
p898
S'Broadcom BCM91480B systems (aka BigSur)'
p899
ss(S'build'
g19
NS'mv78xx0'
tp900
(dp901
S'image-file'
p902
S'arch/arm/boot/zImage'
p903
ss(S'abi'
Ng309
tp904
(dp905
S'ignore-changes'
p906
(lp907
S'*'
ass(S'image'
g171
NS'4kc-malta'
tp908
(dp909
S'configs'
p910
(lp911
S'mips/config.4kc-malta'
p912
ass(S'image'
g5
tp913
(dp914
S'configs'
p915
(lp916
S's390/config'
p917
asS'bootloaders'
p918
(lp919
S's390-tools'
p920
ass(S'description'
g87
NS'armmp'
tp921
(dp922
S'hardware'
p923
S'ARMv7 multiplatform compatible SoCs'
p924
sS'hardware-long'
p925
S'ARMv7 multiplatform kernel for Marvell Armada 370/xp, Freescale iMX5x/iMX6'
p926
ss(S'description'
g19
NS'kirkwood'
tp927
(dp928
S'hardware'
p929
S'Marvell Kirkwood'
p930
sS'hardware-long'
p931
S'Marvell Kirkwood based systems (SheevaPlug, QNAP TS-119/TS-219, etc)'
p932
ss(S'image'
g171
NS'5kc-malta'
tp933
(dp934
S'configs'
p935
(lp936
S'mips/config.5kc-malta'
p937
ass(S'build'
g59
NS'686-pae'
tp938
(dp939
S'debug-info'
p940
I01
ss(S'image'
g92
NS'powerpc64'
tp941
(dp942
S'configs'
p943
(lp944
S'powerpc/config.powerpc64'
p945
ass(S'description'
g319
NS's390x'
tp946
(dp947
S'hardware'
p948
S'IBM zSeries'
p949
sstRp950
.