ccopy_reg
_reconstructor
p0
(cdebian_linux.config
ConfigCore
p1
c__builtin__
dict
p2
(dp3
(Vbase
p4
Vm68k
p5
Vnone
p6
tp7
(dp8
Vimplicit-flavour
p9
I01
sVflavours
p10
(lp11
Vm68k
p12
ass(Vdescription
p13
Vsparc64
p14
NVsparc64-smp
p15
tp16
(dp17
Vhardware
p18
Vmultiprocessor 64-bit UltraSPARC
p19
ss(Vbase
p20
Valpha
p21
tp22
(dp23
Vkernel-arch
p24
Valpha
p25
sVfeaturesets
p26
(lp27
g6
ass(Vimage
p28
Varmel
p29
tp30
(dp31
Vinstall-stem
p32
Vvmlinuz
p33
ss(Vdescription
p34
Vamd64
p35
Vnone
p36
Vamd64
p37
tp38
(dp39
Vparts
p40
(lp41
Vxen
p42
ass(Vimage
p43
Vmipsel
p44
NVloongson-2f
p45
tp46
(dp47
Vconfigs
p48
(lp49
Vkernelarch-mips/config.loongson-2f
p50
asVrecommends
p51
Vlibc6-loongson2f
p52
ss(Vbuild
p53
Vhppa
p54
tp55
(dp56
Vsigned-modules
p57
I00
sVimage-file
p58
Vvmlinux
p59
ss(Vbase
p60
Vmipsn32
p61
tp62
(dp63
Vkernel-arch
p64
Vmips
p65
sVfeaturesets
p66
(lp67
ss(Vbase
p68
Vppc64
p69
tp70
(dp71
Vkernel-arch
p72
Vpowerpc
p73
sg26
(lp74
g6
ass(g4
Vmips
p75
g6
tp76
(dp77
g9
I01
sg10
(lp78
V4kc-malta
p79
aV5kc-malta
p80
aVocteon
p81
ass(Vbase
p82
Vi386
p83
Vrt
p84
tp85
(dp86
Vflavours
p87
(lp88
V686-pae
p89
ass(g4
g29
g6
tp90
(dp91
g9
I01
sg10
(lp92
Vmarvell
p93
aVversatile
p94
ass(Vdescription
p95
g35
NVamd64
p96
tp97
(dp98
Vhardware
p99
V64-bit PCs
p100
sVhardware-long
p101
VPCs with AMD64, Intel 64 or VIA Nano processors
p102
ss(Vbuild
p103
g5
tp104
(dp105
Vsigned-modules
p106
I00
sVimage-file
p107
Vvmlinux.gz
p108
ss(Vdescription
p109
g75
NV4kc-malta
p110
tp111
(dp112
Vhardware
p113
VMIPS Malta
p114
sVhardware-long
p115
VMIPS Malta boards
p116
ss(Vbuild
p117
g35
tp118
(dp119
Vdebug-info
p120
I01
sVvdso
p121
I01
sVimage-file
p122
Varch/x86/boot/bzImage
p123
ss(Vdescription
p124
g83
NV686-pae
p125
tp126
(dp127
Vhardware
p128
Vmodern PCs
p129
sVhardware-long
p130
VPCs with one or more processors supporting PAE
p131
sVparts
p132
(lp133
Vpae
p134
ass(Vbuild
p135
Vs390x
p136
tp137
(dp138
Vvdso
p139
I01
sVimage-file
p140
Varch/s390/boot/image
p141
ss(Vimage
p142
Varmhf
p143
tp144
(dp145
Vinstall-stem
p146
Vvmlinuz
p147
ss(Vimage
p148
tp149
(dp150
Vinitramfs-generators
p151
(lp152
Vinitramfs-tools
p153
aVinitramfs-fallback
p154
ass(Vimage
p155
g69
tp156
(dp157
Vconfigs
p158
(lp159
sVsuggests
p160
Vmkvmlinuz
p161
sVinstall-stem
p162
Vvmlinux
p163
ss(Vdescription
p164
Vmips64el
p165
NV5kc-malta
p166
tp167
(dp168
Vhardware
p169
VMIPS Malta
p170
sVhardware-long
p171
VMIPS Malta boards
p172
ss(Vimage
p173
g75
NVocteon
p174
tp175
(dp176
Vconfigs
p177
(lp178
Vkernelarch-mips/config.octeon
p179
ass(Vimage
p180
g69
NVpowerpc64
p181
tp182
(dp183
Vconfigs
p184
(lp185
Vkernelarch-powerpc/config-arch-64
p186
aVkernelarch-powerpc/config-arch-64-be
p187
ass(Vbase
p188
Varm64
p189
tp190
(dp191
Vkernel-arch
p192
Varm64
p193
sVfeaturesets
p194
(lp195
Vnone
p196
ass(Vdescription
p197
g14
NVsparc64
p198
tp199
(dp200
Vhardware
p201
Vuniprocessor 64-bit UltraSPARC
p202
ss(Vimage
p203
Vmips64
p204
NV5kc-malta
p205
tp206
(dp207
Vconfigs
p208
(lp209
Vkernelarch-mips/config.malta
p210
aVkernelarch-mips/config.mips64r2
p211
ass(Vdescription
p212
Vsh4
p213
NVsh7785lcr
p214
tp215
(dp216
Vhardware
p217
Vsh7785lcr
p218
sVhardware-long
p219
VRenesas SH7785 reference board
p220
ss(Vbase
p221
g143
tp222
(dp223
Vkernel-arch
p224
Varm
p225
sg26
(lp226
g6
ass(Vdescription
p227
tp228
(dp229
Vpart-long-up
p230
VThis kernel is not suitable for SMP (multi-processor,\u000amulti-core or hyper-threaded) systems.
p231
sVpart-long-xen
p232
VThis kernel also runs on a Xen hypervisor.\u000aIt supports both privileged (dom0) and unprivileged (domU) operation.
p233
ss(Vbase
p234
g75
tp235
(dp236
Vkernel-arch
p237
Vmips
p238
sg26
(lp239
g6
ass(Vimage
p240
g189
tp241
(dp242
Vinstall-stem
p243
Vvmlinuz
p244
ss(Vbuild
p245
g213
tp246
(dp247
Vsigned-modules
p248
I00
sVimage-file
p249
Varch/sh/boot/zImage
p250
ss(Vimage
p251
g75
NV5kc-malta
p252
tp253
(dp254
Vconfigs
p255
(lp256
Vkernelarch-mips/config.malta
p257
aVkernelarch-mips/config.mips64r2
p258
ass(Vrelations
p259
g83
tp260
(dp261
Vheaders%gcc-5
p262
Vlinux-compiler-gcc-5-x86
p263
ss(Vimage
p264
g14
NVsparc64-smp
p265
tp266
(dp267
Vconfigs
p268
(lp269
Vkernelarch-sparc/config-smp
p270
ass(Vxen
p271
g35
g36
Vamd64
p272
tp273
(dp274
Vflavours
p275
(lp276
Vamd64
p277
ass(g4
g204
g6
tp278
(dp279
g9
I01
sg10
(lp280
V5kc-malta
p281
aVocteon
p282
ass(Vimage
p283
g75
tp284
(dp285
Vinstall-stem
p286
Vvmlinux
p287
ss(Vdescription
p288
g44
NV4kc-malta
p289
tp290
(dp291
Vhardware
p292
VMIPS Malta
p293
sVhardware-long
p294
VMIPS Malta boards
p295
ss(Vbuild
p296
Vpowerpcspe
p297
tp298
(dp299
Vsigned-modules
p300
I00
sVvdso
p301
I01
sVimage-file
p302
Vvmlinux
p303
ss(Vimage
p304
g204
tp305
(dp306
Vinstall-stem
p307
Vvmlinux
p308
ss(Vbuild
p309
g83
NV686-pae
p310
tp311
(dp312
Vdebug-info
p313
I01
ss(Vimage
p314
g29
NVmarvell
p315
tp316
(dp317
Vcheck-size
p318
L2097080L
sVbreaks
p319
Vflash-kernel (<< 3.57~)
p320
sVrecommends
p321
Vu-boot-tools
p322
sVcheck-size-with-dtb
p323
I01
ss(Vabi
p324
g165
tp325
(dp326
Vignore-changes
p327
(lp328
V__flush_icache_page
p329
ass(Vbase
p330
g204
tp331
(dp332
Vkernel-arch
p333
Vmips
p334
sg26
(lp335
g6
ass(g4
g44
g6
tp336
(dp337
g9
I01
sg10
(lp338
V4kc-malta
p339
aV5kc-malta
p340
aVloongson-2e
p341
aVloongson-2f
p342
aVloongson-3
p343
aVocteon
p344
ass(Vbuild
p345
g14
tp346
(dp347
Vsigned-modules
p348
I00
sVimage-file
p349
Varch/sparc/boot/zImage
p350
ss(Vabi
p351
g44
tp352
(dp353
Vignore-changes
p354
(lp355
V__flush_icache_page
p356
ass(Vrelations
p357
tp358
(dp359
Vinitramfs-tools
p360
Vinitramfs-tools (>= 0.110~)
p361
sVinitramfs-fallback
p362
Vlinux-initramfs-tool
p363
sVgcc-5
p364
Vgcc-5 <!stage1>
p365
ss(Vimage
p366
g14
tp367
(dp368
Vconfigs
p369
(lp370
sVsuggests
p371
Vsilo, fdutils
p372
sVinstall-stem
p373
Vvmlinuz
p374
ss(Vrelations
p375
g143
tp376
(dp377
Vheaders%gcc-5
p378
Vlinux-compiler-gcc-5-arm
p379
ss(Vdescription
p380
g44
NVloongson-3
p381
tp382
(dp383
Vhardware
p384
VLoongson 3A/3B
p385
sVhardware-long
p386
VLoongson 3A or 3B based systems (e.g. from Loongson or Lemote)
p387
ss(Vdescription
p388
g204
NV5kc-malta
p389
tp390
(dp391
Vhardware
p392
VMIPS Malta
p393
sVhardware-long
p394
VMIPS Malta boards
p395
ss(Vbase
p396
Vs390
p397
tp398
(dp399
Vkernel-arch
p400
Vs390
p401
sVfeaturesets
p402
(lp403
ss(g4
g54
g6
tp404
(dp405
g9
I01
sg10
(lp406
Vparisc
p407
aVparisc64-smp
p408
ass(Vbuild
p409
g83
tp410
(dp411
Vvdso
p412
I01
sVimage-file
p413
Varch/x86/boot/bzImage
p414
ss(Vbase
p415
g14
tp416
(dp417
Vkernel-arch
p418
Vsparc
p419
sg26
(lp420
g6
ass(Vdescription
p421
Vppc64el
p422
NVpowerpc64le
p423
tp424
(dp425
Vhardware
p426
VLittle-endian 64-bit PowerPC
p427
ss(Vbuild
p428
tp429
(dp430
Vsigned-modules
p431
I01
ss(Vbase
p432
g189
Vnone
p433
tp434
(dp435
Vflavours
p436
(lp437
Varm64
p438
ass(Vimage
p439
g14
NVsparc64
p440
tp441
(dp442
Vconfigs
p443
(lp444
Vkernelarch-sparc/config-up
p445
ass(Vimage
p446
g44
NVloongson-3
p447
tp448
(dp449
Vconfigs
p450
(lp451
Vkernelarch-mips/config.loongson-3
p452
ass(Vbuild
p453
g204
tp454
(dp455
Vsigned-modules
p456
I00
sVimage-file
p457
Vvmlinux
p458
ss(Vbase
p459
Vtilegx
p460
tp461
(dp462
Vkernel-arch
p463
Vtile
p464
sVfeaturesets
p465
(lp466
ss(Vrelations
p467
g29
tp468
(dp469
Vheaders%gcc-5
p470
Vlinux-compiler-gcc-5-arm
p471
ss(Vdescription
p472
Vpowerpc
p473
NVpowerpc64
p474
tp475
(dp476
Vhardware
p477
V64-bit PowerPC
p478
ss(Vdescription
p479
g297
tp480
(dp481
Vhardware
p482
V32-bit PowerPC with SPE (instead of AltiVec) with SMP support
p483
ss(Vdescription
p484
g54
NVparisc64-smp
p485
tp486
(dp487
Vhardware
p488
Vmultiprocessor 64-bit PA-RISC
p489
sVhardware-long
p490
VHP PA-RISC 64-bit SMP systems with support for more than 4 GB RAM
p491
ss(Vimage
p492
g165
NV5kc-malta
p493
tp494
(dp495
Vconfigs
p496
(lp497
Vkernelarch-mips/config.malta
p498
aVkernelarch-mips/config.mips64r2
p499
ass(Vimage
p500
g213
tp501
(dp502
Vinstall-stem
p503
Vvmlinuz
p504
ss(g4
g213
g6
tp505
(dp506
g9
I01
sg10
(lp507
Vsh7751r
p508
aVsh7785lcr
p509
ass(Vdescription
p510
g29
NVmarvell
p511
tp512
(dp513
Vhardware
p514
VMarvell Kirkwood/Orion
p515
sVhardware-long
p516
VMarvell Kirkwood based systems (SheevaPlug, QNAP TS-119/TS-219, etc)\u000aand Orion 5181, 5182 and 5281 based systems (QNAP TS-109/TS-209, etc)
p517
ss(Vdescription
p518
g213
NVsh7751r
p519
tp520
(dp521
Vhardware
p522
Vsh7751r
p523
sVhardware-long
p524
VRenesas SH7751R R2D plus board
p525
ss(g4
g165
g6
tp526
(dp527
g9
I01
sg10
(lp528
V5kc-malta
p529
aVloongson-3
p530
aVocteon
p531
ass(Vbase
p532
g213
tp533
(dp534
Vkernel-arch
p535
Vsh
p536
sg26
(lp537
g6
ass(Vbuild
p538
g75
tp539
(dp540
Vsigned-modules
p541
I00
sVimage-file
p542
Vvmlinux
p543
ss(Vdescription
p544
g204
NVocteon
p545
tp546
(dp547
Vhardware
p548
VOcteon
p549
sVhardware-long
p550
VCavium Networks Octeon
p551
ss(Vdescription
p552
NVrt
p553
tp554
(dp555
Vpart-short-rt
p556
VPREEMPT_RT
p557
sVpart-long-rt
p558
VThis kernel includes the PREEMPT_RT realtime patch set.
p559
sVparts
p560
(lp561
Vrt
p562
ass(Vbase
p563
Vor1k
p564
tp565
(dp566
Vkernel-arch
p567
Vopenrisc
p568
sVfeaturesets
p569
(lp570
ss(Vbuild
p571
g143
tp572
(dp573
Vvdso
p574
I01
sVimage-file
p575
Varch/arm/boot/zImage
p576
ss(Vbase
p577
g35
tp578
(dp579
Vkernel-arch
p580
Vx86
p581
sVfeaturesets
p582
(lp583
Vnone
p584
aVrt
p585
ass(Vdescription
p586
g143
NVarmmp
p587
tp588
(dp589
Vhardware
p590
VARMv7 multiplatform compatible SoCs
p591
sVhardware-long
p592
VARMv7 multiplatform kernel. See\u000ahttps://wiki.debian.org/DebianKernel/ARMMP for details of supported\u000aplatforms
p593
ss(Vbuild
p594
g189
tp595
(dp596
Vdebug-info
p597
I01
sVvdso
p598
I01
sVimage-file
p599
Varch/arm64/boot/Image
p600
ss(Vbase
p601
g83
tp602
(dp603
Vkernel-arch
p604
Vx86
p605
sVfeaturesets
p606
(lp607
Vnone
p608
aVrt
p609
ass(g4
g422
g6
tp610
(dp611
g9
I01
sg10
(lp612
Vpowerpc64le
p613
ass(g4
g297
g6
tp614
(dp615
g9
I01
sg10
(lp616
Vpowerpcspe
p617
ass(Vdescription
p618
g5
NVm68k
p619
tp620
(dp621
Vhardware
p622
VMotorola MC68020+ family
p623
ss(Vdescription
p624
g54
NVparisc
p625
tp626
(dp627
Vhardware
p628
V32-bit PA-RISC
p629
sVhardware-long
p630
VHP PA-RISC 32-bit systems with max 4 GB RAM
p631
ss(Vbase
p632
g136
tp633
(dp634
Vkernel-arch
p635
Vs390
p636
sg26
(lp637
g6
ass(g4
g69
g6
tp638
(dp639
g9
I01
sg10
(lp640
Vpowerpc64
p641
ass(Vimage
p642
g75
NV4kc-malta
p643
tp644
(dp645
Vconfigs
p646
(lp647
Vkernelarch-mips/config.malta
p648
aVkernelarch-mips/config.mips32r2
p649
ass(Vbase
p650
tp651
(dp652
Varches
p653
(lp654
Valpha
p655
aVamd64
p656
aVarm64
p657
aVarmel
p658
aVarmhf
p659
aVhppa
p660
aVi386
p661
aVm68k
p662
aVmips
p663
aVmipsel
p664
aVmipsn32
p665
aVmipsn32el
p666
aVmips64
p667
aVmips64el
p668
aVor1k
p669
aVpowerpc
p670
aVpowerpcspe
p671
aVppc64
p672
aVppc64el
p673
aVs390
p674
aVs390x
p675
aVsh4
p676
aVsparc
p677
aVsparc64
p678
aVtilegx
p679
aVx32
p680
asVfeaturesets
p681
(lp682
Vnone
p683
aVrt
p684
asVcompiler
p685
Vgcc-5
p686
ss(Vdescription
p687
g165
NVloongson-3
p688
tp689
(dp690
Vhardware
p691
VLoongson 3A/3B
p692
sVhardware-long
p693
VLoongson 3A or 3B based systems (e.g. from Loongson or Lemote)
p694
ss(Vdescription
p695
g29
NVversatile
p696
tp697
(dp698
Vhardware
p699
VVersatile
p700
sVhardware-long
p701
VVersatile systems (PB, AB, Qemu)
p702
ss(Vbuild
p703
g69
tp704
(dp705
Vsigned-modules
p706
I00
sVvdso
p707
I01
sVimage-file
p708
Vvmlinux
p709
ss(Vdescription
p710
g44
NV5kc-malta
p711
tp712
(dp713
Vhardware
p714
VMIPS Malta (64-bit)
p715
sVhardware-long
p716
VMIPS Malta boards (64-bit)
p717
ss(Vimage
p718
g473
NVpowerpc64
p719
tp720
(dp721
Vconfigs
p722
(lp723
Vkernelarch-powerpc/config-arch-64
p724
aVkernelarch-powerpc/config-arch-64-be
p725
ass(Vdescription
p726
g83
NV686
p727
tp728
(dp729
Vhardware
p730
Volder PCs
p731
sVhardware-long
p732
VPCs with one or more processors not supporting PAE
p733
ss(Vbase
p734
g54
tp735
(dp736
Vkernel-arch
p737
Vparisc
p738
sg26
(lp739
g6
ass(Vabi
p740
g75
tp741
(dp742
Vignore-changes
p743
(lp744
V__flush_icache_page
p745
ass(Vimage
p746
g5
tp747
(dp748
Vsuggests
p749
Vvmelilo, fdutils
p750
sVinstall-stem
p751
Vvmlinuz
p752
ss(Vimage
p753
g44
NV5kc-malta
p754
tp755
(dp756
Vconfigs
p757
(lp758
Vkernelarch-mips/config.malta
p759
aVkernelarch-mips/config.mips64r1
p760
ass(Vbase
p761
g35
Vrt
p762
tp763
(dp764
Vflavours
p765
(lp766
Vamd64
p767
ass(Vabi
p768
Ng553
tp769
(dp770
Vignore-changes
p771
(lp772
V*
p773
ass(Vimage
p774
g54
tp775
(dp776
Vsuggests
p777
Vpalo
p778
sVinstall-stem
p779
Vvmlinux
p780
ss(Vbase
p781
g35
g36
tp782
(dp783
Vflavours
p784
(lp785
Vamd64
p786
ass(Vdescription
p787
g143
NVarmmp-lpae
p788
tp789
(dp790
Vhardware
p791
VARMv7 multiplatform compatible SoCs supporting LPAE
p792
sVhardware-long
p793
VARMv7 multiplatform kernel supporting LPAE. See\u000ahttps://wiki.debian.org/DebianKernel/ARMMP for details of supported\u000aplatforms.
p794
ss(Vbuild
p795
g44
tp796
(dp797
Vsigned-modules
p798
I00
sVimage-file
p799
Vvmlinux
p800
ss(Vimage
p801
g213
NVsh7785lcr
p802
tp803
(dp804
Vcheck-size
p805
L4194304L
sVrecommends
p806
Vu-boot-tools
p807
ss(Vimage
p808
g473
tp809
(dp810
Vconfigs
p811
(lp812
sVsuggests
p813
Vmkvmlinuz
p814
sVinstall-stem
p815
Vvmlinux
p816
ss(Vbuild
p817
g29
tp818
(dp819
Vimage-file
p820
Varch/arm/boot/zImage
p821
ss(Vimage
p822
g473
NVpowerpc-smp
p823
tp824
(dp825
Vconfigs
p826
(lp827
Vpowerpc/config.powerpc
p828
aVpowerpc/config.powerpc-smp
p829
ass(Vimage
p830
g44
tp831
(dp832
Vinstall-stem
p833
Vvmlinux
p834
ss(Vbase
p835
g83
Vnone
p836
tp837
(dp838
Vflavours
p839
(lp840
V686
p841
aV686-pae
p842
ass(Vimage
p843
g189
NVarm64
p844
tp845
(dp846
s(Vdescription
p847
g21
NValpha-smp
p848
tp849
(dp850
Vhardware
p851
VAlpha SMP
p852
sVhardware-long
p853
VDEC Alpha SMP systems with extended kernel start address (Wildfire, Titan, Marvel)
p854
ss(Vbase
p855
Vmipsn32el
p856
tp857
(dp858
Vkernel-arch
p859
Vmips
p860
sVfeaturesets
p861
(lp862
ss(Vimage
p863
g83
tp864
(dp865
Vbootloaders
p866
(lp867
Vgrub-pc
p868
aVextlinux
p869
asVbreaks
p870
Vxserver-xorg-input-vmmouse (<< 1:13.0.99)
p871
sVinstall-stem
p872
Vvmlinuz
p873
ss(Vimage
p874
g136
tp875
(dp876
Vbootloaders
p877
(lp878
Vs390-tools
p879
asVinstall-stem
p880
Vvmlinuz
p881
ss(Vbase
p882
g473
tp883
(dp884
Vkernel-arch
p885
Vpowerpc
p886
sg26
(lp887
g6
ass(Vbuild
p888
g422
tp889
(dp890
Vvdso
p891
I01
sVimage-file
p892
Vvmlinux
p893
ss(Vbase
p894
Vx32
p895
tp896
(dp897
Vkernel-arch
p898
Vx86
p899
sVfeaturesets
p900
(lp901
ss(Vdescription
p902
g44
NVocteon
p903
tp904
(dp905
Vhardware
p906
VOcteon
p907
sVhardware-long
p908
VCavium Networks Octeon
p909
ss(Vdescription
p910
g75
NV5kc-malta
p911
tp912
(dp913
Vhardware
p914
VMIPS Malta (64-bit)
p915
sVhardware-long
p916
VMIPS Malta boards (64-bit)
p917
ss(Vdescription
p918
g136
NVs390x
p919
tp920
(dp921
Vhardware
p922
VIBM zSeries
p923
ss(g4
g21
g6
tp924
(dp925
g9
I01
sg10
(lp926
Valpha-generic
p927
aValpha-smp
p928
ass(Vbase
p929
g165
tp930
(dp931
Vkernel-arch
p932
Vmips
p933
sg26
(lp934
g6
ass(g4
g136
g6
tp935
(dp936
g9
I01
sg10
(lp937
Vs390x
p938
ass(Vrelations
p939
g35
tp940
(dp941
Vheaders%gcc-5
p942
Vlinux-compiler-gcc-5-x86
p943
ss(Vimage
p944
g21
tp945
(dp946
Vsuggests
p947
Vaboot, fdutils
p948
sVinstall-stem
p949
Vvmlinuz
p950
ss(Vdescription
p951
g83
tp952
(dp953
Vpart-long-pae
p954
VThis kernel requires PAE (Physical Address Extension).\u000aThis feature is supported by the Intel Pentium Pro/II/III/4/4M/D, Xeon,\u000aCore and Atom; AMD Geode NX, Athlon (K7), Duron, Opteron, Sempron,\u000aTurion or Phenom; Transmeta Efficeon; VIA C7; and some other processors.
p955
ss(Vrelations
p956
g136
tp957
(dp958
Vheaders%gcc-5
p959
Vlinux-compiler-gcc-5-s390
p960
ss(Vdescription
p961
g189
NVarm64
p962
tp963
(dp964
Vhardware
p965
V64-bit ARMv8 machines
p966
ss(Vbase
p967
g54
NVparisc64-smp
p968
tp969
(dp970
Vcflags
p971
V-fno-cse-follow-jumps
p972
sVoverride-host-type
p973
Vhppa64-linux-gnu
p974
ss(Vimage
p975
g165
tp976
(dp977
Vinstall-stem
p978
Vvmlinux
p979
ss(Vbase
p980
g297
tp981
(dp982
Vkernel-arch
p983
Vpowerpc
p984
sg26
(lp985
g6
ass(Vrelations
p986
g54
tp987
(dp988
Vgcc-5
p989
Vgcc-5 <!stage1>, binutils-hppa64-linux-gnu <!stage1>, gcc-5-hppa64-linux-gnu <!stage1>
p990
ss(g4
g143
g6
tp991
(dp992
g9
I01
sg10
(lp993
Varmmp
p994
aVarmmp-lpae
p995
ass(Vdescription
p996
g69
NVpowerpc64
p997
tp998
(dp999
Vhardware
p1000
V64-bit PowerPC
p1001
ss(Vimage
p1002
g204
NVocteon
p1003
tp1004
(dp1005
Vconfigs
p1006
(lp1007
Vkernelarch-mips/config.octeon
p1008
ass(Vimage
p1009
g422
NVpowerpc64le
p1010
tp1011
(dp1012
Vconfigs
p1013
(lp1014
Vkernelarch-powerpc/config-arch-64
p1015
aVkernelarch-powerpc/config-arch-64-le
p1016
ass(Vabi
p1017
tp1018
(dp1019
Vignore-changes
p1020
(lp1021
Vmodule:drivers/net/wireless/realtek/rtlwifi/*
p1022
aVxt_compat_match_from_user
p1023
asVabiname
p1024
V1
p1025
ss(Vbuild
p1026
g21
tp1027
(dp1028
Vsigned-modules
p1029
I00
sVimage-file
p1030
Varch/alpha/boot/vmlinux.gz
p1031
ss(Vimage
p1032
g297
tp1033
(dp1034
Vsuggests
p1035
Vmkvmlinuz
p1036
sVinstall-stem
p1037
Vvmlinux
p1038
ss(Vimage
p1039
g165
NVocteon
p1040
tp1041
(dp1042
Vconfigs
p1043
(lp1044
Vkernelarch-mips/config.octeon
p1045
ass(Vdescription
p1046
g44
NVloongson-2e
p1047
tp1048
(dp1049
Vhardware
p1050
VLoongson 2E
p1051
sVhardware-long
p1052
VLemote Loongson 2E systems
p1053
ss(Vdescription
p1054
g473
NVpowerpc
p1055
tp1056
(dp1057
Vhardware
p1058
Vuniprocessor 32-bit PowerPC
p1059
ss(Vdescription
p1060
g165
NVocteon
p1061
tp1062
(dp1063
Vhardware
p1064
VOcteon
p1065
sVhardware-long
p1066
VCavium Networks Octeon
p1067
ss(Vversion
p1068
tp1069
(dp1070
Vupstream
p1071
V4.6
p1072
sVabiname
p1073
V4.6.0-1
p1074
sVabiname_base
p1075
V4.6.0
p1076
sVsource
p1077
V4.6.2-2
p1078
ss(Vdescription
p1079
g44
NVloongson-2f
p1080
tp1081
(dp1082
Vhardware
p1083
VLoongson 2F
p1084
sVhardware-long
p1085
VLemote Loongson 2F systems
p1086
ss(Vimage
p1087
g35
tp1088
(dp1089
Vbootloaders
p1090
(lp1091
Vgrub-pc
p1092
aVgrub-efi
p1093
aVextlinux
p1094
asVbreaks
p1095
Vxserver-xorg-input-vmmouse (<< 1:13.0.99)
p1096
sVinstall-stem
p1097
Vvmlinuz
p1098
ss(Vbase
p1099
Vsparc
p1100
tp1101
(dp1102
Vkernel-arch
p1103
Vsparc
p1104
sVfeaturesets
p1105
(lp1106
ss(Vbuild
p1107
g165
tp1108
(dp1109
Vsigned-modules
p1110
I00
sVimage-file
p1111
Vvmlinux
p1112
ss(g4
g14
g6
tp1113
(dp1114
g9
I01
sg10
(lp1115
Vsparc64
p1116
aVsparc64-smp
p1117
ass(Vdescription
p1118
g75
NVocteon
p1119
tp1120
(dp1121
Vhardware
p1122
VOcteon
p1123
sVhardware-long
p1124
VCavium Networks Octeon
p1125
ss(Vimage
p1126
g44
NV4kc-malta
p1127
tp1128
(dp1129
Vconfigs
p1130
(lp1131
Vkernelarch-mips/config.malta
p1132
aVkernelarch-mips/config.mips32r1
p1133
ass(Vimage
p1134
g165
NVloongson-3
p1135
tp1136
(dp1137
Vconfigs
p1138
(lp1139
Vkernelarch-mips/config.loongson-3
p1140
ass(Vbuild
p1141
g29
NVmarvell
p1142
tp1143
(dp1144
Vsigned-modules
p1145
I00
ss(Vbuild
p1146
g473
tp1147
(dp1148
Vvdso
p1149
I01
sVimage-file
p1150
Vvmlinux
p1151
ss(Vdescription
p1152
g83
g836
V686-pae
p1153
tp1154
(dp1155
Vparts
p1156
(lp1157
Vxen
p1158
ass(Vbuild
p1159
g136
NVs390x
p1160
tp1161
(dp1162
Vdebug-info
p1163
I01
ss(Vbase
p1164
g422
tp1165
(dp1166
Vkernel-arch
p1167
Vpowerpc
p1168
sg26
(lp1169
g6
ass(Vimage
p1170
g44
NVocteon
p1171
tp1172
(dp1173
Vconfigs
p1174
(lp1175
Vkernelarch-mips/config.octeon
p1176
ass(Vdescription
p1177
g21
NValpha-generic
p1178
tp1179
(dp1180
Vhardware
p1181
VAlpha
p1182
sVhardware-long
p1183
VDEC Alpha systems with extended kernel start address (Wildfire, Titan, Marvel)
p1184
ss(Vbase
p1185
g5
tp1186
(dp1187
Vcflags
p1188
V-ffreestanding
p1189
sVkernel-arch
p1190
Vm68k
p1191
sg26
(lp1192
g6
ass(Vimage
p1193
g44
NVloongson-2e
p1194
tp1195
(dp1196
Vconfigs
p1197
(lp1198
Vkernelarch-mips/config.loongson-2e
p1199
ass(Vbase
p1200
NVrt
p1201
tp1202
(dp1203
Venabled
p1204
I01
ss(Vimage
p1205
g422
tp1206
(dp1207
Vconfigs
p1208
(lp1209
sVsuggests
p1210
Vmkvmlinuz
p1211
sVinstall-stem
p1212
Vvmlinux
p1213
ss(Vabi
p1214
g143
tp1215
(dp1216
Vignore-changes
p1217
(lp1218
Vmodule:drivers/gpu/drm/imx/*
p1219
ass(Vbase
p1220
g29
tp1221
(dp1222
Vkernel-arch
p1223
Varm
p1224
sg26
(lp1225
g6
ass(g4
g473
g6
tp1226
(dp1227
g9
I01
sg10
(lp1228
Vpowerpc
p1229
aVpowerpc-smp
p1230
aVpowerpc64
p1231
ass(Vdescription
p1232
g473
NVpowerpc-smp
p1233
tp1234
(dp1235
Vhardware
p1236
Vmultiprocessor 32-bit PowerPC
p1237
ss(Vbase
p1238
g44
tp1239
(dp1240
Vkernel-arch
p1241
Vmips
p1242
sg26
(lp1243
g6
asstp1244
Rp1245
.