ccopy_reg
_reconstructor
p0
(cdebian_linux.config
ConfigCore
p1
c__builtin__
dict
p2
(dp3
(Vimage
p4
Vmips64el
p5
NV5kc-malta
p6
tp7
(dp8
Vconfigs
p9
(lp10
Vkernelarch-mips/config.5kc-malta
p11
ass(Vbuild
p12
Vppc64
p13
tp14
(dp15
Vimage-file
p16
Vvmlinux
p17
sVvdso
p18
I01
ss(Vimage
p19
Vs390x
p20
NVs390x
p21
tp22
(dp23
Vconfigs
p24
(lp25
Vkernelarch-s390/config-arch-64
p26
ass(Vbase
p27
Vmipsel
p28
tp29
(dp30
Vfeaturesets
p31
(lp32
Vnone
p33
asVkernel-arch
p34
Vmips
p35
ss(Vbase
p36
Varm64
p37
Vnone
p38
tp39
(dp40
Vflavours
p41
(lp42
Varm64
p43
ass(Vbuild
p44
Vpowerpc
p45
tp46
(dp47
Vimage-file
p48
Vvmlinux
p49
sVvdso
p50
I01
ss(Vdescription
p51
Vsh4
p52
NVsh7785lcr
p53
tp54
(dp55
Vhardware-long
p56
VRenesas SH7785 reference board
p57
sVhardware
p58
Vsh7785lcr
p59
ss(Vbase
p60
g20
g33
tp61
(dp62
Vimplicit-flavour
p63
I01
sVflavours
p64
(lp65
Vs390x
p66
ass(Vbuild
p67
Vppc64el
p68
tp69
(dp70
Vimage-file
p71
Vvmlinux
p72
sVvdso
p73
I01
ss(Vimage
p74
Varmhf
p75
tp76
(dp77
Vsuggests
p78
Vfdutils
p79
sVinstall-stem
p80
Vvmlinuz
p81
sVconfigs
p82
(lp83
Vkernelarch-arm/config
p84
ass(Vimage
p85
Vmips64
p86
NVocteon
p87
tp88
(dp89
Vconfigs
p90
(lp91
Vkernelarch-mips/config.octeon
p92
ass(Vimage
p93
g68
NVpowerpc64le
p94
tp95
(dp96
Vconfigs
p97
(lp98
Vkernelarch-powerpc/config-arch-64
p99
aVkernelarch-powerpc/config-arch-64-le
p100
ass(Vdescription
p101
Varmel
p102
NVkirkwood
p103
tp104
(dp105
Vhardware-long
p106
VMarvell Kirkwood based systems (SheevaPlug, QNAP TS-119/TS-219, etc)
p107
sVhardware
p108
VMarvell Kirkwood
p109
ss(Vdescription
p110
g28
NV4kc-malta
p111
tp112
(dp113
Vhardware-long
p114
VMIPS Malta boards
p115
sVhardware
p116
VMIPS Malta
p117
ss(Vimage
p118
g102
tp119
(dp120
Vsuggests
p121
Vfdutils
p122
sVinstall-stem
p123
Vvmlinuz
p124
sVconfigs
p125
(lp126
Vkernelarch-arm/config
p127
aVarmel/config
p128
ass(Vbase
p129
g20
tp130
(dp131
g31
(lp132
g33
asVkernel-arch
p133
Vs390
p134
ss(Vrelations
p135
g102
tp136
(dp137
Vheaders%gcc-4.9
p138
Vlinux-compiler-gcc-4.9-arm
p139
ss(Vbase
p140
Vamd64
p141
tp142
(dp143
Vcompiler
p144
Vgcc-5
p145
sVfeaturesets
p146
(lp147
Vnone
p148
aVrt
p149
asVkernel-arch
p150
Vx86
p151
ss(Vimage
p152
g13
tp153
(dp154
Vconfigs
p155
(lp156
sVinstall-stem
p157
Vvmlinux
p158
sVsuggests
p159
Vmkvmlinuz
p160
ss(Vimage
p161
g5
tp162
(dp163
Vinstall-stem
p164
Vvmlinux
p165
ss(Vbuild
p166
Vm68k
p167
tp168
(dp169
Vimage-file
p170
Vvmlinux.gz
p171
ss(Vbase
p172
NVrt
p173
tp174
(dp175
Venabled
p176
I00
ss(Vimage
p177
g28
NVloongson-2f
p178
tp179
(dp180
Vconfigs
p181
(lp182
Vkernelarch-mips/config.loongson-2f
p183
asVrecommends
p184
Vlibc6-loongson2f
p185
ss(Vdescription
p186
g28
NVloongson-3
p187
tp188
(dp189
Vhardware-long
p190
VLoongson 3A or 3B based systems (e.g. from Loongson or Lemote)
p191
sVhardware
p192
VLoongson 3A/3B
p193
ss(g60
Vhppa
p194
g33
tp195
(dp196
g63
I01
sg64
(lp197
Vparisc
p198
aVparisc64-smp
p199
ass(Vrelations
p200
g194
tp201
(dp202
Vgcc-4.9
p203
Vgcc-4.9 <!stage1>, binutils-hppa64 <!stage1>, gcc-4.9-hppa64 <!stage1>
p204
ss(Vbuild
p205
g28
tp206
(dp207
Vimage-file
p208
Vvmlinux
p209
ss(Vimage
p210
g86
tp211
(dp212
Vinstall-stem
p213
Vvmlinux
p214
ss(Vimage
p215
Vi386
p216
NV686
p217
tp218
(dp219
Vconfigs
p220
(lp221
Vkernelarch-x86/config-arch-32
p222
aVi386/config.686
p223
asVrecommends
p224
Vlibc6-i686
p225
ss(g60
Vsparc64
p226
g33
tp227
(dp228
g63
I01
sg64
(lp229
Vsparc64
p230
aVsparc64-smp
p231
ass(Vdescription
p232
g45
NVpowerpc64
p233
tp234
(dp235
Vhardware
p236
V64-bit PowerPC
p237
ss(Vbase
p238
Vs390
p239
tp240
(dp241
Vfeaturesets
p242
(lp243
sVkernel-arch
p244
Vs390
p245
ss(Vbuild
p246
g216
tp247
(dp248
Vimage-file
p249
Varch/x86/boot/bzImage
p250
sVvdso
p251
I01
ss(Vdescription
p252
g86
NVocteon
p253
tp254
(dp255
Vhardware-long
p256
VCavium Networks Octeon
p257
sVhardware
p258
VOcteon
p259
ss(Vdescription
p260
g226
NVsparc64
p261
tp262
(dp263
Vhardware
p264
Vuniprocessor 64-bit UltraSPARC
p265
ss(g60
g86
g33
tp266
(dp267
g63
I01
sg64
(lp268
V5kc-malta
p269
aVocteon
p270
ass(Vimage
p271
g5
NVocteon
p272
tp273
(dp274
Vconfigs
p275
(lp276
Vkernelarch-mips/config.octeon
p277
ass(g60
g75
g33
tp278
(dp279
g63
I01
sg64
(lp280
Varmmp
p281
aVarmmp-lpae
p282
ass(Vdescription
p283
g226
NVsparc64-smp
p284
tp285
(dp286
Vhardware
p287
Vmultiprocessor 64-bit UltraSPARC
p288
ss(Vdescription
p289
g75
NVarmmp-lpae
p290
tp291
(dp292
Vhardware-long
p293
VARMv7 multiplatform kernel supporting LPAE. See\u000ahttps://wiki.debian.org/DebianKernel/ARMMP for details of supported\u000aplatforms.
p294
sVhardware
p295
VARMv7 multiplatform compatible SoCs supporting LPAE
p296
ss(Vbuild
p297
Vmips
p298
tp299
(dp300
Vimage-file
p301
Vvmlinux
p302
ss(Vdescription
p303
g5
NVloongson-3
p304
tp305
(dp306
Vhardware-long
p307
VLoongson 3A or 3B based systems (e.g. from Loongson or Lemote)
p308
sVhardware
p309
VLoongson 3A/3B
p310
ss(Vrelations
p311
g20
tp312
(dp313
Vheaders%gcc-4.9
p314
Vlinux-compiler-gcc-4.9-s390
p315
ss(Vabi
p316
tp317
(dp318
Vabiname
p319
Vkali1
p320
sVignore-changes
p321
(lp322
Vmodule:net/dccp/dccp
p323
aVfl6_*
p324
aVinet_sk_diag_fill
p325
aVip6_append_data
p326
aVip6_datagram_send_ctl
p327
aVip6_xmit
p328
aVipv6_dup_options
p329
aVipv6_fixup_options
p330
aVipv6_push_nfrag_opts
p331
aVtcp_cong_avoid_ai
p332
aVtcp_slow_start
p333
aVpin_is_valid
p334
aVpinctrl_*
p335
aVmodule:drivers/net/ethernet/mellanox/**
p336
aVpv_info
p337
ass(Vdescription
p338
g141
NVamd64
p339
tp340
(dp341
Vhardware-long
p342
VPCs with AMD64, Intel 64 or VIA Nano processors
p343
sVhardware
p344
V64-bit PCs
p345
ss(Vimage
p346
g52
tp347
(dp348
Vsuggests
p349
Vfdutils
p350
sVinstall-stem
p351
Vvmlinuz
p352
ss(Vimage
p353
g216
NV686-pae
p354
tp355
(dp356
Vconfigs
p357
(lp358
Vkernelarch-x86/config-arch-32
p359
aVi386/config.686-pae
p360
asVrecommends
p361
Vlibc6-i686
p362
ss(Vimage
p363
g194
tp364
(dp365
Vsuggests
p366
Vpalo
p367
sVinstall-stem
p368
Vvmlinux
p369
ss(Vversion
p370
tp371
(dp372
Vsource
p373
V4.3.5-1kali1
p374
sVupstream
p375
V4.3
p376
sVabiname
p377
V4.3.0-kali1
p378
sVabiname_base
p379
V4.3.0
p380
ss(Vbuild
p381
g20
tp382
(dp383
Vimage-file
p384
Varch/s390/boot/image
p385
sVvdso
p386
I01
ss(Vdescription
p387
g298
NV5kc-malta
p388
tp389
(dp390
Vhardware-long
p391
VMIPS Malta boards (64-bit)
p392
sVhardware
p393
VMIPS Malta (64-bit)
p394
ss(Vimage
p395
g86
NV5kc-malta
p396
tp397
(dp398
Vconfigs
p399
(lp400
Vkernelarch-mips/config.5kc-malta
p401
ass(g60
g68
g33
tp402
(dp403
g63
I01
sg64
(lp404
Vpowerpc64le
p405
ass(Vbase
p406
Vor1k
p407
tp408
(dp409
Vfeaturesets
p410
(lp411
sVkernel-arch
p412
Vopenrisc
p413
ss(Vimage
p414
g45
NVpowerpc64
p415
tp416
(dp417
Vconfigs
p418
(lp419
Vkernelarch-powerpc/config-arch-64
p420
aVkernelarch-powerpc/config-arch-64-be
p421
ass(Vabi
p422
NVrt
p423
tp424
(dp425
Vignore-changes
p426
(lp427
V*
p428
ass(Vbase
p429
Vsparc
p430
tp431
(dp432
Vfeaturesets
p433
(lp434
sVkernel-arch
p435
Vsparc
p436
ss(Vdescription
p437
g68
NVpowerpc64le
p438
tp439
(dp440
Vhardware
p441
VLittle-endian 64-bit PowerPC
p442
ss(Vbase
p443
g52
tp444
(dp445
g31
(lp446
g33
asVkernel-arch
p447
Vsh
p448
ss(Vdescription
p449
g52
NVsh7751r
p450
tp451
(dp452
Vhardware-long
p453
VRenesas SH7751R R2D plus board
p454
sVhardware
p455
Vsh7751r
p456
ss(Vimage
p457
Vpowerpcspe
p458
tp459
(dp460
Vsuggests
p461
Vmkvmlinuz
p462
sVinstall-stem
p463
Vvmlinux
p464
ss(Vdescription
p465
g216
tp466
(dp467
Vpart-long-pae
p468
VThis kernel requires PAE (Physical Address Extension).\u000aThis feature is supported by the Intel Pentium Pro/II/III/4/4M/D, Xeon,\u000aCore and Atom; AMD Geode NX, Athlon (K7), Duron, Opteron, Sempron,\u000aTurion or Phenom; Transmeta Efficeon; VIA C7; and some other processors.
p469
ss(Vbuild
p470
g52
tp471
(dp472
Vimage-file
p473
Varch/sh/boot/zImage
p474
ss(Vrelations
p475
g141
tp476
(dp477
Vheaders%gcc-5
p478
Vlinux-compiler-gcc-5-x86
p479
ss(Vbase
p480
g298
tp481
(dp482
g31
(lp483
g33
asVkernel-arch
p484
Vmips
p485
ss(Vbase
p486
g458
tp487
(dp488
g31
(lp489
g33
asVkernel-arch
p490
Vpowerpc
p491
ss(Vdescription
p492
g45
NVpowerpc
p493
tp494
(dp495
Vhardware
p496
Vuniprocessor 32-bit PowerPC
p497
ss(Vimage
p498
g28
NV4kc-malta
p499
tp500
(dp501
Vconfigs
p502
(lp503
Vkernelarch-mips/config.4kc-malta
p504
ass(Vimage
p505
g37
tp506
(dp507
Vinstall-stem
p508
Vvmlinuz
p509
ss(Vimage
p510
g5
NVloongson-3
p511
tp512
(dp513
Vconfigs
p514
(lp515
Vkernelarch-mips/config.loongson-3
p516
ass(Vxen
p517
g141
Vnone
p518
Vamd64
p519
tp520
(dp521
Vflavours
p522
(lp523
Vamd64
p524
ass(Vbuild
p525
g75
tp526
(dp527
Vimage-file
p528
Varch/arm/boot/zImage
p529
sVvdso
p530
I01
ss(Vimage
p531
g75
NVarmmp-lpae
p532
tp533
(dp534
Vconfigs
p535
(lp536
Varmhf/config.armmp
p537
aVarmhf/config.lpae
p538
ass(Vbase
p539
g216
tp540
(dp541
Vcompiler
p542
Vgcc-5
p543
sVfeaturesets
p544
(lp545
Vnone
p546
aVrt
p547
asVkernel-arch
p548
Vx86
p549
ss(Vimage
p550
g28
NV5kc-malta
p551
tp552
(dp553
Vconfigs
p554
(lp555
Vkernelarch-mips/config.5kc-malta
p556
ass(Vdescription
p557
g216
NV686-pae
p558
tp559
(dp560
Vparts
p561
(lp562
Vpae
p563
asVhardware-long
p564
VPCs with one or more processors supporting PAE
p565
sVhardware
p566
Vmodern PCs
p567
ss(Vdescription
p568
g167
NVm68k
p569
tp570
(dp571
Vhardware
p572
VMotorola MC68020+ family
p573
ss(Vdescription
p574
g216
Vnone
p575
V686-pae
p576
tp577
(dp578
Vparts
p579
(lp580
Vxen
p581
ass(Vbase
p582
g194
tp583
(dp584
g31
(lp585
g33
asVkernel-arch
p586
Vparisc
p587
ss(Vbase
p588
Valpha
p589
tp590
(dp591
g31
(lp592
g33
asVkernel-arch
p593
Valpha
p594
ss(Vbase
p595
g13
tp596
(dp597
g31
(lp598
g33
asVkernel-arch
p599
Vpowerpc
p600
ss(Vimage
p601
g141
tp602
(dp603
Vbootloaders
p604
(lp605
Vgrub-pc
p606
aVgrub-efi
p607
aVextlinux
p608
asVbreaks
p609
Vxserver-xorg-input-vmmouse (<< 1:13.0.99)
p610
sVconfigs
p611
(lp612
sVinstall-stem
p613
Vvmlinuz
p614
ss(Vrelations
p615
g216
tp616
(dp617
Vheaders%gcc-5
p618
Vlinux-compiler-gcc-5-x86
p619
ss(Vbase
p620
g141
Vrt
p621
tp622
(dp623
Vflavours
p624
(lp625
Vamd64
p626
ass(Vbase
p627
g194
NVparisc64-smp
p628
tp629
(dp630
Voverride-host-type
p631
Vhppa64-linux-gnu
p632
sVcflags
p633
V-fno-cse-follow-jumps
p634
ss(Vimage
p635
g589
tp636
(dp637
Vsuggests
p638
Vaboot, fdutils
p639
sVinstall-stem
p640
Vvmlinuz
p641
ss(Vbuild
p642
g20
NVs390x
p643
tp644
(dp645
Vdebug-info
p646
I01
ss(Vdescription
p647
g298
NVocteon
p648
tp649
(dp650
Vhardware-long
p651
VCavium Networks Octeon
p652
sVhardware
p653
VOcteon
p654
ss(Vbuild
p655
g102
tp656
(dp657
Vimage-file
p658
Varch/arm/boot/zImage
p659
ss(Vdescription
p660
g298
NV4kc-malta
p661
tp662
(dp663
Vhardware-long
p664
VMIPS Malta boards
p665
sVhardware
p666
VMIPS Malta
p667
ss(Vbase
p668
Vx32
p669
tp670
(dp671
Vfeaturesets
p672
(lp673
sVkernel-arch
p674
Vx86
p675
ss(Vrelations
p676
tp677
(dp678
Vgcc-4.8
p679
Vgcc-4.8 <!stage1>
p680
sVinitramfs-fallback
p681
Vlinux-initramfs-tool
p682
sVgcc-5
p683
Vgcc-5 <!stage1>
p684
sVinitramfs-tools
p685
Vinitramfs-tools (>= 0.110~)
p686
sVgcc-4.9
p687
Vgcc-4.9 <!stage1>
p688
ss(Vimage
p689
g102
NVorion5x
p690
tp691
(dp692
Vcheck-size
p693
L2097080L
sVconfigs
p694
(lp695
Varmel/config-reduced
p696
aVarmel/config.orion5x
p697
asVrecommends
p698
Vu-boot-tools
p699
sVcheck-size-with-dtb
p700
I01
ss(g60
g5
g33
tp701
(dp702
g63
I01
sg64
(lp703
V5kc-malta
p704
aVloongson-3
p705
aVocteon
p706
ass(Vbase
p707
g37
tp708
(dp709
Vfeaturesets
p710
(lp711
Vnone
p712
asVkernel-arch
p713
Varm64
p714
ss(Vrelations
p715
g75
tp716
(dp717
Vheaders%gcc-4.9
p718
Vlinux-compiler-gcc-4.9-arm
p719
ss(Vimage
p720
g298
NV5kc-malta
p721
tp722
(dp723
Vconfigs
p724
(lp725
Vkernelarch-mips/config.5kc-malta
p726
ass(Vimage
p727
g298
tp728
(dp729
Vinstall-stem
p730
Vvmlinux
p731
ss(g60
g13
g33
tp732
(dp733
g63
I01
sg64
(lp734
Vpowerpc64
p735
ass(Vbase
p736
tp737
(dp738
Vcompiler
p739
Vgcc-4.9
p740
sVfeaturesets
p741
(lp742
Vnone
p743
aVrt
p744
asVarches
p745
(lp746
Valpha
p747
aVamd64
p748
aVarm64
p749
aVarmel
p750
aVarmhf
p751
aVhppa
p752
aVi386
p753
aVm68k
p754
aVmips
p755
aVmipsel
p756
aVmips64
p757
aVmips64el
p758
aVor1k
p759
aVpowerpc
p760
aVpowerpcspe
p761
aVppc64
p762
aVppc64el
p763
aVs390
p764
aVs390x
p765
aVsh4
p766
aVsparc
p767
aVsparc64
p768
aVx32
p769
ass(Vbuild
p770
g194
tp771
(dp772
Vimage-file
p773
Vvmlinux
p774
ss(Vimage
p775
g45
NVpowerpc-smp
p776
tp777
(dp778
Vconfigs
p779
(lp780
Vpowerpc/config.powerpc
p781
aVpowerpc/config.powerpc-smp
p782
ass(Vdescription
p783
g194
NVparisc64-smp
p784
tp785
(dp786
Vhardware-long
p787
VHP PA-RISC 64-bit SMP systems with support for more than 4 GB RAM
p788
sVhardware
p789
Vmultiprocessor 64-bit PA-RISC
p790
ss(Vbuild
p791
g589
tp792
(dp793
Vimage-file
p794
Varch/alpha/boot/vmlinux.gz
p795
ss(Vimage
p796
g68
tp797
(dp798
Vconfigs
p799
(lp800
sVinstall-stem
p801
Vvmlinux
p802
sVsuggests
p803
Vmkvmlinuz
p804
ss(Vimage
p805
g37
NVarm64
p806
tp807
(dp808
s(Vbuild
p809
g226
tp810
(dp811
Vimage-file
p812
Varch/sparc/boot/zImage
p813
ss(Vdescription
p814
g28
NVloongson-2f
p815
tp816
(dp817
Vhardware-long
p818
VLemote Loongson 2F systems
p819
sVhardware
p820
VLoongson 2F
p821
ss(Vbuild
p822
g141
tp823
(dp824
Vimage-file
p825
Varch/x86/boot/bzImage
p826
sVvdso
p827
I01
sVdebug-info
p828
I01
ss(Vbase
p829
g141
g518
tp830
(dp831
Vflavours
p832
(lp833
Vamd64
p834
ass(g60
g28
g33
tp835
(dp836
g63
I01
sg64
(lp837
V4kc-malta
p838
aV5kc-malta
p839
aVloongson-2e
p840
aVloongson-2f
p841
aVloongson-3
p842
ass(Vdescription
p843
g102
NVorion5x
p844
tp845
(dp846
Vhardware-long
p847
VMarvell Orion 5181, 5182 and 5281 based systems (QNAP TS-109/TS-209, etc)
p848
sVhardware
p849
VMarvell Orion
p850
ss(g60
g167
g33
tp851
(dp852
g63
I01
sg64
(lp853
Vm68k
p854
ass(Vdescription
p855
g141
g518
Vamd64
p856
tp857
(dp858
Vparts
p859
(lp860
Vxen
p861
ass(Vdescription
p862
g102
NVversatile
p863
tp864
(dp865
Vhardware-long
p866
VVersatile systems (PB, AB, Qemu)
p867
sVhardware
p868
VVersatile
p869
ss(Vdescription
p870
Ng423
tp871
(dp872
Vpart-long-rt
p873
VThis kernel includes the PREEMPT_RT realtime patch set.
p874
sVpart-short-rt
p875
VPREEMPT_RT
p876
sVparts
p877
(lp878
Vrt
p879
ass(Vbase
p880
g68
tp881
(dp882
g31
(lp883
g33
asVkernel-arch
p884
Vpowerpc
p885
ss(Vdescription
p886
g5
NVocteon
p887
tp888
(dp889
Vhardware-long
p890
VCavium Networks Octeon
p891
sVhardware
p892
VOcteon
p893
ss(Vimage
p894
g226
NVsparc64-smp
p895
tp896
(dp897
Vconfigs
p898
(lp899
Vkernelarch-sparc/config-smp
p900
ass(Vimage
p901
g167
tp902
(dp903
Vsuggests
p904
Vvmelilo, fdutils
p905
sVinstall-stem
p906
Vvmlinuz
p907
ss(Vbuild
p908
g37
tp909
(dp910
Vimage-file
p911
Varch/arm64/boot/Image
p912
sVvdso
p913
I01
sVdebug-info
p914
I01
ss(Vimage
p915
g298
NV4kc-malta
p916
tp917
(dp918
Vconfigs
p919
(lp920
Vkernelarch-mips/config.4kc-malta
p921
ass(Vimage
p922
g141
NVamd64
p923
tp924
(dp925
Vconfigs
p926
(lp927
Vkernelarch-x86/config-arch-64
p928
ass(Vdescription
p929
g216
NV686
p930
tp931
(dp932
Vhardware-long
p933
VPCs with one or more processors not supporting PAE
p934
sVhardware
p935
Volder PCs
p936
ss(Vdescription
p937
g28
NVloongson-2e
p938
tp939
(dp940
Vhardware-long
p941
VLemote Loongson 2E systems
p942
sVhardware
p943
VLoongson 2E
p944
ss(Vdescription
p945
g13
NVpowerpc64
p946
tp947
(dp948
Vhardware
p949
V64-bit PowerPC
p950
ss(Vimage
p951
g52
NVsh7785lcr
p952
tp953
(dp954
Vcheck-size
p955
L4194304L
sVrecommends
p956
Vu-boot-tools
p957
ss(Vimage
p958
g226
NVsparc64
p959
tp960
(dp961
Vconfigs
p962
(lp963
Vkernelarch-sparc/config-up
p964
ass(Vdescription
p965
g20
NVs390x
p966
tp967
(dp968
Vhardware
p969
VIBM zSeries
p970
ss(Vimage
p971
g298
NVocteon
p972
tp973
(dp974
Vconfigs
p975
(lp976
Vkernelarch-mips/config.octeon
p977
ass(g60
g45
g33
tp978
(dp979
g63
I01
sg64
(lp980
Vpowerpc
p981
aVpowerpc-smp
p982
aVpowerpc64
p983
ass(Vimage
p984
tp985
(dp986
Vinitramfs-generators
p987
(lp988
Vinitramfs-tools
p989
aVinitramfs-fallback
p990
asVtype
p991
Vplain
p992
ss(Vbase
p993
g226
tp994
(dp995
g31
(lp996
g33
asVkernel-arch
p997
Vsparc
p998
ss(Vbuild
p999
g5
tp1000
(dp1001
Vimage-file
p1002
Vvmlinux
p1003
ss(g60
g102
g33
tp1004
(dp1005
g63
I01
sg64
(lp1006
Vkirkwood
p1007
aVorion5x
p1008
aVversatile
p1009
ass(Vdescription
p1010
g75
NVarmmp
p1011
tp1012
(dp1013
Vhardware-long
p1014
VARMv7 multiplatform kernel. See\u000ahttps://wiki.debian.org/DebianKernel/ARMMP for details of supported\u000aplatforms
p1015
sVhardware
p1016
VARMv7 multiplatform compatible SoCs
p1017
ss(Vbase
p1018
g216
g575
tp1019
(dp1020
Vflavours
p1021
(lp1022
V686
p1023
aV686-pae
p1024
ass(g60
g458
g33
tp1025
(dp1026
g63
I01
sg64
(lp1027
Vpowerpcspe
p1028
ass(Vimage
p1029
g45
tp1030
(dp1031
Vconfigs
p1032
(lp1033
sVinstall-stem
p1034
Vvmlinux
p1035
sVsuggests
p1036
Vmkvmlinuz
p1037
ss(Vbase
p1038
g5
tp1039
(dp1040
g31
(lp1041
g33
asVkernel-arch
p1042
Vmips
p1043
ss(Vbuild
p1044
g86
tp1045
(dp1046
Vimage-file
p1047
Vvmlinux
p1048
ss(Vbuild
p1049
g458
tp1050
(dp1051
Vimage-file
p1052
Vvmlinux
p1053
sVvdso
p1054
I01
ss(Vimage
p1055
g13
NVpowerpc64
p1056
tp1057
(dp1058
Vconfigs
p1059
(lp1060
Vkernelarch-powerpc/config-arch-64
p1061
aVkernelarch-powerpc/config-arch-64-be
p1062
ass(Vimage
p1063
g20
tp1064
(dp1065
Vbootloaders
p1066
(lp1067
Vs390-tools
p1068
asVconfigs
p1069
(lp1070
sVinstall-stem
p1071
Vvmlinuz
p1072
ss(Vbase
p1073
g102
tp1074
(dp1075
g31
(lp1076
g33
asVkernel-arch
p1077
Varm
p1078
ss(Vbuild
p1079
g216
NV686-pae
p1080
tp1081
(dp1082
Vdebug-info
p1083
I01
ss(Vdescription
p1084
tp1085
(dp1086
Vpart-long-up
p1087
VThis kernel is not suitable for SMP (multi-processor,\u000amulti-core or hyper-threaded) systems.
p1088
sVpart-long-xen
p1089
VThis kernel also runs on a Xen hypervisor.\u000aIt supports both privileged (dom0) and unprivileged (domU) operation.
p1090
ss(Vbase
p1091
g216
Vrt
p1092
tp1093
(dp1094
Vflavours
p1095
(lp1096
V686-pae
p1097
ass(Vbase
p1098
g45
tp1099
(dp1100
g31
(lp1101
g33
asVkernel-arch
p1102
Vpowerpc
p1103
ss(g60
g298
g33
tp1104
(dp1105
g63
I01
sg64
(lp1106
V4kc-malta
p1107
aV5kc-malta
p1108
aVocteon
p1109
ass(g60
g52
g33
tp1110
(dp1111
g63
I01
sg64
(lp1112
Vsh7751r
p1113
aVsh7785lcr
p1114
ass(Vdescription
p1115
g37
NVarm64
p1116
tp1117
(dp1118
Vhardware
p1119
V64-bit ARMv8 machines
p1120
ss(Vimage
p1121
g102
NVkirkwood
p1122
tp1123
(dp1124
Vcheck-size
p1125
L2097080L
sVbreaks
p1126
Vflash-kernel (<< 3.37~)
p1127
sVconfigs
p1128
(lp1129
Varmel/config-reduced
p1130
aVarmel/config.kirkwood
p1131
asVrecommends
p1132
Vu-boot-tools
p1133
sVcheck-size-with-dtb
p1134
I01
ss(Vdescription
p1135
g589
NValpha-generic
p1136
tp1137
(dp1138
Vhardware-long
p1139
VDEC Alpha systems with extended kernel start address (Wildfire, Titan, Marvel)
p1140
sVhardware
p1141
VAlpha
p1142
ss(Vimage
p1143
g226
tp1144
(dp1145
Vconfigs
p1146
(lp1147
sVinstall-stem
p1148
Vvmlinuz
p1149
sVsuggests
p1150
Vsilo, fdutils
p1151
ss(Vdescription
p1152
g45
NVpowerpc-smp
p1153
tp1154
(dp1155
Vhardware
p1156
Vmultiprocessor 32-bit PowerPC
p1157
ss(Vdescription
p1158
g28
NV5kc-malta
p1159
tp1160
(dp1161
Vhardware-long
p1162
VMIPS Malta boards (64-bit)
p1163
sVhardware
p1164
VMIPS Malta (64-bit)
p1165
ss(Vbase
p1166
g75
tp1167
(dp1168
g31
(lp1169
g33
asVkernel-arch
p1170
Varm
p1171
ss(Vdescription
p1172
g5
NV5kc-malta
p1173
tp1174
(dp1175
Vhardware-long
p1176
VMIPS Malta boards
p1177
sVhardware
p1178
VMIPS Malta
p1179
ss(Vdescription
p1180
g458
tp1181
(dp1182
Vhardware
p1183
V32-bit PowerPC with SPE (instead of AltiVec) with SMP support
p1184
ss(Vdescription
p1185
g589
NValpha-smp
p1186
tp1187
(dp1188
Vhardware-long
p1189
VDEC Alpha SMP systems with extended kernel start address (Wildfire, Titan, Marvel)
p1190
sVhardware
p1191
VAlpha SMP
p1192
ss(Vimage
p1193
g28
tp1194
(dp1195
Vinstall-stem
p1196
Vvmlinux
p1197
ss(Vbase
p1198
g167
tp1199
(dp1200
g31
(lp1201
g33
asVcompiler
p1202
Vgcc-4.8
p1203
sVcflags
p1204
V-ffreestanding
p1205
sVkernel-arch
p1206
Vm68k
p1207
ss(Vimage
p1208
g28
NVloongson-3
p1209
tp1210
(dp1211
Vconfigs
p1212
(lp1213
Vkernelarch-mips/config.loongson-3
p1214
ass(Vbase
p1215
g86
tp1216
(dp1217
g31
(lp1218
g33
asVkernel-arch
p1219
Vmips
p1220
ss(Vdescription
p1221
g194
NVparisc
p1222
tp1223
(dp1224
Vhardware-long
p1225
VHP PA-RISC 32-bit systems with max 4 GB RAM
p1226
sVhardware
p1227
V32-bit PA-RISC
p1228
ss(Vdescription
p1229
g86
NV5kc-malta
p1230
tp1231
(dp1232
Vhardware-long
p1233
VMIPS Malta boards
p1234
sVhardware
p1235
VMIPS Malta
p1236
ss(Vimage
p1237
g28
NVloongson-2e
p1238
tp1239
(dp1240
Vconfigs
p1241
(lp1242
Vkernelarch-mips/config.loongson-2e
p1243
ass(Vimage
p1244
g216
tp1245
(dp1246
Vbootloaders
p1247
(lp1248
Vgrub-pc
p1249
aVextlinux
p1250
asVbreaks
p1251
Vxserver-xorg-input-vmmouse (<< 1:13.0.99)
p1252
sVconfigs
p1253
(lp1254
sVinstall-stem
p1255
Vvmlinuz
p1256
ss(g60
g589
g33
tp1257
(dp1258
g63
I01
sg64
(lp1259
Valpha-generic
p1260
aValpha-smp
p1261
asstp1262
Rp1263
.