cdebian_linux.config
ConfigCore
p0
(tRp1
(Vabi
p2
tp3
(dp4
Vabiname
p5
Vkali4
p6
sVignore-changes
p7
(lp8
V__cpuhp_*
p9
aVbpf_analyzer
p10
aVcxl_*
p11
aVdax_flush
p12
aVieee80211_nullfunc_get
p13
aVinet_add_protocol
p14
aVinet_del_protocol
p15
aViommu_device_*
p16
aVmm_iommu_*
p17
aVmv_mbus_*
p18
aVperf_*
p19
aVregister_cxl_calls
p20
aVregister_key_type
p21
aVunregister_cxl_calls
p22
aV*_hw_breakpoint
p23
aVmodule:drivers/crypto/ccp/*
p24
aVmodule:drivers/hv/*
p25
aVmodule:drivers/gpu/drm/sun4i/*
p26
aVmodule:drivers/iio/**
p27
aVmodule:drivers/misc/cxl/*
p28
aVmodule:drivers/mtd/nand/*
p29
aVmodule:drivers/net/ethernet/**
p30
aVmodule:drivers/net/wireless/**
p31
aVmodule:drivers/nvdimm/*
p32
aVmodule:drivers/nvme/**
p33
aVmodule:drivers/power/supply/bq27xxx_battery
p34
aVmodule:drivers/scsi/cxgbi/*
p35
aVmodule:drivers/scsi/libiscs*
p36
aVmodule:drivers/scsi/qla2xxx/qla2xxx
p37
aVmodule:drivers/scsi/ufs/*
p38
aVmodule:drivers/target/**
p39
aVmodule:drivers/usb/chipidea/**
p40
aVmodule:drivers/usb/gadget/**
p41
aVmodule:drivers/usb/host/**
p42
aVmodule:drivers/usb/musb/**
p43
aVmodule:fs/nfs/**
p44
aVmodule:net/ceph/libceph
p45
aVmodule:net/l2tp/**
p46
aVmodule:net/rxrpc/rxrpc
p47
aVmodule:net/sctp/**
p48
aVmodule:sound/core/seq/**
p49
aVmodule:sound/firewire/snd-firewire-lib
p50
aVmodule:sound/pci/hda/*
p51
aVbtree_*
p52
aVvisitor*
p53
aVcan_rx_register
p54
aVip6_xmit
p55
aVmodule:net/dccp/dccp
p56
aVmodule:net/rds/rds
p57
aVdevfreq_*
p58
aVdevm_devfreq_*
p59
aVupdate_devfreq
p60
aVmodule:drivers/infiniband/**
p61
aVacpi_ec_add_query_handler
p62
aVacpi_ec_remove_query_handler
p63
aVfirst_ec
p64
aVdebugfs_create_automount
p65
aVmodule:drivers/iio/imu/inv_mpu6050/*
p66
aVdrm_crtc_accurate_vblank_count
p67
aVacpi_nfit_desc_init
p68
aVacpi_nfit_init
p69
aVloop_register_transfer
p70
aVxen_xlate_*
p71
aVnf_nat_masquerade_ipv4_register_notifier
p72
aVnf_nat_masquerade_ipv6_register_notifier
p73
aVmodule:drivers/scsi/hisi_sas/*
p74
aV__gfn_*
p75
aV__kvmhv_*
p76
aV__kvm_*
p77
aV__xive_vm_h_*
p78
aVgfn_*
p79
aVh_ipi_redirect
p80
aVhalt_poll_ns*
p81
aVkvm_*
p82
aVkvmhv_*
p83
aVkvmppc_*
p84
aVmark_page_dirty
p85
aVvcpu_*
p86
aVmodule:arch/powerpc/kvm/*
p87
aVmodule:arch/s390/kvm/*
p88
aVmodule:arch/x86/kvm/*
p89
ass(Vbase
p90
tp91
(dp92
Varches
p93
(lp94
Valpha
p95
aVamd64
p96
aVarm64
p97
aVarm64ilp32
p98
aVarmel
p99
aVarmhf
p100
aVhppa
p101
aVi386
p102
aVia64
p103
aVm68k
p104
aVmips
p105
aVmips64
p106
aVmips64el
p107
aVmips64r6
p108
aVmips64r6el
p109
aVmipsel
p110
aVmipsn32
p111
aVmipsn32el
p112
aVmipsn32r6
p113
aVmipsn32r6el
p114
aVmipsr6
p115
aVmipsr6el
p116
aVpowerpc
p117
aVppc64
p118
aVppc64el
p119
aVriscv64
p120
aVs390
p121
aVs390x
p122
aVsh3
p123
aVsh4
p124
aVsparc
p125
aVsparc64
p126
aVx32
p127
asVcompiler
p128
Vgcc-9
p129
sVfeaturesets
p130
(lp131
Vnone
p132
aVrt
p133
ass(Vbuild
p134
tp135
(dp136
Vdebug-info
p137
I01
sVsigned-code
p138
I00
ss(Vbase
p139
NVrt
p140
tp141
(dp142
Venabled
p143
I01
ss(Vdescription
p144
tp145
(dp146
Vpart-long-up
p147
VThis kernel is not suitable for SMP (multi-processor,\u000amulti-core or hyper-threaded) systems.
p148
ss(Vimage
p149
tp150
(dp151
Vinitramfs-generators
p152
(lp153
Vinitramfs-tools
p154
aVinitramfs-fallback
p155
asVrecommends
p156
(lp157
Vapparmor
p158
ass(Vrelations
p159
tp160
(dp161
Vgcc-9
p162
Vgcc-9 <!stage1 !cross !pkg.linux.nokernel>, gcc-9-@gnu-type-package@ <!stage1 cross !pkg.linux.nokernel>
p163
sVinitramfs-fallback
p164
Vlinux-initramfs-tool
p165
sVinitramfs-tools
p166
Vinitramfs-tools (>= 0.120+deb8u2)
p167
ss(Vbase
p168
Valpha
p169
tp170
(dp171
Vkernel-arch
p172
Valpha
p173
sVfeaturesets
p174
(lp175
Vnone
p176
ass(Vbuild
p177
g169
tp178
(dp179
Vimage-file
p180
Varch/alpha/boot/vmlinux.gz
p181
ss(Vimage
p182
g169
tp183
(dp184
Vsuggests
p185
(lp186
Vaboot
p187
aVfdutils
p188
asVinstall-stem
p189
Vvmlinuz
p190
ss(Vdescription
p191
g169
NValpha-generic
p192
tp193
(dp194
Vhardware
p195
VAlpha
p196
sVhardware-long
p197
VDEC Alpha systems with extended kernel start address (Wildfire, Titan, Marvel)
p198
ss(Vdescription
p199
g169
NValpha-smp
p200
tp201
(dp202
Vhardware
p203
VAlpha SMP
p204
sVhardware-long
p205
VDEC Alpha SMP systems with extended kernel start address (Wildfire, Titan, Marvel)
p206
ss(Vbase
p207
g169
g176
tp208
(dp209
Vflavours
p210
(lp211
Valpha-generic
p212
aValpha-smp
p213
asVimplicit-flavour
p214
I01
ss(Vbase
p215
Vamd64
p216
tp217
(dp218
Vfeaturesets
p219
(lp220
Vnone
p221
aVrt
p222
asVkernel-arch
p223
Vx86
p224
ss(Vbuild
p225
g216
tp226
(dp227
Vdebug-info
p228
I01
sVimage-file
p229
Varch/x86/boot/bzImage
p230
sVsigned-code
p231
I00
sVvdso
p232
I01
ss(Vimage
p233
g216
tp234
(dp235
Vbootloaders
p236
(lp237
Vgrub-pc
p238
aVgrub-efi-amd64
p239
aVextlinux
p240
asVinstall-stem
p241
Vvmlinuz
p242
sVbreaks
p243
(lp244
Vxserver-xorg-input-vmmouse (<< 1:13.0.99)
p245
ass(Vrelations
p246
g216
tp247
(dp248
Vheaders%gcc-9
p249
Vlinux-compiler-gcc-9-x86
p250
ss(Vdescription
p251
g216
NVamd64
p252
tp253
(dp254
Vhardware
p255
V64-bit PCs
p256
sVhardware-long
p257
VPCs with AMD64, Intel 64 or VIA Nano processors
p258
ss(Vdescription
p259
g216
NVcloud-amd64
p260
tp261
(dp262
Vhardware
p263
Vx86-64 cloud
p264
sVhardware-long
p265
VAmazon EC2, Google Compute Engine and Microsoft Azure cloud platforms
p266
ss(Vbase
p267
g216
Vnone
p268
tp269
(dp270
Vflavours
p271
(lp272
Vamd64
p273
aVcloud-amd64
p274
ass(Vbase
p275
g216
Vrt
p276
tp277
(dp278
Vflavours
p279
(lp280
Vamd64
p281
ass(Vbase
p282
Varm64
p283
tp284
(dp285
Vcross-compile-compat
p286
Varm-linux-gnueabihf-
p287
sVkernel-arch
p288
Varm64
p289
sVfeaturesets
p290
(lp291
Vnone
p292
aVrt
p293
ass(Vbuild
p294
g283
tp295
(dp296
Vdebug-info
p297
I01
sVimage-file
p298
Varch/arm64/boot/Image
p299
sVsigned-code
p300
I00
sVvdso
p301
I01
ss(Vimage
p302
g283
tp303
(dp304
Vinstall-stem
p305
Vvmlinuz
p306
sVbreaks
p307
(lp308
Vlibmozjs185-1.0
p309
aVlibmozjs-24-0 (<< 24.2.0-5.1~)
p310
ass(Vdescription
p311
g283
NVarm64
p312
tp313
(dp314
Vhardware
p315
V64-bit ARMv8 machines
p316
ss(Vimage
p317
g283
NVarm64
p318
tp319
(dp320
s(Vrelations
p321
g283
tp322
(dp323
Vgcc-9
p324
Vgcc-9 <!stage1 !cross !pkg.linux.nokernel>, gcc-9-aarch64-linux-gnu <!stage1 cross !pkg.linux.nokernel>, gcc-arm-linux-gnueabihf <!stage1 !pkg.linux.nokernel>
p325
sVheaders%gcc-9
p326
Vgcc-9
p327
ss(Vbase
p328
g283
Vnone
p329
tp330
(dp331
Vflavours
p332
(lp333
Varm64
p334
ass(Vbase
p335
g283
Vrt
p336
tp337
(dp338
Vflavours
p339
(lp340
Varm64
p341
ass(Vbase
p342
Varm64ilp32
p343
tp344
(dp345
Vkernel-arch
p346
Varm64
p347
sVfeaturesets
p348
(lp349
ss(Vbase
p350
Varmel
p351
tp352
(dp353
Vkernel-arch
p354
Varm
p355
sg174
(lp356
g176
ass(Vbuild
p357
g351
tp358
(dp359
Vimage-file
p360
Varch/arm/boot/zImage
p361
sVuncompressed-image-file
p362
Varch/arm/boot/Image
p363
sVsigned-code
p364
I00
ss(Vimage
p365
g351
tp366
(dp367
Vinstall-stem
p368
Vvmlinuz
p369
ss(Vrelations
p370
g351
tp371
(dp372
Vheaders%gcc-9
p373
Vlinux-compiler-gcc-9-arm
p374
ss(Vdescription
p375
g351
NVmarvell
p376
tp377
(dp378
Vhardware
p379
VMarvell Kirkwood/Orion
p380
sVhardware-long
p381
VMarvell Kirkwood and Orion based systems (https://wiki.debian.org/ArmEabiPort#Supported_hardware)
p382
ss(Vdescription
p383
g351
NVrpi
p384
tp385
(dp386
Vhardware
p387
VRaspberry Pi and Pi Zero
p388
sVhardware-long
p389
VRaspberry Pi, Raspberry Pi Zero based systems
p390
ss(Vimage
p391
g351
NVmarvell
p392
tp393
(dp394
Vrecommends
p395
(lp396
Vu-boot-tools
p397
asVcheck-size
p398
I2729712
sVcheck-size-with-dtb
p399
I01
sVcheck-uncompressed-size
p400
I7340032
sVbreaks
p401
(lp402
Vflash-kernel (<< 3.57~)
p403
ass(g207
g351
g176
tp404
(dp405
g210
(lp406
Vmarvell
p407
aVrpi
p408
asg214
I01
ss(Vbase
p409
Varmhf
p410
tp411
(dp412
Vfeaturesets
p413
(lp414
Vnone
p415
aVrt
p416
asVkernel-arch
p417
Varm
p418
ss(Vbuild
p419
g410
tp420
(dp421
Vimage-file
p422
Varch/arm/boot/zImage
p423
sVvdso
p424
I01
sVsigned-code
p425
I00
ss(Vimage
p426
g410
tp427
(dp428
Vinstall-stem
p429
Vvmlinuz
p430
ss(Vrelations
p431
g410
tp432
(dp433
Vheaders%gcc-9
p434
Vlinux-compiler-gcc-9-arm
p435
ss(Vdescription
p436
g410
NVarmmp
p437
tp438
(dp439
Vhardware
p440
VARMv7 multiplatform compatible SoCs
p441
sVhardware-long
p442
VARMv7 multiplatform kernel. See\u000ahttps://wiki.debian.org/DebianKernel/ARMMP for details of supported\u000aplatforms
p443
ss(Vdescription
p444
g410
NVarmmp-lpae
p445
tp446
(dp447
Vhardware
p448
VARMv7 multiplatform compatible SoCs supporting LPAE
p449
sVhardware-long
p450
VARMv7 multiplatform kernel supporting LPAE. See\u000ahttps://wiki.debian.org/DebianKernel/ARMMP for details of supported\u000aplatforms.
p451
ss(Vbase
p452
g410
Vnone
p453
tp454
(dp455
Vflavours
p456
(lp457
Varmmp
p458
aVarmmp-lpae
p459
ass(Vbase
p460
g410
Vrt
p461
tp462
(dp463
Vflavours
p464
(lp465
Varmmp
p466
ass(Vbase
p467
Vhppa
p468
tp469
(dp470
Vkernel-arch
p471
Vparisc
p472
sg174
(lp473
g176
ass(Vbuild
p474
g468
tp475
(dp476
Vimage-file
p477
Varch/parisc/boot/bzImage
p478
sVdebug-info
p479
I00
ss(Vimage
p480
g468
tp481
(dp482
Vsuggests
p483
(lp484
Vpalo
p485
asVinstall-stem
p486
Vvmlinuz
p487
ss(Vdescription
p488
g468
NVparisc
p489
tp490
(dp491
Vhardware
p492
V32-bit PA-RISC
p493
sVhardware-long
p494
VHP PA-RISC 32-bit systems with max 4 GB RAM
p495
ss(Vbase
p496
g468
NVparisc64
p497
tp498
(dp499
Vcflags
p500
V-fno-cse-follow-jumps
p501
sVoverride-host-type
p502
Vhppa64-linux-gnu
p503
ss(Vdescription
p504
g468
NVparisc64
p505
tp506
(dp507
Vhardware
p508
V64-bit PA-RISC
p509
sVhardware-long
p510
VHP PA-RISC 64-bit systems with support for more than 4 GB RAM
p511
ss(Vrelations
p512
g468
tp513
(dp514
Vgcc-9
p515
Vgcc-9 <!stage1 !cross !pkg.linux.nokernel>, gcc-9-hppa-linux-gnu <!stage1 cross !pkg.linux.nokernel>, binutils-hppa64-linux-gnu <!stage1 !pkg.linux.nokernel>, gcc-9-hppa64-linux-gnu <!stage1 !pkg.linux.nokernel>
p516
ss(g207
g468
g176
tp517
(dp518
g210
(lp519
Vparisc
p520
aVparisc64
p521
asg214
I01
ss(Vbase
p522
Vi386
p523
tp524
(dp525
Vfeaturesets
p526
(lp527
Vnone
p528
aVrt
p529
asVkernel-arch
p530
Vx86
p531
ss(Vbuild
p532
g523
tp533
(dp534
Vimage-file
p535
Varch/x86/boot/bzImage
p536
sVsigned-code
p537
I00
sVvdso
p538
I01
ss(Vdescription
p539
g523
tp540
(dp541
Vpart-long-pae
p542
VThis kernel requires PAE (Physical Address Extension).\u000aThis feature is supported by the Intel Pentium Pro/II/III/4/4M/D, Xeon,\u000aCore and Atom; AMD Geode NX, Athlon (K7), Duron, Opteron, Sempron,\u000aTurion or Phenom; Transmeta Efficeon; VIA C7; and some other processors.
p543
ss(Vimage
p544
g523
tp545
(dp546
Vbootloaders
p547
(lp548
Vgrub-pc
p549
aVgrub-efi-ia32
p550
aVextlinux
p551
asVinstall-stem
p552
Vvmlinuz
p553
sVbreaks
p554
(lp555
Vxserver-xorg-input-vmmouse (<< 1:13.0.99)
p556
ass(Vrelations
p557
g523
tp558
(dp559
Vheaders%gcc-9
p560
Vlinux-compiler-gcc-9-x86
p561
ss(Vdescription
p562
g523
NV686
p563
tp564
(dp565
Vhardware
p566
Volder PCs
p567
sVhardware-long
p568
VPCs with one or more processors not supporting PAE
p569
ss(Vbuild
p570
g523
NV686-pae
p571
tp572
(dp573
Vdebug-info
p574
I01
ss(Vdescription
p575
g523
NV686-pae
p576
tp577
(dp578
Vhardware
p579
Vmodern PCs
p580
sVhardware-long
p581
VPCs with one or more processors supporting PAE
p582
sVparts
p583
(lp584
Vpae
p585
ass(Vbase
p586
g523
Vnone
p587
tp588
(dp589
Vflavours
p590
(lp591
V686
p592
aV686-pae
p593
ass(Vbase
p594
g523
Vrt
p595
tp596
(dp597
Vflavours
p598
(lp599
V686-pae
p600
ass(Vbase
p601
Via64
p602
tp603
(dp604
Vkernel-arch
p605
Via64
p606
sg174
(lp607
g176
ass(Vbuild
p608
g602
tp609
(dp610
Vimage-file
p611
Vvmlinux.gz
p612
ss(Vimage
p613
g602
tp614
(dp615
Vbootloaders
p616
(lp617
Vgrub-efi-ia64
p618
asVinstall-stem
p619
Vvmlinuz
p620
ss(Vdescription
p621
g602
NVitanium
p622
tp623
(dp624
Vhardware
p625
VItanium (Merced)
p626
sVhardware-long
p627
Vsystems with original Itanium (Merced) processors
p628
ss(Vdescription
p629
g602
NVmckinley
p630
tp631
(dp632
Vhardware
p633
VItanium 2+
p634
sVhardware-long
p635
Vsystems with Itanium 2 or 9300/9500/9700-series processors
p636
ss(g207
g602
g176
tp637
(dp638
g210
(lp639
Vitanium
p640
aVmckinley
p641
asg214
I01
ss(Vbase
p642
Vm68k
p643
tp644
(dp645
Vcflags
p646
V-ffreestanding
p647
sVkernel-arch
p648
Vm68k
p649
sg174
(lp650
g176
ass(Vbuild
p651
g643
tp652
(dp653
Vimage-file
p654
Vvmlinux
p655
ss(Vimage
p656
g643
tp657
(dp658
Vsuggests
p659
(lp660
Vvmelilo
p661
aVfdutils
p662
asVinstall-stem
p663
Vvmlinux
p664
ss(Vdescription
p665
g643
NVm68k
p666
tp667
(dp668
Vhardware
p669
VMotorola MC68020+ family
p670
ss(g207
g643
g176
tp671
(dp672
g210
(lp673
Vm68k
p674
asg214
I01
ss(Vbase
p675
Vmips
p676
tp677
(dp678
Vkernel-arch
p679
Vmips
p680
sg174
(lp681
g176
ass(Vbuild
p682
g676
tp683
(dp684
Vimage-file
p685
Vvmlinuz
p686
ss(Vimage
p687
g676
tp688
(dp689
Vinstall-stem
p690
Vvmlinuz
p691
ss(Vdescription
p692
g676
NV4kc-malta
p693
tp694
(dp695
Vhardware
p696
VMIPS Malta
p697
sVhardware-long
p698
VMIPS Malta boards
p699
ss(Vimage
p700
g676
NV4kc-malta
p701
tp702
(dp703
Vconfigs
p704
(lp705
Vkernelarch-mips/config.malta
p706
aVkernelarch-mips/config.mips32r2
p707
ass(Vdescription
p708
g676
NV5kc-malta
p709
tp710
(dp711
Vhardware
p712
VMIPS Malta (64-bit)
p713
sVhardware-long
p714
VMIPS Malta boards (64-bit)
p715
ss(Vimage
p716
g676
NV5kc-malta
p717
tp718
(dp719
Vconfigs
p720
(lp721
Vkernelarch-mips/config.malta
p722
aVkernelarch-mips/config.mips64r2
p723
ass(Vdescription
p724
g676
NVocteon
p725
tp726
(dp727
Vhardware
p728
VOcteon
p729
sVhardware-long
p730
VCavium Networks Octeon
p731
ss(Vbuild
p732
g676
NVocteon
p733
tp734
(dp735
Vimage-file
p736
Vvmlinux
p737
ss(Vimage
p738
g676
NVocteon
p739
tp740
(dp741
Vinstall-stem
p742
Vvmlinux
p743
sVconfigs
p744
(lp745
Vkernelarch-mips/config.octeon
p746
ass(g207
g676
g176
tp747
(dp748
g210
(lp749
V4kc-malta
p750
aV5kc-malta
p751
aVocteon
p752
asg214
I01
ss(Vbase
p753
Vmips64
p754
tp755
(dp756
Vkernel-arch
p757
Vmips
p758
sg174
(lp759
g176
ass(Vbuild
p760
g754
tp761
(dp762
Vimage-file
p763
Vvmlinuz
p764
ss(Vimage
p765
g754
tp766
(dp767
Vinstall-stem
p768
Vvmlinuz
p769
ss(Vdescription
p770
g754
NV5kc-malta
p771
tp772
(dp773
Vhardware
p774
VMIPS Malta
p775
sVhardware-long
p776
VMIPS Malta boards
p777
ss(Vimage
p778
g754
NV5kc-malta
p779
tp780
(dp781
Vconfigs
p782
(lp783
Vkernelarch-mips/config.malta
p784
aVkernelarch-mips/config.mips64r2
p785
ass(Vdescription
p786
g754
NVocteon
p787
tp788
(dp789
Vhardware
p790
VOcteon
p791
sVhardware-long
p792
VCavium Networks Octeon
p793
ss(Vbuild
p794
g754
NVocteon
p795
tp796
(dp797
Vimage-file
p798
Vvmlinux
p799
ss(Vimage
p800
g754
NVocteon
p801
tp802
(dp803
Vinstall-stem
p804
Vvmlinux
p805
sVconfigs
p806
(lp807
Vkernelarch-mips/config.octeon
p808
ass(g207
g754
g176
tp809
(dp810
g210
(lp811
V5kc-malta
p812
aVocteon
p813
asg214
I01
ss(Vbase
p814
Vmips64el
p815
tp816
(dp817
Vkernel-arch
p818
Vmips
p819
sg174
(lp820
g176
ass(Vbuild
p821
g815
tp822
(dp823
Vimage-file
p824
Vvmlinuz
p825
ss(Vimage
p826
g815
tp827
(dp828
Vinstall-stem
p829
Vvmlinuz
p830
ss(Vdescription
p831
g815
NV5kc-malta
p832
tp833
(dp834
Vhardware
p835
VMIPS Malta
p836
sVhardware-long
p837
VMIPS Malta boards
p838
ss(Vimage
p839
g815
NV5kc-malta
p840
tp841
(dp842
Vconfigs
p843
(lp844
Vkernelarch-mips/config.malta
p845
aVkernelarch-mips/config.mips64r2
p846
ass(Vdescription
p847
g815
NVloongson-3
p848
tp849
(dp850
Vhardware
p851
VLoongson 3A/3B
p852
sVhardware-long
p853
VLoongson 3A or 3B based systems (e.g. from Loongson or Lemote)
p854
ss(Vimage
p855
g815
NVloongson-3
p856
tp857
(dp858
Vconfigs
p859
(lp860
Vkernelarch-mips/config.loongson-3
p861
ass(Vdescription
p862
g815
NVocteon
p863
tp864
(dp865
Vhardware
p866
VOcteon
p867
sVhardware-long
p868
VCavium Networks Octeon
p869
ss(Vbuild
p870
g815
NVocteon
p871
tp872
(dp873
Vimage-file
p874
Vvmlinux
p875
ss(Vimage
p876
g815
NVocteon
p877
tp878
(dp879
Vinstall-stem
p880
Vvmlinux
p881
sVconfigs
p882
(lp883
Vkernelarch-mips/config.octeon
p884
ass(g207
g815
g176
tp885
(dp886
g210
(lp887
V5kc-malta
p888
aVloongson-3
p889
aVocteon
p890
asg214
I01
ss(Vbase
p891
Vmips64r6
p892
tp893
(dp894
Vkernel-arch
p895
Vmips
p896
sg174
(lp897
g176
ass(Vbuild
p898
g892
tp899
(dp900
Vimage-file
p901
Vvmlinux
p902
ss(Vimage
p903
g892
tp904
(dp905
Vinstall-stem
p906
Vvmlinux
p907
ss(Vdescription
p908
g892
NVmips64r6
p909
tp910
(dp911
Vhardware
p912
VMIPS R6 (64 bit, big endian)
p913
sVhardware-long
p914
VMIPS R6 (64 bit, big endian)
p915
ss(Vimage
p916
g892
NVmips64r6
p917
tp918
(dp919
Vconfigs
p920
(lp921
Vkernelarch-mips/config.boston
p922
aVkernelarch-mips/config.mips64r6
p923
ass(g207
g892
g176
tp924
(dp925
g210
(lp926
Vmips64r6
p927
asg214
I01
ss(Vbase
p928
Vmips64r6el
p929
tp930
(dp931
Vkernel-arch
p932
Vmips
p933
sg174
(lp934
g176
ass(Vbuild
p935
g929
tp936
(dp937
Vimage-file
p938
Vvmlinux
p939
ss(Vimage
p940
g929
tp941
(dp942
Vinstall-stem
p943
Vvmlinux
p944
ss(Vdescription
p945
g929
NVmips64r6el
p946
tp947
(dp948
Vhardware
p949
VMIPS R6 (64 bit, little endian)
p950
sVhardware-long
p951
VMIPS R6 (64 bit, little endian)
p952
ss(Vimage
p953
g929
NVmips64r6el
p954
tp955
(dp956
Vconfigs
p957
(lp958
Vkernelarch-mips/config.boston
p959
aVkernelarch-mips/config.mips64r6
p960
ass(g207
g929
g176
tp961
(dp962
g210
(lp963
Vmips64r6el
p964
asg214
I01
ss(Vbase
p965
Vmipsel
p966
tp967
(dp968
Vkernel-arch
p969
Vmips
p970
sg174
(lp971
g176
ass(Vbuild
p972
g966
tp973
(dp974
Vimage-file
p975
Vvmlinuz
p976
ss(Vimage
p977
g966
tp978
(dp979
Vinstall-stem
p980
Vvmlinuz
p981
ss(Vdescription
p982
g966
NV4kc-malta
p983
tp984
(dp985
Vhardware
p986
VMIPS Malta
p987
sVhardware-long
p988
VMIPS Malta boards
p989
ss(Vimage
p990
g966
NV4kc-malta
p991
tp992
(dp993
Vconfigs
p994
(lp995
Vkernelarch-mips/config.malta
p996
aVkernelarch-mips/config.mips32r2
p997
ass(Vdescription
p998
g966
NV5kc-malta
p999
tp1000
(dp1001
Vhardware
p1002
VMIPS Malta (64-bit)
p1003
sVhardware-long
p1004
VMIPS Malta boards (64-bit)
p1005
ss(Vimage
p1006
g966
NV5kc-malta
p1007
tp1008
(dp1009
Vconfigs
p1010
(lp1011
Vkernelarch-mips/config.malta
p1012
aVkernelarch-mips/config.mips64r2
p1013
ass(Vdescription
p1014
g966
NVloongson-3
p1015
tp1016
(dp1017
Vhardware
p1018
VLoongson 3A/3B
p1019
sVhardware-long
p1020
VLoongson 3A or 3B based systems (e.g. from Loongson or Lemote)
p1021
ss(Vimage
p1022
g966
NVloongson-3
p1023
tp1024
(dp1025
Vconfigs
p1026
(lp1027
Vkernelarch-mips/config.loongson-3
p1028
ass(Vdescription
p1029
g966
NVocteon
p1030
tp1031
(dp1032
Vhardware
p1033
VOcteon
p1034
sVhardware-long
p1035
VCavium Networks Octeon
p1036
ss(Vbuild
p1037
g966
NVocteon
p1038
tp1039
(dp1040
Vimage-file
p1041
Vvmlinux
p1042
ss(Vimage
p1043
g966
NVocteon
p1044
tp1045
(dp1046
Vinstall-stem
p1047
Vvmlinux
p1048
sVconfigs
p1049
(lp1050
Vkernelarch-mips/config.octeon
p1051
ass(g207
g966
g176
tp1052
(dp1053
g210
(lp1054
V4kc-malta
p1055
aV5kc-malta
p1056
aVloongson-3
p1057
aVocteon
p1058
asg214
I01
ss(Vbase
p1059
Vmipsn32
p1060
tp1061
(dp1062
Vkernel-arch
p1063
Vmips
p1064
sVfeaturesets
p1065
(lp1066
ss(Vbase
p1067
Vmipsn32el
p1068
tp1069
(dp1070
Vkernel-arch
p1071
Vmips
p1072
sVfeaturesets
p1073
(lp1074
ss(Vbase
p1075
Vmipsn32r6
p1076
tp1077
(dp1078
Vkernel-arch
p1079
Vmips
p1080
sVfeaturesets
p1081
(lp1082
ss(Vbase
p1083
Vmipsn32r6el
p1084
tp1085
(dp1086
Vkernel-arch
p1087
Vmips
p1088
sVfeaturesets
p1089
(lp1090
ss(Vbase
p1091
Vmipsr6
p1092
tp1093
(dp1094
Vkernel-arch
p1095
Vmips
p1096
sg174
(lp1097
g176
ass(Vbuild
p1098
g1092
tp1099
(dp1100
Vimage-file
p1101
Vvmlinux
p1102
ss(Vimage
p1103
g1092
tp1104
(dp1105
Vinstall-stem
p1106
Vvmlinux
p1107
ss(Vdescription
p1108
g1092
NVmips32r6
p1109
tp1110
(dp1111
Vhardware
p1112
VMIPS R6 (32 bit, big endian)
p1113
sVhardware-long
p1114
VMIPS R6 (32 bit, big endian)
p1115
ss(Vimage
p1116
g1092
NVmips32r6
p1117
tp1118
(dp1119
Vconfigs
p1120
(lp1121
Vkernelarch-mips/config.boston
p1122
aVkernelarch-mips/config.mips32r6
p1123
ass(Vdescription
p1124
g1092
NVmips64r6
p1125
tp1126
(dp1127
Vhardware
p1128
VMIPS R6 (64 bit, big endian)
p1129
sVhardware-long
p1130
VMIPS R6 (64 bit, big endian)
p1131
ss(Vimage
p1132
g1092
NVmips64r6
p1133
tp1134
(dp1135
Vconfigs
p1136
(lp1137
Vkernelarch-mips/config.boston
p1138
aVkernelarch-mips/config.mips64r6
p1139
ass(g207
g1092
g176
tp1140
(dp1141
g210
(lp1142
Vmips32r6
p1143
aVmips64r6
p1144
asg214
I01
ss(Vbase
p1145
Vmipsr6el
p1146
tp1147
(dp1148
Vkernel-arch
p1149
Vmips
p1150
sg174
(lp1151
g176
ass(Vbuild
p1152
g1146
tp1153
(dp1154
Vimage-file
p1155
Vvmlinux
p1156
ss(Vimage
p1157
g1146
tp1158
(dp1159
Vinstall-stem
p1160
Vvmlinux
p1161
ss(Vdescription
p1162
g1146
NVmips32r6el
p1163
tp1164
(dp1165
Vhardware
p1166
VMIPS R6 (32 bit, little endian)
p1167
sVhardware-long
p1168
VMIPS R6 (32 bit, little endian)
p1169
ss(Vimage
p1170
g1146
NVmips32r6el
p1171
tp1172
(dp1173
Vconfigs
p1174
(lp1175
Vkernelarch-mips/config.boston
p1176
aVkernelarch-mips/config.mips32r6
p1177
ass(Vdescription
p1178
g1146
NVmips64r6el
p1179
tp1180
(dp1181
Vhardware
p1182
VMIPS R6 (64 bit, little endian)
p1183
sVhardware-long
p1184
VMIPS R6 (64 bit, little endian)
p1185
ss(Vimage
p1186
g1146
NVmips64r6el
p1187
tp1188
(dp1189
Vconfigs
p1190
(lp1191
Vkernelarch-mips/config.boston
p1192
aVkernelarch-mips/config.mips64r6
p1193
ass(g207
g1146
g176
tp1194
(dp1195
g210
(lp1196
Vmips32r6el
p1197
aVmips64r6el
p1198
asg214
I01
ss(Vbase
p1199
Vpowerpc
p1200
tp1201
(dp1202
Vkernel-arch
p1203
Vpowerpc
p1204
sg174
(lp1205
g176
ass(Vbuild
p1206
g1200
tp1207
(dp1208
Vimage-file
p1209
Vvmlinux
p1210
sVvdso
p1211
I01
ss(Vimage
p1212
g1200
tp1213
(dp1214
Vconfigs
p1215
(lp1216
sVbootloaders
p1217
(lp1218
Vgrub-ieee1275
p1219
asVsuggests
p1220
(lp1221
Vmkvmlinuz
p1222
asVinstall-stem
p1223
Vvmlinux
p1224
ss(Vdescription
p1225
g1200
NVpowerpc
p1226
tp1227
(dp1228
Vhardware
p1229
Vuniprocessor 32-bit PowerPC
p1230
ss(Vdescription
p1231
g1200
NVpowerpc-smp
p1232
tp1233
(dp1234
Vhardware
p1235
Vmultiprocessor 32-bit PowerPC
p1236
ss(Vimage
p1237
g1200
NVpowerpc-smp
p1238
tp1239
(dp1240
Vconfigs
p1241
(lp1242
Vpowerpc/config.powerpc
p1243
aVpowerpc/config.powerpc-smp
p1244
ass(Vdescription
p1245
g1200
NVpowerpc64
p1246
tp1247
(dp1248
Vhardware
p1249
V64-bit PowerPC
p1250
ss(Vimage
p1251
g1200
NVpowerpc64
p1252
tp1253
(dp1254
Vconfigs
p1255
(lp1256
Vkernelarch-powerpc/config-arch-64
p1257
aVkernelarch-powerpc/config-arch-64-be
p1258
ass(g207
g1200
g176
tp1259
(dp1260
g210
(lp1261
Vpowerpc
p1262
aVpowerpc-smp
p1263
aVpowerpc64
p1264
asg214
I01
ss(Vbase
p1265
Vppc64
p1266
tp1267
(dp1268
Vkernel-arch
p1269
Vpowerpc
p1270
sg174
(lp1271
g176
ass(Vbuild
p1272
g1266
tp1273
(dp1274
Vimage-file
p1275
Vvmlinux
p1276
sVvdso
p1277
I01
ss(Vimage
p1278
g1266
tp1279
(dp1280
Vconfigs
p1281
(lp1282
sVbootloaders
p1283
(lp1284
Vgrub-ieee1275
p1285
asVsuggests
p1286
(lp1287
Vmkvmlinuz
p1288
asVinstall-stem
p1289
Vvmlinux
p1290
ss(Vdescription
p1291
g1266
NVpowerpc64
p1292
tp1293
(dp1294
Vhardware
p1295
V64-bit PowerPC
p1296
ss(Vimage
p1297
g1266
NVpowerpc64
p1298
tp1299
(dp1300
Vconfigs
p1301
(lp1302
Vkernelarch-powerpc/config-arch-64
p1303
aVkernelarch-powerpc/config-arch-64-be
p1304
ass(g207
g1266
g176
tp1305
(dp1306
g210
(lp1307
Vpowerpc64
p1308
asg214
I01
ss(Vbase
p1309
Vppc64el
p1310
tp1311
(dp1312
Vkernel-arch
p1313
Vpowerpc
p1314
sg174
(lp1315
g176
ass(Vbuild
p1316
g1310
tp1317
(dp1318
Vimage-file
p1319
Vvmlinux
p1320
sVvdso
p1321
I01
ss(Vimage
p1322
g1310
tp1323
(dp1324
Vconfigs
p1325
(lp1326
sVbootloaders
p1327
(lp1328
Vgrub-ieee1275
p1329
asVsuggests
p1330
(lp1331
Vmkvmlinuz
p1332
asVinstall-stem
p1333
Vvmlinux
p1334
ss(Vdescription
p1335
g1310
NVpowerpc64le
p1336
tp1337
(dp1338
Vhardware
p1339
VLittle-endian 64-bit PowerPC
p1340
ss(Vimage
p1341
g1310
NVpowerpc64le
p1342
tp1343
(dp1344
Vconfigs
p1345
(lp1346
Vkernelarch-powerpc/config-arch-64
p1347
aVkernelarch-powerpc/config-arch-64-le
p1348
ass(g207
g1310
g176
tp1349
(dp1350
g210
(lp1351
Vpowerpc64le
p1352
asg214
I01
ss(Vbase
p1353
Vriscv64
p1354
tp1355
(dp1356
Vkernel-arch
p1357
Vriscv
p1358
sVfeaturesets
p1359
(lp1360
Vnone
p1361
ass(Vbuild
p1362
g1354
tp1363
(dp1364
Vimage-file
p1365
Varch/riscv/boot/Image
p1366
sVvdso
p1367
I01
ss(Vimage
p1368
g1354
tp1369
(dp1370
Vinstall-stem
p1371
Vvmlinux
p1372
ss(Vdescription
p1373
g1354
NVriscv64
p1374
tp1375
(dp1376
Vhardware
p1377
V64-bit RISC-V platforms
p1378
sVhardware-long
p1379
V64-bit RISC-V platforms
p1380
ss(Vbase
p1381
g1354
Vnone
p1382
tp1383
(dp1384
Vflavours
p1385
(lp1386
Vriscv64
p1387
ass(Vbase
p1388
Vs390
p1389
tp1390
(dp1391
Vkernel-arch
p1392
Vs390
p1393
sVfeaturesets
p1394
(lp1395
ss(Vbase
p1396
Vs390x
p1397
tp1398
(dp1399
Vkernel-arch
p1400
Vs390
p1401
sg174
(lp1402
g176
ass(Vbuild
p1403
g1397
tp1404
(dp1405
Vimage-file
p1406
Varch/s390/boot/bzImage
p1407
sVvdso
p1408
I01
ss(Vimage
p1409
g1397
tp1410
(dp1411
Vbootloaders
p1412
(lp1413
Vs390-tools
p1414
asVinstall-stem
p1415
Vvmlinuz
p1416
ss(Vrelations
p1417
g1397
tp1418
(dp1419
Vheaders%gcc-9
p1420
Vlinux-compiler-gcc-9-s390
p1421
ss(Vbuild
p1422
g1397
NVs390x
p1423
tp1424
(dp1425
Vdebug-info
p1426
I01
ss(Vdescription
p1427
g1397
NVs390x
p1428
tp1429
(dp1430
Vhardware
p1431
VIBM zSeries
p1432
ss(g207
g1397
g176
tp1433
(dp1434
g210
(lp1435
Vs390x
p1436
asg214
I01
ss(Vbase
p1437
Vsh3
p1438
tp1439
(dp1440
Vkernel-arch
p1441
Vsh
p1442
sVfeaturesets
p1443
(lp1444
ss(Vbase
p1445
Vsh4
p1446
tp1447
(dp1448
Vkernel-arch
p1449
Vsh
p1450
sg174
(lp1451
g176
ass(Vbuild
p1452
g1446
tp1453
(dp1454
Vimage-file
p1455
Varch/sh/boot/zImage
p1456
ss(Vimage
p1457
g1446
tp1458
(dp1459
Vinstall-stem
p1460
Vvmlinuz
p1461
ss(Vdescription
p1462
g1446
NVsh7751r
p1463
tp1464
(dp1465
Vhardware
p1466
Vsh7751r
p1467
sVhardware-long
p1468
VRenesas SH7751R R2D plus board
p1469
ss(Vdescription
p1470
g1446
NVsh7785lcr
p1471
tp1472
(dp1473
Vhardware
p1474
Vsh7785lcr
p1475
sVhardware-long
p1476
VRenesas SH7785 reference board
p1477
ss(Vimage
p1478
g1446
NVsh7785lcr
p1479
tp1480
(dp1481
Vrecommends
p1482
(lp1483
Vu-boot-tools
p1484
asVcheck-size
p1485
I4194304
ss(g207
g1446
g176
tp1486
(dp1487
g210
(lp1488
Vsh7751r
p1489
aVsh7785lcr
p1490
asg214
I01
ss(Vbase
p1491
Vsparc
p1492
tp1493
(dp1494
Vkernel-arch
p1495
Vsparc
p1496
sVfeaturesets
p1497
(lp1498
ss(Vbase
p1499
Vsparc64
p1500
tp1501
(dp1502
Vkernel-arch
p1503
Vsparc
p1504
sg174
(lp1505
g176
ass(Vbuild
p1506
g1500
tp1507
(dp1508
Vimage-file
p1509
Vvmlinux
p1510
ss(Vimage
p1511
g1500
tp1512
(dp1513
Vconfigs
p1514
(lp1515
sVbootloaders
p1516
(lp1517
Vgrub-ieee1275
p1518
asVsuggests
p1519
(lp1520
Vfdutils
p1521
asVinstall-stem
p1522
Vvmlinux
p1523
ss(Vdescription
p1524
g1500
NVsparc64
p1525
tp1526
(dp1527
Vhardware
p1528
Vuniprocessor 64-bit UltraSPARC
p1529
ss(Vimage
p1530
g1500
NVsparc64
p1531
tp1532
(dp1533
Vconfigs
p1534
(lp1535
Vkernelarch-sparc/config-up
p1536
ass(Vdescription
p1537
g1500
NVsparc64-smp
p1538
tp1539
(dp1540
Vhardware
p1541
Vmultiprocessor 64-bit UltraSPARC
p1542
ss(Vimage
p1543
g1500
NVsparc64-smp
p1544
tp1545
(dp1546
Vconfigs
p1547
(lp1548
Vkernelarch-sparc/config-smp
p1549
ass(g207
g1500
g176
tp1550
(dp1551
g210
(lp1552
Vsparc64
p1553
aVsparc64-smp
p1554
asg214
I01
ss(Vbase
p1555
Vx32
p1556
tp1557
(dp1558
Vkernel-arch
p1559
Vx86
p1560
sVfeaturesets
p1561
(lp1562
ss(Vabi
p1563
NVrt
p1564
tp1565
(dp1566
Vignore-changes
p1567
(lp1568
V*
p1569
ass(Vdescription
p1570
Ng1564
tp1571
(dp1572
Vpart-long-rt
p1573
VThis kernel includes the PREEMPT_RT realtime patch set.
p1574
sVpart-short-rt
p1575
VPREEMPT_RT
p1576
sVparts
p1577
(lp1578
Vrt
p1579
ass(Vversion
p1580
tp1581
(dp1582
Vsource
p1583
V5.4.19-1kali1
p1584
sVupstream
p1585
V5.4
p1586
sVabiname_base
p1587
V5.4.0
p1588
sVabiname
p1589
V5.4.0-kali4
p1590
ss.