ccopy_reg
_reconstructor
p0
(cdebian_linux.config
ConfigCore
p1
c__builtin__
dict
p2
(dp3
(Vbase
p4
Vpowerpcspe
p5
Vnone
p6
tp7
(dp8
Vflavours
p9
(lp10
Vpowerpcspe
p11
asVimplicit-flavour
p12
I01
ss(Vimage
p13
Vmipsel
p14
NVloongson-3
p15
tp16
(dp17
Vconfigs
p18
(lp19
Vkernelarch-mips/config.loongson-3
p20
ass(Vdescription
p21
Vi386
p22
tp23
(dp24
Vpart-long-pae
p25
VThis kernel requires PAE (Physical Address Extension).\u000aThis feature is supported by the Intel Pentium Pro/II/III/4/4M/D, Xeon,\u000aCore and Atom; AMD Geode NX, Athlon (K7), Duron, Opteron, Sempron,\u000aTurion or Phenom; Transmeta Efficeon; VIA C7; and some other processors.
p26
ss(Vbase
p27
Vm68k
p28
tp29
(dp30
Vfeaturesets
p31
(lp32
g6
asVcompiler
p33
Vgcc-4.8
p34
sVkernel-arch
p35
Vm68k
p36
sVcflags
p37
V-ffreestanding
p38
ss(Vdescription
p39
Vmips
p40
NVocteon
p41
tp42
(dp43
Vhardware
p44
VOcteon
p45
sVhardware-long
p46
VCavium Networks Octeon
p47
ss(Vdescription
p48
Valpha
p49
NValpha-smp
p50
tp51
(dp52
Vhardware
p53
VAlpha SMP
p54
sVhardware-long
p55
VDEC Alpha SMP systems with extended kernel start address (Wildfire, Titan, Marvel)
p56
ss(Vimage
p57
Vpowerpc
p58
NVpowerpc64
p59
tp60
(dp61
Vconfigs
p62
(lp63
Vkernelarch-powerpc/config-arch-64
p64
aVkernelarch-powerpc/config-arch-64-be
p65
ass(Vbase
p66
Vx32
p67
tp68
(dp69
Vfeaturesets
p70
(lp71
sVkernel-arch
p72
Vx86
p73
ss(Vimage
p74
Vamd64
p75
NVamd64
p76
tp77
(dp78
Vconfigs
p79
(lp80
Vkernelarch-x86/config-arch-64
p81
ass(Vbase
p82
Vor1k
p83
tp84
(dp85
Vfeaturesets
p86
(lp87
sVkernel-arch
p88
Vopenrisc
p89
ss(Vdescription
p90
g28
NVm68k
p91
tp92
(dp93
Vhardware
p94
VMotorola MC68020+ family
p95
ss(Vimage
p96
g58
NVpowerpc-smp
p97
tp98
(dp99
Vconfigs
p100
(lp101
Vpowerpc/config.powerpc
p102
aVpowerpc/config.powerpc-smp
p103
ass(Vimage
p104
g22
NV686
p105
tp106
(dp107
Vconfigs
p108
(lp109
Vkernelarch-x86/config-arch-32
p110
aVi386/config.686
p111
asVrecommends
p112
Vlibc6-i686
p113
ss(g4
Vmips64
p114
g6
tp115
(dp116
g9
(lp117
V5kc-malta
p118
aVocteon
p119
asg12
I01
ss(Vimage
p120
Vppc64
p121
NVpowerpc64
p122
tp123
(dp124
Vconfigs
p125
(lp126
Vkernelarch-powerpc/config-arch-64
p127
aVkernelarch-powerpc/config-arch-64-be
p128
ass(Vbuild
p129
g5
tp130
(dp131
Vimage-file
p132
Vvmlinux
p133
sVvdso
p134
I01
ss(Vdescription
p135
Varmel
p136
NVversatile
p137
tp138
(dp139
Vhardware
p140
VVersatile
p141
sVhardware-long
p142
VVersatile systems (PB, AB, Qemu)
p143
ss(Vbase
p144
Vs390x
p145
tp146
(dp147
g31
(lp148
g6
asVkernel-arch
p149
Vs390
p150
ss(Vimage
p151
g114
tp152
(dp153
Vinstall-stem
p154
Vvmlinux
p155
ss(Vbuild
p156
g14
tp157
(dp158
Vimage-file
p159
Vvmlinux
p160
ss(g4
g40
g6
tp161
(dp162
g9
(lp163
V4kc-malta
p164
aV5kc-malta
p165
aVocteon
p166
asg12
I01
ss(Vrelations
p167
g136
tp168
(dp169
Vheaders%gcc-4.9
p170
Vlinux-compiler-gcc-4.9-arm
p171
ss(Vimage
p172
g49
tp173
(dp174
Vinstall-stem
p175
Vvmlinuz
p176
sVsuggests
p177
Vaboot, fdutils
p178
ss(Vbuild
p179
g145
NVs390x
p180
tp181
(dp182
Vdebug-info
p183
I01
ss(Vbuild
p184
g22
tp185
(dp186
Vimage-file
p187
Varch/x86/boot/bzImage
p188
sVvdso
p189
I01
ss(Vimage
p190
g58
tp191
(dp192
Vinstall-stem
p193
Vvmlinux
p194
sVsuggests
p195
Vmkvmlinuz
p196
sVconfigs
p197
(lp198
ss(Vrelations
p199
g22
tp200
(dp201
Vheaders%gcc-5
p202
Vlinux-compiler-gcc-5-x86
p203
ss(Vdescription
p204
g14
NVloongson-3
p205
tp206
(dp207
Vhardware
p208
VLoongson 3A/3B
p209
sVhardware-long
p210
VLoongson 3A or 3B based systems (e.g. from Loongson or Lemote)
p211
ss(g4
Varmhf
p212
g6
tp213
(dp214
g9
(lp215
Varmmp
p216
aVarmmp-lpae
p217
asg12
I01
ss(Vrelations
p218
Vhppa
p219
tp220
(dp221
Vgcc-4.9
p222
Vgcc-4.9 <!stage1>, binutils-hppa64 <!stage1>, gcc-4.9-hppa64 <!stage1>
p223
ss(Vbuild
p224
g145
tp225
(dp226
Vimage-file
p227
Varch/s390/boot/image
p228
sVvdso
p229
I01
ss(g4
g219
g6
tp230
(dp231
g9
(lp232
Vparisc
p233
aVparisc64-smp
p234
asg12
I01
ss(Vbuild
p235
g28
tp236
(dp237
Vimage-file
p238
Vvmlinux.gz
p239
ss(Vdescription
p240
Vmips64el
p241
NVocteon
p242
tp243
(dp244
Vhardware
p245
VOcteon
p246
sVhardware-long
p247
VCavium Networks Octeon
p248
ss(Vdescription
p249
g22
NV686
p250
tp251
(dp252
Vhardware
p253
Volder PCs
p254
sVhardware-long
p255
VPCs with one or more processors not supporting PAE
p256
ss(Vdescription
p257
g14
NV4kc-malta
p258
tp259
(dp260
Vhardware
p261
VMIPS Malta
p262
sVhardware-long
p263
VMIPS Malta boards
p264
ss(Vbase
p265
Vs390
p266
tp267
(dp268
Vfeaturesets
p269
(lp270
sVkernel-arch
p271
Vs390
p272
ss(Vdescription
p273
g5
tp274
(dp275
Vhardware
p276
V32-bit PowerPC with SPE (instead of AltiVec) with SMP support
p277
ss(Vimage
p278
Vsparc64
p279
tp280
(dp281
Vinstall-stem
p282
Vvmlinuz
p283
sVsuggests
p284
Vsilo, fdutils
p285
sVconfigs
p286
(lp287
ss(Vxen
p288
g75
Vnone
p289
Vamd64
p290
tp291
(dp292
Vflavours
p293
(lp294
Vamd64
p295
ass(Vbase
p296
g75
Vrt
p297
tp298
(dp299
Vflavours
p300
(lp301
Vamd64
p302
ass(Vbase
p303
g14
tp304
(dp305
g31
(lp306
g6
asVkernel-arch
p307
Vmips
p308
ss(Vbase
p309
g219
tp310
(dp311
g31
(lp312
g6
asVkernel-arch
p313
Vparisc
p314
ss(Vbuild
p315
g241
tp316
(dp317
Vimage-file
p318
Vvmlinux
p319
ss(g4
Vppc64el
p320
g6
tp321
(dp322
g9
(lp323
Vpowerpc64le
p324
asg12
I01
ss(Vbase
p325
g121
tp326
(dp327
g31
(lp328
g6
asVkernel-arch
p329
Vpowerpc
p330
ss(Vbase
p331
Varm64
p332
Vnone
p333
tp334
(dp335
Vflavours
p336
(lp337
Varm64
p338
ass(g4
g145
g6
tp339
(dp340
g9
(lp341
Vs390x
p342
asg12
I01
ss(Vimage
p343
Vsh4
p344
NVsh7785lcr
p345
tp346
(dp347
Vcheck-size
p348
L4194304L
sVrecommends
p349
Vu-boot-tools
p350
ss(g4
g49
g6
tp351
(dp352
g9
(lp353
Valpha-generic
p354
aValpha-smp
p355
asg12
I01
ss(Vdescription
p356
g136
NVkirkwood
p357
tp358
(dp359
Vhardware
p360
VMarvell Kirkwood
p361
sVhardware-long
p362
VMarvell Kirkwood based systems (SheevaPlug, QNAP TS-119/TS-219, etc)
p363
ss(Vimage
p364
g212
tp365
(dp366
Vinstall-stem
p367
Vvmlinuz
p368
sVsuggests
p369
Vfdutils
p370
sVconfigs
p371
(lp372
Vkernelarch-arm/config
p373
ass(Vdescription
p374
g212
NVarmmp-lpae
p375
tp376
(dp377
Vhardware
p378
VARMv7 multiplatform compatible SoCs supporting LPAE
p379
sVhardware-long
p380
VARMv7 multiplatform kernel supporting LPAE. See\u000ahttps://wiki.debian.org/DebianKernel/ARMMP for details of supported\u000aplatforms.
p381
ss(Vimage
p382
g40
NV4kc-malta
p383
tp384
(dp385
Vconfigs
p386
(lp387
Vkernelarch-mips/config.4kc-malta
p388
ass(g4
g121
g6
tp389
(dp390
g9
(lp391
Vpowerpc64
p392
asg12
I01
ss(Vimage
p393
g219
tp394
(dp395
Vinstall-stem
p396
Vvmlinux
p397
sVsuggests
p398
Vpalo
p399
ss(Vbase
p400
g219
NVparisc64-smp
p401
tp402
(dp403
Voverride-host-type
p404
Vhppa64-linux-gnu
p405
sVcflags
p406
V-fno-cse-follow-jumps
p407
ss(Vbase
p408
g58
tp409
(dp410
g31
(lp411
g6
asVkernel-arch
p412
Vpowerpc
p413
ss(Vbuild
p414
g114
tp415
(dp416
Vimage-file
p417
Vvmlinux
p418
ss(Vimage
p419
g14
tp420
(dp421
Vinstall-stem
p422
Vvmlinux
p423
ss(Vimage
p424
g14
NV4kc-malta
p425
tp426
(dp427
Vconfigs
p428
(lp429
Vkernelarch-mips/config.4kc-malta
p430
ass(Vabi
p431
NVrt
p432
tp433
(dp434
Vignore-changes
p435
(lp436
V*
p437
ass(Vdescription
p438
g344
NVsh7751r
p439
tp440
(dp441
Vhardware
p442
Vsh7751r
p443
sVhardware-long
p444
VRenesas SH7751R R2D plus board
p445
ss(Vimage
p446
g320
tp447
(dp448
Vinstall-stem
p449
Vvmlinux
p450
sVsuggests
p451
Vmkvmlinuz
p452
sVconfigs
p453
(lp454
ss(Vimage
p455
g344
tp456
(dp457
Vinstall-stem
p458
Vvmlinuz
p459
sVsuggests
p460
Vfdutils
p461
ss(Vbase
p462
g320
tp463
(dp464
g31
(lp465
g6
asVkernel-arch
p466
Vpowerpc
p467
ss(Vdescription
p468
g279
NVsparc64-smp
p469
tp470
(dp471
Vhardware
p472
Vmultiprocessor 64-bit UltraSPARC
p473
ss(Vimage
p474
g75
tp475
(dp476
Vinstall-stem
p477
Vvmlinuz
p478
sVbootloaders
p479
(lp480
Vgrub-pc
p481
aVgrub-efi
p482
aVextlinux
p483
asVbreaks
p484
Vxserver-xorg-input-vmmouse (<< 1:13.0.99)
p485
sVconfigs
p486
(lp487
ss(Vbuild
p488
g219
tp489
(dp490
Vimage-file
p491
Vvmlinux
p492
ss(Vdescription
p493
g114
NVocteon
p494
tp495
(dp496
Vhardware
p497
VOcteon
p498
sVhardware-long
p499
VCavium Networks Octeon
p500
ss(Vdescription
p501
g14
NVloongson-2f
p502
tp503
(dp504
Vhardware
p505
VLoongson 2F
p506
sVhardware-long
p507
VLemote Loongson 2F systems
p508
ss(Vimage
p509
g241
NVloongson-3
p510
tp511
(dp512
Vconfigs
p513
(lp514
Vkernelarch-mips/config.loongson-3
p515
ass(Vimage
p516
g22
tp517
(dp518
Vinstall-stem
p519
Vvmlinuz
p520
sVbootloaders
p521
(lp522
Vgrub-pc
p523
aVextlinux
p524
asVbreaks
p525
Vxserver-xorg-input-vmmouse (<< 1:13.0.99)
p526
sVconfigs
p527
(lp528
ss(Vdescription
p529
g22
Vnone
p530
V686-pae
p531
tp532
(dp533
Vparts
p534
(lp535
Vxen
p536
ass(Vbuild
p537
g121
tp538
(dp539
Vimage-file
p540
Vvmlinux
p541
sVvdso
p542
I01
ss(Vdescription
p543
g279
NVsparc64
p544
tp545
(dp546
Vhardware
p547
Vuniprocessor 64-bit UltraSPARC
p548
ss(Vdescription
p549
g58
NVpowerpc
p550
tp551
(dp552
Vhardware
p553
Vuniprocessor 32-bit PowerPC
p554
ss(Vbase
p555
g114
tp556
(dp557
g31
(lp558
g6
asVkernel-arch
p559
Vmips
p560
ss(g4
g58
g6
tp561
(dp562
g9
(lp563
Vpowerpc
p564
aVpowerpc-smp
p565
aVpowerpc64
p566
asg12
I01
ss(Vimage
p567
g320
NVpowerpc64le
p568
tp569
(dp570
Vconfigs
p571
(lp572
Vkernelarch-powerpc/config-arch-64
p573
aVkernelarch-powerpc/config-arch-64-le
p574
ass(Vdescription
p575
g212
NVarmmp
p576
tp577
(dp578
Vhardware
p579
VARMv7 multiplatform compatible SoCs
p580
sVhardware-long
p581
VARMv7 multiplatform kernel. See\u000ahttps://wiki.debian.org/DebianKernel/ARMMP for details of supported\u000aplatforms
p582
ss(Vdescription
p583
g14
NVloongson-2e
p584
tp585
(dp586
Vhardware
p587
VLoongson 2E
p588
sVhardware-long
p589
VLemote Loongson 2E systems
p590
ss(g4
g28
g6
tp591
(dp592
g9
(lp593
Vm68k
p594
asg12
I01
ss(Vbase
p595
NVrt
p596
tp597
(dp598
Venabled
p599
I00
ss(g4
g279
g6
tp600
(dp601
g9
(lp602
Vsparc64
p603
aVsparc64-smp
p604
asg12
I01
ss(Vdescription
p605
g58
NVpowerpc64
p606
tp607
(dp608
Vhardware
p609
V64-bit PowerPC
p610
ss(Vdescription
p611
g241
NV5kc-malta
p612
tp613
(dp614
Vhardware
p615
VMIPS Malta
p616
sVhardware-long
p617
VMIPS Malta boards
p618
ss(Vversion
p619
tp620
(dp621
Vsource
p622
V4.3.3-7kali2
p623
sVabiname
p624
V4.3.0-kali1
p625
sVupstream
p626
V4.3
p627
sVabiname_base
p628
V4.3.0
p629
ss(Vimage
p630
g40
tp631
(dp632
Vinstall-stem
p633
Vvmlinux
p634
ss(Vbase
p635
Vsparc
p636
tp637
(dp638
Vfeaturesets
p639
(lp640
sVkernel-arch
p641
Vsparc
p642
ss(Vdescription
p643
g14
NV5kc-malta
p644
tp645
(dp646
Vhardware
p647
VMIPS Malta (64-bit)
p648
sVhardware-long
p649
VMIPS Malta boards (64-bit)
p650
ss(g4
g241
g6
tp651
(dp652
g9
(lp653
V5kc-malta
p654
aVloongson-3
p655
aVocteon
p656
asg12
I01
ss(Vdescription
p657
g49
NValpha-generic
p658
tp659
(dp660
Vhardware
p661
VAlpha
p662
sVhardware-long
p663
VDEC Alpha systems with extended kernel start address (Wildfire, Titan, Marvel)
p664
ss(g4
g136
g6
tp665
(dp666
g9
(lp667
Vkirkwood
p668
aVorion5x
p669
aVversatile
p670
asg12
I01
ss(Vbase
p671
tp672
(dp673
Vfeaturesets
p674
(lp675
Vnone
p676
aVrt
p677
asVcompiler
p678
Vgcc-4.9
p679
sVarches
p680
(lp681
Valpha
p682
aVamd64
p683
aVarm64
p684
aVarmel
p685
aVarmhf
p686
aVhppa
p687
aVi386
p688
aVm68k
p689
aVmips
p690
aVmipsel
p691
aVmips64
p692
aVmips64el
p693
aVor1k
p694
aVpowerpc
p695
aVpowerpcspe
p696
aVppc64
p697
aVppc64el
p698
aVs390
p699
aVs390x
p700
aVsh4
p701
aVsparc
p702
aVsparc64
p703
aVx32
p704
ass(Vimage
p705
g136
NVorion5x
p706
tp707
(dp708
Vcheck-size
p709
L2097080L
sVconfigs
p710
(lp711
Varmel/config-reduced
p712
aVarmel/config.orion5x
p713
asVrecommends
p714
Vu-boot-tools
p715
sVcheck-size-with-dtb
p716
I01
ss(Vdescription
p717
Ng432
tp718
(dp719
Vpart-long-rt
p720
VThis kernel includes the PREEMPT_RT realtime patch set.
p721
sVparts
p722
(lp723
Vrt
p724
asVpart-short-rt
p725
VPREEMPT_RT
p726
ss(Vbase
p727
g279
tp728
(dp729
g31
(lp730
g6
asVkernel-arch
p731
Vsparc
p732
ss(g4
g344
g6
tp733
(dp734
g9
(lp735
Vsh7751r
p736
aVsh7785lcr
p737
asg12
I01
ss(Vdescription
p738
g332
NVarm64
p739
tp740
(dp741
Vhardware
p742
V64-bit ARMv8 machines
p743
ss(Vdescription
p744
g121
NVpowerpc64
p745
tp746
(dp747
Vhardware
p748
V64-bit PowerPC
p749
ss(Vdescription
p750
tp751
(dp752
Vpart-long-up
p753
VThis kernel is not suitable for SMP (multi-processor,\u000amulti-core or hyper-threaded) systems.
p754
sVpart-long-xen
p755
VThis kernel also runs on a Xen hypervisor.\u000aIt supports both privileged (dom0) and unprivileged (domU) operation.
p756
ss(Vimage
p757
g5
tp758
(dp759
Vinstall-stem
p760
Vvmlinux
p761
sVsuggests
p762
Vmkvmlinuz
p763
ss(Vbase
p764
g136
tp765
(dp766
g31
(lp767
g6
asVkernel-arch
p768
Varm
p769
ss(Vbuild
p770
g58
tp771
(dp772
Vimage-file
p773
Vvmlinux
p774
sVvdso
p775
I01
ss(Vdescription
p776
g40
NV4kc-malta
p777
tp778
(dp779
Vhardware
p780
VMIPS Malta
p781
sVhardware-long
p782
VMIPS Malta boards
p783
ss(Vbuild
p784
g22
NV686-pae
p785
tp786
(dp787
Vdebug-info
p788
I01
ss(Vdescription
p789
g145
NVs390x
p790
tp791
(dp792
Vhardware
p793
VIBM zSeries
p794
ss(Vdescription
p795
g75
NVamd64
p796
tp797
(dp798
Vhardware
p799
V64-bit PCs
p800
sVhardware-long
p801
VPCs with AMD64, Intel 64 or VIA Nano processors
p802
ss(Vbase
p803
g40
tp804
(dp805
g31
(lp806
g6
asVkernel-arch
p807
Vmips
p808
ss(Vbuild
p809
g136
tp810
(dp811
Vimage-file
p812
Varch/arm/boot/zImage
p813
ss(Vimage
p814
g241
NV5kc-malta
p815
tp816
(dp817
Vconfigs
p818
(lp819
Vkernelarch-mips/config.5kc-malta
p820
ass(Vdescription
p821
g219
NVparisc64-smp
p822
tp823
(dp824
Vhardware
p825
Vmultiprocessor 64-bit PA-RISC
p826
sVhardware-long
p827
VHP PA-RISC 64-bit SMP systems with support for more than 4 GB RAM
p828
ss(Vbase
p829
g49
tp830
(dp831
g31
(lp832
g6
asVkernel-arch
p833
Valpha
p834
ss(Vimage
p835
g279
NVsparc64-smp
p836
tp837
(dp838
Vconfigs
p839
(lp840
Vkernelarch-sparc/config-smp
p841
ass(Vrelations
p842
g145
tp843
(dp844
Vheaders%gcc-4.9
p845
Vlinux-compiler-gcc-4.9-s390
p846
ss(Vdescription
p847
g219
NVparisc
p848
tp849
(dp850
Vhardware
p851
V32-bit PA-RISC
p852
sVhardware-long
p853
VHP PA-RISC 32-bit systems with max 4 GB RAM
p854
ss(Vimage
p855
g241
NVocteon
p856
tp857
(dp858
Vconfigs
p859
(lp860
Vkernelarch-mips/config.octeon
p861
ass(Vdescription
p862
g58
NVpowerpc-smp
p863
tp864
(dp865
Vhardware
p866
Vmultiprocessor 32-bit PowerPC
p867
ss(Vdescription
p868
g344
NVsh7785lcr
p869
tp870
(dp871
Vhardware
p872
Vsh7785lcr
p873
sVhardware-long
p874
VRenesas SH7785 reference board
p875
ss(Vimage
p876
g145
tp877
(dp878
Vinstall-stem
p879
Vvmlinuz
p880
sVbootloaders
p881
(lp882
Vs390-tools
p883
asVconfigs
p884
(lp885
ss(Vdescription
p886
g40
NV5kc-malta
p887
tp888
(dp889
Vhardware
p890
VMIPS Malta (64-bit)
p891
sVhardware-long
p892
VMIPS Malta boards (64-bit)
p893
ss(Vrelations
p894
g75
tp895
(dp896
Vheaders%gcc-5
p897
Vlinux-compiler-gcc-5-x86
p898
ss(Vbuild
p899
g332
tp900
(dp901
Vimage-file
p902
Varch/arm64/boot/Image
p903
sVdebug-info
p904
I01
sVvdso
p905
I01
ss(Vimage
p906
g332
tp907
(dp908
Vinstall-stem
p909
Vvmlinuz
p910
ss(Vbase
p911
g22
tp912
(dp913
Vfeaturesets
p914
(lp915
Vnone
p916
aVrt
p917
asVcompiler
p918
Vgcc-5
p919
sVkernel-arch
p920
Vx86
p921
ss(Vimage
p922
g14
NVloongson-2f
p923
tp924
(dp925
Vconfigs
p926
(lp927
Vkernelarch-mips/config.loongson-2f
p928
asVrecommends
p929
Vlibc6-loongson2f
p930
ss(Vbase
p931
g22
g530
tp932
(dp933
Vflavours
p934
(lp935
V686
p936
aV686-pae
p937
ass(Vbase
p938
g75
tp939
(dp940
Vfeaturesets
p941
(lp942
Vnone
p943
aVrt
p944
asVcompiler
p945
Vgcc-5
p946
sVkernel-arch
p947
Vx86
p948
ss(Vimage
p949
g136
NVkirkwood
p950
tp951
(dp952
Vcheck-size
p953
L2097080L
sVrecommends
p954
Vu-boot-tools
p955
sVconfigs
p956
(lp957
Varmel/config-reduced
p958
aVarmel/config.kirkwood
p959
asVbreaks
p960
Vflash-kernel (<< 3.37~)
p961
sVcheck-size-with-dtb
p962
I01
ss(Vbase
p963
g344
tp964
(dp965
g31
(lp966
g6
asVkernel-arch
p967
Vsh
p968
ss(Vimage
p969
g212
NVarmmp-lpae
p970
tp971
(dp972
Vconfigs
p973
(lp974
Varmhf/config.armmp
p975
aVarmhf/config.lpae
p976
ass(Vbuild
p977
g40
tp978
(dp979
Vimage-file
p980
Vvmlinux
p981
ss(Vbase
p982
g75
g289
tp983
(dp984
Vflavours
p985
(lp986
Vamd64
p987
ass(Vdescription
p988
g241
NVloongson-3
p989
tp990
(dp991
Vhardware
p992
VLoongson 3A/3B
p993
sVhardware-long
p994
VLoongson 3A or 3B based systems (e.g. from Loongson or Lemote)
p995
ss(Vimage
p996
g145
NVs390x
p997
tp998
(dp999
Vconfigs
p1000
(lp1001
Vkernelarch-s390/config-arch-64
p1002
ass(Vbuild
p1003
g212
tp1004
(dp1005
Vimage-file
p1006
Varch/arm/boot/zImage
p1007
sVvdso
p1008
I01
ss(Vbase
p1009
g241
tp1010
(dp1011
g31
(lp1012
g6
asVkernel-arch
p1013
Vmips
p1014
ss(Vimage
p1015
g114
NVocteon
p1016
tp1017
(dp1018
Vconfigs
p1019
(lp1020
Vkernelarch-mips/config.octeon
p1021
ass(Vbuild
p1022
g49
tp1023
(dp1024
Vimage-file
p1025
Varch/alpha/boot/vmlinux.gz
p1026
ss(Vimage
p1027
g332
NVarm64
p1028
tp1029
(dp1030
s(Vabi
p1031
tp1032
(dp1033
Vabiname
p1034
Vkali1
p1035
sVignore-changes
p1036
(lp1037
Vmodule:net/dccp/dccp
p1038
aVfl6_*
p1039
aVinet_sk_diag_fill
p1040
aVip6_append_data
p1041
aVip6_datagram_send_ctl
p1042
aVip6_xmit
p1043
aVipv6_dup_options
p1044
aVipv6_fixup_options
p1045
aVipv6_push_nfrag_opts
p1046
aVtcp_cong_avoid_ai
p1047
aVtcp_slow_start
p1048
aVpin_is_valid
p1049
aVpinctrl_*
p1050
ass(Vbase
p1051
g22
Vrt
p1052
tp1053
(dp1054
Vflavours
p1055
(lp1056
V686-pae
p1057
ass(Vbuild
p1058
g320
tp1059
(dp1060
Vimage-file
p1061
Vvmlinux
p1062
sVvdso
p1063
I01
ss(Vimage
p1064
g22
NV686-pae
p1065
tp1066
(dp1067
Vconfigs
p1068
(lp1069
Vkernelarch-x86/config-arch-32
p1070
aVi386/config.686-pae
p1071
asVrecommends
p1072
Vlibc6-i686
p1073
ss(Vbuild
p1074
g344
tp1075
(dp1076
Vimage-file
p1077
Varch/sh/boot/zImage
p1078
ss(Vdescription
p1079
g320
NVpowerpc64le
p1080
tp1081
(dp1082
Vhardware
p1083
VLittle-endian 64-bit PowerPC
p1084
ss(Vbase
p1085
g212
tp1086
(dp1087
g31
(lp1088
g6
asVkernel-arch
p1089
Varm
p1090
ss(Vdescription
p1091
g75
g289
Vamd64
p1092
tp1093
(dp1094
Vparts
p1095
(lp1096
Vxen
p1097
ass(Vrelations
p1098
tp1099
(dp1100
Vgcc-4.8
p1101
Vgcc-4.8 <!stage1>
p1102
sVgcc-5
p1103
Vgcc-5 <!stage1>
p1104
sVinitramfs-fallback
p1105
Vlinux-initramfs-tool
p1106
sVgcc-4.9
p1107
Vgcc-4.9 <!stage1>
p1108
sVinitramfs-tools
p1109
Vinitramfs-tools (>= 0.110~)
p1110
ss(Vimage
p1111
g14
NVloongson-2e
p1112
tp1113
(dp1114
Vconfigs
p1115
(lp1116
Vkernelarch-mips/config.loongson-2e
p1117
ass(Vimage
p1118
g121
tp1119
(dp1120
Vinstall-stem
p1121
Vvmlinux
p1122
sVsuggests
p1123
Vmkvmlinuz
p1124
sVconfigs
p1125
(lp1126
ss(Vbase
p1127
g332
tp1128
(dp1129
Vfeaturesets
p1130
(lp1131
Vnone
p1132
asVkernel-arch
p1133
Varm64
p1134
ss(Vimage
p1135
g114
NV5kc-malta
p1136
tp1137
(dp1138
Vconfigs
p1139
(lp1140
Vkernelarch-mips/config.5kc-malta
p1141
ass(Vimage
p1142
g279
NVsparc64
p1143
tp1144
(dp1145
Vconfigs
p1146
(lp1147
Vkernelarch-sparc/config-up
p1148
ass(Vimage
p1149
g40
NVocteon
p1150
tp1151
(dp1152
Vconfigs
p1153
(lp1154
Vkernelarch-mips/config.octeon
p1155
ass(Vdescription
p1156
g136
NVorion5x
p1157
tp1158
(dp1159
Vhardware
p1160
VMarvell Orion
p1161
sVhardware-long
p1162
VMarvell Orion 5181, 5182 and 5281 based systems (QNAP TS-109/TS-209, etc)
p1163
ss(Vbuild
p1164
g279
tp1165
(dp1166
Vimage-file
p1167
Varch/sparc/boot/zImage
p1168
ss(Vimage
p1169
g136
tp1170
(dp1171
Vinstall-stem
p1172
Vvmlinuz
p1173
sVsuggests
p1174
Vfdutils
p1175
sVconfigs
p1176
(lp1177
Vkernelarch-arm/config
p1178
aVarmel/config
p1179
ass(Vbuild
p1180
g75
tp1181
(dp1182
Vimage-file
p1183
Varch/x86/boot/bzImage
p1184
sVdebug-info
p1185
I01
sVvdso
p1186
I01
ss(Vbase
p1187
g5
tp1188
(dp1189
g31
(lp1190
g6
asVkernel-arch
p1191
Vpowerpc
p1192
ss(Vimage
p1193
tp1194
(dp1195
Vtype
p1196
Vplain
p1197
sVinitramfs-generators
p1198
(lp1199
Vinitramfs-tools
p1200
aVinitramfs-fallback
p1201
ass(Vimage
p1202
g14
NV5kc-malta
p1203
tp1204
(dp1205
Vconfigs
p1206
(lp1207
Vkernelarch-mips/config.5kc-malta
p1208
ass(g4
g14
g6
tp1209
(dp1210
g9
(lp1211
V4kc-malta
p1212
aV5kc-malta
p1213
aVloongson-2e
p1214
aVloongson-2f
p1215
aVloongson-3
p1216
asg12
I01
ss(Vimage
p1217
g241
tp1218
(dp1219
Vinstall-stem
p1220
Vvmlinux
p1221
ss(Vdescription
p1222
g22
NV686-pae
p1223
tp1224
(dp1225
Vhardware
p1226
Vmodern PCs
p1227
sVparts
p1228
(lp1229
Vpae
p1230
asVhardware-long
p1231
VPCs with one or more processors supporting PAE
p1232
ss(Vimage
p1233
g40
NV5kc-malta
p1234
tp1235
(dp1236
Vconfigs
p1237
(lp1238
Vkernelarch-mips/config.5kc-malta
p1239
ass(Vdescription
p1240
g114
NV5kc-malta
p1241
tp1242
(dp1243
Vhardware
p1244
VMIPS Malta
p1245
sVhardware-long
p1246
VMIPS Malta boards
p1247
ss(Vrelations
p1248
g212
tp1249
(dp1250
Vheaders%gcc-4.9
p1251
Vlinux-compiler-gcc-4.9-arm
p1252
ss(Vimage
p1253
g28
tp1254
(dp1255
Vinstall-stem
p1256
Vvmlinuz
p1257
sVsuggests
p1258
Vvmelilo, fdutils
p1259
sstp1260
Rp1261
.