ccopy_reg
_reconstructor
p0
(cdebian_linux.config
ConfigCore
p1
c__builtin__
dict
p2
(dp3
(Vdescription
p4
Vmips64el
p5
NV5kc-malta
p6
tp7
(dp8
Vhardware-long
p9
VMIPS Malta boards
p10
sVhardware
p11
VMIPS Malta
p12
ss(Vbase
p13
Vppc64el
p14
Vnone
p15
tp16
(dp17
Vimplicit-flavour
p18
I01
sVflavours
p19
(lp20
Vpowerpc64le
p21
ass(Vdescription
p22
Vmips
p23
NV5kc-malta
p24
tp25
(dp26
Vhardware-long
p27
VMIPS Malta boards (64-bit)
p28
sVhardware
p29
VMIPS Malta (64-bit)
p30
ss(Vdescription
p31
Varm64
p32
NVarm64
p33
tp34
(dp35
Vhardware
p36
V64-bit ARMv8 machines
p37
ss(Vdescription
p38
g23
NV4kc-malta
p39
tp40
(dp41
Vhardware-long
p42
VMIPS Malta boards
p43
sVhardware
p44
VMIPS Malta
p45
ss(Vversion
p46
tp47
(dp48
Vupstream
p49
V4.5
p50
sVabiname_base
p51
V4.5.0
p52
sVsource
p53
V4.5.2-1kali1
p54
sVabiname
p55
V4.5.0-kali1
p56
ss(Vbase
p57
Vamd64
p58
Vnone
p59
tp60
(dp61
Vflavours
p62
(lp63
Vamd64
p64
ass(Vbuild
p65
Vs390x
p66
NVs390x
p67
tp68
(dp69
Vdebug-info
p70
I01
ss(Vrelations
p71
Varmhf
p72
tp73
(dp74
Vheaders%gcc-5
p75
Vlinux-compiler-gcc-5-arm
p76
ss(Vdescription
p77
Vhppa
p78
NVparisc
p79
tp80
(dp81
Vhardware-long
p82
VHP PA-RISC 32-bit systems with max 4 GB RAM
p83
sVhardware
p84
V32-bit PA-RISC
p85
ss(Vbuild
p86
tp87
(dp88
Vsigned-modules
p89
I01
ss(Vabi
p90
NVrt
p91
tp92
(dp93
Vignore-changes
p94
(lp95
V*
p96
ass(g13
g23
g15
tp97
(dp98
g18
I01
sg19
(lp99
V4kc-malta
p100
aV5kc-malta
p101
aVocteon
p102
ass(Vdescription
p103
Vppc64
p104
NVpowerpc64
p105
tp106
(dp107
Vhardware
p108
V64-bit PowerPC
p109
ss(Vbase
p110
g14
tp111
(dp112
Vkernel-arch
p113
Vpowerpc
p114
sVfeaturesets
p115
(lp116
g15
ass(Vbase
p117
NVrt
p118
tp119
(dp120
Venabled
p121
I00
ss(Vrelations
p122
g58
tp123
(dp124
Vheaders%gcc-5
p125
Vlinux-compiler-gcc-5-x86
p126
ss(Vbuild
p127
g5
tp128
(dp129
Vimage-file
p130
Vvmlinux
p131
sVsigned-modules
p132
I00
ss(Vimage
p133
Vmipsel
p134
NV5kc-malta
p135
tp136
(dp137
Vconfigs
p138
(lp139
Vkernelarch-mips/config.5kc-malta
p140
ass(g13
Vm68k
p141
g15
tp142
(dp143
g18
I01
sg19
(lp144
Vm68k
p145
ass(Vimage
p146
g66
tp147
(dp148
Vconfigs
p149
(lp150
sVbootloaders
p151
(lp152
Vs390-tools
p153
asVinstall-stem
p154
Vvmlinuz
p155
ss(Vimage
p156
Valpha
p157
tp158
(dp159
Vsuggests
p160
Vaboot, fdutils
p161
sVinstall-stem
p162
Vvmlinuz
p163
ss(g13
Varmel
p164
g15
tp165
(dp166
g18
I01
sg19
(lp167
Vmarvell
p168
aVversatile
p169
ass(Vimage
p170
g134
tp171
(dp172
Vinstall-stem
p173
Vvmlinux
p174
ss(Vimage
p175
Vsparc64
p176
NVsparc64
p177
tp178
(dp179
Vconfigs
p180
(lp181
Vkernelarch-sparc/config-up
p182
ass(Vdescription
p183
Vi386
p184
NV686
p185
tp186
(dp187
Vhardware-long
p188
VPCs with one or more processors not supporting PAE
p189
sVhardware
p190
Volder PCs
p191
ss(Vbuild
p192
g58
tp193
(dp194
Vvdso
p195
I01
sVimage-file
p196
Varch/x86/boot/bzImage
p197
sVdebug-info
p198
I01
ss(Vdescription
p199
g184
tp200
(dp201
Vpart-long-pae
p202
VThis kernel requires PAE (Physical Address Extension).\u000aThis feature is supported by the Intel Pentium Pro/II/III/4/4M/D, Xeon,\u000aCore and Atom; AMD Geode NX, Athlon (K7), Duron, Opteron, Sempron,\u000aTurion or Phenom; Transmeta Efficeon; VIA C7; and some other processors.
p203
ss(Vbuild
p204
g104
tp205
(dp206
Vvdso
p207
I01
sVimage-file
p208
Vvmlinux
p209
sVsigned-modules
p210
I00
ss(g13
g157
g15
tp211
(dp212
g18
I01
sg19
(lp213
Valpha-generic
p214
aValpha-smp
p215
ass(Vimage
p216
g104
tp217
(dp218
Vconfigs
p219
(lp220
sVsuggests
p221
Vmkvmlinuz
p222
sVinstall-stem
p223
Vvmlinux
p224
ss(g13
g78
g15
tp225
(dp226
g18
I01
sg19
(lp227
Vparisc
p228
aVparisc64-smp
p229
ass(Vimage
p230
g14
NVpowerpc64le
p231
tp232
(dp233
Vconfigs
p234
(lp235
Vkernelarch-powerpc/config-arch-64
p236
aVkernelarch-powerpc/config-arch-64-le
p237
ass(Vbuild
p238
g66
tp239
(dp240
Vvdso
p241
I01
sVimage-file
p242
Varch/s390/boot/image
p243
ss(Vxen
p244
g58
g59
Vamd64
p245
tp246
(dp247
Vflavours
p248
(lp249
Vamd64
p250
ass(Vbuild
p251
g184
NV686-pae
p252
tp253
(dp254
Vdebug-info
p255
I01
ss(Vdescription
p256
g157
NValpha-smp
p257
tp258
(dp259
Vhardware-long
p260
VDEC Alpha SMP systems with extended kernel start address (Wildfire, Titan, Marvel)
p261
sVhardware
p262
VAlpha SMP
p263
ss(Vbuild
p264
g78
tp265
(dp266
Vimage-file
p267
Vvmlinux
p268
sVsigned-modules
p269
I00
ss(Vbase
p270
Vpowerpc
p271
tp272
(dp273
Vkernel-arch
p274
Vpowerpc
p275
sg115
(lp276
g15
ass(Vbase
p277
g78
NVparisc64-smp
p278
tp279
(dp280
Voverride-host-type
p281
Vhppa64-linux-gnu
p282
sVcflags
p283
V-fno-cse-follow-jumps
p284
ss(Vbase
p285
g134
tp286
(dp287
Vkernel-arch
p288
Vmips
p289
sg115
(lp290
g15
ass(Vdescription
p291
Ng91
tp292
(dp293
Vpart-short-rt
p294
VPREEMPT_RT
p295
sVparts
p296
(lp297
Vrt
p298
asVpart-long-rt
p299
VThis kernel includes the PREEMPT_RT realtime patch set.
p300
ss(Vdescription
p301
g66
NVs390x
p302
tp303
(dp304
Vhardware
p305
VIBM zSeries
p306
ss(Vabi
p307
tp308
(dp309
Vabiname
p310
Vkali1
p311
ss(Vbuild
p312
g164
NVmarvell
p313
tp314
(dp315
Vsigned-modules
p316
I00
ss(Vimage
p317
g5
NVocteon
p318
tp319
(dp320
Vconfigs
p321
(lp322
Vkernelarch-mips/config.octeon
p323
ass(Vdescription
p324
g141
NVm68k
p325
tp326
(dp327
Vhardware
p328
VMotorola MC68020+ family
p329
ss(Vbase
p330
g32
tp331
(dp332
Vkernel-arch
p333
Varm64
p334
sVfeaturesets
p335
(lp336
Vnone
p337
ass(Vimage
p338
g164
NVmarvell
p339
tp340
(dp341
Vcheck-size-with-dtb
p342
I01
sVrecommends
p343
Vu-boot-tools
p344
sVbreaks
p345
Vflash-kernel (<< 3.57~)
p346
sVcheck-size
p347
L2097080L
ss(Vimage
p348
Vmips64
p349
NVocteon
p350
tp351
(dp352
Vconfigs
p353
(lp354
Vkernelarch-mips/config.octeon
p355
ass(Vimage
p356
g72
tp357
(dp358
Vconfigs
p359
(lp360
Vkernelarch-arm/config
p361
asVsuggests
p362
Vfdutils
p363
sVinstall-stem
p364
Vvmlinuz
p365
ss(Vimage
p366
g104
NVpowerpc64
p367
tp368
(dp369
Vconfigs
p370
(lp371
Vkernelarch-powerpc/config-arch-64
p372
aVkernelarch-powerpc/config-arch-64-be
p373
ass(Vbase
p374
Vor1k
p375
tp376
(dp377
Vkernel-arch
p378
Vopenrisc
p379
sVfeaturesets
p380
(lp381
ss(Vbase
p382
g104
tp383
(dp384
Vkernel-arch
p385
Vpowerpc
p386
sg115
(lp387
g15
ass(Vdescription
p388
Vpowerpcspe
p389
tp390
(dp391
Vhardware
p392
V32-bit PowerPC with SPE (instead of AltiVec) with SMP support
p393
ss(Vbase
p394
g72
tp395
(dp396
Vkernel-arch
p397
Varm
p398
sg115
(lp399
g15
ass(Vbase
p400
g184
Vrt
p401
tp402
(dp403
Vflavours
p404
(lp405
V686-pae
p406
ass(Vbuild
p407
g271
tp408
(dp409
Vvdso
p410
I01
sVimage-file
p411
Vvmlinux
p412
ss(Vimage
p413
g184
NV686-pae
p414
tp415
(dp416
Vconfigs
p417
(lp418
Vkernelarch-x86/config-arch-32
p419
aVi386/config.686-pae
p420
asVrecommends
p421
Vlibc6-i686
p422
ss(Vdescription
p423
g271
NVpowerpc
p424
tp425
(dp426
Vhardware
p427
Vuniprocessor 32-bit PowerPC
p428
ss(Vimage
p429
g72
NVarmmp-lpae
p430
tp431
(dp432
Vconfigs
p433
(lp434
Varmhf/config.armmp
p435
aVarmhf/config.lpae
p436
ass(Vbase
p437
Vsparc
p438
tp439
(dp440
Vkernel-arch
p441
Vsparc
p442
sVfeaturesets
p443
(lp444
ss(Vdescription
p445
g134
NV4kc-malta
p446
tp447
(dp448
Vhardware-long
p449
VMIPS Malta boards
p450
sVhardware
p451
VMIPS Malta
p452
ss(Vbase
p453
g32
Vnone
p454
tp455
(dp456
Vflavours
p457
(lp458
Varm64
p459
ass(g13
g176
g15
tp460
(dp461
g18
I01
sg19
(lp462
Vsparc64
p463
aVsparc64-smp
p464
ass(Vdescription
p465
g349
NVocteon
p466
tp467
(dp468
Vhardware-long
p469
VCavium Networks Octeon
p470
sVhardware
p471
VOcteon
p472
ss(Vbuild
p473
g32
tp474
(dp475
Vvdso
p476
I01
sVimage-file
p477
Varch/arm64/boot/Image
p478
sVdebug-info
p479
I01
ss(Vbase
p480
g176
tp481
(dp482
Vkernel-arch
p483
Vsparc
p484
sg115
(lp485
g15
ass(Vdescription
p486
g14
NVpowerpc64le
p487
tp488
(dp489
Vhardware
p490
VLittle-endian 64-bit PowerPC
p491
ss(Vdescription
p492
g58
g59
Vamd64
p493
tp494
(dp495
Vparts
p496
(lp497
Vxen
p498
ass(Vbase
p499
g141
tp500
(dp501
Vkernel-arch
p502
Vm68k
p503
sg115
(lp504
g15
asVcflags
p505
V-ffreestanding
p506
ss(Vbase
p507
Vsh4
p508
tp509
(dp510
Vkernel-arch
p511
Vsh
p512
sg115
(lp513
g15
ass(Vdescription
p514
g349
NV5kc-malta
p515
tp516
(dp517
Vhardware-long
p518
VMIPS Malta boards
p519
sVhardware
p520
VMIPS Malta
p521
ss(Vimage
p522
g23
NV5kc-malta
p523
tp524
(dp525
Vconfigs
p526
(lp527
Vkernelarch-mips/config.5kc-malta
p528
ass(Vimage
p529
g32
tp530
(dp531
Vinstall-stem
p532
Vvmlinuz
p533
ss(g13
g134
g15
tp534
(dp535
g18
I01
sg19
(lp536
V4kc-malta
p537
aV5kc-malta
p538
aVloongson-2e
p539
aVloongson-2f
p540
aVloongson-3
p541
ass(Vdescription
p542
g58
NVamd64
p543
tp544
(dp545
Vhardware-long
p546
VPCs with AMD64, Intel 64 or VIA Nano processors
p547
sVhardware
p548
V64-bit PCs
p549
ss(Vimage
p550
g176
tp551
(dp552
Vconfigs
p553
(lp554
sVsuggests
p555
Vsilo, fdutils
p556
sVinstall-stem
p557
Vvmlinuz
p558
ss(g13
g389
g15
tp559
(dp560
g18
I01
sg19
(lp561
Vpowerpcspe
p562
ass(Vdescription
p563
g72
NVarmmp
p564
tp565
(dp566
Vhardware-long
p567
VARMv7 multiplatform kernel. See\u000ahttps://wiki.debian.org/DebianKernel/ARMMP for details of supported\u000aplatforms
p568
sVhardware
p569
VARMv7 multiplatform compatible SoCs
p570
ss(Vbase
p571
g5
tp572
(dp573
Vkernel-arch
p574
Vmips
p575
sg115
(lp576
g15
ass(Vbase
p577
g157
tp578
(dp579
Vkernel-arch
p580
Valpha
p581
sg115
(lp582
g15
ass(Vbuild
p583
g389
tp584
(dp585
Vvdso
p586
I01
sVimage-file
p587
Vvmlinux
p588
sVsigned-modules
p589
I00
ss(Vdescription
p590
g508
NVsh7785lcr
p591
tp592
(dp593
Vhardware-long
p594
VRenesas SH7785 reference board
p595
sVhardware
p596
Vsh7785lcr
p597
ss(Vimage
p598
g23
NV4kc-malta
p599
tp600
(dp601
Vconfigs
p602
(lp603
Vkernelarch-mips/config.4kc-malta
p604
ass(Vdescription
p605
g164
NVmarvell
p606
tp607
(dp608
Vhardware-long
p609
VMarvell Kirkwood based systems (SheevaPlug, QNAP TS-119/TS-219, etc)\u000aand Orion 5181, 5182 and 5281 based systems (QNAP TS-109/TS-209, etc)
p610
sVhardware
p611
VMarvell Kirkwood/Orion
p612
ss(Vbuild
p613
g141
tp614
(dp615
Vimage-file
p616
Vvmlinux.gz
p617
sVsigned-modules
p618
I00
ss(Vimage
p619
g134
NVloongson-2f
p620
tp621
(dp622
Vconfigs
p623
(lp624
Vkernelarch-mips/config.loongson-2f
p625
asVrecommends
p626
Vlibc6-loongson2f
p627
ss(g13
g72
g15
tp628
(dp629
g18
I01
sg19
(lp630
Varmmp
p631
aVarmmp-lpae
p632
ass(Vimage
p633
g5
NVloongson-3
p634
tp635
(dp636
Vconfigs
p637
(lp638
Vkernelarch-mips/config.loongson-3
p639
ass(Vdescription
p640
g271
NVpowerpc64
p641
tp642
(dp643
Vhardware
p644
V64-bit PowerPC
p645
ss(Vimage
p646
g141
tp647
(dp648
Vsuggests
p649
Vvmelilo, fdutils
p650
sVinstall-stem
p651
Vvmlinuz
p652
ss(Vimage
p653
g14
tp654
(dp655
Vconfigs
p656
(lp657
sVsuggests
p658
Vmkvmlinuz
p659
sVinstall-stem
p660
Vvmlinux
p661
ss(Vbuild
p662
g508
tp663
(dp664
Vimage-file
p665
Varch/sh/boot/zImage
p666
sVsigned-modules
p667
I00
ss(Vdescription
p668
g134
NV5kc-malta
p669
tp670
(dp671
Vhardware-long
p672
VMIPS Malta boards (64-bit)
p673
sVhardware
p674
VMIPS Malta (64-bit)
p675
ss(Vdescription
p676
g157
NValpha-generic
p677
tp678
(dp679
Vhardware-long
p680
VDEC Alpha systems with extended kernel start address (Wildfire, Titan, Marvel)
p681
sVhardware
p682
VAlpha
p683
ss(Vimage
p684
g23
NVocteon
p685
tp686
(dp687
Vconfigs
p688
(lp689
Vkernelarch-mips/config.octeon
p690
ass(Vbuild
p691
g184
tp692
(dp693
Vvdso
p694
I01
sVimage-file
p695
Varch/x86/boot/bzImage
p696
ss(Vbase
p697
tp698
(dp699
Varches
p700
(lp701
Valpha
p702
aVamd64
p703
aVarm64
p704
aVarmel
p705
aVarmhf
p706
aVhppa
p707
aVi386
p708
aVm68k
p709
aVmips
p710
aVmipsel
p711
aVmips64
p712
aVmips64el
p713
aVor1k
p714
aVpowerpc
p715
aVpowerpcspe
p716
aVppc64
p717
aVppc64el
p718
aVs390
p719
aVs390x
p720
aVsh4
p721
aVsparc
p722
aVsparc64
p723
aVx32
p724
asVcompiler
p725
Vgcc-5
p726
sVfeaturesets
p727
(lp728
Vnone
p729
aVrt
p730
ass(Vbuild
p731
g14
tp732
(dp733
Vvdso
p734
I01
sVimage-file
p735
Vvmlinux
p736
ss(Vdescription
p737
g176
NVsparc64
p738
tp739
(dp740
Vhardware
p741
Vuniprocessor 64-bit UltraSPARC
p742
ss(Vdescription
p743
g23
NVocteon
p744
tp745
(dp746
Vhardware-long
p747
VCavium Networks Octeon
p748
sVhardware
p749
VOcteon
p750
ss(Vbuild
p751
g164
tp752
(dp753
Vimage-file
p754
Varch/arm/boot/zImage
p755
ss(Vdescription
p756
g134
NVloongson-2f
p757
tp758
(dp759
Vhardware-long
p760
VLemote Loongson 2F systems
p761
sVhardware
p762
VLoongson 2F
p763
ss(Vbuild
p764
g23
tp765
(dp766
Vimage-file
p767
Vvmlinux
p768
sVsigned-modules
p769
I00
ss(Vimage
p770
g184
tp771
(dp772
Vconfigs
p773
(lp774
sVbootloaders
p775
(lp776
Vgrub-pc
p777
aVextlinux
p778
asVbreaks
p779
Vxserver-xorg-input-vmmouse (<< 1:13.0.99)
p780
sVinstall-stem
p781
Vvmlinuz
p782
ss(g13
g66
g15
tp783
(dp784
g18
I01
sg19
(lp785
Vs390x
p786
ass(Vrelations
p787
g184
tp788
(dp789
Vheaders%gcc-5
p790
Vlinux-compiler-gcc-5-x86
p791
ss(Vimage
p792
g271
NVpowerpc64
p793
tp794
(dp795
Vconfigs
p796
(lp797
Vkernelarch-powerpc/config-arch-64
p798
aVkernelarch-powerpc/config-arch-64-be
p799
ass(Vbase
p800
g184
Vnone
p801
tp802
(dp803
Vflavours
p804
(lp805
V686
p806
aV686-pae
p807
ass(Vrelations
p808
g78
tp809
(dp810
Vgcc-5
p811
Vgcc-5 <!stage1>, binutils-hppa64-linux-gnu <!stage1>, gcc-5-hppa64-linux-gnu <!stage1>
p812
ss(Vrelations
p813
g164
tp814
(dp815
Vheaders%gcc-5
p816
Vlinux-compiler-gcc-5-arm
p817
ss(Vdescription
p818
g184
NV686-pae
p819
tp820
(dp821
Vhardware-long
p822
VPCs with one or more processors supporting PAE
p823
sVparts
p824
(lp825
Vpae
p826
asVhardware
p827
Vmodern PCs
p828
ss(Vdescription
p829
g78
NVparisc64-smp
p830
tp831
(dp832
Vhardware-long
p833
VHP PA-RISC 64-bit SMP systems with support for more than 4 GB RAM
p834
sVhardware
p835
Vmultiprocessor 64-bit PA-RISC
p836
ss(g13
g271
g15
tp837
(dp838
g18
I01
sg19
(lp839
Vpowerpc
p840
aVpowerpc-smp
p841
aVpowerpc64
p842
ass(Vbase
p843
g66
tp844
(dp845
Vkernel-arch
p846
Vs390
p847
sg115
(lp848
g15
ass(Vbase
p849
g78
tp850
(dp851
Vkernel-arch
p852
Vparisc
p853
sg115
(lp854
g15
ass(Vimage
p855
g5
tp856
(dp857
Vinstall-stem
p858
Vvmlinux
p859
ss(g13
g349
g15
tp860
(dp861
g18
I01
sg19
(lp862
V5kc-malta
p863
aVocteon
p864
ass(Vdescription
p865
g184
g801
V686-pae
p866
tp867
(dp868
Vparts
p869
(lp870
Vxen
p871
ass(Vbase
p872
g58
Vrt
p873
tp874
(dp875
Vflavours
p876
(lp877
Vamd64
p878
ass(Vdescription
p879
g134
NVloongson-3
p880
tp881
(dp882
Vhardware-long
p883
VLoongson 3A or 3B based systems (e.g. from Loongson or Lemote)
p884
sVhardware
p885
VLoongson 3A/3B
p886
ss(Vdescription
p887
g5
NVocteon
p888
tp889
(dp890
Vhardware-long
p891
VCavium Networks Octeon
p892
sVhardware
p893
VOcteon
p894
ss(Vrelations
p895
g66
tp896
(dp897
Vheaders%gcc-5
p898
Vlinux-compiler-gcc-5-s390
p899
ss(Vdescription
p900
g176
NVsparc64-smp
p901
tp902
(dp903
Vhardware
p904
Vmultiprocessor 64-bit UltraSPARC
p905
ss(Vimage
p906
g5
NV5kc-malta
p907
tp908
(dp909
Vconfigs
p910
(lp911
Vkernelarch-mips/config.5kc-malta
p912
ass(Vimage
p913
g134
NVloongson-3
p914
tp915
(dp916
Vconfigs
p917
(lp918
Vkernelarch-mips/config.loongson-3
p919
ass(Vbase
p920
Vs390
p921
tp922
(dp923
Vkernel-arch
p924
Vs390
p925
sVfeaturesets
p926
(lp927
ss(Vimage
p928
g389
tp929
(dp930
Vsuggests
p931
Vmkvmlinuz
p932
sVinstall-stem
p933
Vvmlinux
p934
ss(Vimage
p935
tp936
(dp937
Vinitramfs-generators
p938
(lp939
Vinitramfs-tools
p940
aVinitramfs-fallback
p941
ass(Vbuild
p942
g157
tp943
(dp944
Vimage-file
p945
Varch/alpha/boot/vmlinux.gz
p946
sVsigned-modules
p947
I00
ss(g13
g5
g15
tp948
(dp949
g18
I01
sg19
(lp950
V5kc-malta
p951
aVloongson-3
p952
aVocteon
p953
ass(Vrelations
p954
tp955
(dp956
Vgcc-5
p957
Vgcc-5 <!stage1>
p958
sVinitramfs-fallback
p959
Vlinux-initramfs-tool
p960
sVinitramfs-tools
p961
Vinitramfs-tools (>= 0.110~)
p962
ss(Vimage
p963
g184
NV686
p964
tp965
(dp966
Vconfigs
p967
(lp968
Vkernelarch-x86/config-arch-32
p969
aVi386/config.686
p970
asVrecommends
p971
Vlibc6-i686
p972
ss(Vimage
p973
g271
NVpowerpc-smp
p974
tp975
(dp976
Vconfigs
p977
(lp978
Vpowerpc/config.powerpc
p979
aVpowerpc/config.powerpc-smp
p980
ass(g13
g508
g15
tp981
(dp982
g18
I01
sg19
(lp983
Vsh7751r
p984
aVsh7785lcr
p985
ass(g13
g104
g15
tp986
(dp987
g18
I01
sg19
(lp988
Vpowerpc64
p989
ass(Vbase
p990
g58
tp991
(dp992
Vkernel-arch
p993
Vx86
p994
sVfeaturesets
p995
(lp996
Vnone
p997
aVrt
p998
ass(Vimage
p999
g134
NV4kc-malta
p1000
tp1001
(dp1002
Vconfigs
p1003
(lp1004
Vkernelarch-mips/config.4kc-malta
p1005
ass(Vimage
p1006
g271
tp1007
(dp1008
Vconfigs
p1009
(lp1010
sVsuggests
p1011
Vmkvmlinuz
p1012
sVinstall-stem
p1013
Vvmlinux
p1014
ss(Vimage
p1015
g349
NV5kc-malta
p1016
tp1017
(dp1018
Vconfigs
p1019
(lp1020
Vkernelarch-mips/config.5kc-malta
p1021
ass(Vimage
p1022
g32
NVarm64
p1023
tp1024
(dp1025
s(Vimage
p1026
g134
NVloongson-2e
p1027
tp1028
(dp1029
Vconfigs
p1030
(lp1031
Vkernelarch-mips/config.loongson-2e
p1032
ass(Vimage
p1033
g164
tp1034
(dp1035
Vconfigs
p1036
(lp1037
Vkernelarch-arm/config
p1038
aVarmel/config
p1039
asVsuggests
p1040
Vfdutils
p1041
sVinstall-stem
p1042
Vvmlinuz
p1043
ss(Vimage
p1044
g176
NVsparc64-smp
p1045
tp1046
(dp1047
Vconfigs
p1048
(lp1049
Vkernelarch-sparc/config-smp
p1050
ass(Vimage
p1051
g78
tp1052
(dp1053
Vsuggests
p1054
Vpalo
p1055
sVinstall-stem
p1056
Vvmlinux
p1057
ss(Vbuild
p1058
g349
tp1059
(dp1060
Vimage-file
p1061
Vvmlinux
p1062
sVsigned-modules
p1063
I00
ss(Vbase
p1064
Vx32
p1065
tp1066
(dp1067
Vkernel-arch
p1068
Vx86
p1069
sVfeaturesets
p1070
(lp1071
ss(Vdescription
p1072
tp1073
(dp1074
Vpart-long-xen
p1075
VThis kernel also runs on a Xen hypervisor.\u000aIt supports both privileged (dom0) and unprivileged (domU) operation.
p1076
sVpart-long-up
p1077
VThis kernel is not suitable for SMP (multi-processor,\u000amulti-core or hyper-threaded) systems.
p1078
ss(Vimage
p1079
g508
tp1080
(dp1081
Vsuggests
p1082
Vfdutils
p1083
sVinstall-stem
p1084
Vvmlinuz
p1085
ss(Vbuild
p1086
g134
tp1087
(dp1088
Vimage-file
p1089
Vvmlinux
p1090
sVsigned-modules
p1091
I00
ss(Vimage
p1092
g508
NVsh7785lcr
p1093
tp1094
(dp1095
Vrecommends
p1096
Vu-boot-tools
p1097
sVcheck-size
p1098
L4194304L
ss(Vdescription
p1099
g271
NVpowerpc-smp
p1100
tp1101
(dp1102
Vhardware
p1103
Vmultiprocessor 32-bit PowerPC
p1104
ss(Vbase
p1105
g23
tp1106
(dp1107
Vkernel-arch
p1108
Vmips
p1109
sg115
(lp1110
g15
ass(Vdescription
p1111
g5
NVloongson-3
p1112
tp1113
(dp1114
Vhardware-long
p1115
VLoongson 3A or 3B based systems (e.g. from Loongson or Lemote)
p1116
sVhardware
p1117
VLoongson 3A/3B
p1118
ss(Vbuild
p1119
g176
tp1120
(dp1121
Vimage-file
p1122
Varch/sparc/boot/zImage
p1123
sVsigned-modules
p1124
I00
ss(Vimage
p1125
g66
NVs390x
p1126
tp1127
(dp1128
Vconfigs
p1129
(lp1130
Vkernelarch-s390/config-arch-64
p1131
ass(Vimage
p1132
g58
tp1133
(dp1134
Vconfigs
p1135
(lp1136
sVbootloaders
p1137
(lp1138
Vgrub-pc
p1139
aVgrub-efi
p1140
aVextlinux
p1141
asVbreaks
p1142
Vxserver-xorg-input-vmmouse (<< 1:13.0.99)
p1143
sVinstall-stem
p1144
Vvmlinuz
p1145
ss(Vdescription
p1146
g72
NVarmmp-lpae
p1147
tp1148
(dp1149
Vhardware-long
p1150
VARMv7 multiplatform kernel supporting LPAE. See\u000ahttps://wiki.debian.org/DebianKernel/ARMMP for details of supported\u000aplatforms.
p1151
sVhardware
p1152
VARMv7 multiplatform compatible SoCs supporting LPAE
p1153
ss(Vbase
p1154
g389
tp1155
(dp1156
Vkernel-arch
p1157
Vpowerpc
p1158
sg115
(lp1159
g15
ass(Vimage
p1160
g23
tp1161
(dp1162
Vinstall-stem
p1163
Vvmlinux
p1164
ss(Vdescription
p1165
g134
NVloongson-2e
p1166
tp1167
(dp1168
Vhardware-long
p1169
VLemote Loongson 2E systems
p1170
sVhardware
p1171
VLoongson 2E
p1172
ss(Vbase
p1173
g164
tp1174
(dp1175
Vkernel-arch
p1176
Varm
p1177
sg115
(lp1178
g15
ass(Vdescription
p1179
g508
NVsh7751r
p1180
tp1181
(dp1182
Vhardware-long
p1183
VRenesas SH7751R R2D plus board
p1184
sVhardware
p1185
Vsh7751r
p1186
ss(Vbuild
p1187
g72
tp1188
(dp1189
Vvdso
p1190
I01
sVimage-file
p1191
Varch/arm/boot/zImage
p1192
ss(Vimage
p1193
g58
NVamd64
p1194
tp1195
(dp1196
Vconfigs
p1197
(lp1198
Vkernelarch-x86/config-arch-64
p1199
ass(Vdescription
p1200
g164
NVversatile
p1201
tp1202
(dp1203
Vhardware-long
p1204
VVersatile systems (PB, AB, Qemu)
p1205
sVhardware
p1206
VVersatile
p1207
ss(Vimage
p1208
g349
tp1209
(dp1210
Vinstall-stem
p1211
Vvmlinux
p1212
ss(Vbase
p1213
g349
tp1214
(dp1215
Vkernel-arch
p1216
Vmips
p1217
sg115
(lp1218
g15
ass(Vbase
p1219
g184
tp1220
(dp1221
Vkernel-arch
p1222
Vx86
p1223
sVfeaturesets
p1224
(lp1225
Vnone
p1226
aVrt
p1227
asstp1228
Rp1229
.