ccopy_reg
_reconstructor
p0
(cdebian_linux.config
ConfigCore
p1
c__builtin__
dict
p2
(dp3
(S'image'
p4
S'amd64'
p5
tp6
(dp7
S'install-stem'
p8
S'vmlinuz'
p9
sS'configs'
p10
(lp11
sS'bootloaders'
p12
(lp13
S'grub-pc'
p14
aS'grub-efi'
p15
aS'extlinux'
p16
ass(S'image'
p17
S'mipsel'
p18
NS'sb1-bcm91250a'
p19
tp20
(dp21
S'configs'
p22
(lp23
S'kernelarch-mips/config.sb1-bcm91250a'
p24
ass(S'base'
p25
g5
S'none'
p26
tp27
(dp28
S'flavours'
p29
(lp30
S'amd64'
p31
ass(S'image'
p32
S'sparc'
p33
NS'sparc64-smp'
p34
tp35
(dp36
S'configs'
p37
(lp38
S'kernelarch-sparc/config-smp'
p39
ass(S'description'
p40
S'powerpc'
p41
NS'powerpc64'
p42
tp43
(dp44
S'hardware'
p45
S'64-bit PowerPC'
p46
ss(S'image'
p47
S'ia64'
p48
tp49
(dp50
S'suggests'
p51
S'fdutils'
p52
sS'bootloaders'
p53
(lp54
S'elilo'
p55
asS'install-stem'
p56
S'vmlinuz'
p57
ss(S'version'
p58
tp59
(dp60
S'abiname'
p61
S'4.0.0-2'
p62
sS'source'
p63
V4.0.4-1
p64
sS'abiname_base'
p65
S'4.0.0'
p66
sS'upstream'
p67
S'4.0'
p68
ss(S'description'
p69
g5
g26
S'amd64'
p70
tp71
(dp72
S'parts'
p73
(lp74
S'xen'
p75
ass(S'base'
p76
S'ppc64'
p77
S'none'
p78
tp79
(dp80
S'implicit-flavour'
p81
I01
sS'flavours'
p82
(lp83
S'powerpc64'
p84
ass(S'description'
p85
S'mips64'
p86
NS'5kc-malta'
p87
tp88
(dp89
S'hardware'
p90
S'MIPS Malta'
p91
sS'hardware-long'
p92
S'MIPS Malta boards'
p93
ss(S'image'
p94
g5
NS'amd64'
p95
tp96
(dp97
S'configs'
p98
(lp99
S'kernelarch-x86/config-arch-64'
p100
ass(S'image'
p101
g77
NS'powerpc64'
p102
tp103
(dp104
S'configs'
p105
(lp106
S'kernelarch-powerpc/config-arch-64'
p107
aS'kernelarch-powerpc/config-arch-64-be'
p108
ass(S'base'
p109
S'alpha'
p110
tp111
(dp112
S'kernel-arch'
p113
S'alpha'
p114
sS'featuresets'
p115
(lp116
g78
ass(S'description'
p117
g41
NS'powerpc'
p118
tp119
(dp120
S'hardware'
p121
S'uniprocessor 32-bit PowerPC'
p122
ss(S'build'
p123
g48
tp124
(dp125
S'image-file'
p126
S'vmlinux.gz'
p127
ss(g76
S'armhf'
p128
g78
tp129
(dp130
g81
I01
sg82
(lp131
S'armmp'
p132
aS'armmp-lpae'
p133
ass(S'base'
p134
S'i386'
p135
S'rt'
p136
tp137
(dp138
S'flavours'
p139
(lp140
S'686-pae'
p141
ass(S'description'
p142
g86
NS'sb1-bcm91250a'
p143
tp144
(dp145
S'hardware'
p146
S'BCM91250A'
p147
sS'hardware-long'
p148
S'Broadcom BCM91250A systems (aka SWARM)'
p149
ss(g76
g86
g78
tp150
(dp151
g81
I01
sg82
(lp152
S'sb1-bcm91250a'
p153
aS'5kc-malta'
p154
aS'octeon'
p155
ass(S'description'
p156
S'armel'
p157
NS'kirkwood'
p158
tp159
(dp160
S'hardware'
p161
S'Marvell Kirkwood'
p162
sS'hardware-long'
p163
S'Marvell Kirkwood based systems (SheevaPlug, QNAP TS-119/TS-219, etc)'
p164
ss(S'image'
p165
S'ppc64el'
p166
tp167
(dp168
S'suggests'
p169
S'mkvmlinuz'
p170
sS'configs'
p171
(lp172
sS'install-stem'
p173
S'vmlinux'
p174
ss(S'description'
p175
S'sparc64'
p176
NS'sparc64'
p177
tp178
(dp179
S'hardware'
p180
S'uniprocessor 64-bit UltraSPARC'
p181
ss(S'relations'
p182
g135
tp183
(dp184
S'headers%gcc-4.9'
p185
S'linux-compiler-gcc-4.9-x86'
p186
ss(S'description'
p187
S'sh4'
p188
NS'sh7785lcr'
p189
tp190
(dp191
S'hardware'
p192
S'sh7785lcr'
p193
sS'hardware-long'
p194
S'Renesas SH7785 reference board'
p195
ss(S'description'
p196
g128
NS'armmp-lpae'
p197
tp198
(dp199
S'hardware'
p200
S'ARMv7 multiplatform compatible SoCs supporting LPAE'
p201
sS'hardware-long'
p202
S'ARMv7 multiplatform kernel supporting LPAE. See\nhttps://wiki.debian.org/DebianKernel/ARMMP for details of supported\nplatforms.'
p203
ss(S'image'
p204
g41
tp205
(dp206
S'suggests'
p207
S'mkvmlinuz'
p208
sS'configs'
p209
(lp210
sS'install-stem'
p211
S'vmlinux'
p212
ss(S'base'
p213
g5
S'rt'
p214
tp215
(dp216
S'flavours'
p217
(lp218
S'amd64'
p219
ass(S'build'
p220
g166
tp221
(dp222
S'image-file'
p223
S'vmlinux'
p224
ss(S'build'
p225
g77
tp226
(dp227
S'image-file'
p228
S'vmlinux'
p229
ss(S'base'
p230
S'arm64'
p231
tp232
(dp233
S'kernel-arch'
p234
S'arm64'
p235
sS'featuresets'
p236
(lp237
S'none'
p238
ass(S'base'
p239
g135
tp240
(dp241
S'kernel-arch'
p242
S'x86'
p243
sS'featuresets'
p244
(lp245
S'none'
p246
aS'rt'
p247
ass(S'base'
p248
g18
tp249
(dp250
S'kernel-arch'
p251
S'mips'
p252
sg115
(lp253
g78
ass(S'relations'
p254
g5
tp255
(dp256
S'headers%gcc-4.9'
p257
S'linux-compiler-gcc-4.9-x86'
p258
ss(S'image'
p259
S'mips'
p260
NS'5kc-malta'
p261
tp262
(dp263
S'configs'
p264
(lp265
S'kernelarch-mips/config.5kc-malta'
p266
ass(S'description'
p267
S'mips64el'
p268
NS'octeon'
p269
tp270
(dp271
S'hardware'
p272
S'Octeon'
p273
sS'hardware-long'
p274
S'Cavium Networks Octeon'
p275
ss(S'description'
p276
g110
NS'alpha-smp'
p277
tp278
(dp279
S'hardware'
p280
S'Alpha SMP'
p281
sS'hardware-long'
p282
S'DEC Alpha SMP systems with extended kernel start address (Wildfire, Titan, Marvel)'
p283
ss(g76
g18
g78
tp284
(dp285
g81
I01
sg82
(lp286
S'sb1-bcm91250a'
p287
aS'4kc-malta'
p288
aS'5kc-malta'
p289
aS'loongson-2e'
p290
aS'loongson-2f'
p291
aS'loongson-3'
p292
ass(S'description'
p293
S'powerpcspe'
p294
tp295
(dp296
S'hardware'
p297
S'32-bit PowerPC with SPE (instead of AltiVec) with SMP support'
p298
ss(S'description'
p299
g157
NS'orion5x'
p300
tp301
(dp302
S'hardware'
p303
S'Marvell Orion'
p304
sS'hardware-long'
p305
S'Marvell Orion 5181, 5182 and 5281 based systems (QNAP TS-109/TS-209, etc)'
p306
ss(S'relations'
p307
tp308
(dp309
S'gcc-4.9'
p310
S'gcc-4.9'
p311
sS'gcc-4.8'
p312
S'gcc-4.8'
p313
sS'initramfs-fallback'
p314
S'linux-initramfs-tool'
p315
sS'gcc-4.7'
p316
S'gcc-4.7'
p317
sS'gcc-4.6'
p318
S'gcc-4.6'
p319
sS'initramfs-tools'
p320
S'initramfs-tools (>= 0.110~)'
p321
ss(S'build'
p322
g110
tp323
(dp324
S'image-file'
p325
S'arch/alpha/boot/vmlinux.gz'
p326
ss(S'image'
p327
g41
NS'powerpc64'
p328
tp329
(dp330
S'configs'
p331
(lp332
S'kernelarch-powerpc/config-arch-64'
p333
aS'kernelarch-powerpc/config-arch-64-be'
p334
ass(S'description'
p335
S'hppa'
p336
NS'parisc64-smp'
p337
tp338
(dp339
S'hardware'
p340
S'multiprocessor 64-bit PA-RISC'
p341
sS'hardware-long'
p342
S'HP PA-RISC 64-bit SMP systems with support for more than 4 GB RAM'
p343
ss(g76
g268
g78
tp344
(dp345
g81
I01
sg82
(lp346
S'sb1-bcm91250a'
p347
aS'5kc-malta'
p348
aS'loongson-3'
p349
aS'octeon'
p350
ass(S'build'
p351
g294
tp352
(dp353
S'image-file'
p354
S'vmlinux'
p355
ss(g76
g188
g78
tp356
(dp357
g81
I01
sg82
(lp358
S'sh7751r'
p359
aS'sh7785lcr'
p360
ass(S'description'
p361
g33
NS'sparc32'
p362
tp363
(dp364
S'hardware'
p365
S'uniprocessor sparc32 (sun4m)'
p366
ss(S'image'
p367
g231
NS'arm64'
p368
tp369
(dp370
s(S'description'
p371
g86
NS'octeon'
p372
tp373
(dp374
S'hardware'
p375
S'Octeon'
p376
sS'hardware-long'
p377
S'Cavium Networks Octeon'
p378
ss(S'image'
p379
g41
NS'powerpc-smp'
p380
tp381
(dp382
S'configs'
p383
(lp384
S'powerpc/config.powerpc'
p385
aS'powerpc/config.powerpc-smp'
p386
ass(S'image'
p387
g157
NS'kirkwood'
p388
tp389
(dp390
S'check-size'
p391
I2097080
sS'check-size-with-dtb'
p392
I01
sS'breaks'
p393
S'flash-kernel (<< 3.30~)'
p394
sS'recommends'
p395
S'uboot-mkimage'
p396
sS'configs'
p397
(lp398
S'armel/config-reduced'
p399
aS'armel/config.kirkwood'
p400
ass(S'base'
p401
g157
tp402
(dp403
S'kernel-arch'
p404
S'arm'
p405
sg115
(lp406
g78
ass(S'description'
p407
g18
NS'5kc-malta'
p408
tp409
(dp410
S'hardware'
p411
S'MIPS Malta (64-bit)'
p412
sS'hardware-long'
p413
S'MIPS Malta boards (64-bit)'
p414
ss(S'image'
p415
g268
tp416
(dp417
S'install-stem'
p418
S'vmlinux'
p419
ss(S'base'
p420
g33
tp421
(dp422
S'kernel-arch'
p423
S'sparc'
p424
sg115
(lp425
g78
ass(S'image'
p426
g18
NS'5kc-malta'
p427
tp428
(dp429
S'configs'
p430
(lp431
S'kernelarch-mips/config.5kc-malta'
p432
ass(S'base'
p433
g294
tp434
(dp435
S'kernel-arch'
p436
S'powerpc'
p437
sg115
(lp438
g78
ass(S'relations'
p439
g128
tp440
(dp441
S'headers%gcc-4.9'
p442
S'linux-compiler-gcc-4.9-arm'
p443
ss(S'image'
p444
g268
NS'5kc-malta'
p445
tp446
(dp447
S'configs'
p448
(lp449
S'kernelarch-mips/config.5kc-malta'
p450
ass(S'image'
p451
g260
NS'sb1-bcm91250a'
p452
tp453
(dp454
S'configs'
p455
(lp456
S'kernelarch-mips/config.sb1-bcm91250a'
p457
ass(S'build'
p458
g260
tp459
(dp460
S'image-file'
p461
S'vmlinux'
p462
ss(g76
S's390x'
p463
g78
tp464
(dp465
g81
I01
sg82
(lp466
S's390x'
p467
ass(S'base'
p468
g260
tp469
(dp470
S'kernel-arch'
p471
S'mips'
p472
sg115
(lp473
g78
ass(S'build'
p474
S'm68k'
p475
tp476
(dp477
S'image-file'
p478
S'vmlinux.gz'
p479
ss(S'build'
p480
g5
tp481
(dp482
S'debug-info'
p483
I01
sS'image-file'
p484
S'arch/x86/boot/bzImage'
p485
ss(S'description'
p486
g18
NS'sb1-bcm91250a'
p487
tp488
(dp489
S'hardware'
p490
S'BCM91250A'
p491
sS'hardware-long'
p492
S'Broadcom BCM91250A systems (aka SWARM)'
p493
ss(S'description'
p494
g77
NS'powerpc64'
p495
tp496
(dp497
S'hardware'
p498
S'64-bit PowerPC'
p499
ss(S'build'
p500
g33
tp501
(dp502
S'image-file'
p503
S'arch/sparc/boot/zImage'
p504
ss(S'image'
p505
g18
tp506
(dp507
S'install-stem'
p508
S'vmlinux'
p509
ss(S'image'
p510
g128
tp511
(dp512
S'suggests'
p513
S'fdutils'
p514
sS'configs'
p515
(lp516
S'kernelarch-arm/config'
p517
aS'armhf/config'
p518
asS'install-stem'
p519
S'vmlinuz'
p520
ss(S'description'
p521
g260
NS'r4k-ip22'
p522
tp523
(dp524
S'hardware'
p525
S'SGI IP22'
p526
sS'hardware-long'
p527
S'SGI IP22 systems (Indy, Indigo2)'
p528
ss(S'build'
p529
g41
tp530
(dp531
S'image-file'
p532
S'vmlinux'
p533
ss(S'description'
p534
g135
NS'686-pae'
p535
tp536
(dp537
S'hardware'
p538
S'modern PCs'
p539
sS'parts'
p540
(lp541
S'pae'
p542
asS'hardware-long'
p543
S'PCs with one or more processors supporting PAE'
p544
ss(S'build'
p545
g231
tp546
(dp547
S'debug-info'
p548
I01
sS'image-file'
p549
S'arch/arm64/boot/Image'
p550
ss(S'build'
p551
g18
tp552
(dp553
S'image-file'
p554
S'vmlinux'
p555
ss(S'base'
p556
g86
tp557
(dp558
S'kernel-arch'
p559
S'mips'
p560
sg115
(lp561
g78
ass(S'description'
p562
g157
NS'versatile'
p563
tp564
(dp565
S'hardware'
p566
S'Versatile'
p567
sS'hardware-long'
p568
S'Versatile systems (PB, AB, Qemu)'
p569
ss(S'description'
p570
g33
NS'sparc64-smp'
p571
tp572
(dp573
S'hardware'
p574
S'multiprocessor 64-bit UltraSPARC'
p575
ss(S'base'
p576
g48
tp577
(dp578
S'kernel-arch'
p579
S'ia64'
p580
sg115
(lp581
g78
asS'compiler'
p582
S'gcc-4.6'
p583
ss(S'base'
p584
g5
tp585
(dp586
S'kernel-arch'
p587
S'x86'
p588
sS'featuresets'
p589
(lp590
S'none'
p591
aS'rt'
p592
ass(S'description'
p593
g231
NS'arm64'
p594
tp595
(dp596
S'hardware'
p597
S'64-bit ARMv8 machines'
p598
ss(S'image'
p599
g176
NS'sparc64-smp'
p600
tp601
(dp602
S'configs'
p603
(lp604
S'kernelarch-sparc/config-smp'
p605
ass(S'description'
p606
g260
NS'4kc-malta'
p607
tp608
(dp609
S'hardware'
p610
S'MIPS Malta'
p611
sS'hardware-long'
p612
S'MIPS Malta boards'
p613
ss(S'image'
p614
tp615
(dp616
S'initramfs-generators'
p617
(lp618
S'initramfs-tools'
p619
aS'initramfs-fallback'
p620
asS'type'
p621
S'plain'
p622
ss(S'description'
p623
g135
tp624
(dp625
S'part-long-pae'
p626
S'This kernel requires PAE (Physical Address Extension).\nThis feature is supported by the Intel Pentium Pro/II/III/4/4M/D, Xeon,\nCore and Atom; AMD Geode NX, Athlon (K7), Duron, Opteron, Sempron,\nTurion or Phenom; Transmeta Efficeon; VIA C7; and some other processors.'
p627
ss(S'image'
p628
g135
NS'586'
p629
tp630
(dp631
S'configs'
p632
(lp633
S'kernelarch-x86/config-arch-32'
p634
aS'i386/config.586'
p635
ass(S'build'
p636
g268
tp637
(dp638
S'image-file'
p639
S'vmlinux'
p640
ss(S'xen'
p641
g5
g26
S'amd64'
p642
tp643
(dp644
S'flavours'
p645
(lp646
S'amd64'
p647
ass(S'image'
p648
g166
NS'powerpc64le'
p649
tp650
(dp651
S'configs'
p652
(lp653
S'kernelarch-powerpc/config-arch-64'
p654
aS'kernelarch-powerpc/config-arch-64-le'
p655
ass(S'image'
p656
g157
tp657
(dp658
S'suggests'
p659
S'fdutils'
p660
sS'configs'
p661
(lp662
S'kernelarch-arm/config'
p663
aS'armel/config'
p664
asS'install-stem'
p665
S'vmlinuz'
p666
ss(S'description'
p667
g260
NS'sb1-bcm91250a'
p668
tp669
(dp670
S'hardware'
p671
S'BCM91250A'
p672
sS'hardware-long'
p673
S'Broadcom BCM91250A systems (aka SWARM)'
p674
ss(S'image'
p675
g336
tp676
(dp677
S'suggests'
p678
S'palo'
p679
sS'install-stem'
p680
S'vmlinux'
p681
ss(S'base'
p682
NS'rt'
p683
tp684
(dp685
S'enabled'
p686
I01
ss(S'relations'
p687
g336
tp688
(dp689
S'gcc-4.9'
p690
S'gcc-4.9, binutils-hppa64, gcc-4.9-hppa64'
p691
ss(S'description'
p692
g48
NS'mckinley'
p693
tp694
(dp695
S'hardware'
p696
S'Itanium II'
p697
ss(S'image'
p698
g188
NS'sh7785lcr'
p699
tp700
(dp701
S'check-size'
p702
I4194304
sS'recommends'
p703
S'uboot-mkimage'
p704
ss(S'image'
p705
g33
NS'sparc64'
p706
tp707
(dp708
S'configs'
p709
(lp710
S'kernelarch-sparc/config-up'
p711
ass(S'description'
p712
g475
NS'm68k'
p713
tp714
(dp715
S'hardware'
p716
S'Motorola MC68020+ family'
p717
ss(g76
g336
g78
tp718
(dp719
g81
I01
sg82
(lp720
S'parisc'
p721
aS'parisc64-smp'
p722
ass(S'description'
p723
g110
NS'alpha-generic'
p724
tp725
(dp726
S'hardware'
p727
S'Alpha'
p728
sS'hardware-long'
p729
S'DEC Alpha systems with extended kernel start address (Wildfire, Titan, Marvel)'
p730
ss(S'image'
p731
g110
tp732
(dp733
S'suggests'
p734
S'aboot, fdutils'
p735
sS'install-stem'
p736
S'vmlinuz'
p737
ss(S'image'
p738
g157
NS'orion5x'
p739
tp740
(dp741
S'check-size'
p742
I2097080
sS'check-size-with-dtb'
p743
I01
sS'configs'
p744
(lp745
S'armel/config-reduced'
p746
aS'armel/config.orion5x'
p747
asS'recommends'
p748
S'uboot-mkimage'
p749
ss(S'base'
p750
g176
tp751
(dp752
S'kernel-arch'
p753
S'sparc'
p754
sg115
(lp755
g78
ass(S'description'
p756
g5
NS'amd64'
p757
tp758
(dp759
S'hardware'
p760
S'64-bit PCs'
p761
sS'hardware-long'
p762
S'PCs with AMD64, Intel 64 or VIA Nano processors'
p763
ss(S'base'
p764
S'or1k'
p765
tp766
(dp767
S'kernel-arch'
p768
S'openrisc'
p769
sS'featuresets'
p770
(lp771
ss(S'image'
p772
g86
NS'5kc-malta'
p773
tp774
(dp775
S'configs'
p776
(lp777
S'kernelarch-mips/config.5kc-malta'
p778
ass(S'base'
p779
S's390'
p780
tp781
(dp782
S'kernel-arch'
p783
S's390'
p784
sS'featuresets'
p785
(lp786
ss(S'description'
p787
g18
NS'4kc-malta'
p788
tp789
(dp790
S'hardware'
p791
S'MIPS Malta'
p792
sS'hardware-long'
p793
S'MIPS Malta boards'
p794
ss(g76
g157
g78
tp795
(dp796
g81
I01
sg82
(lp797
S'kirkwood'
p798
aS'orion5x'
p799
aS'versatile'
p800
ass(S'description'
p801
g135
NS'586'
p802
tp803
(dp804
S'hardware'
p805
S'older PCs'
p806
sS'parts'
p807
(lp808
S'up'
p809
asS'hardware-long'
p810
S'PCs with a single processor not supporting PAE'
p811
ss(S'image'
p812
g77
tp813
(dp814
S'suggests'
p815
S'mkvmlinuz'
p816
sS'configs'
p817
(lp818
sS'install-stem'
p819
S'vmlinux'
p820
ss(S'image'
p821
g260
tp822
(dp823
S'install-stem'
p824
S'vmlinux'
p825
ss(S'image'
p826
g135
tp827
(dp828
S'install-stem'
p829
S'vmlinuz'
p830
sS'configs'
p831
(lp832
sS'bootloaders'
p833
(lp834
S'grub-pc'
p835
aS'extlinux'
p836
ass(g76
g33
g78
tp837
(dp838
g81
I01
sg82
(lp839
S'sparc64'
p840
aS'sparc64-smp'
p841
ass(S'image'
p842
g260
NS'4kc-malta'
p843
tp844
(dp845
S'configs'
p846
(lp847
S'kernelarch-mips/config.4kc-malta'
p848
ass(S'base'
p849
g77
tp850
(dp851
S'kernel-arch'
p852
S'powerpc'
p853
sg115
(lp854
g78
ass(g76
g110
g78
tp855
(dp856
g81
I01
sg82
(lp857
S'alpha-generic'
p858
aS'alpha-smp'
p859
ass(S'description'
p860
g135
S'none'
p861
S'686-pae'
p862
tp863
(dp864
S'parts'
p865
(lp866
S'xen'
p867
ass(S'base'
p868
S'x32'
p869
tp870
(dp871
S'kernel-arch'
p872
S'x86'
p873
sS'featuresets'
p874
(lp875
ss(S'base'
p876
g231
S'none'
p877
tp878
(dp879
S'flavours'
p880
(lp881
S'arm64'
p882
ass(S'build'
p883
g135
NS'686-pae'
p884
tp885
(dp886
S'debug-info'
p887
I01
ss(S'build'
p888
g463
tp889
(dp890
S'image-file'
p891
S'arch/s390/boot/image'
p892
ss(g76
g260
g78
tp893
(dp894
g81
I01
sg82
(lp895
S'r4k-ip22'
p896
aS'r5k-ip32'
p897
aS'sb1-bcm91250a'
p898
aS'4kc-malta'
p899
aS'5kc-malta'
p900
aS'octeon'
p901
ass(S'description'
p902
g166
NS'powerpc64le'
p903
tp904
(dp905
S'hardware'
p906
S'Little-endian 64-bit PowerPC'
p907
ss(S'base'
p908
g463
tp909
(dp910
S'kernel-arch'
p911
S's390'
p912
sg115
(lp913
g78
asS'compiler'
p914
S'gcc-4.8'
p915
ss(S'image'
p916
g86
tp917
(dp918
S'install-stem'
p919
S'vmlinux'
p920
ss(S'image'
p921
g33
NS'sparc32'
p922
tp923
(dp924
S'image-postproc'
p925
S'sparc32-image-postproc'
p926
ss(S'image'
p927
g463
NS's390x'
p928
tp929
(dp930
S'configs'
p931
(lp932
S'kernelarch-s390/config-arch-64'
p933
ass(S'image'
p934
g260
NS'octeon'
p935
tp936
(dp937
S'configs'
p938
(lp939
S'kernelarch-mips/config.octeon'
p940
ass(S'build'
p941
g336
tp942
(dp943
S'image-file'
p944
S'vmlinux'
p945
ss(g76
g48
g78
tp946
(dp947
g81
I01
sg82
(lp948
S'itanium'
p949
aS'mckinley'
p950
ass(S'build'
p951
g188
tp952
(dp953
S'image-file'
p954
S'arch/sh/boot/zImage'
p955
ss(S'image'
p956
g475
tp957
(dp958
S'suggests'
p959
S'vmelilo, fdutils'
p960
sS'install-stem'
p961
S'vmlinuz'
p962
ss(S'image'
p963
g268
NS'loongson-3'
p964
tp965
(dp966
S'configs'
p967
(lp968
S'kernelarch-mips/config.loongson-3'
p969
ass(S'build'
p970
g86
tp971
(dp972
S'image-file'
p973
S'vmlinux'
p974
ss(S'build'
p975
g128
tp976
(dp977
S'image-file'
p978
S'arch/arm/boot/zImage'
p979
ss(S'image'
p980
g18
NS'loongson-3'
p981
tp982
(dp983
S'configs'
p984
(lp985
S'kernelarch-mips/config.loongson-3'
p986
ass(S'base'
p987
g128
tp988
(dp989
S'kernel-arch'
p990
S'arm'
p991
sg115
(lp992
g78
ass(S'description'
p993
g18
NS'loongson-3'
p994
tp995
(dp996
S'hardware'
p997
S'Loongson 3A/3B'
p998
sS'hardware-long'
p999
S'Loongson 3A or 3B based systems (e.g. from Loongson or Lemote)'
p1000
ss(S'image'
p1001
g188
tp1002
(dp1003
S'suggests'
p1004
S'fdutils'
p1005
sS'install-stem'
p1006
S'vmlinuz'
p1007
ss(S'base'
p1008
g336
tp1009
(dp1010
S'kernel-arch'
p1011
S'parisc'
p1012
sg115
(lp1013
g78
ass(S'base'
p1014
g188
tp1015
(dp1016
S'kernel-arch'
p1017
S'sh'
p1018
sg115
(lp1019
g78
ass(S'description'
p1020
g260
NS'5kc-malta'
p1021
tp1022
(dp1023
S'hardware'
p1024
S'MIPS Malta (64-bit)'
p1025
sS'hardware-long'
p1026
S'MIPS Malta boards (64-bit)'
p1027
ss(S'image'
p1028
g18
NS'4kc-malta'
p1029
tp1030
(dp1031
S'configs'
p1032
(lp1033
S'kernelarch-mips/config.4kc-malta'
p1034
ass(S'description'
p1035
tp1036
(dp1037
S'part-long-up'
p1038
S'This kernel is not suitable for SMP (multi-processor,\nmulti-core or hyper-threaded) systems.'
p1039
sS'part-long-xen'
p1040
S'This kernel also runs on a Xen hypervisor.\nIt supports both privileged (dom0) and unprivileged (domU) operation.'
p1041
ss(S'build'
p1042
g176
tp1043
(dp1044
S'image-file'
p1045
S'arch/sparc/boot/zImage'
p1046
ss(S'image'
p1047
g86
NS'octeon'
p1048
tp1049
(dp1050
S'configs'
p1051
(lp1052
S'kernelarch-mips/config.octeon'
p1053
ass(S'image'
p1054
g268
NS'sb1-bcm91250a'
p1055
tp1056
(dp1057
S'configs'
p1058
(lp1059
S'kernelarch-mips/config.sb1-bcm91250a'
p1060
ass(S'image'
p1061
g268
NS'octeon'
p1062
tp1063
(dp1064
S'configs'
p1065
(lp1066
S'kernelarch-mips/config.octeon'
p1067
ass(S'image'
p1068
g33
tp1069
(dp1070
S'suggests'
p1071
S'silo, fdutils'
p1072
sS'configs'
p1073
(lp1074
sS'install-stem'
p1075
S'vmlinuz'
p1076
ss(S'image'
p1077
g176
tp1078
(dp1079
S'suggests'
p1080
S'silo, fdutils'
p1081
sS'configs'
p1082
(lp1083
sS'install-stem'
p1084
S'vmlinuz'
p1085
ss(S'description'
p1086
g463
NS's390x'
p1087
tp1088
(dp1089
S'hardware'
p1090
S'IBM zSeries'
p1091
ss(S'relations'
p1092
g463
tp1093
(dp1094
S'headers%gcc-4.8'
p1095
S'linux-compiler-gcc-4.8-s390'
p1096
ss(S'base'
p1097
g41
tp1098
(dp1099
S'kernel-arch'
p1100
S'powerpc'
p1101
sg115
(lp1102
g78
ass(S'base'
p1103
g336
NS'parisc64-smp'
p1104
tp1105
(dp1106
S'override-host-type'
p1107
S'hppa64-linux-gnu'
p1108
sS'cflags'
p1109
S'-fno-cse-follow-jumps'
p1110
ss(S'description'
p1111
g41
NS'powerpc-smp'
p1112
tp1113
(dp1114
S'hardware'
p1115
S'multiprocessor 32-bit PowerPC'
p1116
ss(S'description'
p1117
g18
NS'loongson-2e'
p1118
tp1119
(dp1120
S'hardware'
p1121
S'Loongson 2E'
p1122
sS'hardware-long'
p1123
S'Lemote Loongson 2E systems'
p1124
ss(S'description'
p1125
g268
NS'loongson-3'
p1126
tp1127
(dp1128
S'hardware'
p1129
S'Loongson 3A/3B'
p1130
sS'hardware-long'
p1131
S'Loongson 3A or 3B based systems (e.g. from Loongson or Lemote)'
p1132
ss(S'build'
p1133
g463
NS's390x'
p1134
tp1135
(dp1136
S'debug-info'
p1137
I01
ss(S'description'
p1138
g268
NS'5kc-malta'
p1139
tp1140
(dp1141
S'hardware'
p1142
S'MIPS Malta'
p1143
sS'hardware-long'
p1144
S'MIPS Malta boards'
p1145
ss(S'image'
p1146
g18
NS'loongson-2f'
p1147
tp1148
(dp1149
S'configs'
p1150
(lp1151
S'kernelarch-mips/config.loongson-2f'
p1152
asS'recommends'
p1153
S'libc6-loongson2f'
p1154
ss(S'image'
p1155
g294
tp1156
(dp1157
S'suggests'
p1158
S'mkvmlinuz'
p1159
sS'install-stem'
p1160
S'vmlinux'
p1161
ss(S'description'
p1162
g48
NS'itanium'
p1163
tp1164
(dp1165
S'hardware'
p1166
S'Itanium'
p1167
ss(S'abi'
p1168
tp1169
(dp1170
S'abiname'
p1171
S'2'
p1172
ss(g76
g294
g78
tp1173
(dp1174
g81
I01
sg82
(lp1175
S'powerpcspe'
p1176
ass(g76
g475
g78
tp1177
(dp1178
g81
I01
sg82
(lp1179
S'm68k'
p1180
ass(S'base'
p1181
g135
g861
tp1182
(dp1183
S'flavours'
p1184
(lp1185
S'586'
p1186
aS'686-pae'
p1187
ass(S'base'
p1188
tp1189
(dp1190
S'arches'
p1191
(lp1192
S'alpha'
p1193
aS'amd64'
p1194
aS'arm64'
p1195
aS'armel'
p1196
aS'armhf'
p1197
aS'hppa'
p1198
aS'i386'
p1199
aS'ia64'
p1200
aS'm68k'
p1201
aS'mips'
p1202
aS'mipsel'
p1203
aS'mips64'
p1204
aS'mips64el'
p1205
aS'or1k'
p1206
aS'powerpc'
p1207
aS'powerpcspe'
p1208
aS'ppc64'
p1209
aS'ppc64el'
p1210
aS's390'
p1211
aS's390x'
p1212
aS'sh4'
p1213
aS'sparc'
p1214
aS'sparc64'
p1215
aS'x32'
p1216
asS'featuresets'
p1217
(lp1218
S'none'
p1219
aS'rt'
p1220
asS'compiler'
p1221
S'gcc-4.9'
p1222
ss(S'description'
p1223
g18
NS'loongson-2f'
p1224
tp1225
(dp1226
S'hardware'
p1227
S'Loongson 2F'
p1228
sS'hardware-long'
p1229
S'Lemote Loongson 2F systems'
p1230
ss(S'description'
p1231
g33
NS'sparc64'
p1232
tp1233
(dp1234
S'hardware'
p1235
S'uniprocessor 64-bit UltraSPARC'
p1236
ss(S'build'
p1237
g157
tp1238
(dp1239
S'image-file'
p1240
S'arch/arm/boot/zImage'
p1241
ss(g76
g41
g78
tp1242
(dp1243
g81
I01
sg82
(lp1244
S'powerpc'
p1245
aS'powerpc-smp'
p1246
aS'powerpc64'
p1247
ass(S'description'
p1248
NS'rt'
p1249
tp1250
(dp1251
S'part-long-rt'
p1252
S'This kernel includes the PREEMPT_RT realtime patch set.'
p1253
sS'parts'
p1254
(lp1255
S'rt'
p1256
asS'part-short-rt'
p1257
S'PREEMPT_RT'
p1258
ss(S'image'
p1259
g260
NS'r4k-ip22'
p1260
tp1261
(dp1262
S'configs'
p1263
(lp1264
S'kernelarch-mips/config.r4k-ip22'
p1265
ass(S'description'
p1266
g128
NS'armmp'
p1267
tp1268
(dp1269
S'hardware'
p1270
S'ARMv7 multiplatform compatible SoCs'
p1271
sS'hardware-long'
p1272
S'ARMv7 multiplatform kernel. See\nhttps://wiki.debian.org/DebianKernel/ARMMP for details of supported\nplatforms'
p1273
ss(S'base'
p1274
g166
tp1275
(dp1276
S'kernel-arch'
p1277
S'powerpc'
p1278
sg115
(lp1279
g78
ass(S'base'
p1280
g268
tp1281
(dp1282
S'kernel-arch'
p1283
S'mips'
p1284
sg115
(lp1285
g78
ass(S'description'
p1286
g260
NS'octeon'
p1287
tp1288
(dp1289
S'hardware'
p1290
S'Octeon'
p1291
sS'hardware-long'
p1292
S'Cavium Networks Octeon'
p1293
ss(S'base'
p1294
g475
tp1295
(dp1296
S'kernel-arch'
p1297
S'm68k'
p1298
sg115
(lp1299
g78
asS'cflags'
p1300
S'-ffreestanding'
p1301
sS'compiler'
p1302
S'gcc-4.8'
p1303
ss(S'image'
p1304
g176
NS'sparc64'
p1305
tp1306
(dp1307
S'configs'
p1308
(lp1309
S'kernelarch-sparc/config-up'
p1310
ass(S'description'
p1311
g268
NS'sb1-bcm91250a'
p1312
tp1313
(dp1314
S'hardware'
p1315
S'BCM91250A'
p1316
sS'hardware-long'
p1317
S'Broadcom BCM91250A systems (aka SWARM)'
p1318
ss(S'image'
p1319
g135
NS'686-pae'
p1320
tp1321
(dp1322
S'configs'
p1323
(lp1324
S'kernelarch-x86/config-arch-32'
p1325
aS'i386/config.686-pae'
p1326
asS'recommends'
p1327
S'libc6-i686'
p1328
ss(S'image'
p1329
g18
NS'loongson-2e'
p1330
tp1331
(dp1332
S'configs'
p1333
(lp1334
S'kernelarch-mips/config.loongson-2e'
p1335
ass(S'description'
p1336
g260
NS'r5k-ip32'
p1337
tp1338
(dp1339
S'hardware'
p1340
S'SGI IP32'
p1341
sS'hardware-long'
p1342
S'SGI IP32 systems (O2)'
p1343
ss(S'description'
p1344
g188
NS'sh7751r'
p1345
tp1346
(dp1347
S'hardware'
p1348
S'sh7751r'
p1349
sS'hardware-long'
p1350
S'Renesas SH7751R R2D plus board'
p1351
ss(S'relations'
p1352
g157
tp1353
(dp1354
S'headers%gcc-4.9'
p1355
S'linux-compiler-gcc-4.9-arm'
p1356
ss(g76
g176
g78
tp1357
(dp1358
g81
I01
sg82
(lp1359
S'sparc64'
p1360
aS'sparc64-smp'
p1361
ass(S'description'
p1362
g176
NS'sparc64-smp'
p1363
tp1364
(dp1365
S'hardware'
p1366
S'multiprocessor 64-bit UltraSPARC'
p1367
ss(S'abi'
p1368
Ng1249
tp1369
(dp1370
S'ignore-changes'
p1371
(lp1372
S'*'
p1373
ass(S'build'
p1374
g135
tp1375
(dp1376
S'image-file'
p1377
S'arch/x86/boot/bzImage'
p1378
ss(S'image'
p1379
g463
tp1380
(dp1381
S'install-stem'
p1382
S'vmlinuz'
p1383
sS'configs'
p1384
(lp1385
sS'bootloaders'
p1386
(lp1387
S's390-tools'
p1388
ass(S'image'
p1389
g128
NS'armmp-lpae'
p1390
tp1391
(dp1392
S'configs'
p1393
(lp1394
S'armhf/config.armmp'
p1395
aS'armhf/config.lpae'
p1396
ass(S'image'
p1397
g231
tp1398
(dp1399
S'install-stem'
p1400
S'vmlinuz'
p1401
ss(S'description'
p1402
g336
NS'parisc'
p1403
tp1404
(dp1405
S'hardware'
p1406
S'32-bit PA-RISC'
p1407
sS'hardware-long'
p1408
S'HP PA-RISC 32-bit systems with max 4 GB RAM'
p1409
ss(S'image'
p1410
g86
NS'sb1-bcm91250a'
p1411
tp1412
(dp1413
S'configs'
p1414
(lp1415
S'kernelarch-mips/config.sb1-bcm91250a'
p1416
ass(S'image'
p1417
g260
NS'r5k-ip32'
p1418
tp1419
(dp1420
S'configs'
p1421
(lp1422
S'kernelarch-mips/config.r5k-ip32'
p1423
ass(g76
g166
g78
tp1424
(dp1425
g81
I01
sg82
(lp1426
S'powerpc64le'
p1427
asstp1428
Rp1429
.