cdebian_linux.config
ConfigCore
p0
(tRp1
(Vabi
p2
tp3
(dp4
Vabiname
p5
Vkali2
p6
sVignore-changes
p7
(lp8
V__cpuhp_*
p9
aV__udp_gso_segment
p10
aVbpf_analyzer
p11
aVbpf_offload_dev_create
p12
aVbpf_verifier_log_write
p13
aVcxl_*
p14
aVdax_flush
p15
aVieee80211_nullfunc_get
p16
aVinet_add_protocol
p17
aVinet_del_protocol
p18
aViommu_device_*
p19
aVmm_iommu_*
p20
aVmv_mbus_*
p21
aVperf_*
p22
aVregister_cxl_calls
p23
aVregister_key_type
p24
aVunregister_cxl_calls
p25
aV*_hw_breakpoint
p26
aVmodule:drivers/crypto/ccp/*
p27
aVmodule:drivers/hv/*
p28
aVmodule:drivers/gpu/drm/sun4i/*
p29
aVmodule:drivers/iio/**
p30
aVmodule:drivers/misc/cxl/*
p31
aVmodule:drivers/misc/lis3lv02d/*
p32
aVmodule:drivers/mtd/nand/*
p33
aVmodule:drivers/net/ethernet/**
p34
aVmodule:drivers/net/wireless/**
p35
aVmodule:drivers/nvdimm/*
p36
aVmodule:drivers/nvme/**
p37
aVmodule:drivers/power/supply/bq27xxx_battery
p38
aVmodule:drivers/scsi/cxgbi/*
p39
aVmodule:drivers/scsi/libiscs*
p40
aVmodule:drivers/scsi/qla2xxx/qla2xxx
p41
aVmodule:drivers/scsi/ufs/*
p42
aVmodule:drivers/target/**
p43
aVmodule:drivers/usb/chipidea/**
p44
aVmodule:drivers/usb/gadget/**
p45
aVmodule:drivers/usb/host/**
p46
aVmodule:drivers/usb/musb/**
p47
aVmodule:fs/nfs/**
p48
aVmodule:net/ceph/libceph
p49
aVmodule:net/l2tp/**
p50
aVmodule:net/openvswitch/**
p51
aVmodule:net/rxrpc/rxrpc
p52
aVmodule:net/sctp/**
p53
aVmodule:sound/core/seq/**
p54
aVmodule:sound/firewire/snd-firewire-lib
p55
aVmodule:sound/pci/hda/*
p56
aVbtree_*
p57
aVvisitor*
p58
aVcan_rx_register
p59
aVip6_xmit
p60
aVmodule:net/dccp/dccp
p61
aVmodule:net/rds/rds
p62
aVdevfreq_*
p63
aVdevm_devfreq_*
p64
aVupdate_devfreq
p65
aVmodule:drivers/infiniband/**
p66
aVacpi_ec_add_query_handler
p67
aVacpi_ec_remove_query_handler
p68
aVfirst_ec
p69
aVdebugfs_create_automount
p70
aVmodule:drivers/iio/imu/inv_mpu6050/*
p71
aVdrm_crtc_accurate_vblank_count
p72
aVacpi_nfit_desc_init
p73
aVacpi_nfit_init
p74
aVloop_register_transfer
p75
aVxen_xlate_*
p76
aVnf_nat_masquerade_ipv4_register_notifier
p77
aVnf_nat_masquerade_ipv6_register_notifier
p78
aVdfltcc_*
p79
aVmodule:drivers/scsi/hisi_sas/*
p80
aV__gfn_*
p81
aV__kvmhv_*
p82
aV__kvm_*
p83
aV__xive_vm_h_*
p84
aVgfn_*
p85
aVh_ipi_redirect
p86
aVhalt_poll_ns*
p87
aVkvm_*
p88
aVkvmhv_*
p89
aVkvmppc_*
p90
aVmark_page_dirty
p91
aVvcpu_*
p92
aVmodule:arch/powerpc/kvm/*
p93
aVmodule:arch/s390/kvm/*
p94
aVmodule:arch/x86/kvm/*
p95
aVuv_info
p96
aVxhci_init_driver
p97
ass(Vbase
p98
tp99
(dp100
Varches
p101
(lp102
Valpha
p103
aVamd64
p104
aVarm64
p105
aVarm64ilp32
p106
aVarmel
p107
aVarmhf
p108
aVhppa
p109
aVi386
p110
aVia64
p111
aVm68k
p112
aVmips
p113
aVmips64
p114
aVmips64el
p115
aVmips64r6
p116
aVmips64r6el
p117
aVmipsel
p118
aVmipsn32
p119
aVmipsn32el
p120
aVmipsn32r6
p121
aVmipsn32r6el
p122
aVmipsr6
p123
aVmipsr6el
p124
aVpowerpc
p125
aVppc64
p126
aVppc64el
p127
aVriscv64
p128
aVs390
p129
aVs390x
p130
aVsh3
p131
aVsh4
p132
aVsparc
p133
aVsparc64
p134
aVx32
p135
asVcompiler
p136
Vgcc-11
p137
sVfeaturesets
p138
(lp139
Vnone
p140
aVrt
p141
ass(Vbuild
p142
tp143
(dp144
Vdebug-info
p145
I01
sVsigned-code
p146
I00
sVtrusted-certs
p147
Vdebian/certs/debian-uefi-certs.pem
p148
ss(Vbase
p149
NVrt
p150
tp151
(dp152
Venabled
p153
I01
ss(Vdescription
p154
tp155
(dp156
Vpart-long-up
p157
VThis kernel is not suitable for SMP (multi-processor,\u000amulti-core or hyper-threaded) systems.
p158
ss(Vimage
p159
tp160
(dp161
Vinitramfs-generators
p162
(lp163
Vinitramfs-tools
p164
aVinitramfs-fallback
p165
asVbreaks
p166
(lp167
Vfwupdate (<< 12-7)
p168
aVwireless-regdb (<< 2019.06.03-1~)
p169
asVrecommends
p170
(lp171
Vapparmor
p172
ass(Vrelations
p173
tp174
(dp175
Vgcc-11
p176
Vgcc-11 <!stage1 !cross !pkg.linux.nokernel>, gcc-11-@gnu-type-package@ <!stage1 cross !pkg.linux.nokernel>
p177
sVinitramfs-fallback
p178
Vlinux-initramfs-tool
p179
sVinitramfs-tools
p180
Vinitramfs-tools (>= 0.120+deb8u2)
p181
ss(Vbase
p182
Valpha
p183
tp184
(dp185
Vdefault-flavour
p186
Valpha-smp
p187
sVkernel-arch
p188
Valpha
p189
sVfeaturesets
p190
(lp191
Vnone
p192
ass(Vbuild
p193
g183
tp194
(dp195
Vimage-file
p196
Varch/alpha/boot/vmlinux.gz
p197
ss(Vimage
p198
g183
tp199
(dp200
Vsuggests
p201
(lp202
Vaboot
p203
aVfdutils
p204
asVinstall-stem
p205
Vvmlinuz
p206
ss(Vdescription
p207
g183
NValpha-generic
p208
tp209
(dp210
Vhardware
p211
VAlpha
p212
sVhardware-long
p213
VDEC Alpha systems with extended kernel start address (Wildfire, Titan, Marvel)
p214
ss(Vdescription
p215
g183
NValpha-smp
p216
tp217
(dp218
Vhardware
p219
VAlpha SMP
p220
sVhardware-long
p221
VDEC Alpha SMP systems with extended kernel start address (Wildfire, Titan, Marvel)
p222
ss(Vbase
p223
g183
g192
tp224
(dp225
Vflavours
p226
(lp227
Valpha-generic
p228
aValpha-smp
p229
asVimplicit-flavour
p230
I01
ss(Vbase
p231
Vamd64
p232
tp233
(dp234
Vfeaturesets
p235
(lp236
Vnone
p237
aVrt
p238
asVkernel-arch
p239
Vx86
p240
ss(Vbuild
p241
g232
tp242
(dp243
Vimage-file
p244
Varch/x86/boot/bzImage
p245
sVsigned-code
p246
I00
sVvdso
p247
I01
ss(Vimage
p248
g232
tp249
(dp250
Vbootloaders
p251
(lp252
Vgrub-pc
p253
aVgrub-efi-amd64
p254
aVextlinux
p255
asVinstall-stem
p256
Vvmlinuz
p257
sVbreaks
p258
(lp259
Vxserver-xorg-input-vmmouse (<< 1:13.0.99)
p260
ass(Vrelations
p261
g232
tp262
(dp263
Vheaders%gcc-11
p264
Vlinux-compiler-gcc-11-x86
p265
ss(Vdescription
p266
g232
NVamd64
p267
tp268
(dp269
Vhardware
p270
V64-bit PCs
p271
sVhardware-long
p272
VPCs with AMD64, Intel 64 or VIA Nano processors
p273
ss(Vdescription
p274
g232
NVcloud-amd64
p275
tp276
(dp277
Vhardware
p278
Vx86-64 cloud
p279
sVhardware-long
p280
Vcloud platforms including Amazon EC2, Microsoft Azure, and Google Compute Engine
p281
ss(Vbase
p282
g232
Vnone
p283
tp284
(dp285
Vflavours
p286
(lp287
Vamd64
p288
aVcloud-amd64
p289
asVdefault-flavour
p290
Vamd64
p291
sVquick-flavour
p292
Vcloud-amd64
p293
ss(Vimage
p294
g232
g283
Vcloud-amd64
p295
tp296
(dp297
Vconfigs
p298
(lp299
Vconfig.cloud
p300
aVamd64/config.cloud-amd64
p301
ass(Vbase
p302
g232
Vrt
p303
tp304
(dp305
Vflavours
p306
(lp307
Vamd64
p308
ass(Vbase
p309
Varm64
p310
tp311
(dp312
Vcross-compile-compat
p313
Varm-linux-gnueabihf-
p314
sVkernel-arch
p315
Varm64
p316
sVfeaturesets
p317
(lp318
Vnone
p319
aVrt
p320
ass(Vbuild
p321
g310
tp322
(dp323
Vimage-file
p324
Varch/arm64/boot/Image
p325
sVsigned-code
p326
I00
sVvdso
p327
I01
ss(Vimage
p328
g310
tp329
(dp330
Vinstall-stem
p331
Vvmlinuz
p332
sVbreaks
p333
(lp334
Vlibmozjs185-1.0
p335
aVlibmozjs-24-0 (<< 24.2.0-5.1~)
p336
ass(Vdescription
p337
g310
NVarm64
p338
tp339
(dp340
Vhardware
p341
V64-bit ARMv8 machines
p342
ss(Vdescription
p343
g310
NVcloud-arm64
p344
tp345
(dp346
Vhardware
p347
Varm64 cloud
p348
sVhardware-long
p349
Vcloud platforms supporting arm64 virtual machines
p350
ss(Vimage
p351
g310
NVarm64
p352
tp353
(dp354
s(Vrelations
p355
g310
tp356
(dp357
Vgcc-11
p358
Vgcc-11 <!stage1 !cross !pkg.linux.nokernel>, gcc-11-aarch64-linux-gnu <!stage1 cross !pkg.linux.nokernel>, gcc-arm-linux-gnueabihf <!stage1 !pkg.linux.nokernel>
p359
sVheaders%gcc-11
p360
Vgcc-11
p361
ss(Vbase
p362
g310
Vnone
p363
tp364
(dp365
Vflavours
p366
(lp367
Varm64
p368
aVcloud-arm64
p369
asVdefault-flavour
p370
Varm64
p371
sVquick-flavour
p372
Vcloud-arm64
p373
ss(Vimage
p374
g310
g363
Vcloud-arm64
p375
tp376
(dp377
Vconfigs
p378
(lp379
Vconfig.cloud
p380
aVarm64/config.cloud-arm64
p381
ass(Vbase
p382
g310
Vrt
p383
tp384
(dp385
Vflavours
p386
(lp387
Varm64
p388
ass(Vbase
p389
Varm64ilp32
p390
tp391
(dp392
Vkernel-arch
p393
Varm64
p394
sVfeaturesets
p395
(lp396
ss(Vbase
p397
Varmel
p398
tp399
(dp400
Vkernel-arch
p401
Varm
p402
sg190
(lp403
g192
ass(Vbuild
p404
g398
tp405
(dp406
Vimage-file
p407
Varch/arm/boot/zImage
p408
sVuncompressed-image-file
p409
Varch/arm/boot/Image
p410
sVsigned-code
p411
I00
ss(Vimage
p412
g398
tp413
(dp414
Vinstall-stem
p415
Vvmlinuz
p416
ss(Vrelations
p417
g398
tp418
(dp419
Vheaders%gcc-11
p420
Vlinux-compiler-gcc-11-arm
p421
ss(Vdescription
p422
g398
NVmarvell
p423
tp424
(dp425
Vhardware
p426
VMarvell Kirkwood/Orion
p427
sVhardware-long
p428
VMarvell Kirkwood and Orion based systems (https://wiki.debian.org/ArmEabiPort#Supported_hardware)
p429
ss(Vdescription
p430
g398
NVrpi
p431
tp432
(dp433
Vhardware
p434
VRaspberry Pi Zero, Zero W and 1
p435
sVhardware-long
p436
VRaspberry Pi Zero, Zero W and 1 based systems
p437
ss(Vimage
p438
g398
NVmarvell
p439
tp440
(dp441
Vrecommends
p442
(lp443
Vu-boot-tools
p444
asVcheck-size
p445
I2729712
sVcheck-size-with-dtb
p446
I01
sVbreaks
p447
(lp448
Vflash-kernel (<< 3.57~)
p449
ass(g223
g398
g192
tp450
(dp451
g226
(lp452
Vmarvell
p453
aVrpi
p454
asg230
I01
ss(Vbase
p455
Varmhf
p456
tp457
(dp458
Vfeaturesets
p459
(lp460
Vnone
p461
aVrt
p462
asVkernel-arch
p463
Varm
p464
ss(Vbuild
p465
g456
tp466
(dp467
Vimage-file
p468
Varch/arm/boot/zImage
p469
sVvdso
p470
I01
sVsigned-code
p471
I00
ss(Vimage
p472
g456
tp473
(dp474
Vinstall-stem
p475
Vvmlinuz
p476
ss(Vrelations
p477
g456
tp478
(dp479
Vheaders%gcc-11
p480
Vlinux-compiler-gcc-11-arm
p481
ss(Vdescription
p482
g456
NVarmmp
p483
tp484
(dp485
Vhardware
p486
VARMv7 multiplatform compatible SoCs
p487
sVhardware-long
p488
VARMv7 multiplatform kernel. See\u000ahttps://wiki.debian.org/DebianKernel/ARMMP for details of supported\u000aplatforms
p489
ss(Vdescription
p490
g456
NVarmmp-lpae
p491
tp492
(dp493
Vhardware
p494
VARMv7 multiplatform compatible SoCs supporting LPAE
p495
sVhardware-long
p496
VARMv7 multiplatform kernel supporting LPAE. See\u000ahttps://wiki.debian.org/DebianKernel/ARMMP for details of supported\u000aplatforms.
p497
ss(Vbase
p498
g456
Vnone
p499
tp500
(dp501
Vflavours
p502
(lp503
Varmmp
p504
aVarmmp-lpae
p505
asVdefault-flavour
p506
Varmmp
p507
ss(Vbase
p508
g456
Vrt
p509
tp510
(dp511
Vflavours
p512
(lp513
Varmmp
p514
ass(Vbase
p515
Vhppa
p516
tp517
(dp518
Vdefault-flavour
p519
Vparisc
p520
sVkernel-arch
p521
Vparisc
p522
sg190
(lp523
g192
ass(Vbuild
p524
g516
tp525
(dp526
Vimage-file
p527
Varch/parisc/boot/bzImage
p528
sVdebug-info
p529
I00
ss(Vimage
p530
g516
tp531
(dp532
Vsuggests
p533
(lp534
Vpalo
p535
asVinstall-stem
p536
Vvmlinuz
p537
ss(Vdescription
p538
g516
NVparisc
p539
tp540
(dp541
Vhardware
p542
V32-bit PA-RISC
p543
sVhardware-long
p544
VHP PA-RISC 32-bit systems with max 4 GB RAM
p545
ss(Vbase
p546
g516
NVparisc64
p547
tp548
(dp549
Vcflags
p550
V-fno-cse-follow-jumps
p551
sVoverride-host-type
p552
Vhppa64-linux-gnu
p553
ss(Vdescription
p554
g516
NVparisc64
p555
tp556
(dp557
Vhardware
p558
V64-bit PA-RISC
p559
sVhardware-long
p560
VHP PA-RISC 64-bit systems with support for more than 4 GB RAM
p561
ss(Vrelations
p562
g516
tp563
(dp564
Vgcc-11
p565
Vgcc-11 <!stage1 !cross !pkg.linux.nokernel>, gcc-11-hppa-linux-gnu <!stage1 cross !pkg.linux.nokernel>, binutils-hppa64-linux-gnu <!stage1 !pkg.linux.nokernel>, gcc-11-hppa64-linux-gnu <!stage1 !pkg.linux.nokernel>
p566
ss(g223
g516
g192
tp567
(dp568
g226
(lp569
Vparisc
p570
aVparisc64
p571
asg230
I01
ss(Vbase
p572
Vi386
p573
tp574
(dp575
Vfeaturesets
p576
(lp577
Vnone
p578
aVrt
p579
asVkernel-arch
p580
Vx86
p581
ss(Vbuild
p582
g573
tp583
(dp584
Vimage-file
p585
Varch/x86/boot/bzImage
p586
sVsigned-code
p587
I00
sVvdso
p588
I01
ss(Vdescription
p589
g573
tp590
(dp591
Vpart-long-pae
p592
VThis kernel requires PAE (Physical Address Extension).\u000aThis feature is supported by the Intel Pentium Pro/II/III/4/4M/D, Xeon,\u000aCore and Atom; AMD Geode NX, Athlon (K7), Duron, Opteron, Sempron,\u000aTurion or Phenom; Transmeta Efficeon; VIA C7; and some other processors.
p593
ss(Vimage
p594
g573
tp595
(dp596
Vbootloaders
p597
(lp598
Vgrub-pc
p599
aVgrub-efi-ia32
p600
aVextlinux
p601
asVinstall-stem
p602
Vvmlinuz
p603
sVbreaks
p604
(lp605
Vxserver-xorg-input-vmmouse (<< 1:13.0.99)
p606
ass(Vrelations
p607
g573
tp608
(dp609
Vheaders%gcc-11
p610
Vlinux-compiler-gcc-11-x86
p611
ss(Vdescription
p612
g573
NV686
p613
tp614
(dp615
Vhardware
p616
Volder PCs
p617
sVhardware-long
p618
VPCs with one or more processors not supporting PAE
p619
ss(Vdescription
p620
g573
NV686-pae
p621
tp622
(dp623
Vhardware
p624
Vmodern PCs
p625
sVhardware-long
p626
VPCs with one or more processors supporting PAE
p627
sVparts
p628
(lp629
Vpae
p630
ass(Vbase
p631
g573
Vnone
p632
tp633
(dp634
Vflavours
p635
(lp636
V686
p637
aV686-pae
p638
asVdefault-flavour
p639
V686-pae
p640
ss(Vbase
p641
g573
Vrt
p642
tp643
(dp644
Vflavours
p645
(lp646
V686-pae
p647
ass(Vbase
p648
Via64
p649
tp650
(dp651
Vdefault-flavour
p652
Vitanium
p653
sVkernel-arch
p654
Via64
p655
sg190
(lp656
g192
ass(Vbuild
p657
g649
tp658
(dp659
Vimage-file
p660
Vvmlinux.gz
p661
ss(Vimage
p662
g649
tp663
(dp664
Vbootloaders
p665
(lp666
Vgrub-efi-ia64
p667
asVinstall-stem
p668
Vvmlinuz
p669
ss(Vdescription
p670
g649
NVitanium
p671
tp672
(dp673
Vhardware
p674
VItanium (Merced)
p675
sVhardware-long
p676
Vsystems with original Itanium (Merced) processors
p677
ss(Vdescription
p678
g649
NVmckinley
p679
tp680
(dp681
Vhardware
p682
VItanium 2+
p683
sVhardware-long
p684
Vsystems with Itanium 2 or 9300/9500/9700-series processors
p685
ss(g223
g649
g192
tp686
(dp687
g226
(lp688
Vitanium
p689
aVmckinley
p690
asg230
I01
ss(Vbase
p691
Vm68k
p692
tp693
(dp694
Vcflags
p695
V-ffreestanding
p696
sVdefault-flavour
p697
Vm68k
p698
sVkernel-arch
p699
Vm68k
p700
sg190
(lp701
g192
ass(Vbuild
p702
g692
tp703
(dp704
Vimage-file
p705
Vvmlinux
p706
ss(Vimage
p707
g692
tp708
(dp709
Vsuggests
p710
(lp711
Vvmelilo
p712
aVfdutils
p713
asVinstall-stem
p714
Vvmlinux
p715
ss(Vdescription
p716
g692
NVm68k
p717
tp718
(dp719
Vhardware
p720
VMotorola MC68020+ family
p721
ss(g223
g692
g192
tp722
(dp723
g226
(lp724
Vm68k
p725
asg230
I01
ss(Vbase
p726
Vmips
p727
tp728
(dp729
Vkernel-arch
p730
Vmips
p731
sg190
(lp732
g192
ass(Vbuild
p733
g727
tp734
(dp735
Vimage-file
p736
Vvmlinuz
p737
ss(Vimage
p738
g727
tp739
(dp740
Vinstall-stem
p741
Vvmlinuz
p742
ss(Vdescription
p743
g727
NV4kc-malta
p744
tp745
(dp746
Vhardware
p747
VMIPS Malta
p748
sVhardware-long
p749
VMIPS Malta boards
p750
ss(Vimage
p751
g727
NV4kc-malta
p752
tp753
(dp754
Vconfigs
p755
(lp756
Vkernelarch-mips/config.malta
p757
aVkernelarch-mips/config.mips32r2
p758
ass(Vdescription
p759
g727
NVmips32r2eb
p760
tp761
(dp762
Vhardware
p763
VMIPS Generic (mips32r2eb)
p764
sVhardware-long
p765
VMIPS Generic platform (mips32r2eb)
p766
ss(Vimage
p767
g727
NVmips32r2eb
p768
tp769
(dp770
Vconfigs
p771
(lp772
Vkernelarch-mips/config.boston
p773
aVkernelarch-mips/config.mips32r2
p774
ass(Vdescription
p775
g727
NVocteon
p776
tp777
(dp778
Vhardware
p779
VOcteon
p780
sVhardware-long
p781
VCavium Networks Octeon
p782
ss(Vbuild
p783
g727
NVocteon
p784
tp785
(dp786
Vimage-file
p787
Vvmlinux
p788
ss(Vimage
p789
g727
NVocteon
p790
tp791
(dp792
Vinstall-stem
p793
Vvmlinux
p794
sVconfigs
p795
(lp796
Vkernelarch-mips/config.octeon
p797
ass(g223
g727
g192
tp798
(dp799
g226
(lp800
V4kc-malta
p801
aVmips32r2eb
p802
aVocteon
p803
asg230
I01
ss(Vbase
p804
Vmips64
p805
tp806
(dp807
Vkernel-arch
p808
Vmips
p809
sg190
(lp810
g192
ass(Vbuild
p811
g805
tp812
(dp813
Vimage-file
p814
Vvmlinuz
p815
ss(Vimage
p816
g805
tp817
(dp818
Vinstall-stem
p819
Vvmlinuz
p820
ss(Vdescription
p821
g805
NV5kc-malta
p822
tp823
(dp824
Vhardware
p825
VMIPS Malta
p826
sVhardware-long
p827
VMIPS Malta boards
p828
ss(Vimage
p829
g805
NV5kc-malta
p830
tp831
(dp832
Vconfigs
p833
(lp834
Vkernelarch-mips/config.malta
p835
aVkernelarch-mips/config.mips64r2
p836
ass(Vdescription
p837
g805
NVmips64r2eb
p838
tp839
(dp840
Vhardware
p841
VMIPS Generic (mips64r2eb)
p842
sVhardware-long
p843
VMIPS Generic platform (mips64r2eb)
p844
ss(Vimage
p845
g805
NVmips64r2eb
p846
tp847
(dp848
Vconfigs
p849
(lp850
Vkernelarch-mips/config.boston
p851
aVkernelarch-mips/config.mips64r2
p852
ass(Vdescription
p853
g805
NVocteon
p854
tp855
(dp856
Vhardware
p857
VOcteon
p858
sVhardware-long
p859
VCavium Networks Octeon
p860
ss(Vbuild
p861
g805
NVocteon
p862
tp863
(dp864
Vimage-file
p865
Vvmlinux
p866
ss(Vimage
p867
g805
NVocteon
p868
tp869
(dp870
Vinstall-stem
p871
Vvmlinux
p872
sVconfigs
p873
(lp874
Vkernelarch-mips/config.octeon
p875
ass(g223
g805
g192
tp876
(dp877
g226
(lp878
V5kc-malta
p879
aVmips64r2eb
p880
aVocteon
p881
asg230
I01
ss(Vbase
p882
Vmips64el
p883
tp884
(dp885
Vkernel-arch
p886
Vmips
p887
sg190
(lp888
g192
ass(Vbuild
p889
g883
tp890
(dp891
Vimage-file
p892
Vvmlinuz
p893
ss(Vimage
p894
g883
tp895
(dp896
Vinstall-stem
p897
Vvmlinuz
p898
ss(Vdescription
p899
g883
NV5kc-malta
p900
tp901
(dp902
Vhardware
p903
VMIPS Malta
p904
sVhardware-long
p905
VMIPS Malta boards
p906
ss(Vimage
p907
g883
NV5kc-malta
p908
tp909
(dp910
Vconfigs
p911
(lp912
Vkernelarch-mips/config.malta
p913
aVkernelarch-mips/config.mips64r2
p914
ass(Vdescription
p915
g883
NVmips64r2el
p916
tp917
(dp918
Vhardware
p919
VMIPS Generic (mips64r2eb)
p920
sVhardware-long
p921
VMIPS Generic platform (mips64r2eb)
p922
ss(Vimage
p923
g883
NVmips64r2el
p924
tp925
(dp926
Vconfigs
p927
(lp928
Vkernelarch-mips/config.boston
p929
aVkernelarch-mips/config.mips64r2
p930
ass(Vdescription
p931
g883
NVloongson-3
p932
tp933
(dp934
Vhardware
p935
VLoongson 3A/3B
p936
sVhardware-long
p937
VLoongson 3A or 3B based systems (e.g. from Loongson or Lemote)
p938
ss(Vimage
p939
g883
NVloongson-3
p940
tp941
(dp942
Vrecommends
p943
(lp944
Vpmon-update
p945
asVconfigs
p946
(lp947
Vkernelarch-mips/config.loongson-3
p948
ass(Vdescription
p949
g883
NVocteon
p950
tp951
(dp952
Vhardware
p953
VOcteon
p954
sVhardware-long
p955
VCavium Networks Octeon
p956
ss(Vbuild
p957
g883
NVocteon
p958
tp959
(dp960
Vimage-file
p961
Vvmlinux
p962
ss(Vimage
p963
g883
NVocteon
p964
tp965
(dp966
Vinstall-stem
p967
Vvmlinux
p968
sVconfigs
p969
(lp970
Vkernelarch-mips/config.octeon
p971
ass(g223
g883
g192
tp972
(dp973
g226
(lp974
V5kc-malta
p975
aVmips64r2el
p976
aVloongson-3
p977
aVocteon
p978
asg230
I01
ss(Vbase
p979
Vmips64r6
p980
tp981
(dp982
Vkernel-arch
p983
Vmips
p984
sg190
(lp985
g192
ass(Vbuild
p986
g980
tp987
(dp988
Vimage-file
p989
Vvmlinuz
p990
ss(Vimage
p991
g980
tp992
(dp993
Vinstall-stem
p994
Vvmlinuz
p995
ss(Vdescription
p996
g980
NVmips64r6eb
p997
tp998
(dp999
Vhardware
p1000
VMIPS Generic (mips64r6eb)
p1001
sVhardware-long
p1002
VMIPS Generic platform (mips64r6eb)
p1003
ss(Vimage
p1004
g980
NVmips64r6eb
p1005
tp1006
(dp1007
Vconfigs
p1008
(lp1009
Vkernelarch-mips/config.boston
p1010
aVkernelarch-mips/config.mips64r6
p1011
ass(g223
g980
g192
tp1012
(dp1013
g226
(lp1014
Vmips64r6eb
p1015
asg230
I01
ss(Vbase
p1016
Vmips64r6el
p1017
tp1018
(dp1019
Vkernel-arch
p1020
Vmips
p1021
sg190
(lp1022
g192
ass(Vbuild
p1023
g1017
tp1024
(dp1025
Vimage-file
p1026
Vvmlinuz
p1027
ss(Vimage
p1028
g1017
tp1029
(dp1030
Vinstall-stem
p1031
Vvmlinuz
p1032
ss(Vdescription
p1033
g1017
NVmips64r6el
p1034
tp1035
(dp1036
Vhardware
p1037
VMIPS Generic (mips64r6el)
p1038
sVhardware-long
p1039
VMIPS Generic platform (mips64r6el)
p1040
ss(Vimage
p1041
g1017
NVmips64r6el
p1042
tp1043
(dp1044
Vconfigs
p1045
(lp1046
Vkernelarch-mips/config.boston
p1047
aVkernelarch-mips/config.mips64r6
p1048
ass(g223
g1017
g192
tp1049
(dp1050
g226
(lp1051
Vmips64r6el
p1052
asg230
I01
ss(Vbase
p1053
Vmipsel
p1054
tp1055
(dp1056
Vkernel-arch
p1057
Vmips
p1058
sg190
(lp1059
g192
ass(Vbuild
p1060
g1054
tp1061
(dp1062
Vimage-file
p1063
Vvmlinuz
p1064
ss(Vimage
p1065
g1054
tp1066
(dp1067
Vinstall-stem
p1068
Vvmlinuz
p1069
ss(Vdescription
p1070
g1054
NV4kc-malta
p1071
tp1072
(dp1073
Vhardware
p1074
VMIPS Malta
p1075
sVhardware-long
p1076
VMIPS Malta boards
p1077
ss(Vimage
p1078
g1054
NV4kc-malta
p1079
tp1080
(dp1081
Vconfigs
p1082
(lp1083
Vkernelarch-mips/config.malta
p1084
aVkernelarch-mips/config.mips32r2
p1085
ass(Vdescription
p1086
g1054
NVmips32r2el
p1087
tp1088
(dp1089
Vhardware
p1090
VMIPS Generic (mips32r2el)
p1091
sVhardware-long
p1092
VMIPS Generic platform (mips32r2el)
p1093
ss(Vimage
p1094
g1054
NVmips32r2el
p1095
tp1096
(dp1097
Vconfigs
p1098
(lp1099
Vkernelarch-mips/config.boston
p1100
aVkernelarch-mips/config.mips32r2
p1101
ass(Vdescription
p1102
g1054
NVloongson-3
p1103
tp1104
(dp1105
Vhardware
p1106
VLoongson 3A/3B
p1107
sVhardware-long
p1108
VLoongson 3A or 3B based systems (e.g. from Loongson or Lemote)
p1109
ss(Vimage
p1110
g1054
NVloongson-3
p1111
tp1112
(dp1113
Vrecommends
p1114
(lp1115
Vpmon-update
p1116
asVconfigs
p1117
(lp1118
Vkernelarch-mips/config.loongson-3
p1119
ass(Vdescription
p1120
g1054
NVocteon
p1121
tp1122
(dp1123
Vhardware
p1124
VOcteon
p1125
sVhardware-long
p1126
VCavium Networks Octeon
p1127
ss(Vbuild
p1128
g1054
NVocteon
p1129
tp1130
(dp1131
Vimage-file
p1132
Vvmlinux
p1133
ss(Vimage
p1134
g1054
NVocteon
p1135
tp1136
(dp1137
Vinstall-stem
p1138
Vvmlinux
p1139
sVconfigs
p1140
(lp1141
Vkernelarch-mips/config.octeon
p1142
ass(g223
g1054
g192
tp1143
(dp1144
g226
(lp1145
V4kc-malta
p1146
aVmips32r2el
p1147
aVloongson-3
p1148
aVocteon
p1149
asg230
I01
ss(Vbase
p1150
Vmipsn32
p1151
tp1152
(dp1153
Vkernel-arch
p1154
Vmips
p1155
sVfeaturesets
p1156
(lp1157
ss(Vbase
p1158
Vmipsn32el
p1159
tp1160
(dp1161
Vkernel-arch
p1162
Vmips
p1163
sVfeaturesets
p1164
(lp1165
ss(Vbase
p1166
Vmipsn32r6
p1167
tp1168
(dp1169
Vkernel-arch
p1170
Vmips
p1171
sVfeaturesets
p1172
(lp1173
ss(Vbase
p1174
Vmipsn32r6el
p1175
tp1176
(dp1177
Vkernel-arch
p1178
Vmips
p1179
sVfeaturesets
p1180
(lp1181
ss(Vbase
p1182
Vmipsr6
p1183
tp1184
(dp1185
Vkernel-arch
p1186
Vmips
p1187
sg190
(lp1188
g192
ass(Vbuild
p1189
g1183
tp1190
(dp1191
Vimage-file
p1192
Vvmlinuz
p1193
ss(Vimage
p1194
g1183
tp1195
(dp1196
Vinstall-stem
p1197
Vvmlinuz
p1198
ss(Vdescription
p1199
g1183
NVmips32r6eb
p1200
tp1201
(dp1202
Vhardware
p1203
VMIPS Generic (mips32r6eb)
p1204
sVhardware-long
p1205
VMIPS Generic platform (mips32r6eb)
p1206
ss(Vimage
p1207
g1183
NVmips32r6eb
p1208
tp1209
(dp1210
Vconfigs
p1211
(lp1212
Vkernelarch-mips/config.boston
p1213
aVkernelarch-mips/config.mips32r6
p1214
ass(g223
g1183
g192
tp1215
(dp1216
g226
(lp1217
Vmips32r6eb
p1218
asg230
I01
ss(Vbase
p1219
Vmipsr6el
p1220
tp1221
(dp1222
Vkernel-arch
p1223
Vmips
p1224
sg190
(lp1225
g192
ass(Vbuild
p1226
g1220
tp1227
(dp1228
Vimage-file
p1229
Vvmlinuz
p1230
ss(Vimage
p1231
g1220
tp1232
(dp1233
Vinstall-stem
p1234
Vvmlinuz
p1235
ss(Vdescription
p1236
g1220
NVmips32r6el
p1237
tp1238
(dp1239
Vhardware
p1240
VMIPS Generic (mips32r6el)
p1241
sVhardware-long
p1242
VMIPS Generic platform (mips32r6el)
p1243
ss(Vimage
p1244
g1220
NVmips32r6el
p1245
tp1246
(dp1247
Vconfigs
p1248
(lp1249
Vkernelarch-mips/config.boston
p1250
aVkernelarch-mips/config.mips32r6
p1251
ass(g223
g1220
g192
tp1252
(dp1253
g226
(lp1254
Vmips32r6el
p1255
asg230
I01
ss(Vbase
p1256
Vpowerpc
p1257
tp1258
(dp1259
Vkernel-arch
p1260
Vpowerpc
p1261
sg190
(lp1262
g192
ass(Vbuild
p1263
g1257
tp1264
(dp1265
Vimage-file
p1266
Vvmlinux
p1267
ss(Vimage
p1268
g1257
tp1269
(dp1270
Vconfigs
p1271
(lp1272
sVbootloaders
p1273
(lp1274
Vgrub-ieee1275
p1275
asVsuggests
p1276
(lp1277
Vmkvmlinuz
p1278
asVinstall-stem
p1279
Vvmlinux
p1280
ss(Vdescription
p1281
g1257
NVpowerpc
p1282
tp1283
(dp1284
Vhardware
p1285
Vuniprocessor 32-bit PowerPC
p1286
ss(Vdescription
p1287
g1257
NVpowerpc-smp
p1288
tp1289
(dp1290
Vhardware
p1291
Vmultiprocessor 32-bit PowerPC
p1292
ss(Vimage
p1293
g1257
NVpowerpc-smp
p1294
tp1295
(dp1296
Vconfigs
p1297
(lp1298
Vpowerpc/config.powerpc
p1299
aVpowerpc/config.powerpc-smp
p1300
ass(Vdescription
p1301
g1257
NVpowerpc64
p1302
tp1303
(dp1304
Vhardware
p1305
V64-bit PowerPC
p1306
ss(Vimage
p1307
g1257
NVpowerpc64
p1308
tp1309
(dp1310
Vconfigs
p1311
(lp1312
Vkernelarch-powerpc/config-arch-64
p1313
aVkernelarch-powerpc/config-arch-64-be
p1314
ass(g223
g1257
g192
tp1315
(dp1316
g226
(lp1317
Vpowerpc
p1318
aVpowerpc-smp
p1319
aVpowerpc64
p1320
asg230
I01
ss(Vbase
p1321
Vppc64
p1322
tp1323
(dp1324
Vdefault-flavour
p1325
Vpowerpc64
p1326
sVkernel-arch
p1327
Vpowerpc
p1328
sg190
(lp1329
g192
ass(Vbuild
p1330
g1322
tp1331
(dp1332
Vimage-file
p1333
Vvmlinux
p1334
ss(Vimage
p1335
g1322
tp1336
(dp1337
Vconfigs
p1338
(lp1339
sVbootloaders
p1340
(lp1341
Vgrub-ieee1275
p1342
asVsuggests
p1343
(lp1344
Vmkvmlinuz
p1345
asVinstall-stem
p1346
Vvmlinux
p1347
ss(Vdescription
p1348
g1322
NVpowerpc64
p1349
tp1350
(dp1351
Vhardware
p1352
V64-bit PowerPC
p1353
ss(Vimage
p1354
g1322
NVpowerpc64
p1355
tp1356
(dp1357
Vconfigs
p1358
(lp1359
Vkernelarch-powerpc/config-arch-64
p1360
aVkernelarch-powerpc/config-arch-64-be
p1361
ass(g223
g1322
g192
tp1362
(dp1363
g226
(lp1364
Vpowerpc64
p1365
asg230
I01
ss(Vbase
p1366
Vppc64el
p1367
tp1368
(dp1369
Vdefault-flavour
p1370
Vpowerpc64le
p1371
sVkernel-arch
p1372
Vpowerpc
p1373
sg190
(lp1374
g192
ass(Vbuild
p1375
g1367
tp1376
(dp1377
Vimage-file
p1378
Vvmlinux
p1379
ss(Vimage
p1380
g1367
tp1381
(dp1382
Vconfigs
p1383
(lp1384
sVbootloaders
p1385
(lp1386
Vgrub-ieee1275
p1387
asVsuggests
p1388
(lp1389
Vmkvmlinuz
p1390
asVinstall-stem
p1391
Vvmlinux
p1392
ss(Vdescription
p1393
g1367
NVpowerpc64le
p1394
tp1395
(dp1396
Vhardware
p1397
VLittle-endian 64-bit PowerPC
p1398
ss(Vimage
p1399
g1367
NVpowerpc64le
p1400
tp1401
(dp1402
Vconfigs
p1403
(lp1404
Vkernelarch-powerpc/config-arch-64
p1405
aVkernelarch-powerpc/config-arch-64-le
p1406
ass(g223
g1367
g192
tp1407
(dp1408
g226
(lp1409
Vpowerpc64le
p1410
asg230
I01
ss(Vbase
p1411
Vriscv64
p1412
tp1413
(dp1414
Vkernel-arch
p1415
Vriscv
p1416
sVfeaturesets
p1417
(lp1418
Vnone
p1419
ass(Vbuild
p1420
g1412
tp1421
(dp1422
Vimage-file
p1423
Varch/riscv/boot/Image
p1424
sVvdso
p1425
I01
ss(Vimage
p1426
g1412
tp1427
(dp1428
Vinstall-stem
p1429
Vvmlinux
p1430
ss(Vdescription
p1431
g1412
NVriscv64
p1432
tp1433
(dp1434
Vhardware
p1435
V64-bit RISC-V platforms
p1436
sVhardware-long
p1437
V64-bit RISC-V platforms
p1438
ss(Vbase
p1439
g1412
Vnone
p1440
tp1441
(dp1442
Vflavours
p1443
(lp1444
Vriscv64
p1445
asVdefault-flavour
p1446
Vriscv64
p1447
ss(Vbase
p1448
Vs390
p1449
tp1450
(dp1451
Vkernel-arch
p1452
Vs390
p1453
sVfeaturesets
p1454
(lp1455
ss(Vbase
p1456
Vs390x
p1457
tp1458
(dp1459
Vdefault-flavour
p1460
Vs390x
p1461
sVkernel-arch
p1462
Vs390
p1463
sg190
(lp1464
g192
ass(Vbuild
p1465
g1457
tp1466
(dp1467
Vimage-file
p1468
Varch/s390/boot/bzImage
p1469
sVvdso
p1470
I01
ss(Vimage
p1471
g1457
tp1472
(dp1473
Vbootloaders
p1474
(lp1475
Vs390-tools
p1476
asVinstall-stem
p1477
Vvmlinuz
p1478
ss(Vrelations
p1479
g1457
tp1480
(dp1481
Vheaders%gcc-11
p1482
Vlinux-compiler-gcc-11-s390
p1483
ss(Vdescription
p1484
g1457
NVs390x
p1485
tp1486
(dp1487
Vhardware
p1488
VIBM zSeries
p1489
ss(g223
g1457
g192
tp1490
(dp1491
g226
(lp1492
Vs390x
p1493
asg230
I01
ss(Vbase
p1494
Vsh3
p1495
tp1496
(dp1497
Vkernel-arch
p1498
Vsh
p1499
sVfeaturesets
p1500
(lp1501
ss(Vbase
p1502
Vsh4
p1503
tp1504
(dp1505
Vkernel-arch
p1506
Vsh
p1507
sg190
(lp1508
g192
ass(Vbuild
p1509
g1503
tp1510
(dp1511
Vimage-file
p1512
Varch/sh/boot/zImage
p1513
ss(Vimage
p1514
g1503
tp1515
(dp1516
Vinstall-stem
p1517
Vvmlinuz
p1518
ss(Vdescription
p1519
g1503
NVsh7751r
p1520
tp1521
(dp1522
Vhardware
p1523
Vsh7751r
p1524
sVhardware-long
p1525
VRenesas SH7751R R2D plus board
p1526
ss(Vdescription
p1527
g1503
NVsh7785lcr
p1528
tp1529
(dp1530
Vhardware
p1531
Vsh7785lcr
p1532
sVhardware-long
p1533
VRenesas SH7785 reference board
p1534
ss(Vimage
p1535
g1503
NVsh7785lcr
p1536
tp1537
(dp1538
Vrecommends
p1539
(lp1540
Vu-boot-tools
p1541
asVcheck-size
p1542
I4194304
ss(g223
g1503
g192
tp1543
(dp1544
g226
(lp1545
Vsh7751r
p1546
aVsh7785lcr
p1547
asg230
I01
ss(Vbase
p1548
Vsparc
p1549
tp1550
(dp1551
Vkernel-arch
p1552
Vsparc
p1553
sVfeaturesets
p1554
(lp1555
ss(Vbase
p1556
Vsparc64
p1557
tp1558
(dp1559
Vdefault-flavour
p1560
Vsparc64-smp
p1561
sVkernel-arch
p1562
Vsparc
p1563
sg190
(lp1564
g192
ass(Vbuild
p1565
g1557
tp1566
(dp1567
Vimage-file
p1568
Vvmlinux
p1569
ss(Vimage
p1570
g1557
tp1571
(dp1572
Vconfigs
p1573
(lp1574
sVbootloaders
p1575
(lp1576
Vgrub-ieee1275
p1577
asVsuggests
p1578
(lp1579
Vfdutils
p1580
asVinstall-stem
p1581
Vvmlinux
p1582
ss(Vdescription
p1583
g1557
NVsparc64
p1584
tp1585
(dp1586
Vhardware
p1587
Vuniprocessor 64-bit UltraSPARC
p1588
ss(Vimage
p1589
g1557
NVsparc64
p1590
tp1591
(dp1592
Vconfigs
p1593
(lp1594
Vkernelarch-sparc/config-up
p1595
ass(Vdescription
p1596
g1557
NVsparc64-smp
p1597
tp1598
(dp1599
Vhardware
p1600
Vmultiprocessor 64-bit UltraSPARC
p1601
ss(Vimage
p1602
g1557
NVsparc64-smp
p1603
tp1604
(dp1605
Vconfigs
p1606
(lp1607
Vkernelarch-sparc/config-smp
p1608
ass(g223
g1557
g192
tp1609
(dp1610
g226
(lp1611
Vsparc64
p1612
aVsparc64-smp
p1613
asg230
I01
ss(Vbase
p1614
Vx32
p1615
tp1616
(dp1617
Vkernel-arch
p1618
Vx86
p1619
sVfeaturesets
p1620
(lp1621
ss(Vabi
p1622
NVrt
p1623
tp1624
(dp1625
Vignore-changes
p1626
(lp1627
V*
p1628
ass(Vdescription
p1629
Ng1623
tp1630
(dp1631
Vpart-long-rt
p1632
VThis kernel includes the PREEMPT_RT realtime patch set.
p1633
sVpart-short-rt
p1634
VPREEMPT_RT
p1635
sVparts
p1636
(lp1637
Vrt
p1638
ass(Vversion
p1639
tp1640
(dp1641
Vsource
p1642
V5.16.10-1kali1
p1643
sVupstream
p1644
V5.16
p1645
sVabiname_base
p1646
V5.16.0
p1647
sVabiname
p1648
V5.16.0-kali2
p1649
ss.