ccopy_reg
_reconstructor
p0
(cdebian_linux.config
ConfigCore
p1
c__builtin__
dict
p2
(dp3
(Vimage
p4
Valpha
p5
tp6
(dp7
Vinstall-stem
p8
Vvmlinuz
p9
sVsuggests
p10
Vaboot, fdutils
p11
ss(Vbuild
p12
Vmips64el
p13
tp14
(dp15
Vimage-file
p16
Vvmlinux
p17
ss(Vbase
p18
tp19
(dp20
Vcompiler
p21
Vgcc-4.9
p22
sVarches
p23
(lp24
Valpha
p25
aVamd64
p26
aVarm64
p27
aVarmel
p28
aVarmhf
p29
aVhppa
p30
aVi386
p31
aVm68k
p32
aVmips
p33
aVmipsel
p34
aVmips64
p35
aVmips64el
p36
aVor1k
p37
aVpowerpc
p38
aVpowerpcspe
p39
aVppc64
p40
aVppc64el
p41
aVs390
p42
aVs390x
p43
aVsh4
p44
aVsparc
p45
aVsparc64
p46
aVx32
p47
asVfeaturesets
p48
(lp49
Vnone
p50
aVrt
p51
ass(Vdescription
p52
Vppc64
p53
NVpowerpc64
p54
tp55
(dp56
Vhardware
p57
V64-bit PowerPC
p58
ss(Vbase
p59
Varmhf
p60
Vnone
p61
tp62
(dp63
Vflavours
p64
(lp65
Varmmp
p66
aVarmmp-lpae
p67
asVimplicit-flavour
p68
I01
ss(Vbuild
p69
Vamd64
p70
tp71
(dp72
Vimage-file
p73
Varch/x86/boot/bzImage
p74
sVdebug-info
p75
I01
ss(Vimage
p76
Vmips
p77
NVocteon
p78
tp79
(dp80
Vconfigs
p81
(lp82
Vkernelarch-mips/config.octeon
p83
ass(Vbuild
p84
Vi386
p85
tp86
(dp87
Vimage-file
p88
Varch/x86/boot/bzImage
p89
ss(Vimage
p90
tp91
(dp92
Vinitramfs-generators
p93
(lp94
Vinitramfs-tools
p95
aVinitramfs-fallback
p96
asVtype
p97
Vplain
p98
ss(Vdescription
p99
Vs390x
p100
NVs390x
p101
tp102
(dp103
Vhardware
p104
VIBM zSeries
p105
ss(Vbase
p106
g70
Vnone
p107
tp108
(dp109
Vflavours
p110
(lp111
Vamd64
p112
ass(Vimage
p113
Vppc64el
p114
tp115
(dp116
Vinstall-stem
p117
Vvmlinux
p118
sVsuggests
p119
Vmkvmlinuz
p120
sVconfigs
p121
(lp122
ss(Vxen
p123
g70
g107
Vamd64
p124
tp125
(dp126
Vflavours
p127
(lp128
Vamd64
p129
ass(Vbuild
p130
g53
tp131
(dp132
Vimage-file
p133
Vvmlinux
p134
ss(Vdescription
p135
Vsh4
p136
NVsh7785lcr
p137
tp138
(dp139
Vhardware
p140
Vsh7785lcr
p141
sVhardware-long
p142
VRenesas SH7785 reference board
p143
ss(g59
g136
g61
tp144
(dp145
g64
(lp146
Vsh7751r
p147
aVsh7785lcr
p148
asg68
I01
ss(Vbuild
p149
g100
tp150
(dp151
Vimage-file
p152
Varch/s390/boot/image
p153
ss(Vbase
p154
g13
tp155
(dp156
Vkernel-arch
p157
Vmips
p158
sVfeaturesets
p159
(lp160
g61
ass(Vdescription
p161
Vsparc64
p162
NVsparc64
p163
tp164
(dp165
Vhardware
p166
Vuniprocessor 64-bit UltraSPARC
p167
ss(Vbase
p168
g114
tp169
(dp170
Vkernel-arch
p171
Vpowerpc
p172
sg159
(lp173
g61
ass(g59
Vmips64
p174
g61
tp175
(dp176
g64
(lp177
V5kc-malta
p178
aVocteon
p179
asg68
I01
ss(Vdescription
p180
g85
tp181
(dp182
Vpart-long-pae
p183
VThis kernel requires PAE (Physical Address Extension).\u000aThis feature is supported by the Intel Pentium Pro/II/III/4/4M/D, Xeon,\u000aCore and Atom; AMD Geode NX, Athlon (K7), Duron, Opteron, Sempron,\u000aTurion or Phenom; Transmeta Efficeon; VIA C7; and some other processors.
p184
ss(Vbase
p185
Vpowerpcspe
p186
tp187
(dp188
Vkernel-arch
p189
Vpowerpc
p190
sg159
(lp191
g61
ass(Vdescription
p192
g85
NV686-pae
p193
tp194
(dp195
Vparts
p196
(lp197
Vpae
p198
asVhardware
p199
Vmodern PCs
p200
sVhardware-long
p201
VPCs with one or more processors supporting PAE
p202
ss(Vdescription
p203
Vpowerpc
p204
NVpowerpc-smp
p205
tp206
(dp207
Vhardware
p208
Vmultiprocessor 32-bit PowerPC
p209
ss(Vimage
p210
Varmel
p211
tp212
(dp213
Vinstall-stem
p214
Vvmlinuz
p215
sVsuggests
p216
Vfdutils
p217
sVconfigs
p218
(lp219
Vkernelarch-arm/config
p220
aVarmel/config
p221
ass(Vbase
p222
g85
Vrt
p223
tp224
(dp225
Vflavours
p226
(lp227
V686-pae
p228
ass(Vdescription
p229
g162
NVsparc64-smp
p230
tp231
(dp232
Vhardware
p233
Vmultiprocessor 64-bit UltraSPARC
p234
ss(Vdescription
p235
Vhppa
p236
NVparisc64-smp
p237
tp238
(dp239
Vhardware
p240
Vmultiprocessor 64-bit PA-RISC
p241
sVhardware-long
p242
VHP PA-RISC 64-bit SMP systems with support for more than 4 GB RAM
p243
ss(Vimage
p244
g204
NVpowerpc-smp
p245
tp246
(dp247
Vconfigs
p248
(lp249
Vpowerpc/config.powerpc
p250
aVpowerpc/config.powerpc-smp
p251
ass(Vbuild
p252
Varm64
p253
tp254
(dp255
Vimage-file
p256
Varch/arm64/boot/Image
p257
sVdebug-info
p258
I01
ss(Vimage
p259
Vm68k
p260
tp261
(dp262
Vinstall-stem
p263
Vvmlinuz
p264
sVsuggests
p265
Vvmelilo, fdutils
p266
ss(Vdescription
p267
g174
NV5kc-malta
p268
tp269
(dp270
Vhardware
p271
VMIPS Malta
p272
sVhardware-long
p273
VMIPS Malta boards
p274
ss(Vbase
p275
Vor1k
p276
tp277
(dp278
Vkernel-arch
p279
Vopenrisc
p280
sVfeaturesets
p281
(lp282
ss(Vdescription
p283
g174
NVocteon
p284
tp285
(dp286
Vhardware
p287
VOcteon
p288
sVhardware-long
p289
VCavium Networks Octeon
p290
ss(Vbase
p291
g85
tp292
(dp293
Vcompiler
p294
Vgcc-5
p295
sVkernel-arch
p296
Vx86
p297
sVfeaturesets
p298
(lp299
Vnone
p300
aVrt
p301
ass(g59
g114
g61
tp302
(dp303
g64
(lp304
Vpowerpc64le
p305
asg68
I01
ss(g59
g53
g61
tp306
(dp307
g64
(lp308
Vpowerpc64
p309
asg68
I01
ss(g59
g211
g61
tp310
(dp311
g64
(lp312
Vkirkwood
p313
aVorion5x
p314
aVversatile
p315
asg68
I01
ss(Vimage
p316
g60
NVarmmp-lpae
p317
tp318
(dp319
Vconfigs
p320
(lp321
Varmhf/config.armmp
p322
aVarmhf/config.lpae
p323
ass(g59
Vmipsel
p324
g61
tp325
(dp326
g64
(lp327
V4kc-malta
p328
aV5kc-malta
p329
aVloongson-2e
p330
aVloongson-2f
p331
aVloongson-3
p332
asg68
I01
ss(Vrelations
p333
tp334
(dp335
Vgcc-4.9
p336
Vgcc-4.9 <!stage1>
p337
sVgcc-4.8
p338
Vgcc-4.8 <!stage1>
p339
sVgcc-5
p340
Vgcc-5 <!stage1>
p341
sVinitramfs-fallback
p342
Vlinux-initramfs-tool
p343
sVinitramfs-tools
p344
Vinitramfs-tools (>= 0.110~)
p345
ss(Vimage
p346
g324
NV4kc-malta
p347
tp348
(dp349
Vconfigs
p350
(lp351
Vkernelarch-mips/config.4kc-malta
p352
ass(Vdescription
p353
g77
NV5kc-malta
p354
tp355
(dp356
Vhardware
p357
VMIPS Malta (64-bit)
p358
sVhardware-long
p359
VMIPS Malta boards (64-bit)
p360
ss(Vbuild
p361
g85
NV686-pae
p362
tp363
(dp364
Vdebug-info
p365
I01
ss(g59
g100
g61
tp366
(dp367
g64
(lp368
Vs390x
p369
asg68
I01
ss(Vbuild
p370
g211
tp371
(dp372
Vimage-file
p373
Varch/arm/boot/zImage
p374
ss(Vdescription
p375
tp376
(dp377
Vpart-long-up
p378
VThis kernel is not suitable for SMP (multi-processor,\u000amulti-core or hyper-threaded) systems.
p379
sVpart-long-xen
p380
VThis kernel also runs on a Xen hypervisor.\u000aIt supports both privileged (dom0) and unprivileged (domU) operation.
p381
ss(Vimage
p382
g174
NVocteon
p383
tp384
(dp385
Vconfigs
p386
(lp387
Vkernelarch-mips/config.octeon
p388
ass(Vimage
p389
g204
NVpowerpc64
p390
tp391
(dp392
Vconfigs
p393
(lp394
Vkernelarch-powerpc/config-arch-64
p395
aVkernelarch-powerpc/config-arch-64-be
p396
ass(Vbase
p397
g324
tp398
(dp399
Vkernel-arch
p400
Vmips
p401
sg159
(lp402
g61
ass(Vdescription
p403
g60
NVarmmp-lpae
p404
tp405
(dp406
Vhardware
p407
VARMv7 multiplatform compatible SoCs supporting LPAE
p408
sVhardware-long
p409
VARMv7 multiplatform kernel supporting LPAE. See\u000ahttps://wiki.debian.org/DebianKernel/ARMMP for details of supported\u000aplatforms.
p410
ss(Vimage
p411
g85
NV686-pae
p412
tp413
(dp414
Vrecommends
p415
Vlibc6-i686
p416
sVconfigs
p417
(lp418
Vkernelarch-x86/config-arch-32
p419
aVi386/config.686-pae
p420
ass(Vimage
p421
g77
NV5kc-malta
p422
tp423
(dp424
Vconfigs
p425
(lp426
Vkernelarch-mips/config.5kc-malta
p427
ass(Vimage
p428
g204
tp429
(dp430
Vinstall-stem
p431
Vvmlinux
p432
sVsuggests
p433
Vmkvmlinuz
p434
sVconfigs
p435
(lp436
ss(Vdescription
p437
g13
NV5kc-malta
p438
tp439
(dp440
Vhardware
p441
VMIPS Malta
p442
sVhardware-long
p443
VMIPS Malta boards
p444
ss(Vdescription
p445
g114
NVpowerpc64le
p446
tp447
(dp448
Vhardware
p449
VLittle-endian 64-bit PowerPC
p450
ss(Vbase
p451
g5
tp452
(dp453
Vkernel-arch
p454
Valpha
p455
sg159
(lp456
g61
ass(Vbase
p457
g100
tp458
(dp459
Vkernel-arch
p460
Vs390
p461
sg159
(lp462
g61
ass(Vimage
p463
g13
NVloongson-3
p464
tp465
(dp466
Vconfigs
p467
(lp468
Vkernelarch-mips/config.loongson-3
p469
ass(Vbase
p470
g53
tp471
(dp472
Vkernel-arch
p473
Vpowerpc
p474
sg159
(lp475
g61
ass(Vbuild
p476
g60
tp477
(dp478
Vimage-file
p479
Varch/arm/boot/zImage
p480
ss(Vbase
p481
g236
tp482
(dp483
Vkernel-arch
p484
Vparisc
p485
sg159
(lp486
g61
ass(Vbuild
p487
g260
tp488
(dp489
Vimage-file
p490
Vvmlinux.gz
p491
ss(g59
g5
g61
tp492
(dp493
g64
(lp494
Valpha-generic
p495
aValpha-smp
p496
asg68
I01
ss(Vabi
p497
tp498
(dp499
Vabiname
p500
V1
p501
sVignore-changes
p502
(lp503
Vmodule:net/dccp/dccp
p504
aVfl6_*
p505
aVinet_sk_diag_fill
p506
aVip6_append_data
p507
aVip6_datagram_send_ctl
p508
aVip6_xmit
p509
aVipv6_dup_options
p510
aVipv6_fixup_options
p511
aVipv6_push_nfrag_opts
p512
aVtcp_cong_avoid_ai
p513
aVtcp_slow_start
p514
aVpin_is_valid
p515
aVpinctrl_*
p516
ass(Vdescription
p517
g324
NVloongson-2f
p518
tp519
(dp520
Vhardware
p521
VLoongson 2F
p522
sVhardware-long
p523
VLemote Loongson 2F systems
p524
ss(Vbase
p525
g85
Vnone
p526
tp527
(dp528
Vflavours
p529
(lp530
V686
p531
aV686-pae
p532
ass(Vbuild
p533
g174
tp534
(dp535
Vimage-file
p536
Vvmlinux
p537
ss(Vdescription
p538
NVrt
p539
tp540
(dp541
Vparts
p542
(lp543
Vrt
p544
asVpart-short-rt
p545
VPREEMPT_RT
p546
sVpart-long-rt
p547
VThis kernel includes the PREEMPT_RT realtime patch set.
p548
ss(Vbase
p549
Vx32
p550
tp551
(dp552
Vkernel-arch
p553
Vx86
p554
sVfeaturesets
p555
(lp556
ss(g59
g186
g61
tp557
(dp558
g64
(lp559
Vpowerpcspe
p560
asg68
I01
ss(Vdescription
p561
g211
NVorion5x
p562
tp563
(dp564
Vhardware
p565
VMarvell Orion
p566
sVhardware-long
p567
VMarvell Orion 5181, 5182 and 5281 based systems (QNAP TS-109/TS-209, etc)
p568
ss(Vimage
p569
g174
NV5kc-malta
p570
tp571
(dp572
Vconfigs
p573
(lp574
Vkernelarch-mips/config.5kc-malta
p575
ass(Vrelations
p576
g236
tp577
(dp578
Vgcc-4.9
p579
Vgcc-4.9 <!stage1>, binutils-hppa64 <!stage1>, gcc-4.9-hppa64 <!stage1>
p580
ss(Vimage
p581
g324
NVloongson-2e
p582
tp583
(dp584
Vconfigs
p585
(lp586
Vkernelarch-mips/config.loongson-2e
p587
ass(Vdescription
p588
g211
NVkirkwood
p589
tp590
(dp591
Vhardware
p592
VMarvell Kirkwood
p593
sVhardware-long
p594
VMarvell Kirkwood based systems (SheevaPlug, QNAP TS-119/TS-219, etc)
p595
ss(Vdescription
p596
g324
NVloongson-3
p597
tp598
(dp599
Vhardware
p600
VLoongson 3A/3B
p601
sVhardware-long
p602
VLoongson 3A or 3B based systems (e.g. from Loongson or Lemote)
p603
ss(Vdescription
p604
g324
NV4kc-malta
p605
tp606
(dp607
Vhardware
p608
VMIPS Malta
p609
sVhardware-long
p610
VMIPS Malta boards
p611
ss(Vversion
p612
tp613
(dp614
Vabiname
p615
V4.3.0-1
p616
sVabiname_base
p617
V4.3.0
p618
sVsource
p619
V4.3.3-5
p620
sVupstream
p621
V4.3
p622
ss(Vabi
p623
Ng539
tp624
(dp625
Vignore-changes
p626
(lp627
V*
p628
ass(g59
g77
g61
tp629
(dp630
g64
(lp631
V4kc-malta
p632
aV5kc-malta
p633
aVocteon
p634
asg68
I01
ss(Vbase
p635
g260
tp636
(dp637
Vcompiler
p638
Vgcc-4.8
p639
sVkernel-arch
p640
Vm68k
p641
sVcflags
p642
V-ffreestanding
p643
sg159
(lp644
g61
ass(Vimage
p645
g324
NVloongson-2f
p646
tp647
(dp648
Vrecommends
p649
Vlibc6-loongson2f
p650
sVconfigs
p651
(lp652
Vkernelarch-mips/config.loongson-2f
p653
ass(Vdescription
p654
g253
NVarm64
p655
tp656
(dp657
Vhardware
p658
V64-bit ARMv8 machines
p659
ss(Vimage
p660
g162
NVsparc64-smp
p661
tp662
(dp663
Vconfigs
p664
(lp665
Vkernelarch-sparc/config-smp
p666
ass(Vimage
p667
g77
tp668
(dp669
Vinstall-stem
p670
Vvmlinux
p671
ss(Vimage
p672
g253
NVarm64
p673
tp674
(dp675
s(Vdescription
p676
g77
NV4kc-malta
p677
tp678
(dp679
Vhardware
p680
VMIPS Malta
p681
sVhardware-long
p682
VMIPS Malta boards
p683
ss(Vdescription
p684
g13
NVocteon
p685
tp686
(dp687
Vhardware
p688
VOcteon
p689
sVhardware-long
p690
VCavium Networks Octeon
p691
ss(Vdescription
p692
g5
NValpha-generic
p693
tp694
(dp695
Vhardware
p696
VAlpha
p697
sVhardware-long
p698
VDEC Alpha systems with extended kernel start address (Wildfire, Titan, Marvel)
p699
ss(g59
g204
g61
tp700
(dp701
g64
(lp702
Vpowerpc
p703
aVpowerpc-smp
p704
aVpowerpc64
p705
asg68
I01
ss(Vdescription
p706
g136
NVsh7751r
p707
tp708
(dp709
Vhardware
p710
Vsh7751r
p711
sVhardware-long
p712
VRenesas SH7751R R2D plus board
p713
ss(Vbuild
p714
g204
tp715
(dp716
Vimage-file
p717
Vvmlinux
p718
ss(Vdescription
p719
g85
NV686
p720
tp721
(dp722
Vhardware
p723
Volder PCs
p724
sVhardware-long
p725
VPCs with one or more processors not supporting PAE
p726
ss(Vdescription
p727
g60
NVarmmp
p728
tp729
(dp730
Vhardware
p731
VARMv7 multiplatform compatible SoCs
p732
sVhardware-long
p733
VARMv7 multiplatform kernel. See\u000ahttps://wiki.debian.org/DebianKernel/ARMMP for details of supported\u000aplatforms
p734
ss(Vdescription
p735
g5
NValpha-smp
p736
tp737
(dp738
Vhardware
p739
VAlpha SMP
p740
sVhardware-long
p741
VDEC Alpha SMP systems with extended kernel start address (Wildfire, Titan, Marvel)
p742
ss(Vrelations
p743
g211
tp744
(dp745
Vheaders%gcc-4.9
p746
Vlinux-compiler-gcc-4.9-arm
p747
ss(Vdescription
p748
g85
g526
V686-pae
p749
tp750
(dp751
Vparts
p752
(lp753
Vxen
p754
ass(g59
g260
g61
tp755
(dp756
g64
(lp757
Vm68k
p758
asg68
I01
ss(Vimage
p759
g77
NV4kc-malta
p760
tp761
(dp762
Vconfigs
p763
(lp764
Vkernelarch-mips/config.4kc-malta
p765
ass(Vimage
p766
g53
NVpowerpc64
p767
tp768
(dp769
Vconfigs
p770
(lp771
Vkernelarch-powerpc/config-arch-64
p772
aVkernelarch-powerpc/config-arch-64-be
p773
ass(Vbase
p774
g211
tp775
(dp776
Vkernel-arch
p777
Varm
p778
sg159
(lp779
g61
ass(Vdescription
p780
g260
NVm68k
p781
tp782
(dp783
Vhardware
p784
VMotorola MC68020+ family
p785
ss(Vimage
p786
g162
tp787
(dp788
Vinstall-stem
p789
Vvmlinuz
p790
sVsuggests
p791
Vsilo, fdutils
p792
sVconfigs
p793
(lp794
ss(Vimage
p795
g53
tp796
(dp797
Vinstall-stem
p798
Vvmlinux
p799
sVsuggests
p800
Vmkvmlinuz
p801
sVconfigs
p802
(lp803
ss(Vimage
p804
g324
NVloongson-3
p805
tp806
(dp807
Vconfigs
p808
(lp809
Vkernelarch-mips/config.loongson-3
p810
ass(Vbuild
p811
g186
tp812
(dp813
Vimage-file
p814
Vvmlinux
p815
ss(Vimage
p816
g70
NVamd64
p817
tp818
(dp819
Vconfigs
p820
(lp821
Vkernelarch-x86/config-arch-64
p822
ass(Vbuild
p823
g5
tp824
(dp825
Vimage-file
p826
Varch/alpha/boot/vmlinux.gz
p827
ss(Vimage
p828
g324
NV5kc-malta
p829
tp830
(dp831
Vconfigs
p832
(lp833
Vkernelarch-mips/config.5kc-malta
p834
ass(Vimage
p835
g136
tp836
(dp837
Vinstall-stem
p838
Vvmlinuz
p839
sVsuggests
p840
Vfdutils
p841
ss(Vbase
p842
g253
tp843
(dp844
Vkernel-arch
p845
Varm64
p846
sVfeaturesets
p847
(lp848
Vnone
p849
ass(Vdescription
p850
g204
NVpowerpc
p851
tp852
(dp853
Vhardware
p854
Vuniprocessor 32-bit PowerPC
p855
ss(Vimage
p856
g60
tp857
(dp858
Vinstall-stem
p859
Vvmlinuz
p860
sVsuggests
p861
Vfdutils
p862
sVconfigs
p863
(lp864
Vkernelarch-arm/config
p865
ass(Vdescription
p866
g70
NVamd64
p867
tp868
(dp869
Vhardware
p870
V64-bit PCs
p871
sVhardware-long
p872
VPCs with AMD64, Intel 64 or VIA Nano processors
p873
ss(Vbuild
p874
g236
tp875
(dp876
Vimage-file
p877
Vvmlinux
p878
ss(Vdescription
p879
g236
NVparisc
p880
tp881
(dp882
Vhardware
p883
V32-bit PA-RISC
p884
sVhardware-long
p885
VHP PA-RISC 32-bit systems with max 4 GB RAM
p886
ss(Vimage
p887
g70
tp888
(dp889
Vbootloaders
p890
(lp891
Vgrub-pc
p892
aVgrub-efi
p893
aVextlinux
p894
asVbreaks
p895
Vxserver-xorg-input-vmmouse (<< 1:13.0.99)
p896
sVinstall-stem
p897
Vvmlinuz
p898
sVconfigs
p899
(lp900
ss(Vbase
p901
g204
tp902
(dp903
Vkernel-arch
p904
Vpowerpc
p905
sg159
(lp906
g61
ass(Vrelations
p907
g70
tp908
(dp909
Vheaders%gcc-5
p910
Vlinux-compiler-gcc-5-x86
p911
ss(Vimage
p912
g324
tp913
(dp914
Vinstall-stem
p915
Vvmlinux
p916
ss(Vrelations
p917
g85
tp918
(dp919
Vheaders%gcc-5
p920
Vlinux-compiler-gcc-5-x86
p921
ss(Vimage
p922
g174
tp923
(dp924
Vinstall-stem
p925
Vvmlinux
p926
ss(Vbuild
p927
g114
tp928
(dp929
Vimage-file
p930
Vvmlinux
p931
ss(g59
g162
g61
tp932
(dp933
g64
(lp934
Vsparc64
p935
aVsparc64-smp
p936
asg68
I01
ss(Vimage
p937
g13
NVocteon
p938
tp939
(dp940
Vconfigs
p941
(lp942
Vkernelarch-mips/config.octeon
p943
ass(Vimage
p944
g211
NVorion5x
p945
tp946
(dp947
Vrecommends
p948
Vu-boot-tools
p949
sVcheck-size-with-dtb
p950
I01
sVcheck-size
p951
L2097080L
sVconfigs
p952
(lp953
Varmel/config-reduced
p954
aVarmel/config.orion5x
p955
ass(Vimage
p956
g13
tp957
(dp958
Vinstall-stem
p959
Vvmlinux
p960
ss(Vimage
p961
g85
tp962
(dp963
Vbootloaders
p964
(lp965
Vgrub-pc
p966
aVextlinux
p967
asVbreaks
p968
Vxserver-xorg-input-vmmouse (<< 1:13.0.99)
p969
sVinstall-stem
p970
Vvmlinuz
p971
sVconfigs
p972
(lp973
ss(Vimage
p974
g100
tp975
(dp976
Vbootloaders
p977
(lp978
Vs390-tools
p979
asVinstall-stem
p980
Vvmlinuz
p981
sVconfigs
p982
(lp983
ss(Vrelations
p984
g100
tp985
(dp986
Vheaders%gcc-4.9
p987
Vlinux-compiler-gcc-4.9-s390
p988
ss(Vbase
p989
Vsparc
p990
tp991
(dp992
Vkernel-arch
p993
Vsparc
p994
sVfeaturesets
p995
(lp996
ss(Vimage
p997
g186
tp998
(dp999
Vinstall-stem
p1000
Vvmlinux
p1001
sVsuggests
p1002
Vmkvmlinuz
p1003
ss(Vbase
p1004
g70
tp1005
(dp1006
Vcompiler
p1007
Vgcc-5
p1008
sVkernel-arch
p1009
Vx86
p1010
sVfeaturesets
p1011
(lp1012
Vnone
p1013
aVrt
p1014
ass(Vdescription
p1015
g324
NV5kc-malta
p1016
tp1017
(dp1018
Vhardware
p1019
VMIPS Malta (64-bit)
p1020
sVhardware-long
p1021
VMIPS Malta boards (64-bit)
p1022
ss(Vimage
p1023
g253
tp1024
(dp1025
Vinstall-stem
p1026
Vvmlinuz
p1027
ss(Vbuild
p1028
g77
tp1029
(dp1030
Vimage-file
p1031
Vvmlinux
p1032
ss(Vimage
p1033
g85
NV686
p1034
tp1035
(dp1036
Vrecommends
p1037
Vlibc6-i686
p1038
sVconfigs
p1039
(lp1040
Vkernelarch-x86/config-arch-32
p1041
aVi386/config.686
p1042
ass(Vbase
p1043
g60
tp1044
(dp1045
Vkernel-arch
p1046
Varm
p1047
sg159
(lp1048
g61
ass(Vbase
p1049
g253
Vnone
p1050
tp1051
(dp1052
Vflavours
p1053
(lp1054
Varm64
p1055
ass(Vbase
p1056
g70
Vrt
p1057
tp1058
(dp1059
Vflavours
p1060
(lp1061
Vamd64
p1062
ass(Vimage
p1063
g236
tp1064
(dp1065
Vinstall-stem
p1066
Vvmlinux
p1067
sVsuggests
p1068
Vpalo
p1069
ss(Vdescription
p1070
g324
NVloongson-2e
p1071
tp1072
(dp1073
Vhardware
p1074
VLoongson 2E
p1075
sVhardware-long
p1076
VLemote Loongson 2E systems
p1077
ss(Vimage
p1078
g162
NVsparc64
p1079
tp1080
(dp1081
Vconfigs
p1082
(lp1083
Vkernelarch-sparc/config-up
p1084
ass(Vbuild
p1085
g136
tp1086
(dp1087
Vimage-file
p1088
Varch/sh/boot/zImage
p1089
ss(Vimage
p1090
g136
NVsh7785lcr
p1091
tp1092
(dp1093
Vrecommends
p1094
Vu-boot-tools
p1095
sVcheck-size
p1096
L4194304L
ss(Vbase
p1097
g174
tp1098
(dp1099
Vkernel-arch
p1100
Vmips
p1101
sg159
(lp1102
g61
ass(Vbuild
p1103
g100
NVs390x
p1104
tp1105
(dp1106
Vdebug-info
p1107
I01
ss(Vrelations
p1108
g60
tp1109
(dp1110
Vheaders%gcc-4.9
p1111
Vlinux-compiler-gcc-4.9-arm
p1112
ss(Vbuild
p1113
g324
tp1114
(dp1115
Vimage-file
p1116
Vvmlinux
p1117
ss(g59
g236
g61
tp1118
(dp1119
g64
(lp1120
Vparisc
p1121
aVparisc64-smp
p1122
asg68
I01
ss(Vdescription
p1123
g186
tp1124
(dp1125
Vhardware
p1126
V32-bit PowerPC with SPE (instead of AltiVec) with SMP support
p1127
ss(Vimage
p1128
g100
NVs390x
p1129
tp1130
(dp1131
Vconfigs
p1132
(lp1133
Vkernelarch-s390/config-arch-64
p1134
ass(Vbuild
p1135
g162
tp1136
(dp1137
Vimage-file
p1138
Varch/sparc/boot/zImage
p1139
ss(g59
g13
g61
tp1140
(dp1141
g64
(lp1142
V5kc-malta
p1143
aVloongson-3
p1144
aVocteon
p1145
asg68
I01
ss(Vbase
p1146
g77
tp1147
(dp1148
Vkernel-arch
p1149
Vmips
p1150
sg159
(lp1151
g61
ass(Vdescription
p1152
g13
NVloongson-3
p1153
tp1154
(dp1155
Vhardware
p1156
VLoongson 3A/3B
p1157
sVhardware-long
p1158
VLoongson 3A or 3B based systems (e.g. from Loongson or Lemote)
p1159
ss(Vimage
p1160
g13
NV5kc-malta
p1161
tp1162
(dp1163
Vconfigs
p1164
(lp1165
Vkernelarch-mips/config.5kc-malta
p1166
ass(Vdescription
p1167
g211
NVversatile
p1168
tp1169
(dp1170
Vhardware
p1171
VVersatile
p1172
sVhardware-long
p1173
VVersatile systems (PB, AB, Qemu)
p1174
ss(Vimage
p1175
g211
NVkirkwood
p1176
tp1177
(dp1178
Vbreaks
p1179
Vflash-kernel (<< 3.37~)
p1180
sVrecommends
p1181
Vu-boot-tools
p1182
sVcheck-size-with-dtb
p1183
I01
sVcheck-size
p1184
L2097080L
sVconfigs
p1185
(lp1186
Varmel/config-reduced
p1187
aVarmel/config.kirkwood
p1188
ass(Vdescription
p1189
g77
NVocteon
p1190
tp1191
(dp1192
Vhardware
p1193
VOcteon
p1194
sVhardware-long
p1195
VCavium Networks Octeon
p1196
ss(Vbase
p1197
NVrt
p1198
tp1199
(dp1200
Venabled
p1201
I00
ss(Vbase
p1202
g236
NVparisc64-smp
p1203
tp1204
(dp1205
Voverride-host-type
p1206
Vhppa64-linux-gnu
p1207
sVcflags
p1208
V-fno-cse-follow-jumps
p1209
ss(Vbase
p1210
g162
tp1211
(dp1212
Vkernel-arch
p1213
Vsparc
p1214
sg159
(lp1215
g61
ass(Vbase
p1216
g136
tp1217
(dp1218
Vkernel-arch
p1219
Vsh
p1220
sg159
(lp1221
g61
ass(Vdescription
p1222
g70
g107
Vamd64
p1223
tp1224
(dp1225
Vparts
p1226
(lp1227
Vxen
p1228
ass(Vimage
p1229
g114
NVpowerpc64le
p1230
tp1231
(dp1232
Vconfigs
p1233
(lp1234
Vkernelarch-powerpc/config-arch-64
p1235
aVkernelarch-powerpc/config-arch-64-le
p1236
ass(Vbase
p1237
Vs390
p1238
tp1239
(dp1240
Vkernel-arch
p1241
Vs390
p1242
sVfeaturesets
p1243
(lp1244
ss(Vdescription
p1245
g204
NVpowerpc64
p1246
tp1247
(dp1248
Vhardware
p1249
V64-bit PowerPC
p1250
sstp1251
Rp1252
.