cdebian_linux.config
ConfigCore
p0
(tRp1
(Vabi
p2
tp3
(dp4
Vabiname
p5
Vkali2
p6
sVignore-changes
p7
(lp8
V__cpuhp_*
p9
aVbpf_analyzer
p10
aVcxl_*
p11
aVdax_flush
p12
aVieee80211_nullfunc_get
p13
aVinet_add_protocol
p14
aVinet_del_protocol
p15
aViommu_device_*
p16
aVmm_iommu_*
p17
aVmv_mbus_*
p18
aVperf_*
p19
aVregister_cxl_calls
p20
aVregister_key_type
p21
aVunregister_cxl_calls
p22
aV*_hw_breakpoint
p23
aVmodule:drivers/crypto/ccp/*
p24
aVmodule:drivers/hv/*
p25
aVmodule:drivers/gpu/drm/sun4i/*
p26
aVmodule:drivers/iio/**
p27
aVmodule:drivers/misc/cxl/*
p28
aVmodule:drivers/mtd/nand/*
p29
aVmodule:drivers/net/ethernet/**
p30
aVmodule:drivers/net/wireless/**
p31
aVmodule:drivers/nvdimm/*
p32
aVmodule:drivers/power/supply/bq27xxx_battery
p33
aVmodule:drivers/scsi/cxgbi/*
p34
aVmodule:drivers/scsi/libiscs*
p35
aVmodule:drivers/scsi/qla2xxx/qla2xxx
p36
aVmodule:drivers/scsi/ufs/*
p37
aVmodule:drivers/target/**
p38
aVmodule:drivers/usb/chipidea/**
p39
aVmodule:drivers/usb/gadget/**
p40
aVmodule:drivers/usb/host/**
p41
aVmodule:drivers/usb/musb/**
p42
aVmodule:fs/nfs/**
p43
aVmodule:net/ceph/libceph
p44
aVmodule:net/l2tp/**
p45
aVmodule:net/rxrpc/rxrpc
p46
aVmodule:net/sctp/**
p47
aVmodule:sound/core/seq/**
p48
aVmodule:sound/firewire/snd-firewire-lib
p49
aVmodule:sound/pci/hda/*
p50
aVbtree_*
p51
aVvisitor*
p52
aVcan_rx_register
p53
aVip6_xmit
p54
aVmodule:net/dccp/dccp
p55
aVmodule:net/rds/rds
p56
aVdevfreq_*
p57
aVdevm_devfreq_*
p58
aVupdate_devfreq
p59
aVmodule:drivers/infiniband/**
p60
aVacpi_ec_add_query_handler
p61
aVacpi_ec_remove_query_handler
p62
aVfirst_ec
p63
aVdebugfs_create_automount
p64
aVmodule:drivers/iio/imu/inv_mpu6050/*
p65
aVdrm_crtc_accurate_vblank_count
p66
aVacpi_nfit_desc_init
p67
aVacpi_nfit_init
p68
aVloop_register_transfer
p69
aVxen_xlate_*
p70
aVnf_nat_masquerade_ipv4_register_notifier
p71
aVnf_nat_masquerade_ipv6_register_notifier
p72
aVmodule:drivers/scsi/hisi_sas/*
p73
aV__gfn_*
p74
aV__kvmhv_*
p75
aV__kvm_*
p76
aV__xive_vm_h_*
p77
aVgfn_*
p78
aVh_ipi_redirect
p79
aVhalt_poll_ns*
p80
aVkvm_*
p81
aVkvmhv_*
p82
aVkvmppc_*
p83
aVmark_page_dirty
p84
aVvcpu_*
p85
aVmodule:arch/powerpc/kvm/*
p86
aVmodule:arch/s390/kvm/*
p87
aVmodule:arch/x86/kvm/*
p88
ass(Vbase
p89
tp90
(dp91
Varches
p92
(lp93
Valpha
p94
aVamd64
p95
aVarm64
p96
aVarm64ilp32
p97
aVarmel
p98
aVarmhf
p99
aVhppa
p100
aVi386
p101
aVia64
p102
aVm68k
p103
aVmips
p104
aVmips64
p105
aVmips64el
p106
aVmips64r6
p107
aVmips64r6el
p108
aVmipsel
p109
aVmipsn32
p110
aVmipsn32el
p111
aVmipsn32r6
p112
aVmipsn32r6el
p113
aVmipsr6
p114
aVmipsr6el
p115
aVpowerpc
p116
aVppc64
p117
aVppc64el
p118
aVriscv64
p119
aVs390
p120
aVs390x
p121
aVsh3
p122
aVsh4
p123
aVsparc
p124
aVsparc64
p125
aVx32
p126
asVcompiler
p127
Vgcc-9
p128
sVfeaturesets
p129
(lp130
Vnone
p131
aVrt
p132
ass(Vbuild
p133
tp134
(dp135
Vdebug-info
p136
I01
sVsigned-code
p137
I00
ss(Vbase
p138
NVrt
p139
tp140
(dp141
Venabled
p142
I00
ss(Vdescription
p143
tp144
(dp145
Vpart-long-up
p146
VThis kernel is not suitable for SMP (multi-processor,\u000amulti-core or hyper-threaded) systems.
p147
ss(Vimage
p148
tp149
(dp150
Vinitramfs-generators
p151
(lp152
Vinitramfs-tools
p153
aVinitramfs-fallback
p154
asVrecommends
p155
(lp156
Vapparmor
p157
ass(Vrelations
p158
tp159
(dp160
Vgcc-9
p161
Vgcc-9 <!stage1 !cross !pkg.linux.nokernel>, gcc-9-@gnu-type-package@ <!stage1 cross !pkg.linux.nokernel>
p162
sVinitramfs-fallback
p163
Vlinux-initramfs-tool
p164
sVinitramfs-tools
p165
Vinitramfs-tools (>= 0.120+deb8u2)
p166
ss(Vbase
p167
Valpha
p168
tp169
(dp170
Vkernel-arch
p171
Valpha
p172
sVfeaturesets
p173
(lp174
Vnone
p175
ass(Vbuild
p176
g168
tp177
(dp178
Vimage-file
p179
Varch/alpha/boot/vmlinux.gz
p180
ss(Vimage
p181
g168
tp182
(dp183
Vsuggests
p184
(lp185
Vaboot
p186
aVfdutils
p187
asVinstall-stem
p188
Vvmlinuz
p189
ss(Vdescription
p190
g168
NValpha-generic
p191
tp192
(dp193
Vhardware
p194
VAlpha
p195
sVhardware-long
p196
VDEC Alpha systems with extended kernel start address (Wildfire, Titan, Marvel)
p197
ss(Vdescription
p198
g168
NValpha-smp
p199
tp200
(dp201
Vhardware
p202
VAlpha SMP
p203
sVhardware-long
p204
VDEC Alpha SMP systems with extended kernel start address (Wildfire, Titan, Marvel)
p205
ss(Vbase
p206
g168
g175
tp207
(dp208
Vflavours
p209
(lp210
Valpha-generic
p211
aValpha-smp
p212
asVimplicit-flavour
p213
I01
ss(Vbase
p214
Vamd64
p215
tp216
(dp217
Vfeaturesets
p218
(lp219
Vnone
p220
aVrt
p221
asVkernel-arch
p222
Vx86
p223
ss(Vbuild
p224
g215
tp225
(dp226
Vdebug-info
p227
I01
sVimage-file
p228
Varch/x86/boot/bzImage
p229
sVsigned-code
p230
I00
sVvdso
p231
I01
ss(Vimage
p232
g215
tp233
(dp234
Vbootloaders
p235
(lp236
Vgrub-pc
p237
aVgrub-efi-amd64
p238
aVextlinux
p239
asVinstall-stem
p240
Vvmlinuz
p241
sVbreaks
p242
(lp243
Vxserver-xorg-input-vmmouse (<< 1:13.0.99)
p244
ass(Vrelations
p245
g215
tp246
(dp247
Vheaders%gcc-9
p248
Vlinux-compiler-gcc-9-x86
p249
ss(Vdescription
p250
g215
NVamd64
p251
tp252
(dp253
Vhardware
p254
V64-bit PCs
p255
sVhardware-long
p256
VPCs with AMD64, Intel 64 or VIA Nano processors
p257
ss(Vdescription
p258
g215
NVcloud-amd64
p259
tp260
(dp261
Vhardware
p262
Vx86-64 cloud
p263
sVhardware-long
p264
VAmazon EC2, Google Compute Engine and Microsoft Azure cloud platforms
p265
ss(Vbase
p266
g215
Vnone
p267
tp268
(dp269
Vflavours
p270
(lp271
Vamd64
p272
aVcloud-amd64
p273
ass(Vbase
p274
g215
Vrt
p275
tp276
(dp277
Vflavours
p278
(lp279
Vamd64
p280
ass(Vbase
p281
Varm64
p282
tp283
(dp284
Vcross-compile-compat
p285
Varm-linux-gnueabihf-
p286
sVkernel-arch
p287
Varm64
p288
sVfeaturesets
p289
(lp290
Vnone
p291
aVrt
p292
ass(Vbuild
p293
g282
tp294
(dp295
Vdebug-info
p296
I01
sVimage-file
p297
Varch/arm64/boot/Image
p298
sVsigned-code
p299
I00
sVvdso
p300
I01
ss(Vimage
p301
g282
tp302
(dp303
Vinstall-stem
p304
Vvmlinuz
p305
sVbreaks
p306
(lp307
Vlibmozjs185-1.0
p308
aVlibmozjs-24-0 (<< 24.2.0-5.1~)
p309
ass(Vdescription
p310
g282
NVarm64
p311
tp312
(dp313
Vhardware
p314
V64-bit ARMv8 machines
p315
ss(Vimage
p316
g282
NVarm64
p317
tp318
(dp319
s(Vrelations
p320
g282
tp321
(dp322
Vgcc-9
p323
Vgcc-9 <!stage1 !cross !pkg.linux.nokernel>, gcc-9-aarch64-linux-gnu <!stage1 cross !pkg.linux.nokernel>, gcc-arm-linux-gnueabihf <!stage1 !pkg.linux.nokernel>
p324
sVheaders%gcc-9
p325
Vgcc-9
p326
ss(Vbase
p327
g282
Vnone
p328
tp329
(dp330
Vflavours
p331
(lp332
Varm64
p333
ass(Vbase
p334
g282
Vrt
p335
tp336
(dp337
Vflavours
p338
(lp339
Varm64
p340
ass(Vbase
p341
Varm64ilp32
p342
tp343
(dp344
Vkernel-arch
p345
Varm64
p346
sVfeaturesets
p347
(lp348
ss(Vbase
p349
Varmel
p350
tp351
(dp352
Vkernel-arch
p353
Varm
p354
sg173
(lp355
g175
ass(Vbuild
p356
g350
tp357
(dp358
Vimage-file
p359
Varch/arm/boot/zImage
p360
sVuncompressed-image-file
p361
Varch/arm/boot/Image
p362
sVsigned-code
p363
I00
ss(Vimage
p364
g350
tp365
(dp366
Vinstall-stem
p367
Vvmlinuz
p368
ss(Vrelations
p369
g350
tp370
(dp371
Vheaders%gcc-9
p372
Vlinux-compiler-gcc-9-arm
p373
ss(Vdescription
p374
g350
NVmarvell
p375
tp376
(dp377
Vhardware
p378
VMarvell Kirkwood/Orion
p379
sVhardware-long
p380
VMarvell Kirkwood and Orion based systems (https://wiki.debian.org/ArmEabiPort#Supported_hardware)
p381
ss(Vdescription
p382
g350
NVrpi
p383
tp384
(dp385
Vhardware
p386
VRaspberry Pi and Pi Zero
p387
sVhardware-long
p388
VRaspberry Pi, Raspberry Pi Zero based systems
p389
ss(Vimage
p390
g350
NVmarvell
p391
tp392
(dp393
Vrecommends
p394
(lp395
Vu-boot-tools
p396
asVcheck-size
p397
I2729712
sVcheck-size-with-dtb
p398
I01
sVcheck-uncompressed-size
p399
I7340032
sVbreaks
p400
(lp401
Vflash-kernel (<< 3.57~)
p402
ass(g206
g350
g175
tp403
(dp404
g209
(lp405
Vmarvell
p406
aVrpi
p407
asg213
I01
ss(Vbase
p408
Varmhf
p409
tp410
(dp411
Vfeaturesets
p412
(lp413
Vnone
p414
aVrt
p415
asVkernel-arch
p416
Varm
p417
ss(Vbuild
p418
g409
tp419
(dp420
Vimage-file
p421
Varch/arm/boot/zImage
p422
sVvdso
p423
I01
sVsigned-code
p424
I00
ss(Vimage
p425
g409
tp426
(dp427
Vinstall-stem
p428
Vvmlinuz
p429
ss(Vrelations
p430
g409
tp431
(dp432
Vheaders%gcc-9
p433
Vlinux-compiler-gcc-9-arm
p434
ss(Vdescription
p435
g409
NVarmmp
p436
tp437
(dp438
Vhardware
p439
VARMv7 multiplatform compatible SoCs
p440
sVhardware-long
p441
VARMv7 multiplatform kernel. See\u000ahttps://wiki.debian.org/DebianKernel/ARMMP for details of supported\u000aplatforms
p442
ss(Vdescription
p443
g409
NVarmmp-lpae
p444
tp445
(dp446
Vhardware
p447
VARMv7 multiplatform compatible SoCs supporting LPAE
p448
sVhardware-long
p449
VARMv7 multiplatform kernel supporting LPAE. See\u000ahttps://wiki.debian.org/DebianKernel/ARMMP for details of supported\u000aplatforms.
p450
ss(Vbase
p451
g409
Vnone
p452
tp453
(dp454
Vflavours
p455
(lp456
Varmmp
p457
aVarmmp-lpae
p458
ass(Vbase
p459
g409
Vrt
p460
tp461
(dp462
Vflavours
p463
(lp464
Varmmp
p465
ass(Vbase
p466
Vhppa
p467
tp468
(dp469
Vkernel-arch
p470
Vparisc
p471
sg173
(lp472
g175
ass(Vbuild
p473
g467
tp474
(dp475
Vimage-file
p476
Varch/parisc/boot/bzImage
p477
sVdebug-info
p478
I00
ss(Vimage
p479
g467
tp480
(dp481
Vsuggests
p482
(lp483
Vpalo
p484
asVinstall-stem
p485
Vvmlinuz
p486
ss(Vdescription
p487
g467
NVparisc
p488
tp489
(dp490
Vhardware
p491
V32-bit PA-RISC
p492
sVhardware-long
p493
VHP PA-RISC 32-bit systems with max 4 GB RAM
p494
ss(Vbase
p495
g467
NVparisc64
p496
tp497
(dp498
Vcflags
p499
V-fno-cse-follow-jumps
p500
sVoverride-host-type
p501
Vhppa64-linux-gnu
p502
ss(Vdescription
p503
g467
NVparisc64
p504
tp505
(dp506
Vhardware
p507
V64-bit PA-RISC
p508
sVhardware-long
p509
VHP PA-RISC 64-bit systems with support for more than 4 GB RAM
p510
ss(Vrelations
p511
g467
tp512
(dp513
Vgcc-9
p514
Vgcc-9 <!stage1 !cross !pkg.linux.nokernel>, gcc-9-hppa-linux-gnu <!stage1 cross !pkg.linux.nokernel>, binutils-hppa64-linux-gnu <!stage1 !pkg.linux.nokernel>, gcc-9-hppa64-linux-gnu <!stage1 !pkg.linux.nokernel>
p515
ss(g206
g467
g175
tp516
(dp517
g209
(lp518
Vparisc
p519
aVparisc64
p520
asg213
I01
ss(Vbase
p521
Vi386
p522
tp523
(dp524
Vfeaturesets
p525
(lp526
Vnone
p527
aVrt
p528
asVkernel-arch
p529
Vx86
p530
ss(Vbuild
p531
g522
tp532
(dp533
Vimage-file
p534
Varch/x86/boot/bzImage
p535
sVsigned-code
p536
I00
sVvdso
p537
I01
ss(Vdescription
p538
g522
tp539
(dp540
Vpart-long-pae
p541
VThis kernel requires PAE (Physical Address Extension).\u000aThis feature is supported by the Intel Pentium Pro/II/III/4/4M/D, Xeon,\u000aCore and Atom; AMD Geode NX, Athlon (K7), Duron, Opteron, Sempron,\u000aTurion or Phenom; Transmeta Efficeon; VIA C7; and some other processors.
p542
ss(Vimage
p543
g522
tp544
(dp545
Vbootloaders
p546
(lp547
Vgrub-pc
p548
aVgrub-efi-ia32
p549
aVextlinux
p550
asVinstall-stem
p551
Vvmlinuz
p552
sVbreaks
p553
(lp554
Vxserver-xorg-input-vmmouse (<< 1:13.0.99)
p555
ass(Vrelations
p556
g522
tp557
(dp558
Vheaders%gcc-9
p559
Vlinux-compiler-gcc-9-x86
p560
ss(Vdescription
p561
g522
NV686
p562
tp563
(dp564
Vhardware
p565
Volder PCs
p566
sVhardware-long
p567
VPCs with one or more processors not supporting PAE
p568
ss(Vbuild
p569
g522
NV686-pae
p570
tp571
(dp572
Vdebug-info
p573
I01
ss(Vdescription
p574
g522
NV686-pae
p575
tp576
(dp577
Vhardware
p578
Vmodern PCs
p579
sVhardware-long
p580
VPCs with one or more processors supporting PAE
p581
sVparts
p582
(lp583
Vpae
p584
ass(Vbase
p585
g522
Vnone
p586
tp587
(dp588
Vflavours
p589
(lp590
V686
p591
aV686-pae
p592
ass(Vbase
p593
g522
Vrt
p594
tp595
(dp596
Vflavours
p597
(lp598
V686-pae
p599
ass(Vbase
p600
Via64
p601
tp602
(dp603
Vkernel-arch
p604
Via64
p605
sg173
(lp606
g175
ass(Vbuild
p607
g601
tp608
(dp609
Vimage-file
p610
Vvmlinux.gz
p611
ss(Vimage
p612
g601
tp613
(dp614
Vbootloaders
p615
(lp616
Vgrub-efi-ia64
p617
asVinstall-stem
p618
Vvmlinuz
p619
ss(Vdescription
p620
g601
NVitanium
p621
tp622
(dp623
Vhardware
p624
VItanium (Merced)
p625
sVhardware-long
p626
Vsystems with original Itanium (Merced) processors
p627
ss(Vdescription
p628
g601
NVmckinley
p629
tp630
(dp631
Vhardware
p632
VItanium 2+
p633
sVhardware-long
p634
Vsystems with Itanium 2 or 9300/9500/9700-series processors
p635
ss(g206
g601
g175
tp636
(dp637
g209
(lp638
Vitanium
p639
aVmckinley
p640
asg213
I01
ss(Vbase
p641
Vm68k
p642
tp643
(dp644
Vcflags
p645
V-ffreestanding
p646
sVkernel-arch
p647
Vm68k
p648
sg173
(lp649
g175
ass(Vbuild
p650
g642
tp651
(dp652
Vimage-file
p653
Vvmlinux
p654
ss(Vimage
p655
g642
tp656
(dp657
Vsuggests
p658
(lp659
Vvmelilo
p660
aVfdutils
p661
asVinstall-stem
p662
Vvmlinux
p663
ss(Vdescription
p664
g642
NVm68k
p665
tp666
(dp667
Vhardware
p668
VMotorola MC68020+ family
p669
ss(g206
g642
g175
tp670
(dp671
g209
(lp672
Vm68k
p673
asg213
I01
ss(Vbase
p674
Vmips
p675
tp676
(dp677
Vkernel-arch
p678
Vmips
p679
sg173
(lp680
g175
ass(Vbuild
p681
g675
tp682
(dp683
Vimage-file
p684
Vvmlinux
p685
ss(Vimage
p686
g675
tp687
(dp688
Vinstall-stem
p689
Vvmlinux
p690
ss(Vdescription
p691
g675
NV4kc-malta
p692
tp693
(dp694
Vhardware
p695
VMIPS Malta
p696
sVhardware-long
p697
VMIPS Malta boards
p698
ss(Vimage
p699
g675
NV4kc-malta
p700
tp701
(dp702
Vconfigs
p703
(lp704
Vkernelarch-mips/config.malta
p705
aVkernelarch-mips/config.mips32r2
p706
ass(Vdescription
p707
g675
NV5kc-malta
p708
tp709
(dp710
Vhardware
p711
VMIPS Malta (64-bit)
p712
sVhardware-long
p713
VMIPS Malta boards (64-bit)
p714
ss(Vimage
p715
g675
NV5kc-malta
p716
tp717
(dp718
Vconfigs
p719
(lp720
Vkernelarch-mips/config.malta
p721
aVkernelarch-mips/config.mips64r2
p722
ass(Vdescription
p723
g675
NVocteon
p724
tp725
(dp726
Vhardware
p727
VOcteon
p728
sVhardware-long
p729
VCavium Networks Octeon
p730
ss(Vimage
p731
g675
NVocteon
p732
tp733
(dp734
Vconfigs
p735
(lp736
Vkernelarch-mips/config.octeon
p737
ass(g206
g675
g175
tp738
(dp739
g209
(lp740
V4kc-malta
p741
aV5kc-malta
p742
aVocteon
p743
asg213
I01
ss(Vbase
p744
Vmips64
p745
tp746
(dp747
Vkernel-arch
p748
Vmips
p749
sg173
(lp750
g175
ass(Vbuild
p751
g745
tp752
(dp753
Vimage-file
p754
Vvmlinux
p755
ss(Vimage
p756
g745
tp757
(dp758
Vinstall-stem
p759
Vvmlinux
p760
ss(Vdescription
p761
g745
NV5kc-malta
p762
tp763
(dp764
Vhardware
p765
VMIPS Malta
p766
sVhardware-long
p767
VMIPS Malta boards
p768
ss(Vimage
p769
g745
NV5kc-malta
p770
tp771
(dp772
Vconfigs
p773
(lp774
Vkernelarch-mips/config.malta
p775
aVkernelarch-mips/config.mips64r2
p776
ass(Vdescription
p777
g745
NVocteon
p778
tp779
(dp780
Vhardware
p781
VOcteon
p782
sVhardware-long
p783
VCavium Networks Octeon
p784
ss(Vimage
p785
g745
NVocteon
p786
tp787
(dp788
Vconfigs
p789
(lp790
Vkernelarch-mips/config.octeon
p791
ass(g206
g745
g175
tp792
(dp793
g209
(lp794
V5kc-malta
p795
aVocteon
p796
asg213
I01
ss(Vbase
p797
Vmips64el
p798
tp799
(dp800
Vkernel-arch
p801
Vmips
p802
sg173
(lp803
g175
ass(Vbuild
p804
g798
tp805
(dp806
Vimage-file
p807
Vvmlinux
p808
ss(Vimage
p809
g798
tp810
(dp811
Vinstall-stem
p812
Vvmlinux
p813
ss(Vdescription
p814
g798
NV5kc-malta
p815
tp816
(dp817
Vhardware
p818
VMIPS Malta
p819
sVhardware-long
p820
VMIPS Malta boards
p821
ss(Vimage
p822
g798
NV5kc-malta
p823
tp824
(dp825
Vconfigs
p826
(lp827
Vkernelarch-mips/config.malta
p828
aVkernelarch-mips/config.mips64r2
p829
ass(Vdescription
p830
g798
NVloongson-3
p831
tp832
(dp833
Vhardware
p834
VLoongson 3A/3B
p835
sVhardware-long
p836
VLoongson 3A or 3B based systems (e.g. from Loongson or Lemote)
p837
ss(Vimage
p838
g798
NVloongson-3
p839
tp840
(dp841
Vconfigs
p842
(lp843
Vkernelarch-mips/config.loongson-3
p844
ass(Vdescription
p845
g798
NVocteon
p846
tp847
(dp848
Vhardware
p849
VOcteon
p850
sVhardware-long
p851
VCavium Networks Octeon
p852
ss(Vimage
p853
g798
NVocteon
p854
tp855
(dp856
Vconfigs
p857
(lp858
Vkernelarch-mips/config.octeon
p859
ass(g206
g798
g175
tp860
(dp861
g209
(lp862
V5kc-malta
p863
aVloongson-3
p864
aVocteon
p865
asg213
I01
ss(Vbase
p866
Vmips64r6
p867
tp868
(dp869
Vkernel-arch
p870
Vmips
p871
sg173
(lp872
g175
ass(Vbuild
p873
g867
tp874
(dp875
Vimage-file
p876
Vvmlinux
p877
ss(Vimage
p878
g867
tp879
(dp880
Vinstall-stem
p881
Vvmlinux
p882
ss(Vdescription
p883
g867
NVmips64r6
p884
tp885
(dp886
Vhardware
p887
VMIPS R6 (64 bit, big endian)
p888
sVhardware-long
p889
VMIPS R6 (64 bit, big endian)
p890
ss(Vimage
p891
g867
NVmips64r6
p892
tp893
(dp894
Vconfigs
p895
(lp896
Vkernelarch-mips/config.boston
p897
aVkernelarch-mips/config.mips64r6
p898
ass(g206
g867
g175
tp899
(dp900
g209
(lp901
Vmips64r6
p902
asg213
I01
ss(Vbase
p903
Vmips64r6el
p904
tp905
(dp906
Vkernel-arch
p907
Vmips
p908
sg173
(lp909
g175
ass(Vbuild
p910
g904
tp911
(dp912
Vimage-file
p913
Vvmlinux
p914
ss(Vimage
p915
g904
tp916
(dp917
Vinstall-stem
p918
Vvmlinux
p919
ss(Vdescription
p920
g904
NVmips64r6el
p921
tp922
(dp923
Vhardware
p924
VMIPS R6 (64 bit, little endian)
p925
sVhardware-long
p926
VMIPS R6 (64 bit, little endian)
p927
ss(Vimage
p928
g904
NVmips64r6el
p929
tp930
(dp931
Vconfigs
p932
(lp933
Vkernelarch-mips/config.boston
p934
aVkernelarch-mips/config.mips64r6
p935
ass(g206
g904
g175
tp936
(dp937
g209
(lp938
Vmips64r6el
p939
asg213
I01
ss(Vbase
p940
Vmipsel
p941
tp942
(dp943
Vkernel-arch
p944
Vmips
p945
sg173
(lp946
g175
ass(Vbuild
p947
g941
tp948
(dp949
Vimage-file
p950
Vvmlinux
p951
ss(Vimage
p952
g941
tp953
(dp954
Vinstall-stem
p955
Vvmlinux
p956
ss(Vdescription
p957
g941
NV4kc-malta
p958
tp959
(dp960
Vhardware
p961
VMIPS Malta
p962
sVhardware-long
p963
VMIPS Malta boards
p964
ss(Vimage
p965
g941
NV4kc-malta
p966
tp967
(dp968
Vconfigs
p969
(lp970
Vkernelarch-mips/config.malta
p971
aVkernelarch-mips/config.mips32r2
p972
ass(Vdescription
p973
g941
NV5kc-malta
p974
tp975
(dp976
Vhardware
p977
VMIPS Malta (64-bit)
p978
sVhardware-long
p979
VMIPS Malta boards (64-bit)
p980
ss(Vimage
p981
g941
NV5kc-malta
p982
tp983
(dp984
Vconfigs
p985
(lp986
Vkernelarch-mips/config.malta
p987
aVkernelarch-mips/config.mips64r2
p988
ass(Vdescription
p989
g941
NVloongson-3
p990
tp991
(dp992
Vhardware
p993
VLoongson 3A/3B
p994
sVhardware-long
p995
VLoongson 3A or 3B based systems (e.g. from Loongson or Lemote)
p996
ss(Vimage
p997
g941
NVloongson-3
p998
tp999
(dp1000
Vconfigs
p1001
(lp1002
Vkernelarch-mips/config.loongson-3
p1003
ass(Vdescription
p1004
g941
NVocteon
p1005
tp1006
(dp1007
Vhardware
p1008
VOcteon
p1009
sVhardware-long
p1010
VCavium Networks Octeon
p1011
ss(Vimage
p1012
g941
NVocteon
p1013
tp1014
(dp1015
Vconfigs
p1016
(lp1017
Vkernelarch-mips/config.octeon
p1018
ass(g206
g941
g175
tp1019
(dp1020
g209
(lp1021
V4kc-malta
p1022
aV5kc-malta
p1023
aVloongson-3
p1024
aVocteon
p1025
asg213
I01
ss(Vbase
p1026
Vmipsn32
p1027
tp1028
(dp1029
Vkernel-arch
p1030
Vmips
p1031
sVfeaturesets
p1032
(lp1033
ss(Vbase
p1034
Vmipsn32el
p1035
tp1036
(dp1037
Vkernel-arch
p1038
Vmips
p1039
sVfeaturesets
p1040
(lp1041
ss(Vbase
p1042
Vmipsn32r6
p1043
tp1044
(dp1045
Vkernel-arch
p1046
Vmips
p1047
sVfeaturesets
p1048
(lp1049
ss(Vbase
p1050
Vmipsn32r6el
p1051
tp1052
(dp1053
Vkernel-arch
p1054
Vmips
p1055
sVfeaturesets
p1056
(lp1057
ss(Vbase
p1058
Vmipsr6
p1059
tp1060
(dp1061
Vkernel-arch
p1062
Vmips
p1063
sg173
(lp1064
g175
ass(Vbuild
p1065
g1059
tp1066
(dp1067
Vimage-file
p1068
Vvmlinux
p1069
ss(Vimage
p1070
g1059
tp1071
(dp1072
Vinstall-stem
p1073
Vvmlinux
p1074
ss(Vdescription
p1075
g1059
NVmips32r6
p1076
tp1077
(dp1078
Vhardware
p1079
VMIPS R6 (32 bit, big endian)
p1080
sVhardware-long
p1081
VMIPS R6 (32 bit, big endian)
p1082
ss(Vimage
p1083
g1059
NVmips32r6
p1084
tp1085
(dp1086
Vconfigs
p1087
(lp1088
Vkernelarch-mips/config.boston
p1089
aVkernelarch-mips/config.mips32r6
p1090
ass(Vdescription
p1091
g1059
NVmips64r6
p1092
tp1093
(dp1094
Vhardware
p1095
VMIPS R6 (64 bit, big endian)
p1096
sVhardware-long
p1097
VMIPS R6 (64 bit, big endian)
p1098
ss(Vimage
p1099
g1059
NVmips64r6
p1100
tp1101
(dp1102
Vconfigs
p1103
(lp1104
Vkernelarch-mips/config.boston
p1105
aVkernelarch-mips/config.mips64r6
p1106
ass(g206
g1059
g175
tp1107
(dp1108
g209
(lp1109
Vmips32r6
p1110
aVmips64r6
p1111
asg213
I01
ss(Vbase
p1112
Vmipsr6el
p1113
tp1114
(dp1115
Vkernel-arch
p1116
Vmips
p1117
sg173
(lp1118
g175
ass(Vbuild
p1119
g1113
tp1120
(dp1121
Vimage-file
p1122
Vvmlinux
p1123
ss(Vimage
p1124
g1113
tp1125
(dp1126
Vinstall-stem
p1127
Vvmlinux
p1128
ss(Vdescription
p1129
g1113
NVmips32r6el
p1130
tp1131
(dp1132
Vhardware
p1133
VMIPS R6 (32 bit, little endian)
p1134
sVhardware-long
p1135
VMIPS R6 (32 bit, little endian)
p1136
ss(Vimage
p1137
g1113
NVmips32r6el
p1138
tp1139
(dp1140
Vconfigs
p1141
(lp1142
Vkernelarch-mips/config.boston
p1143
aVkernelarch-mips/config.mips32r6
p1144
ass(Vdescription
p1145
g1113
NVmips64r6el
p1146
tp1147
(dp1148
Vhardware
p1149
VMIPS R6 (64 bit, little endian)
p1150
sVhardware-long
p1151
VMIPS R6 (64 bit, little endian)
p1152
ss(Vimage
p1153
g1113
NVmips64r6el
p1154
tp1155
(dp1156
Vconfigs
p1157
(lp1158
Vkernelarch-mips/config.boston
p1159
aVkernelarch-mips/config.mips64r6
p1160
ass(g206
g1113
g175
tp1161
(dp1162
g209
(lp1163
Vmips32r6el
p1164
aVmips64r6el
p1165
asg213
I01
ss(Vbase
p1166
Vpowerpc
p1167
tp1168
(dp1169
Vkernel-arch
p1170
Vpowerpc
p1171
sg173
(lp1172
g175
ass(Vbuild
p1173
g1167
tp1174
(dp1175
Vimage-file
p1176
Vvmlinux
p1177
sVvdso
p1178
I01
ss(Vimage
p1179
g1167
tp1180
(dp1181
Vconfigs
p1182
(lp1183
sVbootloaders
p1184
(lp1185
Vgrub-ieee1275
p1186
asVsuggests
p1187
(lp1188
Vmkvmlinuz
p1189
asVinstall-stem
p1190
Vvmlinux
p1191
ss(Vdescription
p1192
g1167
NVpowerpc
p1193
tp1194
(dp1195
Vhardware
p1196
Vuniprocessor 32-bit PowerPC
p1197
ss(Vdescription
p1198
g1167
NVpowerpc-smp
p1199
tp1200
(dp1201
Vhardware
p1202
Vmultiprocessor 32-bit PowerPC
p1203
ss(Vimage
p1204
g1167
NVpowerpc-smp
p1205
tp1206
(dp1207
Vconfigs
p1208
(lp1209
Vpowerpc/config.powerpc
p1210
aVpowerpc/config.powerpc-smp
p1211
ass(Vdescription
p1212
g1167
NVpowerpc64
p1213
tp1214
(dp1215
Vhardware
p1216
V64-bit PowerPC
p1217
ss(Vimage
p1218
g1167
NVpowerpc64
p1219
tp1220
(dp1221
Vconfigs
p1222
(lp1223
Vkernelarch-powerpc/config-arch-64
p1224
aVkernelarch-powerpc/config-arch-64-be
p1225
ass(g206
g1167
g175
tp1226
(dp1227
g209
(lp1228
Vpowerpc
p1229
aVpowerpc-smp
p1230
aVpowerpc64
p1231
asg213
I01
ss(Vbase
p1232
Vppc64
p1233
tp1234
(dp1235
Vkernel-arch
p1236
Vpowerpc
p1237
sg173
(lp1238
g175
ass(Vbuild
p1239
g1233
tp1240
(dp1241
Vimage-file
p1242
Vvmlinux
p1243
sVvdso
p1244
I01
ss(Vimage
p1245
g1233
tp1246
(dp1247
Vconfigs
p1248
(lp1249
sVbootloaders
p1250
(lp1251
Vgrub-ieee1275
p1252
asVsuggests
p1253
(lp1254
Vmkvmlinuz
p1255
asVinstall-stem
p1256
Vvmlinux
p1257
ss(Vdescription
p1258
g1233
NVpowerpc64
p1259
tp1260
(dp1261
Vhardware
p1262
V64-bit PowerPC
p1263
ss(Vimage
p1264
g1233
NVpowerpc64
p1265
tp1266
(dp1267
Vconfigs
p1268
(lp1269
Vkernelarch-powerpc/config-arch-64
p1270
aVkernelarch-powerpc/config-arch-64-be
p1271
ass(g206
g1233
g175
tp1272
(dp1273
g209
(lp1274
Vpowerpc64
p1275
asg213
I01
ss(Vbase
p1276
Vppc64el
p1277
tp1278
(dp1279
Vkernel-arch
p1280
Vpowerpc
p1281
sg173
(lp1282
g175
ass(Vbuild
p1283
g1277
tp1284
(dp1285
Vimage-file
p1286
Vvmlinux
p1287
sVvdso
p1288
I01
ss(Vimage
p1289
g1277
tp1290
(dp1291
Vconfigs
p1292
(lp1293
sVbootloaders
p1294
(lp1295
Vgrub-ieee1275
p1296
asVsuggests
p1297
(lp1298
Vmkvmlinuz
p1299
asVinstall-stem
p1300
Vvmlinux
p1301
ss(Vdescription
p1302
g1277
NVpowerpc64le
p1303
tp1304
(dp1305
Vhardware
p1306
VLittle-endian 64-bit PowerPC
p1307
ss(Vimage
p1308
g1277
NVpowerpc64le
p1309
tp1310
(dp1311
Vconfigs
p1312
(lp1313
Vkernelarch-powerpc/config-arch-64
p1314
aVkernelarch-powerpc/config-arch-64-le
p1315
ass(g206
g1277
g175
tp1316
(dp1317
g209
(lp1318
Vpowerpc64le
p1319
asg213
I01
ss(Vbase
p1320
Vriscv64
p1321
tp1322
(dp1323
Vkernel-arch
p1324
Vriscv
p1325
sVfeaturesets
p1326
(lp1327
Vnone
p1328
ass(Vbuild
p1329
g1321
tp1330
(dp1331
Vimage-file
p1332
Varch/riscv/boot/Image
p1333
sVvdso
p1334
I01
ss(Vimage
p1335
g1321
tp1336
(dp1337
Vinstall-stem
p1338
Vvmlinux
p1339
ss(Vdescription
p1340
g1321
NVriscv64
p1341
tp1342
(dp1343
Vhardware
p1344
V64-bit RISC-V platforms
p1345
sVhardware-long
p1346
V64-bit RISC-V platforms
p1347
ss(Vbase
p1348
g1321
Vnone
p1349
tp1350
(dp1351
Vflavours
p1352
(lp1353
Vriscv64
p1354
ass(Vbase
p1355
Vs390
p1356
tp1357
(dp1358
Vkernel-arch
p1359
Vs390
p1360
sVfeaturesets
p1361
(lp1362
ss(Vbase
p1363
Vs390x
p1364
tp1365
(dp1366
Vkernel-arch
p1367
Vs390
p1368
sg173
(lp1369
g175
ass(Vbuild
p1370
g1364
tp1371
(dp1372
Vimage-file
p1373
Varch/s390/boot/bzImage
p1374
sVvdso
p1375
I01
ss(Vimage
p1376
g1364
tp1377
(dp1378
Vbootloaders
p1379
(lp1380
Vs390-tools
p1381
asVinstall-stem
p1382
Vvmlinuz
p1383
ss(Vrelations
p1384
g1364
tp1385
(dp1386
Vheaders%gcc-9
p1387
Vlinux-compiler-gcc-9-s390
p1388
ss(Vbuild
p1389
g1364
NVs390x
p1390
tp1391
(dp1392
Vdebug-info
p1393
I01
ss(Vdescription
p1394
g1364
NVs390x
p1395
tp1396
(dp1397
Vhardware
p1398
VIBM zSeries
p1399
ss(g206
g1364
g175
tp1400
(dp1401
g209
(lp1402
Vs390x
p1403
asg213
I01
ss(Vbase
p1404
Vsh3
p1405
tp1406
(dp1407
Vkernel-arch
p1408
Vsh
p1409
sVfeaturesets
p1410
(lp1411
ss(Vbase
p1412
Vsh4
p1413
tp1414
(dp1415
Vkernel-arch
p1416
Vsh
p1417
sg173
(lp1418
g175
ass(Vbuild
p1419
g1413
tp1420
(dp1421
Vimage-file
p1422
Varch/sh/boot/zImage
p1423
ss(Vimage
p1424
g1413
tp1425
(dp1426
Vinstall-stem
p1427
Vvmlinuz
p1428
ss(Vdescription
p1429
g1413
NVsh7751r
p1430
tp1431
(dp1432
Vhardware
p1433
Vsh7751r
p1434
sVhardware-long
p1435
VRenesas SH7751R R2D plus board
p1436
ss(Vdescription
p1437
g1413
NVsh7785lcr
p1438
tp1439
(dp1440
Vhardware
p1441
Vsh7785lcr
p1442
sVhardware-long
p1443
VRenesas SH7785 reference board
p1444
ss(Vimage
p1445
g1413
NVsh7785lcr
p1446
tp1447
(dp1448
Vrecommends
p1449
(lp1450
Vu-boot-tools
p1451
asVcheck-size
p1452
I4194304
ss(g206
g1413
g175
tp1453
(dp1454
g209
(lp1455
Vsh7751r
p1456
aVsh7785lcr
p1457
asg213
I01
ss(Vbase
p1458
Vsparc
p1459
tp1460
(dp1461
Vkernel-arch
p1462
Vsparc
p1463
sVfeaturesets
p1464
(lp1465
ss(Vbase
p1466
Vsparc64
p1467
tp1468
(dp1469
Vkernel-arch
p1470
Vsparc
p1471
sg173
(lp1472
g175
ass(Vbuild
p1473
g1467
tp1474
(dp1475
Vimage-file
p1476
Vvmlinux
p1477
ss(Vimage
p1478
g1467
tp1479
(dp1480
Vconfigs
p1481
(lp1482
sVbootloaders
p1483
(lp1484
Vgrub-ieee1275
p1485
asVsuggests
p1486
(lp1487
Vfdutils
p1488
asVinstall-stem
p1489
Vvmlinux
p1490
ss(Vdescription
p1491
g1467
NVsparc64
p1492
tp1493
(dp1494
Vhardware
p1495
Vuniprocessor 64-bit UltraSPARC
p1496
ss(Vimage
p1497
g1467
NVsparc64
p1498
tp1499
(dp1500
Vconfigs
p1501
(lp1502
Vkernelarch-sparc/config-up
p1503
ass(Vdescription
p1504
g1467
NVsparc64-smp
p1505
tp1506
(dp1507
Vhardware
p1508
Vmultiprocessor 64-bit UltraSPARC
p1509
ss(Vimage
p1510
g1467
NVsparc64-smp
p1511
tp1512
(dp1513
Vconfigs
p1514
(lp1515
Vkernelarch-sparc/config-smp
p1516
ass(g206
g1467
g175
tp1517
(dp1518
g209
(lp1519
Vsparc64
p1520
aVsparc64-smp
p1521
asg213
I01
ss(Vbase
p1522
Vx32
p1523
tp1524
(dp1525
Vkernel-arch
p1526
Vx86
p1527
sVfeaturesets
p1528
(lp1529
ss(Vabi
p1530
NVrt
p1531
tp1532
(dp1533
Vignore-changes
p1534
(lp1535
V*
p1536
ass(Vdescription
p1537
Ng1531
tp1538
(dp1539
Vpart-long-rt
p1540
VThis kernel includes the PREEMPT_RT realtime patch set.
p1541
sVpart-short-rt
p1542
VPREEMPT_RT
p1543
sVparts
p1544
(lp1545
Vrt
p1546
ass(Vversion
p1547
tp1548
(dp1549
Vsource
p1550
V5.3.9-3kali1
p1551
sVupstream
p1552
V5.3
p1553
sVabiname_base
p1554
V5.3.0
p1555
sVabiname
p1556
V5.3.0-kali2
p1557
ss.