ccopy_reg
_reconstructor
p0
(cdebian_linux.config
ConfigCore
p1
c__builtin__
dict
p2
(dp3
(S'description'
p4
S'sparc'
p5
NS'sparc64'
p6
tp7
(dp8
S'hardware'
p9
S'uniprocessor 64-bit UltraSPARC'
p10
ss(S'image'
p11
S'amd64'
p12
tp13
(dp14
S'configs'
p15
(lp16
sS'bootloaders'
p17
(lp18
S'grub-pc'
p19
aS'extlinux'
p20
aS'lilo'
p21
ass(S'image'
p22
S'mipsel'
p23
NS'sb1-bcm91250a'
p24
tp25
(dp26
S'configs'
p27
(lp28
S'mips/config.sb1-bcm91250a'
p29
ass(S'base'
p30
g12
S'none'
p31
tp32
(dp33
S'flavours'
p34
(lp35
S'amd64'
p36
ass(S'description'
p37
S'powerpc'
p38
NS'powerpc-smp'
p39
tp40
(dp41
S'hardware'
p42
S'multiprocessor 32-bit PowerPC'
p43
ss(S'description'
p44
g23
NS'loongson-2e'
p45
tp46
(dp47
S'hardware'
p48
S'Loongson 2E'
p49
sS'hardware-long'
p50
S'Lemote Loongson 2E systems'
p51
ss(S'build'
p52
S'armel'
p53
NS'orion5x'
p54
tp55
(dp56
S'image-file'
p57
S'arch/arm/boot/zImage'
p58
ss(S'description'
p59
g12
NS'amd64'
p60
tp61
(dp62
S'hardware'
p63
S'64-bit PCs'
p64
sS'hardware-long'
p65
S'PCs with AMD64, Intel 64 or VIA Nano processors'
p66
ss(S'description'
p67
S'ia64'
p68
NS'mckinley'
p69
tp70
(dp71
S'hardware'
p72
S'Itanium II'
p73
ss(S'version'
p74
tp75
(dp76
S'abiname'
p77
S'3.12-kali1'
p78
sS'source'
p79
V3.12.9-1kali1
p80
sS'upstream'
p81
S'3.12'
p82
ss(S'description'
p83
g12
g31
S'amd64'
p84
tp85
(dp86
S'parts'
p87
(lp88
S'xen'
p89
ass(S'description'
p90
g53
NS'ixp4xx'
p91
tp92
(dp93
S'hardware'
p94
S'IXP4xx'
p95
sS'hardware-long'
p96
S'IXP4xx based systems (Linksys NSLU2, etc)'
p97
ss(S'image'
p98
g23
NS'sb1a-bcm91480b'
p99
tp100
(dp101
S'configs'
p102
(lp103
S'mips/config.sb1a-bcm91480b'
p104
ass(S'base'
p105
S'alpha'
p106
tp107
(dp108
S'kernel-arch'
p109
S'alpha'
p110
sS'featuresets'
p111
(lp112
S'none'
p113
ass(S'base'
p114
S'armhf'
p115
g113
tp116
(dp117
S'implicit-flavour'
p118
I01
sS'flavours'
p119
(lp120
S'armmp'
p121
aS'armmp-lpae'
p122
ass(S'base'
p123
S'i386'
p124
S'rt'
p125
tp126
(dp127
S'flavours'
p128
(lp129
S'686-pae'
p130
ass(S'image'
p131
g5
NS'sparc32'
p132
tp133
(dp134
S'image-postproc'
p135
S'sparc32-image-postproc'
p136
ss(g114
S'm68k'
p137
g113
tp138
(dp139
g118
I01
sg119
(lp140
S'm68k'
p141
ass(S'description'
p142
S'mips'
p143
NS'4kc-malta'
p144
tp145
(dp146
S'hardware'
p147
S'MIPS Malta'
p148
sS'hardware-long'
p149
S'MIPS Malta boards'
p150
ss(S'relations'
p151
g124
tp152
(dp153
S'headers%gcc-4.8'
p154
S'linux-compiler-gcc-4.8-x86'
p155
ss(S'description'
p156
g5
NS'sparc32'
p157
tp158
(dp159
S'hardware'
p160
S'uniprocessor sparc32 (sun4m)'
p161
ss(S'description'
p162
g5
NS'sparc64-smp'
p163
tp164
(dp165
S'hardware'
p166
S'multiprocessor 64-bit UltraSPARC'
p167
ss(S'image'
p168
g38
tp169
(dp170
S'suggests'
p171
S'mkvmlinuz'
p172
ss(S'description'
p173
S'sh4'
p174
NS'sh7785lcr'
p175
tp176
(dp177
S'hardware'
p178
S'sh7785lcr'
p179
sS'hardware-long'
p180
S'Renesas SH7785 reference board'
p181
ss(S'base'
p182
g12
S'rt'
p183
tp184
(dp185
S'flavours'
p186
(lp187
S'amd64'
p188
ass(S'base'
p189
g23
tp190
(dp191
S'kernel-arch'
p192
S'mips'
p193
sg111
(lp194
g113
ass(S'description'
p195
g23
NS'loongson-2f'
p196
tp197
(dp198
S'hardware'
p199
S'Loongson 2F'
p200
sS'hardware-long'
p201
S'Lemote Loongson 2F systems'
p202
ss(S'description'
p203
g124
S'none'
p204
S'amd64'
p205
tp206
(dp207
S'parts'
p208
(lp209
S'xen'
p210
ass(S'base'
p211
S'arm64'
p212
tp213
(dp214
S'kernel-arch'
p215
S'arm64'
p216
sS'featuresets'
p217
(lp218
ss(S'base'
p219
g124
tp220
(dp221
S'kernel-arch'
p222
S'x86'
p223
sS'featuresets'
p224
(lp225
S'none'
p226
aS'rt'
p227
ass(S'image'
p228
S'sparc64'
p229
NS'sparc64'
p230
tp231
(dp232
S'configs'
p233
(lp234
S'sparc/config.sparc64'
p235
ass(S'build'
p236
g174
NS'sh7785lcr'
p237
tp238
(dp239
S'image-file'
p240
S'arch/sh/boot/zImage'
p241
ss(S'relations'
p242
g12
tp243
(dp244
S'headers%gcc-4.8'
p245
S'linux-compiler-gcc-4.8-x86'
p246
ss(S'image'
p247
g68
tp248
(dp249
S'suggests'
p250
S'fdutils'
p251
sS'bootloaders'
p252
(lp253
S'elilo'
p254
ass(S'relations'
p255
S's390'
p256
tp257
(dp258
S'headers%gcc-4.8'
p259
S'linux-compiler-gcc-4.8-s390'
p260
ss(g114
g23
g113
tp261
(dp262
g118
I01
sg119
(lp263
S'r5k-cobalt'
p264
aS'sb1-bcm91250a'
p265
aS'sb1a-bcm91480b'
p266
aS'4kc-malta'
p267
aS'5kc-malta'
p268
aS'loongson-2e'
p269
aS'loongson-2f'
p270
ass(S'image'
p271
g124
NS'686-pae'
p272
tp273
(dp274
S'configs'
p275
(lp276
S'kernelarch-x86/config-arch-32'
p277
aS'i386/config.686-pae'
p278
asS'recommends'
p279
S'libc6-i686'
p280
ss(S'description'
p281
S'powerpcspe'
p282
tp283
(dp284
S'hardware'
p285
S'32-bit PowerPC with SPE (instead of AltiVec) with SMP support'
p286
ss(S'relations'
p287
tp288
(dp289
S'gcc-4.8'
p290
S'gcc-4.8'
p291
sS'initramfs-fallback'
p292
S'linux-initramfs-tool'
p293
sS'gcc-4.7'
p294
S'gcc-4.7'
p295
sS'gcc-4.6'
p296
S'gcc-4.6'
p297
sS'gcc-4.4'
p298
S'gcc-4.4'
p299
sS'initramfs-tools'
p300
S'initramfs-tools (>= 0.110~)'
p301
ss(S'description'
p302
S'hppa'
p303
NS'parisc'
p304
tp305
(dp306
S'hardware'
p307
S'32-bit PA-RISC'
p308
sS'hardware-long'
p309
S'HP PA-RISC 32-bit systems with max 4 GB RAM'
p310
ss(S'description'
p311
g68
NS'itanium'
p312
tp313
(dp314
S'hardware'
p315
S'Itanium'
p316
ss(S'description'
p317
g38
NS'powerpc'
p318
tp319
(dp320
S'hardware'
p321
S'uniprocessor 32-bit PowerPC'
p322
ss(S'description'
p323
g115
NS'armmp'
p324
tp325
(dp326
S'hardware'
p327
S'ARMv7 multiplatform compatible SoCs'
p328
sS'hardware-long'
p329
S'ARMv7 multiplatform kernel for Marvell Armada 370/xp, Freescale iMX5x/iMX6'
p330
ss(S'description'
p331
g137
NS'm68k'
p332
tp333
(dp334
S'hardware'
p335
S'Motorola MC68020+ family'
p336
ss(S'description'
p337
g53
NS'versatile'
p338
tp339
(dp340
S'hardware'
p341
S'Versatile'
p342
sS'hardware-long'
p343
S'Versatile systems (PB, AB, Qemu)'
p344
ss(g114
g174
g113
tp345
(dp346
g118
I01
sg119
(lp347
S'sh7751r'
p348
aS'sh7785lcr'
p349
ass(S'description'
p350
g124
NS'amd64'
p351
tp352
(dp353
S'hardware'
p354
S'64-bit PCs'
p355
sS'parts'
p356
(lp357
S'xen'
p358
asS'hardware-long'
p359
S'PCs with AMD64, Intel 64 or VIA Nano processors'
p360
ss(S'description'
p361
g53
NS'orion5x'
p362
tp363
(dp364
S'hardware'
p365
S'Marvell Orion'
p366
sS'hardware-long'
p367
S'Marvell Orion 5181, 5182 and 5281 based systems (QNAP TS-109/TS-209, etc)'
p368
ss(S'base'
p369
g53
tp370
(dp371
S'kernel-arch'
p372
S'arm'
p373
sg111
(lp374
g113
ass(S'description'
p375
g256
NS's390x'
p376
tp377
(dp378
S'hardware'
p379
S'IBM zSeries'
p380
ss(S'base'
p381
g5
tp382
(dp383
S'kernel-arch'
p384
S'sparc'
p385
sg111
(lp386
g113
ass(S'image'
p387
g124
NS'amd64'
p388
tp389
(dp390
S'configs'
p391
(lp392
S'kernelarch-x86/config-arch-64'
p393
asS'recommends'
p394
S'libc6-i686'
p395
ss(S'base'
p396
g282
tp397
(dp398
S'kernel-arch'
p399
S'powerpc'
p400
sg111
(lp401
g113
ass(S'build'
p402
S's390x'
p403
NS's390x'
p404
tp405
(dp406
S'debug-info'
p407
I01
ss(S'image'
p408
g115
NS'armmp-lpae'
p409
tp410
(dp411
S'configs'
p412
(lp413
S'armhf/config.armmp'
p414
aS'armhf/config.lpae'
p415
ass(g114
g256
g113
tp416
(dp417
g118
I01
sg119
(lp418
S's390x'
p419
ass(S'build'
p420
g115
NS'armmp-lpae'
p421
tp422
(dp423
S'image-file'
p424
S'arch/arm/boot/zImage'
p425
ss(g114
g403
g113
tp426
(dp427
g118
I01
sg119
(lp428
S's390x'
p429
ass(S'base'
p430
g143
tp431
(dp432
S'kernel-arch'
p433
S'mips'
p434
sg111
(lp435
g113
ass(S'build'
p436
g53
NS'ixp4xx'
p437
tp438
(dp439
S'image-file'
p440
S'arch/arm/boot/zImage'
p441
ss(S'build'
p442
g12
tp443
(dp444
S'debug-info'
p445
I01
ss(S'description'
p446
g124
NS'486'
p447
tp448
(dp449
S'hardware'
p450
S'older PCs'
p451
sS'parts'
p452
(lp453
S'up'
p454
asS'hardware-long'
p455
S'PCs with a single processor not supporting PAE'
p456
ss(S'description'
p457
g53
NS'kirkwood'
p458
tp459
(dp460
S'hardware'
p461
S'Marvell Kirkwood'
p462
sS'hardware-long'
p463
S'Marvell Kirkwood based systems (SheevaPlug, QNAP TS-119/TS-219, etc)'
p464
ss(S'image'
p465
g23
tp466
(dp467
S'initramfs'
p468
I00
ss(S'description'
p469
g53
NS'iop32x'
p470
tp471
(dp472
S'hardware'
p473
S'IOP32x'
p474
sS'hardware-long'
p475
S'IOP32x based systems (Thecus N2100, etc)'
p476
ss(S'description'
p477
S'ppc64'
p478
NS'powerpc64'
p479
tp480
(dp481
S'hardware'
p482
S'64-bit PowerPC'
p483
ss(S'description'
p484
g143
NS'r4k-ip22'
p485
tp486
(dp487
S'hardware'
p488
S'SGI IP22'
p489
sS'hardware-long'
p490
S'SGI IP22 systems (Indy, Indigo2)'
p491
ss(S'base'
p492
g12
tp493
(dp494
S'kernel-arch'
p495
S'x86'
p496
sS'featuresets'
p497
(lp498
S'none'
p499
aS'rt'
p500
ass(S'base'
p501
g68
tp502
(dp503
S'kernel-arch'
p504
S'ia64'
p505
sg111
(lp506
g113
asS'compiler'
p507
S'gcc-4.6'
p508
ss(g114
g478
g113
tp509
(dp510
g118
I01
sg119
(lp511
S'powerpc64'
p512
ass(S'image'
p513
g53
NS'kirkwood'
p514
tp515
(dp516
S'check-size'
p517
S'2097080'
p518
sS'recommends'
p519
S'uboot-mkimage'
p520
ss(S'base'
p521
g256
tp522
(dp523
S'kernel-arch'
p524
S's390'
p525
sg111
(lp526
g113
ass(g114
g53
g113
tp527
(dp528
g118
I01
sg119
(lp529
S'iop32x'
p530
aS'ixp4xx'
p531
aS'kirkwood'
p532
aS'mv78xx0'
p533
aS'orion5x'
p534
aS'versatile'
p535
ass(S'description'
p536
g174
NS'sh7751r'
p537
tp538
(dp539
S'hardware'
p540
S'sh7751r'
p541
sS'hardware-long'
p542
S'Renesas SH7751R R2D plus board'
p543
ss(S'base'
p544
g303
NS'parisc64-smp'
p545
tp546
(dp547
S'override-host-type'
p548
S'hppa64-linux-gnu'
p549
sS'cflags'
p550
S'-fno-cse-follow-jumps'
p551
ss(S'description'
p552
g124
tp553
(dp554
S'part-long-pae'
p555
S'This kernel requires PAE (Physical Address Extension).\nThis feature is supported by the Intel Pentium Pro/II/III/4/4M/D, Xeon,\nCore and Atom; AMD Geode NX, Athlon (K7), Duron, Opteron, Sempron,\nTurion or Phenom; Transmeta Efficeon; VIA C7; and some other processors.'
p556
ss(S'image'
p557
g115
tp558
(dp559
S'suggests'
p560
S'fdutils'
p561
sS'configs'
p562
(lp563
S'armel/config'
p564
aS'armhf/config'
p565
ass(S'xen'
p566
g12
g31
S'amd64'
p567
tp568
(dp569
S'flavours'
p570
(lp571
S'amd64'
p572
ass(S'image'
p573
g53
tp574
(dp575
S'suggests'
p576
S'fdutils'
p577
ss(S'image'
p578
g256
tp579
(dp580
S'configs'
p581
(lp582
S's390x/config'
p583
asS'bootloaders'
p584
(lp585
S's390-tools'
p586
ass(S'relations'
p587
g53
tp588
(dp589
S'headers%gcc-4.8'
p590
S'linux-compiler-gcc-4.8-arm'
p591
ss(S'image'
p592
g303
tp593
(dp594
S'suggests'
p595
S'palo'
p596
ss(S'image'
p597
g282
tp598
(dp599
S'suggests'
p600
S'mkvmlinuz'
p601
sS'configs'
p602
(lp603
S'powerpc/config'
p604
aS'powerpcspe/config.powerpcspe'
p605
ass(S'relations'
p606
g303
tp607
(dp608
S'gcc-4.8'
p609
S'gcc-4.8, binutils-hppa64, gcc-4.8-hppa64'
p610
ss(S'build'
p611
g256
NS's390x'
p612
tp613
(dp614
S'debug-info'
p615
I01
ss(S'image'
p616
g38
NS'powerpc-smp'
p617
tp618
(dp619
S'configs'
p620
(lp621
S'powerpc/config.powerpc'
p622
aS'powerpc/config.powerpc-smp'
p623
ass(g114
g303
g113
tp624
(dp625
g118
I01
sg119
(lp626
S'parisc'
p627
aS'parisc64-smp'
p628
ass(S'image'
p629
g106
tp630
(dp631
S'suggests'
p632
S'aboot, fdutils'
p633
ss(S'base'
p634
g229
tp635
(dp636
S'kernel-arch'
p637
S'sparc'
p638
sg111
(lp639
g113
ass(S'description'
p640
g106
NS'alpha-generic'
p641
tp642
(dp643
S'hardware'
p644
S'Alpha'
p645
sS'hardware-long'
p646
S'DEC Alpha systems with extended kernel start address (Wildfire, Titan, Marvel)'
p647
ss(S'description'
p648
g303
NS'parisc64-smp'
p649
tp650
(dp651
S'hardware'
p652
S'multiprocessor 64-bit PA-RISC'
p653
sS'hardware-long'
p654
S'HP PA-RISC 64-bit SMP systems with support for more than 4 GB RAM'
p655
ss(S'base'
p656
g403
tp657
(dp658
S'kernel-arch'
p659
S's390'
p660
sg111
(lp661
g113
ass(S'build'
p662
g124
NS'686-pae'
p663
tp664
(dp665
S'debug-info'
p666
I01
ss(S'description'
p667
g106
NS'alpha-legacy'
p668
tp669
(dp670
S'hardware'
p671
S'Alpha Legacy'
p672
sS'hardware-long'
p673
S'DEC Alpha systems with legacy kernel start address'
p674
ss(S'description'
p675
g106
NS'alpha-smp'
p676
tp677
(dp678
S'hardware'
p679
S'Alpha SMP'
p680
sS'hardware-long'
p681
S'DEC Alpha SMP systems with extended kernel start address (Wildfire, Titan, Marvel)'
p682
ss(S'image'
p683
g478
NS'powerpc64'
p684
tp685
(dp686
S'configs'
p687
(lp688
S'powerpc/config.powerpc64'
p689
ass(S'image'
p690
g478
tp691
(dp692
S'suggests'
p693
S'mkvmlinuz'
p694
sS'configs'
p695
(lp696
S'powerpc/config'
p697
ass(S'image'
p698
g143
tp699
(dp700
S'initramfs'
p701
I00
ss(S'image'
p702
g124
tp703
(dp704
S'configs'
p705
(lp706
sS'bootloaders'
p707
(lp708
S'grub-pc'
p709
aS'extlinux'
p710
aS'lilo'
p711
ass(S'image'
p712
g53
NS'ixp4xx'
p713
tp714
(dp715
S'check-size'
p716
S'1441760'
p717
sS'configs'
p718
(lp719
S'armel/config-reduced'
p720
aS'armel/config-tiny'
p721
aS'armel/config.ixp4xx'
p722
ass(g114
g5
g113
tp723
(dp724
g118
I01
sg119
(lp725
S'sparc64'
p726
aS'sparc64-smp'
p727
ass(S'base'
p728
g478
tp729
(dp730
S'kernel-arch'
p731
S'powerpc'
p732
sg111
(lp733
g113
ass(g114
g106
g113
tp734
(dp735
g118
I01
sg119
(lp736
S'alpha-generic'
p737
aS'alpha-smp'
p738
aS'alpha-legacy'
p739
ass(S'description'
p740
g124
g204
S'686-pae'
p741
tp742
(dp743
S'parts'
p744
(lp745
S'xen'
p746
ass(S'base'
p747
S'x32'
p748
tp749
(dp750
S'kernel-arch'
p751
S'x86'
p752
sS'featuresets'
p753
(lp754
ss(g114
g143
g113
tp755
(dp756
g118
I01
sg119
(lp757
S'r4k-ip22'
p758
aS'r5k-ip32'
p759
aS'sb1-bcm91250a'
p760
aS'sb1a-bcm91480b'
p761
aS'4kc-malta'
p762
aS'5kc-malta'
p763
aS'octeon'
p764
ass(S'image'
p765
g229
NS'sparc64-smp'
p766
tp767
(dp768
S'configs'
p769
(lp770
S'sparc/config.sparc64-smp'
p771
ass(S'build'
p772
g53
NS'iop32x'
p773
tp774
(dp775
S'image-file'
p776
S'arch/arm/boot/zImage'
p777
ss(S'image'
p778
g174
NS'sh7785lcr'
p779
tp780
(dp781
S'check-size'
p782
S'4194304'
p783
sS'recommends'
p784
S'uboot-mkimage'
p785
ss(g114
g68
g113
tp786
(dp787
g118
I01
sg119
(lp788
S'itanium'
p789
aS'mckinley'
p790
ass(S'image'
p791
g23
NS'5kc-malta'
p792
tp793
(dp794
S'configs'
p795
(lp796
S'mips/config.5kc-malta'
p797
ass(S'image'
p798
g137
tp799
(dp800
S'suggests'
p801
S'vmelilo, fdutils'
p802
ss(S'description'
p803
g23
NS'4kc-malta'
p804
tp805
(dp806
S'hardware'
p807
S'MIPS Malta'
p808
sS'hardware-long'
p809
S'MIPS Malta boards'
p810
ss(S'description'
p811
g23
NS'5kc-malta'
p812
tp813
(dp814
S'hardware'
p815
S'MIPS Malta (64-bit)'
p816
sS'hardware-long'
p817
S'MIPS Malta boards (64-bit)'
p818
ss(S'build'
p819
g53
NS'mv78xx0'
p820
tp821
(dp822
S'image-file'
p823
S'arch/arm/boot/zImage'
p824
ss(S'base'
p825
g115
tp826
(dp827
S'kernel-arch'
p828
S'arm'
p829
sg111
(lp830
g113
ass(S'image'
p831
g53
NS'orion5x'
p832
tp833
(dp834
S'check-size'
p835
S'1572792'
p836
sS'configs'
p837
(lp838
S'armel/config-reduced'
p839
aS'armel/config.orion5x'
p840
asS'recommends'
p841
S'uboot-mkimage'
p842
ss(S'image'
p843
g174
tp844
(dp845
S'suggests'
p846
S'fdutils'
p847
ss(S'description'
p848
g143
NS'5kc-malta'
p849
tp850
(dp851
S'hardware'
p852
S'MIPS Malta (64-bit)'
p853
sS'hardware-long'
p854
S'MIPS Malta boards (64-bit)'
p855
ss(S'base'
p856
g303
tp857
(dp858
S'kernel-arch'
p859
S'parisc'
p860
sg111
(lp861
g113
ass(S'image'
p862
g12
NS'amd64'
p863
tp864
(dp865
S'configs'
p866
(lp867
S'kernelarch-x86/config-arch-64'
p868
ass(S'base'
p869
g174
tp870
(dp871
S'kernel-arch'
p872
S'sh'
p873
sg111
(lp874
g113
asS'compiler'
p875
S'gcc-4.7'
p876
ss(S'description'
p877
g143
NS'octeon'
p878
tp879
(dp880
S'hardware'
p881
S'Octeon'
p882
sS'hardware-long'
p883
S'Cavium Networks Octeon'
p884
ss(S'image'
p885
g5
tp886
(dp887
S'suggests'
p888
S'silo, fdutils'
p889
ss(S'description'
p890
tp891
(dp892
S'part-long-up'
p893
S'This kernel is not suitable for SMP (multi-processor,\nmulti-core or hyper-threaded) systems.'
p894
sS'part-long-xen'
p895
S'This kernel also runs on a Xen hypervisor.\nIt supports both privileged (dom0) and unprivileged (domU) operation.'
p896
ss(S'relations'
p897
g115
tp898
(dp899
S'headers%gcc-4.8'
p900
S'linux-compiler-gcc-4.8-arm'
p901
ss(S'description'
p902
NS'rt'
p903
tp904
(dp905
S'part-long-rt'
p906
S'This kernel includes the PREEMPT_RT realtime patch set.'
p907
sS'parts'
p908
(lp909
S'rt'
p910
asS'part-short-rt'
p911
S'PREEMPT_RT'
p912
ss(S'description'
p913
g23
NS'sb1a-bcm91480b'
p914
tp915
(dp916
S'hardware'
p917
S'BCM91480B'
p918
sS'hardware-long'
p919
S'Broadcom BCM91480B systems (aka BigSur)'
p920
ss(S'image'
p921
g229
tp922
(dp923
S'suggests'
p924
S'silo, fdutils'
p925
sS'configs'
p926
(lp927
S'sparc/config'
p928
ass(S'description'
p929
g143
NS'sb1a-bcm91480b'
p930
tp931
(dp932
S'hardware'
p933
S'BCM91480B'
p934
sS'hardware-long'
p935
S'Broadcom BCM91480B systems (aka BigSur)'
p936
ss(S'relations'
p937
g403
tp938
(dp939
S'headers%gcc-4.8'
p940
S'linux-compiler-gcc-4.8-s390'
p941
ss(S'description'
p942
g38
NS'powerpc64'
p943
tp944
(dp945
S'hardware'
p946
S'64-bit PowerPC'
p947
ss(S'base'
p948
g38
tp949
(dp950
S'kernel-arch'
p951
S'powerpc'
p952
sg111
(lp953
g113
ass(S'description'
p954
g124
NS'686-pae'
p955
tp956
(dp957
S'hardware'
p958
S'modern PCs'
p959
sS'parts'
p960
(lp961
S'pae'
p962
asS'hardware-long'
p963
S'PCs with one or more processors supporting PAE'
p964
ss(S'description'
p965
g143
NS'r5k-ip32'
p966
tp967
(dp968
S'hardware'
p969
S'SGI IP32'
p970
sS'hardware-long'
p971
S'SGI IP32 systems (O2)'
p972
ss(S'build'
p973
g115
NS'armmp'
p974
tp975
(dp976
S'image-file'
p977
S'arch/arm/boot/zImage'
p978
ss(S'description'
p979
g403
NS's390x'
p980
tp981
(dp982
S'hardware'
p983
S'IBM zSeries'
p984
ss(S'image'
p985
g403
tp986
(dp987
S'bootloaders'
p988
(lp989
S's390-tools'
p990
ass(S'description'
p991
g115
NS'armmp-lpae'
p992
tp993
(dp994
S'hardware'
p995
S'ARMv7 multiplatform compatible SoCs supporting LPAE'
p996
sS'hardware-long'
p997
S'ARMv7 multiplatform kernel supporting LPAE'
p998
ss(S'image'
p999
g23
NS'loongson-2f'
p1000
tp1001
(dp1002
S'recommends'
p1003
S'libc6-loongson2f'
p1004
ss(S'description'
p1005
g23
NS'r5k-cobalt'
p1006
tp1007
(dp1008
S'hardware'
p1009
S'Cobalt'
p1010
sS'hardware-long'
p1011
S'Cobalt systems (Qube, RaQ, Qube2, RaQ2)'
p1012
ss(S'abi'
p1013
tp1014
(dp1015
S'abiname'
p1016
S'kali1'
p1017
sS'ignore-changes'
p1018
(lp1019
S'module:drivers/target/*'
p1020
aS'module:drivers/scsi/qla2xxx/*'
p1021
aS'sysctl_tcp_dma_copybreak'
p1022
ass(S'build'
p1023
g53
NS'kirkwood'
p1024
tp1025
(dp1026
S'image-file'
p1027
S'arch/arm/boot/zImage'
p1028
ss(g114
g282
g113
tp1029
(dp1030
g118
I01
sg119
(lp1031
S'powerpcspe'
p1032
ass(S'description'
p1033
g229
NS'sparc64-smp'
p1034
tp1035
(dp1036
S'hardware'
p1037
S'multiprocessor 64-bit UltraSPARC'
p1038
ss(S'base'
p1039
NS'rt'
p1040
tp1041
(dp1042
S'enabled'
p1043
I01
ss(S'base'
p1044
g124
g204
tp1045
(dp1046
S'flavours'
p1047
(lp1048
S'486'
p1049
aS'686-pae'
p1050
aS'amd64'
p1051
ass(S'base'
p1052
tp1053
(dp1054
S'arches'
p1055
(lp1056
S'alpha'
p1057
aS'amd64'
p1058
aS'arm64'
p1059
aS'armel'
p1060
aS'armhf'
p1061
aS'hppa'
p1062
aS'i386'
p1063
aS'ia64'
p1064
aS'm68k'
p1065
aS'mips'
p1066
aS'mipsel'
p1067
aS'powerpc'
p1068
aS'powerpcspe'
p1069
aS'ppc64'
p1070
aS's390'
p1071
aS's390x'
p1072
aS'sh4'
p1073
aS'sparc'
p1074
aS'sparc64'
p1075
aS'x32'
p1076
asS'featuresets'
p1077
(lp1078
S'none'
p1079
aS'rt'
p1080
asS'compiler'
p1081
S'gcc-4.7'
p1082
ss(g114
g38
g113
tp1083
(dp1084
g118
I01
sg119
(lp1085
S'powerpc'
p1086
aS'powerpc-smp'
p1087
aS'powerpc64'
p1088
ass(S'image'
p1089
g53
NS'iop32x'
p1090
tp1091
(dp1092
S'check-size'
p1093
S'1441784'
p1094
sS'configs'
p1095
(lp1096
S'armel/config-reduced'
p1097
aS'armel/config-tiny'
p1098
aS'armel/config.iop32x'
p1099
ass(S'base'
p1100
g137
tp1101
(dp1102
S'kernel-arch'
p1103
S'm68k'
p1104
sg111
(lp1105
g113
asS'cflags'
p1106
S'-ffreestanding'
p1107
sS'compiler'
p1108
S'gcc-4.8'
p1109
ss(S'image'
p1110
tp1111
(dp1112
S'initramfs-generators'
p1113
(lp1114
S'initramfs-tools'
p1115
aS'initramfs-fallback'
p1116
asS'type'
p1117
S'plain'
p1118
ss(S'abi'
p1119
Ng903
tp1120
(dp1121
S'ignore-changes'
p1122
(lp1123
S'*'
p1124
ass(g114
g229
g113
tp1125
(dp1126
g118
I01
sg119
(lp1127
S'sparc64'
p1128
aS'sparc64-smp'
p1129
ass(S'image'
p1130
g23
NS'4kc-malta'
p1131
tp1132
(dp1133
S'configs'
p1134
(lp1135
S'mips/config.4kc-malta'
p1136
ass(S'image'
p1137
g256
NS's390x'
p1138
tp1139
(dp1140
S'configs'
p1141
(lp1142
S's390x/config.s390x'
p1143
ass(S'description'
p1144
g23
NS'sb1-bcm91250a'
p1145
tp1146
(dp1147
S'hardware'
p1148
S'BCM91250A'
p1149
sS'hardware-long'
p1150
S'Broadcom BCM91250A systems (aka SWARM)'
p1151
ss(S'description'
p1152
g53
NS'mv78xx0'
p1153
tp1154
(dp1155
S'hardware'
p1156
S'Marvell 78xx0'
p1157
sS'hardware-long'
p1158
S'Marvell DB-78xx0-BP Development Board'
p1159
ss(S'build'
p1160
g174
NS'sh7751r'
p1161
tp1162
(dp1163
S'image-file'
p1164
S'arch/sh/boot/zImage'
p1165
ss(S'description'
p1166
g143
NS'sb1-bcm91250a'
p1167
tp1168
(dp1169
S'hardware'
p1170
S'BCM91250A'
p1171
sS'hardware-long'
p1172
S'Broadcom BCM91250A systems (aka SWARM)'
p1173
ss(S'image'
p1174
g124
NS'486'
p1175
tp1176
(dp1177
S'configs'
p1178
(lp1179
S'kernelarch-x86/config-arch-32'
p1180
aS'i386/config.486'
p1181
ass(S'description'
p1182
g229
NS'sparc64'
p1183
tp1184
(dp1185
S'hardware'
p1186
S'uniprocessor 64-bit UltraSPARC'
p1187
sstp1188
Rp1189
.