cdebian_linux.config
ConfigCore
p0
(tRp1
(Vabi
p2
tp3
(dp4
Vabiname
p5
Vkali2
p6
sVignore-changes
p7
(lp8
V__cpuhp_*
p9
aVbpf_analyzer
p10
aVcxl_*
p11
aVdax_flush
p12
aVieee80211_nullfunc_get
p13
aVinet_add_protocol
p14
aVinet_del_protocol
p15
aViommu_device_*
p16
aVmm_iommu_*
p17
aVmv_mbus_*
p18
aVperf_*
p19
aVregister_cxl_calls
p20
aVregister_key_type
p21
aVunregister_cxl_calls
p22
aV*_hw_breakpoint
p23
aVmodule:drivers/crypto/ccp/*
p24
aVmodule:drivers/hv/*
p25
aVmodule:drivers/gpu/drm/sun4i/*
p26
aVmodule:drivers/iio/**
p27
aVmodule:drivers/misc/cxl/*
p28
aVmodule:drivers/mtd/nand/*
p29
aVmodule:drivers/net/ethernet/**
p30
aVmodule:drivers/net/wireless/**
p31
aVmodule:drivers/nvdimm/*
p32
aVmodule:drivers/power/supply/bq27xxx_battery
p33
aVmodule:drivers/scsi/cxgbi/*
p34
aVmodule:drivers/scsi/libiscs*
p35
aVmodule:drivers/scsi/qla2xxx/qla2xxx
p36
aVmodule:drivers/scsi/ufs/*
p37
aVmodule:drivers/target/**
p38
aVmodule:drivers/usb/chipidea/**
p39
aVmodule:drivers/usb/gadget/**
p40
aVmodule:drivers/usb/host/**
p41
aVmodule:drivers/usb/musb/**
p42
aVmodule:fs/nfs/**
p43
aVmodule:net/ceph/libceph
p44
aVmodule:net/l2tp/**
p45
aVmodule:net/rxrpc/rxrpc
p46
aVmodule:net/sctp/**
p47
aVmodule:sound/core/seq/**
p48
aVmodule:sound/firewire/snd-firewire-lib
p49
aVmodule:sound/pci/hda/*
p50
aVbtree_*
p51
aVvisitor*
p52
aVcan_rx_register
p53
aVip6_xmit
p54
aVmodule:net/dccp/dccp
p55
aVmodule:net/rds/rds
p56
aVdevfreq_*
p57
aVdevm_devfreq_*
p58
aVupdate_devfreq
p59
aVmodule:drivers/infiniband/**
p60
aVacpi_ec_add_query_handler
p61
aVacpi_ec_remove_query_handler
p62
aVfirst_ec
p63
aVdebugfs_create_automount
p64
aVmodule:drivers/iio/imu/inv_mpu6050/*
p65
aVdrm_crtc_accurate_vblank_count
p66
aVacpi_nfit_desc_init
p67
aVacpi_nfit_init
p68
aVloop_register_transfer
p69
aVxen_xlate_*
p70
aVnf_nat_masquerade_ipv4_register_notifier
p71
aVnf_nat_masquerade_ipv6_register_notifier
p72
aVmodule:drivers/scsi/hisi_sas/*
p73
aV__gfn_*
p74
aV__kvmhv_*
p75
aV__kvm_*
p76
aV__xive_vm_h_*
p77
aVgfn_*
p78
aVh_ipi_redirect
p79
aVhalt_poll_ns*
p80
aVkvm_*
p81
aVkvmhv_*
p82
aVkvmppc_*
p83
aVmark_page_dirty
p84
aVvcpu_*
p85
aVmodule:arch/powerpc/kvm/*
p86
aVmodule:arch/s390/kvm/*
p87
aVmodule:arch/x86/kvm/*
p88
ass(Vbase
p89
tp90
(dp91
Varches
p92
(lp93
Valpha
p94
aVamd64
p95
aVarm64
p96
aVarm64ilp32
p97
aVarmel
p98
aVarmhf
p99
aVhppa
p100
aVi386
p101
aVia64
p102
aVm68k
p103
aVmips
p104
aVmips64
p105
aVmips64el
p106
aVmips64r6
p107
aVmips64r6el
p108
aVmipsel
p109
aVmipsn32
p110
aVmipsn32el
p111
aVmipsn32r6
p112
aVmipsn32r6el
p113
aVmipsr6
p114
aVmipsr6el
p115
aVpowerpc
p116
aVppc64
p117
aVppc64el
p118
aVriscv64
p119
aVs390
p120
aVs390x
p121
aVsh3
p122
aVsh4
p123
aVsparc
p124
aVsparc64
p125
aVx32
p126
asVcompiler
p127
Vgcc-9
p128
sVfeaturesets
p129
(lp130
Vnone
p131
aVrt
p132
ass(Vbuild
p133
tp134
(dp135
Vdebug-info
p136
I01
sVsigned-code
p137
I00
ss(Vbase
p138
NVrt
p139
tp140
(dp141
Venabled
p142
I01
ss(Vdescription
p143
tp144
(dp145
Vpart-long-up
p146
VThis kernel is not suitable for SMP (multi-processor,\u000amulti-core or hyper-threaded) systems.
p147
ss(Vimage
p148
tp149
(dp150
Vinitramfs-generators
p151
(lp152
Vinitramfs-tools
p153
aVinitramfs-fallback
p154
asVrecommends
p155
(lp156
Vapparmor
p157
ass(Vrelations
p158
tp159
(dp160
Vgcc-9
p161
Vgcc-9 <!stage1 !cross !pkg.linux.nokernel>, gcc-9-@gnu-type-package@ <!stage1 cross !pkg.linux.nokernel>
p162
sVinitramfs-fallback
p163
Vlinux-initramfs-tool
p164
sVinitramfs-tools
p165
Vinitramfs-tools (>= 0.120+deb8u2)
p166
ss(Vbase
p167
Valpha
p168
tp169
(dp170
Vkernel-arch
p171
Valpha
p172
sVfeaturesets
p173
(lp174
Vnone
p175
ass(Vbuild
p176
g168
tp177
(dp178
Vimage-file
p179
Varch/alpha/boot/vmlinux.gz
p180
ss(Vimage
p181
g168
tp182
(dp183
Vsuggests
p184
(lp185
Vaboot
p186
aVfdutils
p187
asVinstall-stem
p188
Vvmlinuz
p189
ss(Vdescription
p190
g168
NValpha-generic
p191
tp192
(dp193
Vhardware
p194
VAlpha
p195
sVhardware-long
p196
VDEC Alpha systems with extended kernel start address (Wildfire, Titan, Marvel)
p197
ss(Vdescription
p198
g168
NValpha-smp
p199
tp200
(dp201
Vhardware
p202
VAlpha SMP
p203
sVhardware-long
p204
VDEC Alpha SMP systems with extended kernel start address (Wildfire, Titan, Marvel)
p205
ss(Vbase
p206
g168
g175
tp207
(dp208
Vflavours
p209
(lp210
Valpha-generic
p211
aValpha-smp
p212
asVimplicit-flavour
p213
I01
ss(Vbase
p214
Vamd64
p215
tp216
(dp217
Vfeaturesets
p218
(lp219
Vnone
p220
aVrt
p221
asVkernel-arch
p222
Vx86
p223
ss(Vbuild
p224
g215
tp225
(dp226
Vdebug-info
p227
I01
sVimage-file
p228
Varch/x86/boot/bzImage
p229
sVsigned-code
p230
I00
sVvdso
p231
I01
ss(Vimage
p232
g215
tp233
(dp234
Vbootloaders
p235
(lp236
Vgrub-pc
p237
aVgrub-efi-amd64
p238
aVextlinux
p239
asVinstall-stem
p240
Vvmlinuz
p241
sVbreaks
p242
(lp243
Vxserver-xorg-input-vmmouse (<< 1:13.0.99)
p244
ass(Vrelations
p245
g215
tp246
(dp247
Vheaders%gcc-9
p248
Vlinux-compiler-gcc-9-x86
p249
ss(Vdescription
p250
g215
NVamd64
p251
tp252
(dp253
Vhardware
p254
V64-bit PCs
p255
sVhardware-long
p256
VPCs with AMD64, Intel 64 or VIA Nano processors
p257
ss(Vdescription
p258
g215
NVcloud-amd64
p259
tp260
(dp261
Vhardware
p262
Vx86-64 cloud
p263
sVhardware-long
p264
VAmazon EC2, Google Compute Engine and Microsoft Azure cloud platforms
p265
ss(Vbase
p266
g215
Vnone
p267
tp268
(dp269
Vflavours
p270
(lp271
Vamd64
p272
aVcloud-amd64
p273
ass(Vbase
p274
g215
Vrt
p275
tp276
(dp277
Vflavours
p278
(lp279
Vamd64
p280
ass(Vbase
p281
Varm64
p282
tp283
(dp284
Vcross-compile-compat
p285
Varm-linux-gnueabihf-
p286
sVkernel-arch
p287
Varm64
p288
sVfeaturesets
p289
(lp290
Vnone
p291
aVrt
p292
ass(Vbuild
p293
g282
tp294
(dp295
Vdebug-info
p296
I01
sVimage-file
p297
Varch/arm64/boot/Image
p298
sVsigned-code
p299
I00
sVvdso
p300
I01
ss(Vimage
p301
g282
tp302
(dp303
Vinstall-stem
p304
Vvmlinuz
p305
sVbreaks
p306
(lp307
Vlibmozjs185-1.0
p308
aVlibmozjs-24-0 (<< 24.2.0-5.1~)
p309
ass(Vdescription
p310
g282
NVarm64
p311
tp312
(dp313
Vhardware
p314
V64-bit ARMv8 machines
p315
ss(Vimage
p316
g282
NVarm64
p317
tp318
(dp319
s(Vrelations
p320
g282
tp321
(dp322
Vgcc-9
p323
Vgcc-9 <!stage1 !cross !pkg.linux.nokernel>, gcc-9-aarch64-linux-gnu <!stage1 cross !pkg.linux.nokernel>, gcc-arm-linux-gnueabihf <!stage1 !pkg.linux.nokernel>
p324
sVheaders%gcc-9
p325
Vgcc-9
p326
ss(Vbase
p327
g282
Vnone
p328
tp329
(dp330
Vflavours
p331
(lp332
Varm64
p333
ass(Vbase
p334
g282
Vrt
p335
tp336
(dp337
Vflavours
p338
(lp339
Varm64
p340
ass(Vbase
p341
Varm64ilp32
p342
tp343
(dp344
Vkernel-arch
p345
Varm64
p346
sVfeaturesets
p347
(lp348
ss(Vbase
p349
Varmel
p350
tp351
(dp352
Vkernel-arch
p353
Varm
p354
sg173
(lp355
g175
ass(Vbuild
p356
g350
tp357
(dp358
Vimage-file
p359
Varch/arm/boot/zImage
p360
sVuncompressed-image-file
p361
Varch/arm/boot/Image
p362
sVsigned-code
p363
I00
ss(Vimage
p364
g350
tp365
(dp366
Vinstall-stem
p367
Vvmlinuz
p368
ss(Vrelations
p369
g350
tp370
(dp371
Vheaders%gcc-9
p372
Vlinux-compiler-gcc-9-arm
p373
ss(Vdescription
p374
g350
NVmarvell
p375
tp376
(dp377
Vhardware
p378
VMarvell Kirkwood/Orion
p379
sVhardware-long
p380
VMarvell Kirkwood and Orion based systems (https://wiki.debian.org/ArmEabiPort#Supported_hardware)
p381
ss(Vdescription
p382
g350
NVrpi
p383
tp384
(dp385
Vhardware
p386
VRaspberry Pi and Pi Zero
p387
sVhardware-long
p388
VRaspberry Pi, Raspberry Pi Zero based systems
p389
ss(Vimage
p390
g350
NVmarvell
p391
tp392
(dp393
Vrecommends
p394
(lp395
Vu-boot-tools
p396
asVcheck-size
p397
I2729712
sVcheck-size-with-dtb
p398
I01
sVcheck-uncompressed-size
p399
I7340032
sVbreaks
p400
(lp401
Vflash-kernel (<< 3.57~)
p402
ass(g206
g350
g175
tp403
(dp404
g209
(lp405
Vmarvell
p406
aVrpi
p407
asg213
I01
ss(Vbase
p408
Varmhf
p409
tp410
(dp411
Vfeaturesets
p412
(lp413
Vnone
p414
aVrt
p415
asVkernel-arch
p416
Varm
p417
ss(Vbuild
p418
g409
tp419
(dp420
Vimage-file
p421
Varch/arm/boot/zImage
p422
sVvdso
p423
I01
sVsigned-code
p424
I00
ss(Vimage
p425
g409
tp426
(dp427
Vinstall-stem
p428
Vvmlinuz
p429
ss(Vrelations
p430
g409
tp431
(dp432
Vheaders%gcc-9
p433
Vlinux-compiler-gcc-9-arm
p434
ss(Vdescription
p435
g409
NVarmmp
p436
tp437
(dp438
Vhardware
p439
VARMv7 multiplatform compatible SoCs
p440
sVhardware-long
p441
VARMv7 multiplatform kernel. See\u000ahttps://wiki.debian.org/DebianKernel/ARMMP for details of supported\u000aplatforms
p442
ss(Vdescription
p443
g409
NVarmmp-lpae
p444
tp445
(dp446
Vhardware
p447
VARMv7 multiplatform compatible SoCs supporting LPAE
p448
sVhardware-long
p449
VARMv7 multiplatform kernel supporting LPAE. See\u000ahttps://wiki.debian.org/DebianKernel/ARMMP for details of supported\u000aplatforms.
p450
ss(Vbase
p451
g409
Vnone
p452
tp453
(dp454
Vflavours
p455
(lp456
Varmmp
p457
aVarmmp-lpae
p458
ass(Vbase
p459
g409
Vrt
p460
tp461
(dp462
Vflavours
p463
(lp464
Varmmp
p465
ass(Vbase
p466
Vhppa
p467
tp468
(dp469
Vkernel-arch
p470
Vparisc
p471
sg173
(lp472
g175
ass(Vbuild
p473
g467
tp474
(dp475
Vimage-file
p476
Varch/parisc/boot/bzImage
p477
sVdebug-info
p478
I00
ss(Vimage
p479
g467
tp480
(dp481
Vsuggests
p482
(lp483
Vpalo
p484
asVinstall-stem
p485
Vvmlinuz
p486
ss(Vdescription
p487
g467
NVparisc
p488
tp489
(dp490
Vhardware
p491
V32-bit PA-RISC
p492
sVhardware-long
p493
VHP PA-RISC 32-bit systems with max 4 GB RAM
p494
ss(Vbase
p495
g467
NVparisc64
p496
tp497
(dp498
Vcflags
p499
V-fno-cse-follow-jumps
p500
sVoverride-host-type
p501
Vhppa64-linux-gnu
p502
ss(Vdescription
p503
g467
NVparisc64
p504
tp505
(dp506
Vhardware
p507
V64-bit PA-RISC
p508
sVhardware-long
p509
VHP PA-RISC 64-bit systems with support for more than 4 GB RAM
p510
ss(Vrelations
p511
g467
tp512
(dp513
Vgcc-9
p514
Vgcc-9 <!stage1 !cross !pkg.linux.nokernel>, gcc-9-hppa-linux-gnu <!stage1 cross !pkg.linux.nokernel>, binutils-hppa64-linux-gnu <!stage1 !pkg.linux.nokernel>, gcc-9-hppa64-linux-gnu <!stage1 !pkg.linux.nokernel>
p515
ss(g206
g467
g175
tp516
(dp517
g209
(lp518
Vparisc
p519
aVparisc64
p520
asg213
I01
ss(Vbase
p521
Vi386
p522
tp523
(dp524
Vfeaturesets
p525
(lp526
Vnone
p527
aVrt
p528
asVkernel-arch
p529
Vx86
p530
ss(Vbuild
p531
g522
tp532
(dp533
Vimage-file
p534
Varch/x86/boot/bzImage
p535
sVsigned-code
p536
I00
sVvdso
p537
I01
ss(Vdescription
p538
g522
tp539
(dp540
Vpart-long-pae
p541
VThis kernel requires PAE (Physical Address Extension).\u000aThis feature is supported by the Intel Pentium Pro/II/III/4/4M/D, Xeon,\u000aCore and Atom; AMD Geode NX, Athlon (K7), Duron, Opteron, Sempron,\u000aTurion or Phenom; Transmeta Efficeon; VIA C7; and some other processors.
p542
ss(Vimage
p543
g522
tp544
(dp545
Vbootloaders
p546
(lp547
Vgrub-pc
p548
aVgrub-efi-ia32
p549
aVextlinux
p550
asVinstall-stem
p551
Vvmlinuz
p552
sVbreaks
p553
(lp554
Vxserver-xorg-input-vmmouse (<< 1:13.0.99)
p555
ass(Vrelations
p556
g522
tp557
(dp558
Vheaders%gcc-9
p559
Vlinux-compiler-gcc-9-x86
p560
ss(Vdescription
p561
g522
NV686
p562
tp563
(dp564
Vhardware
p565
Volder PCs
p566
sVhardware-long
p567
VPCs with one or more processors not supporting PAE
p568
ss(Vbuild
p569
g522
NV686-pae
p570
tp571
(dp572
Vdebug-info
p573
I01
ss(Vdescription
p574
g522
NV686-pae
p575
tp576
(dp577
Vhardware
p578
Vmodern PCs
p579
sVhardware-long
p580
VPCs with one or more processors supporting PAE
p581
sVparts
p582
(lp583
Vpae
p584
ass(Vbase
p585
g522
Vnone
p586
tp587
(dp588
Vflavours
p589
(lp590
V686
p591
aV686-pae
p592
ass(Vbase
p593
g522
Vrt
p594
tp595
(dp596
Vflavours
p597
(lp598
V686-pae
p599
ass(Vbase
p600
Via64
p601
tp602
(dp603
Vkernel-arch
p604
Via64
p605
sg173
(lp606
g175
ass(Vbuild
p607
g601
tp608
(dp609
Vimage-file
p610
Vvmlinux.gz
p611
ss(Vimage
p612
g601
tp613
(dp614
Vbootloaders
p615
(lp616
Vgrub-efi-ia64
p617
asVinstall-stem
p618
Vvmlinuz
p619
ss(Vdescription
p620
g601
NVitanium
p621
tp622
(dp623
Vhardware
p624
VItanium (Merced)
p625
sVhardware-long
p626
Vsystems with original Itanium (Merced) processors
p627
ss(Vdescription
p628
g601
NVmckinley
p629
tp630
(dp631
Vhardware
p632
VItanium 2+
p633
sVhardware-long
p634
Vsystems with Itanium 2 or 9300/9500/9700-series processors
p635
ss(g206
g601
g175
tp636
(dp637
g209
(lp638
Vitanium
p639
aVmckinley
p640
asg213
I01
ss(Vbase
p641
Vm68k
p642
tp643
(dp644
Vcflags
p645
V-ffreestanding
p646
sVkernel-arch
p647
Vm68k
p648
sg173
(lp649
g175
ass(Vbuild
p650
g642
tp651
(dp652
Vimage-file
p653
Vvmlinux
p654
ss(Vimage
p655
g642
tp656
(dp657
Vsuggests
p658
(lp659
Vvmelilo
p660
aVfdutils
p661
asVinstall-stem
p662
Vvmlinux
p663
ss(Vdescription
p664
g642
NVm68k
p665
tp666
(dp667
Vhardware
p668
VMotorola MC68020+ family
p669
ss(g206
g642
g175
tp670
(dp671
g209
(lp672
Vm68k
p673
asg213
I01
ss(Vbase
p674
Vmips
p675
tp676
(dp677
Vkernel-arch
p678
Vmips
p679
sg173
(lp680
g175
ass(Vbuild
p681
g675
tp682
(dp683
Vimage-file
p684
Vvmlinuz
p685
ss(Vimage
p686
g675
tp687
(dp688
Vinstall-stem
p689
Vvmlinuz
p690
ss(Vdescription
p691
g675
NV4kc-malta
p692
tp693
(dp694
Vhardware
p695
VMIPS Malta
p696
sVhardware-long
p697
VMIPS Malta boards
p698
ss(Vimage
p699
g675
NV4kc-malta
p700
tp701
(dp702
Vconfigs
p703
(lp704
Vkernelarch-mips/config.malta
p705
aVkernelarch-mips/config.mips32r2
p706
ass(Vdescription
p707
g675
NV5kc-malta
p708
tp709
(dp710
Vhardware
p711
VMIPS Malta (64-bit)
p712
sVhardware-long
p713
VMIPS Malta boards (64-bit)
p714
ss(Vimage
p715
g675
NV5kc-malta
p716
tp717
(dp718
Vconfigs
p719
(lp720
Vkernelarch-mips/config.malta
p721
aVkernelarch-mips/config.mips64r2
p722
ass(Vdescription
p723
g675
NVocteon
p724
tp725
(dp726
Vhardware
p727
VOcteon
p728
sVhardware-long
p729
VCavium Networks Octeon
p730
ss(Vbuild
p731
g675
NVocteon
p732
tp733
(dp734
Vimage-file
p735
Vvmlinux
p736
ss(Vimage
p737
g675
NVocteon
p738
tp739
(dp740
Vinstall-stem
p741
Vvmlinux
p742
sVconfigs
p743
(lp744
Vkernelarch-mips/config.octeon
p745
ass(g206
g675
g175
tp746
(dp747
g209
(lp748
V4kc-malta
p749
aV5kc-malta
p750
aVocteon
p751
asg213
I01
ss(Vbase
p752
Vmips64
p753
tp754
(dp755
Vkernel-arch
p756
Vmips
p757
sg173
(lp758
g175
ass(Vbuild
p759
g753
tp760
(dp761
Vimage-file
p762
Vvmlinuz
p763
ss(Vimage
p764
g753
tp765
(dp766
Vinstall-stem
p767
Vvmlinuz
p768
ss(Vdescription
p769
g753
NV5kc-malta
p770
tp771
(dp772
Vhardware
p773
VMIPS Malta
p774
sVhardware-long
p775
VMIPS Malta boards
p776
ss(Vimage
p777
g753
NV5kc-malta
p778
tp779
(dp780
Vconfigs
p781
(lp782
Vkernelarch-mips/config.malta
p783
aVkernelarch-mips/config.mips64r2
p784
ass(Vdescription
p785
g753
NVocteon
p786
tp787
(dp788
Vhardware
p789
VOcteon
p790
sVhardware-long
p791
VCavium Networks Octeon
p792
ss(Vbuild
p793
g753
NVocteon
p794
tp795
(dp796
Vimage-file
p797
Vvmlinux
p798
ss(Vimage
p799
g753
NVocteon
p800
tp801
(dp802
Vinstall-stem
p803
Vvmlinux
p804
sVconfigs
p805
(lp806
Vkernelarch-mips/config.octeon
p807
ass(g206
g753
g175
tp808
(dp809
g209
(lp810
V5kc-malta
p811
aVocteon
p812
asg213
I01
ss(Vbase
p813
Vmips64el
p814
tp815
(dp816
Vkernel-arch
p817
Vmips
p818
sg173
(lp819
g175
ass(Vbuild
p820
g814
tp821
(dp822
Vimage-file
p823
Vvmlinuz
p824
ss(Vimage
p825
g814
tp826
(dp827
Vinstall-stem
p828
Vvmlinuz
p829
ss(Vdescription
p830
g814
NV5kc-malta
p831
tp832
(dp833
Vhardware
p834
VMIPS Malta
p835
sVhardware-long
p836
VMIPS Malta boards
p837
ss(Vimage
p838
g814
NV5kc-malta
p839
tp840
(dp841
Vconfigs
p842
(lp843
Vkernelarch-mips/config.malta
p844
aVkernelarch-mips/config.mips64r2
p845
ass(Vdescription
p846
g814
NVloongson-3
p847
tp848
(dp849
Vhardware
p850
VLoongson 3A/3B
p851
sVhardware-long
p852
VLoongson 3A or 3B based systems (e.g. from Loongson or Lemote)
p853
ss(Vimage
p854
g814
NVloongson-3
p855
tp856
(dp857
Vconfigs
p858
(lp859
Vkernelarch-mips/config.loongson-3
p860
ass(Vdescription
p861
g814
NVocteon
p862
tp863
(dp864
Vhardware
p865
VOcteon
p866
sVhardware-long
p867
VCavium Networks Octeon
p868
ss(Vbuild
p869
g814
NVocteon
p870
tp871
(dp872
Vimage-file
p873
Vvmlinux
p874
ss(Vimage
p875
g814
NVocteon
p876
tp877
(dp878
Vinstall-stem
p879
Vvmlinux
p880
sVconfigs
p881
(lp882
Vkernelarch-mips/config.octeon
p883
ass(g206
g814
g175
tp884
(dp885
g209
(lp886
V5kc-malta
p887
aVloongson-3
p888
aVocteon
p889
asg213
I01
ss(Vbase
p890
Vmips64r6
p891
tp892
(dp893
Vkernel-arch
p894
Vmips
p895
sg173
(lp896
g175
ass(Vbuild
p897
g891
tp898
(dp899
Vimage-file
p900
Vvmlinux
p901
ss(Vimage
p902
g891
tp903
(dp904
Vinstall-stem
p905
Vvmlinux
p906
ss(Vdescription
p907
g891
NVmips64r6
p908
tp909
(dp910
Vhardware
p911
VMIPS R6 (64 bit, big endian)
p912
sVhardware-long
p913
VMIPS R6 (64 bit, big endian)
p914
ss(Vimage
p915
g891
NVmips64r6
p916
tp917
(dp918
Vconfigs
p919
(lp920
Vkernelarch-mips/config.boston
p921
aVkernelarch-mips/config.mips64r6
p922
ass(g206
g891
g175
tp923
(dp924
g209
(lp925
Vmips64r6
p926
asg213
I01
ss(Vbase
p927
Vmips64r6el
p928
tp929
(dp930
Vkernel-arch
p931
Vmips
p932
sg173
(lp933
g175
ass(Vbuild
p934
g928
tp935
(dp936
Vimage-file
p937
Vvmlinux
p938
ss(Vimage
p939
g928
tp940
(dp941
Vinstall-stem
p942
Vvmlinux
p943
ss(Vdescription
p944
g928
NVmips64r6el
p945
tp946
(dp947
Vhardware
p948
VMIPS R6 (64 bit, little endian)
p949
sVhardware-long
p950
VMIPS R6 (64 bit, little endian)
p951
ss(Vimage
p952
g928
NVmips64r6el
p953
tp954
(dp955
Vconfigs
p956
(lp957
Vkernelarch-mips/config.boston
p958
aVkernelarch-mips/config.mips64r6
p959
ass(g206
g928
g175
tp960
(dp961
g209
(lp962
Vmips64r6el
p963
asg213
I01
ss(Vbase
p964
Vmipsel
p965
tp966
(dp967
Vkernel-arch
p968
Vmips
p969
sg173
(lp970
g175
ass(Vbuild
p971
g965
tp972
(dp973
Vimage-file
p974
Vvmlinuz
p975
ss(Vimage
p976
g965
tp977
(dp978
Vinstall-stem
p979
Vvmlinuz
p980
ss(Vdescription
p981
g965
NV4kc-malta
p982
tp983
(dp984
Vhardware
p985
VMIPS Malta
p986
sVhardware-long
p987
VMIPS Malta boards
p988
ss(Vimage
p989
g965
NV4kc-malta
p990
tp991
(dp992
Vconfigs
p993
(lp994
Vkernelarch-mips/config.malta
p995
aVkernelarch-mips/config.mips32r2
p996
ass(Vdescription
p997
g965
NV5kc-malta
p998
tp999
(dp1000
Vhardware
p1001
VMIPS Malta (64-bit)
p1002
sVhardware-long
p1003
VMIPS Malta boards (64-bit)
p1004
ss(Vimage
p1005
g965
NV5kc-malta
p1006
tp1007
(dp1008
Vconfigs
p1009
(lp1010
Vkernelarch-mips/config.malta
p1011
aVkernelarch-mips/config.mips64r2
p1012
ass(Vdescription
p1013
g965
NVloongson-3
p1014
tp1015
(dp1016
Vhardware
p1017
VLoongson 3A/3B
p1018
sVhardware-long
p1019
VLoongson 3A or 3B based systems (e.g. from Loongson or Lemote)
p1020
ss(Vimage
p1021
g965
NVloongson-3
p1022
tp1023
(dp1024
Vconfigs
p1025
(lp1026
Vkernelarch-mips/config.loongson-3
p1027
ass(Vdescription
p1028
g965
NVocteon
p1029
tp1030
(dp1031
Vhardware
p1032
VOcteon
p1033
sVhardware-long
p1034
VCavium Networks Octeon
p1035
ss(Vbuild
p1036
g965
NVocteon
p1037
tp1038
(dp1039
Vimage-file
p1040
Vvmlinux
p1041
ss(Vimage
p1042
g965
NVocteon
p1043
tp1044
(dp1045
Vinstall-stem
p1046
Vvmlinux
p1047
sVconfigs
p1048
(lp1049
Vkernelarch-mips/config.octeon
p1050
ass(g206
g965
g175
tp1051
(dp1052
g209
(lp1053
V4kc-malta
p1054
aV5kc-malta
p1055
aVloongson-3
p1056
aVocteon
p1057
asg213
I01
ss(Vbase
p1058
Vmipsn32
p1059
tp1060
(dp1061
Vkernel-arch
p1062
Vmips
p1063
sVfeaturesets
p1064
(lp1065
ss(Vbase
p1066
Vmipsn32el
p1067
tp1068
(dp1069
Vkernel-arch
p1070
Vmips
p1071
sVfeaturesets
p1072
(lp1073
ss(Vbase
p1074
Vmipsn32r6
p1075
tp1076
(dp1077
Vkernel-arch
p1078
Vmips
p1079
sVfeaturesets
p1080
(lp1081
ss(Vbase
p1082
Vmipsn32r6el
p1083
tp1084
(dp1085
Vkernel-arch
p1086
Vmips
p1087
sVfeaturesets
p1088
(lp1089
ss(Vbase
p1090
Vmipsr6
p1091
tp1092
(dp1093
Vkernel-arch
p1094
Vmips
p1095
sg173
(lp1096
g175
ass(Vbuild
p1097
g1091
tp1098
(dp1099
Vimage-file
p1100
Vvmlinux
p1101
ss(Vimage
p1102
g1091
tp1103
(dp1104
Vinstall-stem
p1105
Vvmlinux
p1106
ss(Vdescription
p1107
g1091
NVmips32r6
p1108
tp1109
(dp1110
Vhardware
p1111
VMIPS R6 (32 bit, big endian)
p1112
sVhardware-long
p1113
VMIPS R6 (32 bit, big endian)
p1114
ss(Vimage
p1115
g1091
NVmips32r6
p1116
tp1117
(dp1118
Vconfigs
p1119
(lp1120
Vkernelarch-mips/config.boston
p1121
aVkernelarch-mips/config.mips32r6
p1122
ass(Vdescription
p1123
g1091
NVmips64r6
p1124
tp1125
(dp1126
Vhardware
p1127
VMIPS R6 (64 bit, big endian)
p1128
sVhardware-long
p1129
VMIPS R6 (64 bit, big endian)
p1130
ss(Vimage
p1131
g1091
NVmips64r6
p1132
tp1133
(dp1134
Vconfigs
p1135
(lp1136
Vkernelarch-mips/config.boston
p1137
aVkernelarch-mips/config.mips64r6
p1138
ass(g206
g1091
g175
tp1139
(dp1140
g209
(lp1141
Vmips32r6
p1142
aVmips64r6
p1143
asg213
I01
ss(Vbase
p1144
Vmipsr6el
p1145
tp1146
(dp1147
Vkernel-arch
p1148
Vmips
p1149
sg173
(lp1150
g175
ass(Vbuild
p1151
g1145
tp1152
(dp1153
Vimage-file
p1154
Vvmlinux
p1155
ss(Vimage
p1156
g1145
tp1157
(dp1158
Vinstall-stem
p1159
Vvmlinux
p1160
ss(Vdescription
p1161
g1145
NVmips32r6el
p1162
tp1163
(dp1164
Vhardware
p1165
VMIPS R6 (32 bit, little endian)
p1166
sVhardware-long
p1167
VMIPS R6 (32 bit, little endian)
p1168
ss(Vimage
p1169
g1145
NVmips32r6el
p1170
tp1171
(dp1172
Vconfigs
p1173
(lp1174
Vkernelarch-mips/config.boston
p1175
aVkernelarch-mips/config.mips32r6
p1176
ass(Vdescription
p1177
g1145
NVmips64r6el
p1178
tp1179
(dp1180
Vhardware
p1181
VMIPS R6 (64 bit, little endian)
p1182
sVhardware-long
p1183
VMIPS R6 (64 bit, little endian)
p1184
ss(Vimage
p1185
g1145
NVmips64r6el
p1186
tp1187
(dp1188
Vconfigs
p1189
(lp1190
Vkernelarch-mips/config.boston
p1191
aVkernelarch-mips/config.mips64r6
p1192
ass(g206
g1145
g175
tp1193
(dp1194
g209
(lp1195
Vmips32r6el
p1196
aVmips64r6el
p1197
asg213
I01
ss(Vbase
p1198
Vpowerpc
p1199
tp1200
(dp1201
Vkernel-arch
p1202
Vpowerpc
p1203
sg173
(lp1204
g175
ass(Vbuild
p1205
g1199
tp1206
(dp1207
Vimage-file
p1208
Vvmlinux
p1209
sVvdso
p1210
I01
ss(Vimage
p1211
g1199
tp1212
(dp1213
Vconfigs
p1214
(lp1215
sVbootloaders
p1216
(lp1217
Vgrub-ieee1275
p1218
asVsuggests
p1219
(lp1220
Vmkvmlinuz
p1221
asVinstall-stem
p1222
Vvmlinux
p1223
ss(Vdescription
p1224
g1199
NVpowerpc
p1225
tp1226
(dp1227
Vhardware
p1228
Vuniprocessor 32-bit PowerPC
p1229
ss(Vdescription
p1230
g1199
NVpowerpc-smp
p1231
tp1232
(dp1233
Vhardware
p1234
Vmultiprocessor 32-bit PowerPC
p1235
ss(Vimage
p1236
g1199
NVpowerpc-smp
p1237
tp1238
(dp1239
Vconfigs
p1240
(lp1241
Vpowerpc/config.powerpc
p1242
aVpowerpc/config.powerpc-smp
p1243
ass(Vdescription
p1244
g1199
NVpowerpc64
p1245
tp1246
(dp1247
Vhardware
p1248
V64-bit PowerPC
p1249
ss(Vimage
p1250
g1199
NVpowerpc64
p1251
tp1252
(dp1253
Vconfigs
p1254
(lp1255
Vkernelarch-powerpc/config-arch-64
p1256
aVkernelarch-powerpc/config-arch-64-be
p1257
ass(g206
g1199
g175
tp1258
(dp1259
g209
(lp1260
Vpowerpc
p1261
aVpowerpc-smp
p1262
aVpowerpc64
p1263
asg213
I01
ss(Vbase
p1264
Vppc64
p1265
tp1266
(dp1267
Vkernel-arch
p1268
Vpowerpc
p1269
sg173
(lp1270
g175
ass(Vbuild
p1271
g1265
tp1272
(dp1273
Vimage-file
p1274
Vvmlinux
p1275
sVvdso
p1276
I01
ss(Vimage
p1277
g1265
tp1278
(dp1279
Vconfigs
p1280
(lp1281
sVbootloaders
p1282
(lp1283
Vgrub-ieee1275
p1284
asVsuggests
p1285
(lp1286
Vmkvmlinuz
p1287
asVinstall-stem
p1288
Vvmlinux
p1289
ss(Vdescription
p1290
g1265
NVpowerpc64
p1291
tp1292
(dp1293
Vhardware
p1294
V64-bit PowerPC
p1295
ss(Vimage
p1296
g1265
NVpowerpc64
p1297
tp1298
(dp1299
Vconfigs
p1300
(lp1301
Vkernelarch-powerpc/config-arch-64
p1302
aVkernelarch-powerpc/config-arch-64-be
p1303
ass(g206
g1265
g175
tp1304
(dp1305
g209
(lp1306
Vpowerpc64
p1307
asg213
I01
ss(Vbase
p1308
Vppc64el
p1309
tp1310
(dp1311
Vkernel-arch
p1312
Vpowerpc
p1313
sg173
(lp1314
g175
ass(Vbuild
p1315
g1309
tp1316
(dp1317
Vimage-file
p1318
Vvmlinux
p1319
sVvdso
p1320
I01
ss(Vimage
p1321
g1309
tp1322
(dp1323
Vconfigs
p1324
(lp1325
sVbootloaders
p1326
(lp1327
Vgrub-ieee1275
p1328
asVsuggests
p1329
(lp1330
Vmkvmlinuz
p1331
asVinstall-stem
p1332
Vvmlinux
p1333
ss(Vdescription
p1334
g1309
NVpowerpc64le
p1335
tp1336
(dp1337
Vhardware
p1338
VLittle-endian 64-bit PowerPC
p1339
ss(Vimage
p1340
g1309
NVpowerpc64le
p1341
tp1342
(dp1343
Vconfigs
p1344
(lp1345
Vkernelarch-powerpc/config-arch-64
p1346
aVkernelarch-powerpc/config-arch-64-le
p1347
ass(g206
g1309
g175
tp1348
(dp1349
g209
(lp1350
Vpowerpc64le
p1351
asg213
I01
ss(Vbase
p1352
Vriscv64
p1353
tp1354
(dp1355
Vkernel-arch
p1356
Vriscv
p1357
sVfeaturesets
p1358
(lp1359
Vnone
p1360
ass(Vbuild
p1361
g1353
tp1362
(dp1363
Vimage-file
p1364
Varch/riscv/boot/Image
p1365
sVvdso
p1366
I01
ss(Vimage
p1367
g1353
tp1368
(dp1369
Vinstall-stem
p1370
Vvmlinux
p1371
ss(Vdescription
p1372
g1353
NVriscv64
p1373
tp1374
(dp1375
Vhardware
p1376
V64-bit RISC-V platforms
p1377
sVhardware-long
p1378
V64-bit RISC-V platforms
p1379
ss(Vbase
p1380
g1353
Vnone
p1381
tp1382
(dp1383
Vflavours
p1384
(lp1385
Vriscv64
p1386
ass(Vbase
p1387
Vs390
p1388
tp1389
(dp1390
Vkernel-arch
p1391
Vs390
p1392
sVfeaturesets
p1393
(lp1394
ss(Vbase
p1395
Vs390x
p1396
tp1397
(dp1398
Vkernel-arch
p1399
Vs390
p1400
sg173
(lp1401
g175
ass(Vbuild
p1402
g1396
tp1403
(dp1404
Vimage-file
p1405
Varch/s390/boot/bzImage
p1406
sVvdso
p1407
I01
ss(Vimage
p1408
g1396
tp1409
(dp1410
Vbootloaders
p1411
(lp1412
Vs390-tools
p1413
asVinstall-stem
p1414
Vvmlinuz
p1415
ss(Vrelations
p1416
g1396
tp1417
(dp1418
Vheaders%gcc-9
p1419
Vlinux-compiler-gcc-9-s390
p1420
ss(Vbuild
p1421
g1396
NVs390x
p1422
tp1423
(dp1424
Vdebug-info
p1425
I01
ss(Vdescription
p1426
g1396
NVs390x
p1427
tp1428
(dp1429
Vhardware
p1430
VIBM zSeries
p1431
ss(g206
g1396
g175
tp1432
(dp1433
g209
(lp1434
Vs390x
p1435
asg213
I01
ss(Vbase
p1436
Vsh3
p1437
tp1438
(dp1439
Vkernel-arch
p1440
Vsh
p1441
sVfeaturesets
p1442
(lp1443
ss(Vbase
p1444
Vsh4
p1445
tp1446
(dp1447
Vkernel-arch
p1448
Vsh
p1449
sg173
(lp1450
g175
ass(Vbuild
p1451
g1445
tp1452
(dp1453
Vimage-file
p1454
Varch/sh/boot/zImage
p1455
ss(Vimage
p1456
g1445
tp1457
(dp1458
Vinstall-stem
p1459
Vvmlinuz
p1460
ss(Vdescription
p1461
g1445
NVsh7751r
p1462
tp1463
(dp1464
Vhardware
p1465
Vsh7751r
p1466
sVhardware-long
p1467
VRenesas SH7751R R2D plus board
p1468
ss(Vdescription
p1469
g1445
NVsh7785lcr
p1470
tp1471
(dp1472
Vhardware
p1473
Vsh7785lcr
p1474
sVhardware-long
p1475
VRenesas SH7785 reference board
p1476
ss(Vimage
p1477
g1445
NVsh7785lcr
p1478
tp1479
(dp1480
Vrecommends
p1481
(lp1482
Vu-boot-tools
p1483
asVcheck-size
p1484
I4194304
ss(g206
g1445
g175
tp1485
(dp1486
g209
(lp1487
Vsh7751r
p1488
aVsh7785lcr
p1489
asg213
I01
ss(Vbase
p1490
Vsparc
p1491
tp1492
(dp1493
Vkernel-arch
p1494
Vsparc
p1495
sVfeaturesets
p1496
(lp1497
ss(Vbase
p1498
Vsparc64
p1499
tp1500
(dp1501
Vkernel-arch
p1502
Vsparc
p1503
sg173
(lp1504
g175
ass(Vbuild
p1505
g1499
tp1506
(dp1507
Vimage-file
p1508
Vvmlinux
p1509
ss(Vimage
p1510
g1499
tp1511
(dp1512
Vconfigs
p1513
(lp1514
sVbootloaders
p1515
(lp1516
Vgrub-ieee1275
p1517
asVsuggests
p1518
(lp1519
Vfdutils
p1520
asVinstall-stem
p1521
Vvmlinux
p1522
ss(Vdescription
p1523
g1499
NVsparc64
p1524
tp1525
(dp1526
Vhardware
p1527
Vuniprocessor 64-bit UltraSPARC
p1528
ss(Vimage
p1529
g1499
NVsparc64
p1530
tp1531
(dp1532
Vconfigs
p1533
(lp1534
Vkernelarch-sparc/config-up
p1535
ass(Vdescription
p1536
g1499
NVsparc64-smp
p1537
tp1538
(dp1539
Vhardware
p1540
Vmultiprocessor 64-bit UltraSPARC
p1541
ss(Vimage
p1542
g1499
NVsparc64-smp
p1543
tp1544
(dp1545
Vconfigs
p1546
(lp1547
Vkernelarch-sparc/config-smp
p1548
ass(g206
g1499
g175
tp1549
(dp1550
g209
(lp1551
Vsparc64
p1552
aVsparc64-smp
p1553
asg213
I01
ss(Vbase
p1554
Vx32
p1555
tp1556
(dp1557
Vkernel-arch
p1558
Vx86
p1559
sVfeaturesets
p1560
(lp1561
ss(Vabi
p1562
NVrt
p1563
tp1564
(dp1565
Vignore-changes
p1566
(lp1567
V*
p1568
ass(Vdescription
p1569
Ng1563
tp1570
(dp1571
Vpart-long-rt
p1572
VThis kernel includes the PREEMPT_RT realtime patch set.
p1573
sVpart-short-rt
p1574
VPREEMPT_RT
p1575
sVparts
p1576
(lp1577
Vrt
p1578
ass(Vversion
p1579
tp1580
(dp1581
Vsource
p1582
V5.4.8-1kali1
p1583
sVupstream
p1584
V5.4
p1585
sVabiname_base
p1586
V5.4.0
p1587
sVabiname
p1588
V5.4.0-kali2
p1589
ss.