cdebian_linux.config
ConfigCore
p0
(tRp1
(Vabi
p2
tp3
(dp4
Vabiname
p5
V1
p6
sVignore-changes
p7
(lp8
V__cpuhp_*
p9
aV__xive_vm_h_*
p10
aVbpf_analyzer
p11
aVcxl_*
p12
aVdax_flush
p13
aVieee80211_nullfunc_get
p14
aVinet_add_protocol
p15
aVinet_del_protocol
p16
aViommu_device_*
p17
aVkvm_async_pf_task_wait
p18
aVkvmppc_*
p19
aVmm_iommu_*
p20
aVmv_mbus_*
p21
aVperf_*
p22
aVregister_cxl_calls
p23
aVregister_key_type
p24
aVunregister_cxl_calls
p25
aV*_hw_breakpoint
p26
aVmodule:arch/x86/kvm/*
p27
aVmodule:drivers/crypto/ccp/*
p28
aVmodule:drivers/hv/*
p29
aVmodule:drivers/iio/**
p30
aVmodule:drivers/misc/cxl/*
p31
aVmodule:drivers/mtd/nand/*
p32
aVmodule:drivers/net/wireless/**
p33
aVmodule:drivers/nvdimm/*
p34
aVmodule:drivers/power/supply/bq27xxx_battery
p35
aVmodule:drivers/scsi/cxgbi/*
p36
aVmodule:drivers/scsi/libiscs*
p37
aVmodule:drivers/scsi/qla2xxx/qla2xxx
p38
aVmodule:drivers/scsi/ufs/*
p39
aVmodule:drivers/target/**
p40
aVmodule:drivers/usb/chipidea/**
p41
aVmodule:drivers/usb/gadget/**
p42
aVmodule:drivers/usb/host/**
p43
aVmodule:drivers/usb/musb/**
p44
aVmodule:fs/nfs/**
p45
aVmodule:net/ceph/libceph
p46
aVmodule:net/l2tp/**
p47
aVmodule:net/rxrpc/rxrpc
p48
aVmodule:sound/core/seq/**
p49
aVmodule:sound/firewire/snd-firewire-lib
p50
aVmodule:sound/pci/hda/*
p51
aVbtree_*
p52
aVvisitor*
p53
aVcan_rx_register
p54
aVip6_xmit
p55
aVmodule:net/dccp/dccp
p56
aVmodule:net/rds/rds
p57
aVdevfreq_*
p58
aVdevm_devfreq_*
p59
aVupdate_devfreq
p60
aVmodule:drivers/infiniband/**
p61
aVacpi_ec_add_query_handler
p62
aVacpi_ec_remove_query_handler
p63
aVfirst_ec
p64
aVdebugfs_create_automount
p65
aVmodule:drivers/iio/imu/inv_mpu6050/*
p66
aVdrm_crtc_accurate_vblank_count
p67
ass(Vbase
p68
tp69
(dp70
Varches
p71
(lp72
Valpha
p73
aVamd64
p74
aVarm64
p75
aVarm64ilp32
p76
aVarmel
p77
aVarmhf
p78
aVhppa
p79
aVi386
p80
aVia64
p81
aVm68k
p82
aVmips
p83
aVmips64
p84
aVmips64el
p85
aVmips64r6
p86
aVmips64r6el
p87
aVmipsel
p88
aVmipsn32
p89
aVmipsn32el
p90
aVmipsn32r6
p91
aVmipsn32r6el
p92
aVmipsr6
p93
aVmipsr6el
p94
aVpowerpc
p95
aVpowerpcspe
p96
aVppc64
p97
aVppc64el
p98
aVs390
p99
aVs390x
p100
aVsh3
p101
aVsh4
p102
aVsparc
p103
aVsparc64
p104
aVtilegx
p105
aVx32
p106
asVcompiler
p107
Vgcc-7
p108
sVfeaturesets
p109
(lp110
Vnone
p111
aVrt
p112
ass(Vbuild
p113
tp114
(dp115
Vdebug-info
p116
I01
sVsigned-code
p117
I00
ss(Vbase
p118
NVrt
p119
tp120
(dp121
Venabled
p122
I00
ss(Vdescription
p123
tp124
(dp125
Vpart-long-up
p126
VThis kernel is not suitable for SMP (multi-processor,\u000amulti-core or hyper-threaded) systems.
p127
ss(Vimage
p128
tp129
(dp130
Vinitramfs-generators
p131
(lp132
Vinitramfs-tools
p133
aVinitramfs-fallback
p134
asVrecommends
p135
Vapparmor
p136
ss(Vrelations
p137
tp138
(dp139
Vgcc-7
p140
Vgcc-7 <!stage1 !cross>, gcc-7-@gnu-type-package@ <!stage1 cross>
p141
sVinitramfs-fallback
p142
Vlinux-initramfs-tool
p143
sVinitramfs-tools
p144
Vinitramfs-tools (>= 0.120+deb8u2)
p145
ss(Vbase
p146
Valpha
p147
tp148
(dp149
Vkernel-arch
p150
Valpha
p151
sVfeaturesets
p152
(lp153
Vnone
p154
ass(Vbuild
p155
g147
tp156
(dp157
Vimage-file
p158
Varch/alpha/boot/vmlinux.gz
p159
ss(Vimage
p160
g147
tp161
(dp162
Vsuggests
p163
Vaboot, fdutils
p164
sVinstall-stem
p165
Vvmlinuz
p166
ss(Vdescription
p167
g147
NValpha-generic
p168
tp169
(dp170
Vhardware
p171
VAlpha
p172
sVhardware-long
p173
VDEC Alpha systems with extended kernel start address (Wildfire, Titan, Marvel)
p174
ss(Vdescription
p175
g147
NValpha-smp
p176
tp177
(dp178
Vhardware
p179
VAlpha SMP
p180
sVhardware-long
p181
VDEC Alpha SMP systems with extended kernel start address (Wildfire, Titan, Marvel)
p182
ss(Vbase
p183
g147
g154
tp184
(dp185
Vflavours
p186
(lp187
Valpha-generic
p188
aValpha-smp
p189
asVimplicit-flavour
p190
I01
ss(Vbase
p191
Vamd64
p192
tp193
(dp194
Vfeaturesets
p195
(lp196
Vnone
p197
aVrt
p198
asVkernel-arch
p199
Vx86
p200
ss(Vbuild
p201
g192
tp202
(dp203
Vdebug-info
p204
I01
sVimage-file
p205
Varch/x86/boot/bzImage
p206
sVvdso
p207
I01
ss(Vimage
p208
g192
tp209
(dp210
Vbootloaders
p211
(lp212
Vgrub-pc
p213
aVgrub-efi-amd64
p214
aVextlinux
p215
asVinstall-stem
p216
Vvmlinuz
p217
sVbreaks
p218
Vxserver-xorg-input-vmmouse (<< 1:13.0.99)
p219
ss(Vrelations
p220
g192
tp221
(dp222
Vgcc-7
p223
Vgcc-7 (>= 7.2.0-20~) <!stage1 !cross>, gcc-7-x86-64-linux-gnu (>= 7.2.0-20~) <!stage1 cross>
p224
sVheaders%gcc-7
p225
Vlinux-compiler-gcc-7-x86 (>= 4.14.17-1~)
p226
ss(Vdescription
p227
g192
NVamd64
p228
tp229
(dp230
Vhardware
p231
V64-bit PCs
p232
sVhardware-long
p233
VPCs with AMD64, Intel 64 or VIA Nano processors
p234
ss(Vdescription
p235
g192
NVcloud-amd64
p236
tp237
(dp238
Vhardware
p239
Vx86-64 cloud
p240
sVhardware-long
p241
VAmazon EC2, Google Compute Engine and Microsoft Azure cloud platforms
p242
ss(Vbase
p243
g192
Vnone
p244
tp245
(dp246
Vflavours
p247
(lp248
Vamd64
p249
aVcloud-amd64
p250
ass(Vbase
p251
g192
Vrt
p252
tp253
(dp254
Vflavours
p255
(lp256
Vamd64
p257
ass(Vbase
p258
Varm64
p259
tp260
(dp261
Vkernel-arch
p262
Varm64
p263
sVfeaturesets
p264
(lp265
Vnone
p266
ass(Vbuild
p267
g259
tp268
(dp269
Vdebug-info
p270
I01
sVimage-file
p271
Varch/arm64/boot/Image
p272
sVvdso
p273
I01
ss(Vimage
p274
g259
tp275
(dp276
Vinstall-stem
p277
Vvmlinuz
p278
sVbreaks
p279
Vlibmozjs185-1.0, libmozjs-24-0 (<< 24.2.0-5.1~)
p280
ss(Vdescription
p281
g259
NVarm64
p282
tp283
(dp284
Vhardware
p285
V64-bit ARMv8 machines
p286
ss(Vimage
p287
g259
NVarm64
p288
tp289
(dp290
s(Vbase
p291
g259
Vnone
p292
tp293
(dp294
Vflavours
p295
(lp296
Varm64
p297
ass(Vbase
p298
Varm64ilp32
p299
tp300
(dp301
Vkernel-arch
p302
Varm64
p303
sVfeaturesets
p304
(lp305
ss(Vbase
p306
Varmel
p307
tp308
(dp309
Vkernel-arch
p310
Varm
p311
sg152
(lp312
g154
ass(Vbuild
p313
g307
tp314
(dp315
Vimage-file
p316
Varch/arm/boot/zImage
p317
sVuncompressed-image-file
p318
Varch/arm/boot/Image
p319
ss(Vimage
p320
g307
tp321
(dp322
Vinstall-stem
p323
Vvmlinuz
p324
ss(Vrelations
p325
g307
tp326
(dp327
Vheaders%gcc-7
p328
Vlinux-compiler-gcc-7-arm
p329
ss(Vdescription
p330
g307
NVmarvell
p331
tp332
(dp333
Vhardware
p334
VMarvell Kirkwood/Orion
p335
sVhardware-long
p336
VMarvell Kirkwood and Orion based systems (https://wiki.debian.org/ArmEabiPort#Supported_hardware)
p337
ss(Vimage
p338
g307
NVmarvell
p339
tp340
(dp341
Vrecommends
p342
Vu-boot-tools
p343
sVcheck-size
p344
L2097080L
sVcheck-size-with-dtb
p345
I01
sVcheck-uncompressed-size
p346
L7340032L
sVbreaks
p347
Vflash-kernel (<< 3.57~)
p348
ss(g183
g307
g154
tp349
(dp350
g186
(lp351
Vmarvell
p352
asg190
I01
ss(Vbase
p353
Varmhf
p354
tp355
(dp356
Vkernel-arch
p357
Varm
p358
sg152
(lp359
g154
ass(Vbuild
p360
g354
tp361
(dp362
Vimage-file
p363
Varch/arm/boot/zImage
p364
sVvdso
p365
I01
ss(Vimage
p366
g354
tp367
(dp368
Vinstall-stem
p369
Vvmlinuz
p370
ss(Vrelations
p371
g354
tp372
(dp373
Vheaders%gcc-7
p374
Vlinux-compiler-gcc-7-arm
p375
ss(Vdescription
p376
g354
NVarmmp
p377
tp378
(dp379
Vhardware
p380
VARMv7 multiplatform compatible SoCs
p381
sVhardware-long
p382
VARMv7 multiplatform kernel. See\u000ahttps://wiki.debian.org/DebianKernel/ARMMP for details of supported\u000aplatforms
p383
ss(Vdescription
p384
g354
NVarmmp-lpae
p385
tp386
(dp387
Vhardware
p388
VARMv7 multiplatform compatible SoCs supporting LPAE
p389
sVhardware-long
p390
VARMv7 multiplatform kernel supporting LPAE. See\u000ahttps://wiki.debian.org/DebianKernel/ARMMP for details of supported\u000aplatforms.
p391
ss(g183
g354
g154
tp392
(dp393
g186
(lp394
Varmmp
p395
aVarmmp-lpae
p396
asg190
I01
ss(Vbase
p397
Vhppa
p398
tp399
(dp400
Vkernel-arch
p401
Vparisc
p402
sg152
(lp403
g154
ass(Vbuild
p404
g398
tp405
(dp406
Vimage-file
p407
Varch/parisc/boot/bzImage
p408
sVdebug-info
p409
I00
ss(Vimage
p410
g398
tp411
(dp412
Vsuggests
p413
Vpalo
p414
sVinstall-stem
p415
Vvmlinuz
p416
ss(Vdescription
p417
g398
NVparisc
p418
tp419
(dp420
Vhardware
p421
V32-bit PA-RISC
p422
sVhardware-long
p423
VHP PA-RISC 32-bit systems with max 4 GB RAM
p424
ss(Vdescription
p425
g398
NVparisc-smp
p426
tp427
(dp428
Vhardware
p429
Vmultiprocessor 32-bit PA-RISC
p430
sVhardware-long
p431
VHP PA-RISC 32-bit SMP systems with max 4 GB RAM
p432
ss(Vbase
p433
g398
NVparisc64-smp
p434
tp435
(dp436
Vcflags
p437
V-fno-cse-follow-jumps
p438
sVoverride-host-type
p439
Vhppa64-linux-gnu
p440
ss(Vdescription
p441
g398
NVparisc64-smp
p442
tp443
(dp444
Vhardware
p445
Vmultiprocessor 64-bit PA-RISC
p446
sVhardware-long
p447
VHP PA-RISC 64-bit SMP systems with support for more than 4 GB RAM
p448
ss(Vrelations
p449
g398
tp450
(dp451
Vgcc-7
p452
Vgcc-7 <!stage1 !cross>, binutils-hppa64-linux-gnu <!stage1 !cross>, gcc-7-hppa64-linux-gnu <!stage1 !cross>, gcc-7-hppa-linux-gnu <!stage1 cross>, binutils-hppa64-linux-gnu <!stage1 cross>, gcc-7-hppa64-linux-gnu <!stage1 cross>
p453
ss(g183
g398
g154
tp454
(dp455
g186
(lp456
Vparisc
p457
aVparisc-smp
p458
aVparisc64-smp
p459
asg190
I01
ss(Vbase
p460
Vi386
p461
tp462
(dp463
Vfeaturesets
p464
(lp465
Vnone
p466
aVrt
p467
asVkernel-arch
p468
Vx86
p469
ss(Vbuild
p470
g461
tp471
(dp472
Vimage-file
p473
Varch/x86/boot/bzImage
p474
sVvdso
p475
I01
ss(Vdescription
p476
g461
tp477
(dp478
Vpart-long-pae
p479
VThis kernel requires PAE (Physical Address Extension).\u000aThis feature is supported by the Intel Pentium Pro/II/III/4/4M/D, Xeon,\u000aCore and Atom; AMD Geode NX, Athlon (K7), Duron, Opteron, Sempron,\u000aTurion or Phenom; Transmeta Efficeon; VIA C7; and some other processors.
p480
ss(Vimage
p481
g461
tp482
(dp483
Vbootloaders
p484
(lp485
Vgrub-pc
p486
aVextlinux
p487
asVinstall-stem
p488
Vvmlinuz
p489
sVbreaks
p490
Vxserver-xorg-input-vmmouse (<< 1:13.0.99)
p491
ss(Vrelations
p492
g461
tp493
(dp494
Vgcc-7
p495
Vgcc-7 (>= 7.2.0-20~) <!stage1 !cross>, gcc-7-i686-linux-gnu (>= 7.2.0-20~) <!stage1 cross>
p496
sVheaders%gcc-7
p497
Vlinux-compiler-gcc-7-x86 (>= 4.14.17-1~)
p498
ss(Vdescription
p499
g461
NV686
p500
tp501
(dp502
Vhardware
p503
Volder PCs
p504
sVhardware-long
p505
VPCs with one or more processors not supporting PAE
p506
ss(Vbuild
p507
g461
NV686-pae
p508
tp509
(dp510
Vdebug-info
p511
I01
ss(Vdescription
p512
g461
NV686-pae
p513
tp514
(dp515
Vhardware
p516
Vmodern PCs
p517
sVhardware-long
p518
VPCs with one or more processors supporting PAE
p519
sVparts
p520
(lp521
Vpae
p522
ass(Vbase
p523
g461
Vnone
p524
tp525
(dp526
Vflavours
p527
(lp528
V686
p529
aV686-pae
p530
ass(Vbase
p531
g461
Vrt
p532
tp533
(dp534
Vflavours
p535
(lp536
V686-pae
p537
ass(Vbase
p538
Via64
p539
tp540
(dp541
Vkernel-arch
p542
Via64
p543
sg152
(lp544
g154
ass(Vbuild
p545
g539
tp546
(dp547
Vimage-file
p548
Vvmlinux.gz
p549
ss(Vimage
p550
g539
tp551
(dp552
Vbootloaders
p553
(lp554
Velilo
p555
asVinstall-stem
p556
Vvmlinuz
p557
ss(Vdescription
p558
g539
NVitanium
p559
tp560
(dp561
Vhardware
p562
VItanium (Merced)
p563
sVhardware-long
p564
Vsystems with original Itanium (Merced) processors
p565
ss(Vdescription
p566
g539
NVmckinley
p567
tp568
(dp569
Vhardware
p570
VItanium 2+
p571
sVhardware-long
p572
Vsystems with Itanium 2 or 9300/9500/9700-series processors
p573
ss(g183
g539
g154
tp574
(dp575
g186
(lp576
Vitanium
p577
aVmckinley
p578
asg190
I01
ss(Vbase
p579
Vm68k
p580
tp581
(dp582
Vcflags
p583
V-ffreestanding
p584
sVkernel-arch
p585
Vm68k
p586
sg152
(lp587
g154
ass(Vbuild
p588
g580
tp589
(dp590
Vimage-file
p591
Vvmlinux
p592
ss(Vimage
p593
g580
tp594
(dp595
Vsuggests
p596
Vvmelilo, fdutils
p597
sVinstall-stem
p598
Vvmlinux
p599
ss(Vdescription
p600
g580
NVm68k
p601
tp602
(dp603
Vhardware
p604
VMotorola MC68020+ family
p605
ss(g183
g580
g154
tp606
(dp607
g186
(lp608
Vm68k
p609
asg190
I01
ss(Vbase
p610
Vmips
p611
tp612
(dp613
Vkernel-arch
p614
Vmips
p615
sg152
(lp616
g154
ass(Vbuild
p617
g611
tp618
(dp619
Vimage-file
p620
Vvmlinux
p621
ss(Vimage
p622
g611
tp623
(dp624
Vinstall-stem
p625
Vvmlinux
p626
ss(Vdescription
p627
g611
NV4kc-malta
p628
tp629
(dp630
Vhardware
p631
VMIPS Malta
p632
sVhardware-long
p633
VMIPS Malta boards
p634
ss(Vimage
p635
g611
NV4kc-malta
p636
tp637
(dp638
Vconfigs
p639
(lp640
Vkernelarch-mips/config.malta
p641
aVkernelarch-mips/config.mips32r2
p642
ass(Vdescription
p643
g611
NV5kc-malta
p644
tp645
(dp646
Vhardware
p647
VMIPS Malta (64-bit)
p648
sVhardware-long
p649
VMIPS Malta boards (64-bit)
p650
ss(Vimage
p651
g611
NV5kc-malta
p652
tp653
(dp654
Vconfigs
p655
(lp656
Vkernelarch-mips/config.malta
p657
aVkernelarch-mips/config.mips64r2
p658
ass(Vdescription
p659
g611
NVocteon
p660
tp661
(dp662
Vhardware
p663
VOcteon
p664
sVhardware-long
p665
VCavium Networks Octeon
p666
ss(Vimage
p667
g611
NVocteon
p668
tp669
(dp670
Vconfigs
p671
(lp672
Vkernelarch-mips/config.octeon
p673
ass(g183
g611
g154
tp674
(dp675
g186
(lp676
V4kc-malta
p677
aV5kc-malta
p678
aVocteon
p679
asg190
I01
ss(Vbase
p680
Vmips64
p681
tp682
(dp683
Vkernel-arch
p684
Vmips
p685
sg152
(lp686
g154
ass(Vbuild
p687
g681
tp688
(dp689
Vimage-file
p690
Vvmlinux
p691
ss(Vimage
p692
g681
tp693
(dp694
Vinstall-stem
p695
Vvmlinux
p696
ss(Vdescription
p697
g681
NV5kc-malta
p698
tp699
(dp700
Vhardware
p701
VMIPS Malta
p702
sVhardware-long
p703
VMIPS Malta boards
p704
ss(Vimage
p705
g681
NV5kc-malta
p706
tp707
(dp708
Vconfigs
p709
(lp710
Vkernelarch-mips/config.malta
p711
aVkernelarch-mips/config.mips64r2
p712
ass(Vdescription
p713
g681
NVocteon
p714
tp715
(dp716
Vhardware
p717
VOcteon
p718
sVhardware-long
p719
VCavium Networks Octeon
p720
ss(Vimage
p721
g681
NVocteon
p722
tp723
(dp724
Vconfigs
p725
(lp726
Vkernelarch-mips/config.octeon
p727
ass(g183
g681
g154
tp728
(dp729
g186
(lp730
V5kc-malta
p731
aVocteon
p732
asg190
I01
ss(Vbase
p733
Vmips64el
p734
tp735
(dp736
Vkernel-arch
p737
Vmips
p738
sg152
(lp739
g154
ass(Vbuild
p740
g734
tp741
(dp742
Vimage-file
p743
Vvmlinux
p744
ss(Vimage
p745
g734
tp746
(dp747
Vinstall-stem
p748
Vvmlinux
p749
ss(Vdescription
p750
g734
NV5kc-malta
p751
tp752
(dp753
Vhardware
p754
VMIPS Malta
p755
sVhardware-long
p756
VMIPS Malta boards
p757
ss(Vimage
p758
g734
NV5kc-malta
p759
tp760
(dp761
Vconfigs
p762
(lp763
Vkernelarch-mips/config.malta
p764
aVkernelarch-mips/config.mips64r2
p765
ass(Vdescription
p766
g734
NVloongson-3
p767
tp768
(dp769
Vhardware
p770
VLoongson 3A/3B
p771
sVhardware-long
p772
VLoongson 3A or 3B based systems (e.g. from Loongson or Lemote)
p773
ss(Vimage
p774
g734
NVloongson-3
p775
tp776
(dp777
Vconfigs
p778
(lp779
Vkernelarch-mips/config.loongson-3
p780
ass(Vdescription
p781
g734
NVocteon
p782
tp783
(dp784
Vhardware
p785
VOcteon
p786
sVhardware-long
p787
VCavium Networks Octeon
p788
ss(Vimage
p789
g734
NVocteon
p790
tp791
(dp792
Vconfigs
p793
(lp794
Vkernelarch-mips/config.octeon
p795
ass(g183
g734
g154
tp796
(dp797
g186
(lp798
V5kc-malta
p799
aVloongson-3
p800
aVocteon
p801
asg190
I01
ss(Vbase
p802
Vmips64r6
p803
tp804
(dp805
Vkernel-arch
p806
Vmips
p807
sg152
(lp808
g154
ass(Vbuild
p809
g803
tp810
(dp811
Vimage-file
p812
Vvmlinux
p813
ss(Vimage
p814
g803
tp815
(dp816
Vinstall-stem
p817
Vvmlinux
p818
ss(Vdescription
p819
g803
NVmips64r6
p820
tp821
(dp822
Vhardware
p823
VMIPS R6 (64 bit, big endian)
p824
sVhardware-long
p825
VMIPS R6 (64 bit, big endian)
p826
ss(Vimage
p827
g803
NVmips64r6
p828
tp829
(dp830
Vconfigs
p831
(lp832
Vkernelarch-mips/config.boston
p833
aVkernelarch-mips/config.mips64r6
p834
ass(g183
g803
g154
tp835
(dp836
g186
(lp837
Vmips64r6
p838
asg190
I01
ss(Vbase
p839
Vmips64r6el
p840
tp841
(dp842
Vkernel-arch
p843
Vmips
p844
sg152
(lp845
g154
ass(Vbuild
p846
g840
tp847
(dp848
Vimage-file
p849
Vvmlinux
p850
ss(Vimage
p851
g840
tp852
(dp853
Vinstall-stem
p854
Vvmlinux
p855
ss(Vdescription
p856
g840
NVmips64r6el
p857
tp858
(dp859
Vhardware
p860
VMIPS R6 (64 bit, little endian)
p861
sVhardware-long
p862
VMIPS R6 (64 bit, little endian)
p863
ss(Vimage
p864
g840
NVmips64r6el
p865
tp866
(dp867
Vconfigs
p868
(lp869
Vkernelarch-mips/config.boston
p870
aVkernelarch-mips/config.mips64r6
p871
ass(g183
g840
g154
tp872
(dp873
g186
(lp874
Vmips64r6el
p875
asg190
I01
ss(Vbase
p876
Vmipsel
p877
tp878
(dp879
Vkernel-arch
p880
Vmips
p881
sg152
(lp882
g154
ass(Vbuild
p883
g877
tp884
(dp885
Vimage-file
p886
Vvmlinux
p887
ss(Vimage
p888
g877
tp889
(dp890
Vinstall-stem
p891
Vvmlinux
p892
ss(Vdescription
p893
g877
NV4kc-malta
p894
tp895
(dp896
Vhardware
p897
VMIPS Malta
p898
sVhardware-long
p899
VMIPS Malta boards
p900
ss(Vimage
p901
g877
NV4kc-malta
p902
tp903
(dp904
Vconfigs
p905
(lp906
Vkernelarch-mips/config.malta
p907
aVkernelarch-mips/config.mips32r2
p908
ass(Vdescription
p909
g877
NV5kc-malta
p910
tp911
(dp912
Vhardware
p913
VMIPS Malta (64-bit)
p914
sVhardware-long
p915
VMIPS Malta boards (64-bit)
p916
ss(Vimage
p917
g877
NV5kc-malta
p918
tp919
(dp920
Vconfigs
p921
(lp922
Vkernelarch-mips/config.malta
p923
aVkernelarch-mips/config.mips64r2
p924
ass(Vdescription
p925
g877
NVloongson-3
p926
tp927
(dp928
Vhardware
p929
VLoongson 3A/3B
p930
sVhardware-long
p931
VLoongson 3A or 3B based systems (e.g. from Loongson or Lemote)
p932
ss(Vimage
p933
g877
NVloongson-3
p934
tp935
(dp936
Vconfigs
p937
(lp938
Vkernelarch-mips/config.loongson-3
p939
ass(Vdescription
p940
g877
NVocteon
p941
tp942
(dp943
Vhardware
p944
VOcteon
p945
sVhardware-long
p946
VCavium Networks Octeon
p947
ss(Vimage
p948
g877
NVocteon
p949
tp950
(dp951
Vconfigs
p952
(lp953
Vkernelarch-mips/config.octeon
p954
ass(g183
g877
g154
tp955
(dp956
g186
(lp957
V4kc-malta
p958
aV5kc-malta
p959
aVloongson-3
p960
aVocteon
p961
asg190
I01
ss(Vbase
p962
Vmipsn32
p963
tp964
(dp965
Vkernel-arch
p966
Vmips
p967
sVfeaturesets
p968
(lp969
ss(Vbase
p970
Vmipsn32el
p971
tp972
(dp973
Vkernel-arch
p974
Vmips
p975
sVfeaturesets
p976
(lp977
ss(Vbase
p978
Vmipsn32r6
p979
tp980
(dp981
Vkernel-arch
p982
Vmips
p983
sVfeaturesets
p984
(lp985
ss(Vbase
p986
Vmipsn32r6el
p987
tp988
(dp989
Vkernel-arch
p990
Vmips
p991
sVfeaturesets
p992
(lp993
ss(Vbase
p994
Vmipsr6
p995
tp996
(dp997
Vkernel-arch
p998
Vmips
p999
sg152
(lp1000
g154
ass(Vbuild
p1001
g995
tp1002
(dp1003
Vimage-file
p1004
Vvmlinux
p1005
ss(Vimage
p1006
g995
tp1007
(dp1008
Vinstall-stem
p1009
Vvmlinux
p1010
ss(Vdescription
p1011
g995
NVmips32r6
p1012
tp1013
(dp1014
Vhardware
p1015
VMIPS R6 (32 bit, big endian)
p1016
sVhardware-long
p1017
VMIPS R6 (32 bit, big endian)
p1018
ss(Vimage
p1019
g995
NVmips32r6
p1020
tp1021
(dp1022
Vconfigs
p1023
(lp1024
Vkernelarch-mips/config.boston
p1025
aVkernelarch-mips/config.mips32r6
p1026
ass(Vdescription
p1027
g995
NVmips64r6
p1028
tp1029
(dp1030
Vhardware
p1031
VMIPS R6 (64 bit, big endian)
p1032
sVhardware-long
p1033
VMIPS R6 (64 bit, big endian)
p1034
ss(Vimage
p1035
g995
NVmips64r6
p1036
tp1037
(dp1038
Vconfigs
p1039
(lp1040
Vkernelarch-mips/config.boston
p1041
aVkernelarch-mips/config.mips64r6
p1042
ass(g183
g995
g154
tp1043
(dp1044
g186
(lp1045
Vmips32r6
p1046
aVmips64r6
p1047
asg190
I01
ss(Vbase
p1048
Vmipsr6el
p1049
tp1050
(dp1051
Vkernel-arch
p1052
Vmips
p1053
sg152
(lp1054
g154
ass(Vbuild
p1055
g1049
tp1056
(dp1057
Vimage-file
p1058
Vvmlinux
p1059
ss(Vimage
p1060
g1049
tp1061
(dp1062
Vinstall-stem
p1063
Vvmlinux
p1064
ss(Vdescription
p1065
g1049
NVmips32r6el
p1066
tp1067
(dp1068
Vhardware
p1069
VMIPS R6 (32 bit, little endian)
p1070
sVhardware-long
p1071
VMIPS R6 (32 bit, little endian)
p1072
ss(Vimage
p1073
g1049
NVmips32r6el
p1074
tp1075
(dp1076
Vconfigs
p1077
(lp1078
Vkernelarch-mips/config.boston
p1079
aVkernelarch-mips/config.mips32r6
p1080
ass(Vdescription
p1081
g1049
NVmips64r6el
p1082
tp1083
(dp1084
Vhardware
p1085
VMIPS R6 (64 bit, little endian)
p1086
sVhardware-long
p1087
VMIPS R6 (64 bit, little endian)
p1088
ss(Vimage
p1089
g1049
NVmips64r6el
p1090
tp1091
(dp1092
Vconfigs
p1093
(lp1094
Vkernelarch-mips/config.boston
p1095
aVkernelarch-mips/config.mips64r6
p1096
ass(g183
g1049
g154
tp1097
(dp1098
g186
(lp1099
Vmips32r6el
p1100
aVmips64r6el
p1101
asg190
I01
ss(Vbase
p1102
Vpowerpc
p1103
tp1104
(dp1105
Vkernel-arch
p1106
Vpowerpc
p1107
sg152
(lp1108
g154
ass(Vbuild
p1109
g1103
tp1110
(dp1111
Vimage-file
p1112
Vvmlinux
p1113
sVvdso
p1114
I01
ss(Vimage
p1115
g1103
tp1116
(dp1117
Vconfigs
p1118
(lp1119
sVsuggests
p1120
Vmkvmlinuz
p1121
sVinstall-stem
p1122
Vvmlinux
p1123
ss(Vdescription
p1124
g1103
NVpowerpc
p1125
tp1126
(dp1127
Vhardware
p1128
Vuniprocessor 32-bit PowerPC
p1129
ss(Vdescription
p1130
g1103
NVpowerpc-smp
p1131
tp1132
(dp1133
Vhardware
p1134
Vmultiprocessor 32-bit PowerPC
p1135
ss(Vimage
p1136
g1103
NVpowerpc-smp
p1137
tp1138
(dp1139
Vconfigs
p1140
(lp1141
Vpowerpc/config.powerpc
p1142
aVpowerpc/config.powerpc-smp
p1143
ass(Vdescription
p1144
g1103
NVpowerpc64
p1145
tp1146
(dp1147
Vhardware
p1148
V64-bit PowerPC
p1149
ss(Vimage
p1150
g1103
NVpowerpc64
p1151
tp1152
(dp1153
Vconfigs
p1154
(lp1155
Vkernelarch-powerpc/config-arch-64
p1156
aVkernelarch-powerpc/config-arch-64-be
p1157
ass(g183
g1103
g154
tp1158
(dp1159
g186
(lp1160
Vpowerpc
p1161
aVpowerpc-smp
p1162
aVpowerpc64
p1163
asg190
I01
ss(Vbase
p1164
Vpowerpcspe
p1165
tp1166
(dp1167
Vkernel-arch
p1168
Vpowerpc
p1169
sg152
(lp1170
g154
ass(Vbuild
p1171
g1165
tp1172
(dp1173
Vimage-file
p1174
Vvmlinux
p1175
sVvdso
p1176
I01
ss(Vimage
p1177
g1165
tp1178
(dp1179
Vsuggests
p1180
Vmkvmlinuz
p1181
sVinstall-stem
p1182
Vvmlinux
p1183
ss(Vdescription
p1184
g1165
tp1185
(dp1186
Vhardware
p1187
V32-bit PowerPC with SPE (instead of AltiVec) with SMP support
p1188
ss(g183
g1165
g154
tp1189
(dp1190
g186
(lp1191
Vpowerpcspe
p1192
asg190
I01
ss(Vbase
p1193
Vppc64
p1194
tp1195
(dp1196
Vkernel-arch
p1197
Vpowerpc
p1198
sg152
(lp1199
g154
ass(Vbuild
p1200
g1194
tp1201
(dp1202
Vimage-file
p1203
Vvmlinux
p1204
sVvdso
p1205
I01
ss(Vimage
p1206
g1194
tp1207
(dp1208
Vconfigs
p1209
(lp1210
sVsuggests
p1211
Vmkvmlinuz
p1212
sVinstall-stem
p1213
Vvmlinux
p1214
ss(Vdescription
p1215
g1194
NVpowerpc64
p1216
tp1217
(dp1218
Vhardware
p1219
V64-bit PowerPC
p1220
ss(Vimage
p1221
g1194
NVpowerpc64
p1222
tp1223
(dp1224
Vconfigs
p1225
(lp1226
Vkernelarch-powerpc/config-arch-64
p1227
aVkernelarch-powerpc/config-arch-64-be
p1228
ass(g183
g1194
g154
tp1229
(dp1230
g186
(lp1231
Vpowerpc64
p1232
asg190
I01
ss(Vbase
p1233
Vppc64el
p1234
tp1235
(dp1236
Vkernel-arch
p1237
Vpowerpc
p1238
sg152
(lp1239
g154
ass(Vbuild
p1240
g1234
tp1241
(dp1242
Vimage-file
p1243
Vvmlinux
p1244
sVvdso
p1245
I01
ss(Vimage
p1246
g1234
tp1247
(dp1248
Vconfigs
p1249
(lp1250
sVsuggests
p1251
Vmkvmlinuz
p1252
sVinstall-stem
p1253
Vvmlinux
p1254
ss(Vdescription
p1255
g1234
NVpowerpc64le
p1256
tp1257
(dp1258
Vhardware
p1259
VLittle-endian 64-bit PowerPC
p1260
ss(Vimage
p1261
g1234
NVpowerpc64le
p1262
tp1263
(dp1264
Vconfigs
p1265
(lp1266
Vkernelarch-powerpc/config-arch-64
p1267
aVkernelarch-powerpc/config-arch-64-le
p1268
ass(g183
g1234
g154
tp1269
(dp1270
g186
(lp1271
Vpowerpc64le
p1272
asg190
I01
ss(Vbase
p1273
Vs390
p1274
tp1275
(dp1276
Vkernel-arch
p1277
Vs390
p1278
sVfeaturesets
p1279
(lp1280
ss(Vbase
p1281
Vs390x
p1282
tp1283
(dp1284
Vkernel-arch
p1285
Vs390
p1286
sg152
(lp1287
g154
ass(Vbuild
p1288
g1282
tp1289
(dp1290
Vimage-file
p1291
Varch/s390/boot/image
p1292
sVvdso
p1293
I01
ss(Vimage
p1294
g1282
tp1295
(dp1296
Vbootloaders
p1297
(lp1298
Vs390-tools
p1299
asVinstall-stem
p1300
Vvmlinuz
p1301
ss(Vrelations
p1302
g1282
tp1303
(dp1304
Vheaders%gcc-7
p1305
Vlinux-compiler-gcc-7-s390
p1306
ss(Vbuild
p1307
g1282
NVs390x
p1308
tp1309
(dp1310
Vdebug-info
p1311
I01
ss(Vdescription
p1312
g1282
NVs390x
p1313
tp1314
(dp1315
Vhardware
p1316
VIBM zSeries
p1317
ss(g183
g1282
g154
tp1318
(dp1319
g186
(lp1320
Vs390x
p1321
asg190
I01
ss(Vbase
p1322
Vsh3
p1323
tp1324
(dp1325
Vkernel-arch
p1326
Vsh
p1327
sVfeaturesets
p1328
(lp1329
ss(Vbase
p1330
Vsh4
p1331
tp1332
(dp1333
Vkernel-arch
p1334
Vsh
p1335
sg152
(lp1336
g154
ass(Vbuild
p1337
g1331
tp1338
(dp1339
Vimage-file
p1340
Varch/sh/boot/zImage
p1341
ss(Vimage
p1342
g1331
tp1343
(dp1344
Vinstall-stem
p1345
Vvmlinuz
p1346
ss(Vdescription
p1347
g1331
NVsh7751r
p1348
tp1349
(dp1350
Vhardware
p1351
Vsh7751r
p1352
sVhardware-long
p1353
VRenesas SH7751R R2D plus board
p1354
ss(Vdescription
p1355
g1331
NVsh7785lcr
p1356
tp1357
(dp1358
Vhardware
p1359
Vsh7785lcr
p1360
sVhardware-long
p1361
VRenesas SH7785 reference board
p1362
ss(Vimage
p1363
g1331
NVsh7785lcr
p1364
tp1365
(dp1366
Vrecommends
p1367
Vu-boot-tools
p1368
sVcheck-size
p1369
L4194304L
ss(g183
g1331
g154
tp1370
(dp1371
g186
(lp1372
Vsh7751r
p1373
aVsh7785lcr
p1374
asg190
I01
ss(Vbase
p1375
Vsparc
p1376
tp1377
(dp1378
Vkernel-arch
p1379
Vsparc
p1380
sVfeaturesets
p1381
(lp1382
ss(Vbase
p1383
Vsparc64
p1384
tp1385
(dp1386
Vkernel-arch
p1387
Vsparc
p1388
sg152
(lp1389
g154
ass(Vbuild
p1390
g1384
tp1391
(dp1392
Vimage-file
p1393
Varch/sparc/boot/zImage
p1394
ss(Vimage
p1395
g1384
tp1396
(dp1397
Vconfigs
p1398
(lp1399
sVsuggests
p1400
Vsilo, fdutils
p1401
sVinstall-stem
p1402
Vvmlinuz
p1403
ss(Vdescription
p1404
g1384
NVsparc64
p1405
tp1406
(dp1407
Vhardware
p1408
Vuniprocessor 64-bit UltraSPARC
p1409
ss(Vimage
p1410
g1384
NVsparc64
p1411
tp1412
(dp1413
Vconfigs
p1414
(lp1415
Vkernelarch-sparc/config-up
p1416
ass(Vdescription
p1417
g1384
NVsparc64-smp
p1418
tp1419
(dp1420
Vhardware
p1421
Vmultiprocessor 64-bit UltraSPARC
p1422
ss(Vimage
p1423
g1384
NVsparc64-smp
p1424
tp1425
(dp1426
Vconfigs
p1427
(lp1428
Vkernelarch-sparc/config-smp
p1429
ass(g183
g1384
g154
tp1430
(dp1431
g186
(lp1432
Vsparc64
p1433
aVsparc64-smp
p1434
asg190
I01
ss(Vbase
p1435
Vtilegx
p1436
tp1437
(dp1438
Vkernel-arch
p1439
Vtile
p1440
sVfeaturesets
p1441
(lp1442
ss(Vbase
p1443
Vx32
p1444
tp1445
(dp1446
Vkernel-arch
p1447
Vx86
p1448
sVfeaturesets
p1449
(lp1450
ss(Vabi
p1451
NVrt
p1452
tp1453
(dp1454
Vignore-changes
p1455
(lp1456
V*
p1457
ass(Vdescription
p1458
Ng1452
tp1459
(dp1460
Vpart-long-rt
p1461
VThis kernel includes the PREEMPT_RT realtime patch set.
p1462
sVpart-short-rt
p1463
VPREEMPT_RT
p1464
sVparts
p1465
(lp1466
Vrt
p1467
ass(Vversion
p1468
tp1469
(dp1470
Vsource
p1471
V4.17.6-1
p1472
sVupstream
p1473
V4.17
p1474
sVabiname_base
p1475
V4.17.0
p1476
sVabiname
p1477
V4.17.0-1
p1478
ss.