cdebian_linux.config
ConfigCore
p0
(tRp1
(Vabi
p2
tp3
(dp4
Vabiname
p5
Vkali9
p6
sVignore-changes
p7
(lp8
V__cpuhp_*
p9
aV__udp_gso_segment
p10
aVbpf_analyzer
p11
aVbpf_offload_dev_create
p12
aVbpf_verifier_log_write
p13
aVcxl_*
p14
aVdax_flush
p15
aVieee80211_nullfunc_get
p16
aVinet_add_protocol
p17
aVinet_del_protocol
p18
aViommu_device_*
p19
aVmm_iommu_*
p20
aVmv_mbus_*
p21
aVperf_*
p22
aVregister_cxl_calls
p23
aVregister_key_type
p24
aVunregister_cxl_calls
p25
aV*_hw_breakpoint
p26
aVmodule:drivers/crypto/ccp/*
p27
aVmodule:drivers/hv/*
p28
aVmodule:drivers/gpu/drm/sun4i/*
p29
aVmodule:drivers/iio/**
p30
aVmodule:drivers/misc/cxl/*
p31
aVmodule:drivers/misc/lis3lv02d/*
p32
aVmodule:drivers/mtd/nand/*
p33
aVmodule:drivers/net/ethernet/**
p34
aVmodule:drivers/net/wireless/**
p35
aVmodule:drivers/nvdimm/*
p36
aVmodule:drivers/nvme/**
p37
aVmodule:drivers/power/supply/bq27xxx_battery
p38
aVmodule:drivers/scsi/cxgbi/*
p39
aVmodule:drivers/scsi/libiscs*
p40
aVmodule:drivers/scsi/qla2xxx/qla2xxx
p41
aVmodule:drivers/scsi/ufs/*
p42
aVmodule:drivers/target/**
p43
aVmodule:drivers/usb/chipidea/**
p44
aVmodule:drivers/usb/gadget/**
p45
aVmodule:drivers/usb/host/**
p46
aVmodule:drivers/usb/musb/**
p47
aVmodule:fs/nfs/**
p48
aVmodule:net/ceph/libceph
p49
aVmodule:net/l2tp/**
p50
aVmodule:net/openvswitch/**
p51
aVmodule:net/rxrpc/rxrpc
p52
aVmodule:net/sctp/**
p53
aVmodule:sound/core/seq/**
p54
aVmodule:sound/firewire/snd-firewire-lib
p55
aVmodule:sound/pci/hda/*
p56
aVbtree_*
p57
aVvisitor*
p58
aVcan_rx_register
p59
aVip6_xmit
p60
aVmodule:net/dccp/dccp
p61
aVmodule:net/rds/rds
p62
aVdevfreq_*
p63
aVdevm_devfreq_*
p64
aVupdate_devfreq
p65
aVmodule:drivers/infiniband/**
p66
aVacpi_ec_add_query_handler
p67
aVacpi_ec_remove_query_handler
p68
aVfirst_ec
p69
aVdebugfs_create_automount
p70
aVmodule:drivers/iio/imu/inv_mpu6050/*
p71
aVdrm_crtc_accurate_vblank_count
p72
aVacpi_nfit_desc_init
p73
aVacpi_nfit_init
p74
aVloop_register_transfer
p75
aVxen_xlate_*
p76
aVnf_nat_masquerade_ipv4_register_notifier
p77
aVnf_nat_masquerade_ipv6_register_notifier
p78
aVdfltcc_*
p79
aVmodule:drivers/scsi/hisi_sas/*
p80
aV__gfn_*
p81
aV__kvmhv_*
p82
aV__kvm_*
p83
aV__xive_vm_h_*
p84
aVgfn_*
p85
aVh_ipi_redirect
p86
aVhalt_poll_ns*
p87
aVkvm_*
p88
aVkvmhv_*
p89
aVkvmppc_*
p90
aVmark_page_dirty
p91
aVvcpu_*
p92
aVmodule:arch/powerpc/kvm/*
p93
aVmodule:arch/s390/kvm/*
p94
aVmodule:arch/x86/kvm/*
p95
aVuv_info
p96
aVxhci_init_driver
p97
ass(Vbase
p98
tp99
(dp100
Varches
p101
(lp102
Valpha
p103
aVamd64
p104
aVarm64
p105
aVarm64ilp32
p106
aVarmel
p107
aVarmhf
p108
aVhppa
p109
aVi386
p110
aVia64
p111
aVm68k
p112
aVmips
p113
aVmips64
p114
aVmips64el
p115
aVmips64r6
p116
aVmips64r6el
p117
aVmipsel
p118
aVmipsn32
p119
aVmipsn32el
p120
aVmipsn32r6
p121
aVmipsn32r6el
p122
aVmipsr6
p123
aVmipsr6el
p124
aVpowerpc
p125
aVppc64
p126
aVppc64el
p127
aVriscv64
p128
aVs390
p129
aVs390x
p130
aVsh3
p131
aVsh4
p132
aVsparc
p133
aVsparc64
p134
aVx32
p135
asVcompiler
p136
Vgcc-10
p137
sVfeaturesets
p138
(lp139
Vnone
p140
aVrt
p141
ass(Vbuild
p142
tp143
(dp144
Vdebug-info
p145
I01
sVsigned-code
p146
I00
ss(Vbase
p147
NVrt
p148
tp149
(dp150
Venabled
p151
I01
ss(Vdescription
p152
tp153
(dp154
Vpart-long-up
p155
VThis kernel is not suitable for SMP (multi-processor,\u000amulti-core or hyper-threaded) systems.
p156
ss(Vimage
p157
tp158
(dp159
Vinitramfs-generators
p160
(lp161
Vinitramfs-tools
p162
aVinitramfs-fallback
p163
asVbreaks
p164
(lp165
Vfwupdate (<< 12-7)
p166
aVwireless-regdb (<< 2019.06.03-1~)
p167
asVrecommends
p168
(lp169
Vapparmor
p170
ass(Vrelations
p171
tp172
(dp173
Vgcc-10
p174
Vgcc-10 <!stage1 !cross !pkg.linux.nokernel>, gcc-10-@gnu-type-package@ <!stage1 cross !pkg.linux.nokernel>
p175
sVinitramfs-fallback
p176
Vlinux-initramfs-tool
p177
sVinitramfs-tools
p178
Vinitramfs-tools (>= 0.120+deb8u2)
p179
ss(Vbase
p180
Valpha
p181
tp182
(dp183
Vdefault-flavour
p184
Valpha-smp
p185
sVkernel-arch
p186
Valpha
p187
sVfeaturesets
p188
(lp189
Vnone
p190
ass(Vbuild
p191
g181
tp192
(dp193
Vimage-file
p194
Varch/alpha/boot/vmlinux.gz
p195
ss(Vimage
p196
g181
tp197
(dp198
Vsuggests
p199
(lp200
Vaboot
p201
aVfdutils
p202
asVinstall-stem
p203
Vvmlinuz
p204
ss(Vdescription
p205
g181
NValpha-generic
p206
tp207
(dp208
Vhardware
p209
VAlpha
p210
sVhardware-long
p211
VDEC Alpha systems with extended kernel start address (Wildfire, Titan, Marvel)
p212
ss(Vdescription
p213
g181
NValpha-smp
p214
tp215
(dp216
Vhardware
p217
VAlpha SMP
p218
sVhardware-long
p219
VDEC Alpha SMP systems with extended kernel start address (Wildfire, Titan, Marvel)
p220
ss(Vbase
p221
g181
g190
tp222
(dp223
Vflavours
p224
(lp225
Valpha-generic
p226
aValpha-smp
p227
asVimplicit-flavour
p228
I01
ss(Vbase
p229
Vamd64
p230
tp231
(dp232
Vfeaturesets
p233
(lp234
Vnone
p235
aVrt
p236
asVkernel-arch
p237
Vx86
p238
ss(Vbuild
p239
g230
tp240
(dp241
Vimage-file
p242
Varch/x86/boot/bzImage
p243
sVsigned-code
p244
I00
sVvdso
p245
I01
ss(Vimage
p246
g230
tp247
(dp248
Vbootloaders
p249
(lp250
Vgrub-pc
p251
aVgrub-efi-amd64
p252
aVextlinux
p253
asVinstall-stem
p254
Vvmlinuz
p255
sVbreaks
p256
(lp257
Vxserver-xorg-input-vmmouse (<< 1:13.0.99)
p258
ass(Vrelations
p259
g230
tp260
(dp261
Vheaders%gcc-10
p262
Vlinux-compiler-gcc-10-x86
p263
ss(Vdescription
p264
g230
NVamd64
p265
tp266
(dp267
Vhardware
p268
V64-bit PCs
p269
sVhardware-long
p270
VPCs with AMD64, Intel 64 or VIA Nano processors
p271
ss(Vdescription
p272
g230
NVcloud-amd64
p273
tp274
(dp275
Vhardware
p276
Vx86-64 cloud
p277
sVhardware-long
p278
Vcloud platforms including Amazon EC2, Microsoft Azure, and Google Compute Engine
p279
ss(Vbase
p280
g230
Vnone
p281
tp282
(dp283
Vflavours
p284
(lp285
Vamd64
p286
aVcloud-amd64
p287
asVdefault-flavour
p288
Vamd64
p289
ss(Vimage
p290
g230
g281
Vcloud-amd64
p291
tp292
(dp293
Vconfigs
p294
(lp295
Vconfig.cloud
p296
aVamd64/config.cloud-amd64
p297
ass(Vbase
p298
g230
Vrt
p299
tp300
(dp301
Vflavours
p302
(lp303
Vamd64
p304
ass(Vbase
p305
Varm64
p306
tp307
(dp308
Vcross-compile-compat
p309
Varm-linux-gnueabihf-
p310
sVkernel-arch
p311
Varm64
p312
sVfeaturesets
p313
(lp314
Vnone
p315
aVrt
p316
ass(Vbuild
p317
g306
tp318
(dp319
Vimage-file
p320
Varch/arm64/boot/Image
p321
sVsigned-code
p322
I00
sVvdso
p323
I01
ss(Vimage
p324
g306
tp325
(dp326
Vinstall-stem
p327
Vvmlinuz
p328
sVbreaks
p329
(lp330
Vlibmozjs185-1.0
p331
aVlibmozjs-24-0 (<< 24.2.0-5.1~)
p332
ass(Vdescription
p333
g306
NVarm64
p334
tp335
(dp336
Vhardware
p337
V64-bit ARMv8 machines
p338
ss(Vdescription
p339
g306
NVcloud-arm64
p340
tp341
(dp342
Vhardware
p343
Varm64 cloud
p344
sVhardware-long
p345
Vcloud platforms supporting arm64 virtual machines
p346
ss(Vimage
p347
g306
NVarm64
p348
tp349
(dp350
s(Vrelations
p351
g306
tp352
(dp353
Vgcc-10
p354
Vgcc-10 <!stage1 !cross !pkg.linux.nokernel>, gcc-10-aarch64-linux-gnu <!stage1 cross !pkg.linux.nokernel>, gcc-arm-linux-gnueabihf <!stage1 !pkg.linux.nokernel>
p355
sVheaders%gcc-10
p356
Vgcc-10
p357
ss(Vbase
p358
g306
Vnone
p359
tp360
(dp361
Vflavours
p362
(lp363
Varm64
p364
aVcloud-arm64
p365
asVdefault-flavour
p366
Varm64
p367
ss(Vimage
p368
g306
g359
Vcloud-arm64
p369
tp370
(dp371
Vconfigs
p372
(lp373
Vconfig.cloud
p374
aVarm64/config.cloud-arm64
p375
ass(Vbase
p376
g306
Vrt
p377
tp378
(dp379
Vflavours
p380
(lp381
Varm64
p382
ass(Vbase
p383
Varm64ilp32
p384
tp385
(dp386
Vkernel-arch
p387
Varm64
p388
sVfeaturesets
p389
(lp390
ss(Vbase
p391
Varmel
p392
tp393
(dp394
Vkernel-arch
p395
Varm
p396
sg188
(lp397
g190
ass(Vbuild
p398
g392
tp399
(dp400
Vimage-file
p401
Varch/arm/boot/zImage
p402
sVuncompressed-image-file
p403
Varch/arm/boot/Image
p404
sVsigned-code
p405
I00
ss(Vimage
p406
g392
tp407
(dp408
Vinstall-stem
p409
Vvmlinuz
p410
ss(Vrelations
p411
g392
tp412
(dp413
Vheaders%gcc-10
p414
Vlinux-compiler-gcc-10-arm
p415
ss(Vdescription
p416
g392
NVmarvell
p417
tp418
(dp419
Vhardware
p420
VMarvell Kirkwood/Orion
p421
sVhardware-long
p422
VMarvell Kirkwood and Orion based systems (https://wiki.debian.org/ArmEabiPort#Supported_hardware)
p423
ss(Vdescription
p424
g392
NVrpi
p425
tp426
(dp427
Vhardware
p428
VRaspberry Pi and Pi Zero
p429
sVhardware-long
p430
VRaspberry Pi, Raspberry Pi Zero based systems
p431
ss(Vimage
p432
g392
NVmarvell
p433
tp434
(dp435
Vrecommends
p436
(lp437
Vu-boot-tools
p438
asVcheck-size
p439
I2729712
sVcheck-size-with-dtb
p440
I01
sVbreaks
p441
(lp442
Vflash-kernel (<< 3.57~)
p443
ass(g221
g392
g190
tp444
(dp445
g224
(lp446
Vmarvell
p447
aVrpi
p448
asg228
I01
ss(Vbase
p449
Varmhf
p450
tp451
(dp452
Vfeaturesets
p453
(lp454
Vnone
p455
aVrt
p456
asVkernel-arch
p457
Varm
p458
ss(Vbuild
p459
g450
tp460
(dp461
Vimage-file
p462
Varch/arm/boot/zImage
p463
sVvdso
p464
I01
sVsigned-code
p465
I00
ss(Vimage
p466
g450
tp467
(dp468
Vinstall-stem
p469
Vvmlinuz
p470
ss(Vrelations
p471
g450
tp472
(dp473
Vheaders%gcc-10
p474
Vlinux-compiler-gcc-10-arm
p475
ss(Vdescription
p476
g450
NVarmmp
p477
tp478
(dp479
Vhardware
p480
VARMv7 multiplatform compatible SoCs
p481
sVhardware-long
p482
VARMv7 multiplatform kernel. See\u000ahttps://wiki.debian.org/DebianKernel/ARMMP for details of supported\u000aplatforms
p483
ss(Vdescription
p484
g450
NVarmmp-lpae
p485
tp486
(dp487
Vhardware
p488
VARMv7 multiplatform compatible SoCs supporting LPAE
p489
sVhardware-long
p490
VARMv7 multiplatform kernel supporting LPAE. See\u000ahttps://wiki.debian.org/DebianKernel/ARMMP for details of supported\u000aplatforms.
p491
ss(Vbase
p492
g450
Vnone
p493
tp494
(dp495
Vflavours
p496
(lp497
Varmmp
p498
aVarmmp-lpae
p499
asVdefault-flavour
p500
Varmmp
p501
ss(Vbase
p502
g450
Vrt
p503
tp504
(dp505
Vflavours
p506
(lp507
Varmmp
p508
ass(Vbase
p509
Vhppa
p510
tp511
(dp512
Vdefault-flavour
p513
Vparisc
p514
sVkernel-arch
p515
Vparisc
p516
sg188
(lp517
g190
ass(Vbuild
p518
g510
tp519
(dp520
Vimage-file
p521
Varch/parisc/boot/bzImage
p522
sVdebug-info
p523
I00
ss(Vimage
p524
g510
tp525
(dp526
Vsuggests
p527
(lp528
Vpalo
p529
asVinstall-stem
p530
Vvmlinuz
p531
ss(Vdescription
p532
g510
NVparisc
p533
tp534
(dp535
Vhardware
p536
V32-bit PA-RISC
p537
sVhardware-long
p538
VHP PA-RISC 32-bit systems with max 4 GB RAM
p539
ss(Vbase
p540
g510
NVparisc64
p541
tp542
(dp543
Vcflags
p544
V-fno-cse-follow-jumps
p545
sVoverride-host-type
p546
Vhppa64-linux-gnu
p547
ss(Vdescription
p548
g510
NVparisc64
p549
tp550
(dp551
Vhardware
p552
V64-bit PA-RISC
p553
sVhardware-long
p554
VHP PA-RISC 64-bit systems with support for more than 4 GB RAM
p555
ss(Vrelations
p556
g510
tp557
(dp558
Vgcc-10
p559
Vgcc-10 <!stage1 !cross !pkg.linux.nokernel>, gcc-10-hppa-linux-gnu <!stage1 cross !pkg.linux.nokernel>, binutils-hppa64-linux-gnu <!stage1 !pkg.linux.nokernel>, gcc-10-hppa64-linux-gnu <!stage1 !pkg.linux.nokernel>
p560
ss(g221
g510
g190
tp561
(dp562
g224
(lp563
Vparisc
p564
aVparisc64
p565
asg228
I01
ss(Vbase
p566
Vi386
p567
tp568
(dp569
Vfeaturesets
p570
(lp571
Vnone
p572
aVrt
p573
asVkernel-arch
p574
Vx86
p575
ss(Vbuild
p576
g567
tp577
(dp578
Vimage-file
p579
Varch/x86/boot/bzImage
p580
sVsigned-code
p581
I00
sVvdso
p582
I01
ss(Vdescription
p583
g567
tp584
(dp585
Vpart-long-pae
p586
VThis kernel requires PAE (Physical Address Extension).\u000aThis feature is supported by the Intel Pentium Pro/II/III/4/4M/D, Xeon,\u000aCore and Atom; AMD Geode NX, Athlon (K7), Duron, Opteron, Sempron,\u000aTurion or Phenom; Transmeta Efficeon; VIA C7; and some other processors.
p587
ss(Vimage
p588
g567
tp589
(dp590
Vbootloaders
p591
(lp592
Vgrub-pc
p593
aVgrub-efi-ia32
p594
aVextlinux
p595
asVinstall-stem
p596
Vvmlinuz
p597
sVbreaks
p598
(lp599
Vxserver-xorg-input-vmmouse (<< 1:13.0.99)
p600
ass(Vrelations
p601
g567
tp602
(dp603
Vheaders%gcc-10
p604
Vlinux-compiler-gcc-10-x86
p605
ss(Vdescription
p606
g567
NV686
p607
tp608
(dp609
Vhardware
p610
Volder PCs
p611
sVhardware-long
p612
VPCs with one or more processors not supporting PAE
p613
ss(Vdescription
p614
g567
NV686-pae
p615
tp616
(dp617
Vhardware
p618
Vmodern PCs
p619
sVhardware-long
p620
VPCs with one or more processors supporting PAE
p621
sVparts
p622
(lp623
Vpae
p624
ass(Vbase
p625
g567
Vnone
p626
tp627
(dp628
Vflavours
p629
(lp630
V686
p631
aV686-pae
p632
asVdefault-flavour
p633
V686-pae
p634
ss(Vbase
p635
g567
Vrt
p636
tp637
(dp638
Vflavours
p639
(lp640
V686-pae
p641
ass(Vbase
p642
Via64
p643
tp644
(dp645
Vdefault-flavour
p646
Vitanium
p647
sVkernel-arch
p648
Via64
p649
sg188
(lp650
g190
ass(Vbuild
p651
g643
tp652
(dp653
Vimage-file
p654
Vvmlinux.gz
p655
ss(Vimage
p656
g643
tp657
(dp658
Vbootloaders
p659
(lp660
Vgrub-efi-ia64
p661
asVinstall-stem
p662
Vvmlinuz
p663
ss(Vdescription
p664
g643
NVitanium
p665
tp666
(dp667
Vhardware
p668
VItanium (Merced)
p669
sVhardware-long
p670
Vsystems with original Itanium (Merced) processors
p671
ss(Vdescription
p672
g643
NVmckinley
p673
tp674
(dp675
Vhardware
p676
VItanium 2+
p677
sVhardware-long
p678
Vsystems with Itanium 2 or 9300/9500/9700-series processors
p679
ss(g221
g643
g190
tp680
(dp681
g224
(lp682
Vitanium
p683
aVmckinley
p684
asg228
I01
ss(Vbase
p685
Vm68k
p686
tp687
(dp688
Vcflags
p689
V-ffreestanding
p690
sVdefault-flavour
p691
Vm68k
p692
sVkernel-arch
p693
Vm68k
p694
sg188
(lp695
g190
ass(Vbuild
p696
g686
tp697
(dp698
Vimage-file
p699
Vvmlinux
p700
ss(Vimage
p701
g686
tp702
(dp703
Vsuggests
p704
(lp705
Vvmelilo
p706
aVfdutils
p707
asVinstall-stem
p708
Vvmlinux
p709
ss(Vdescription
p710
g686
NVm68k
p711
tp712
(dp713
Vhardware
p714
VMotorola MC68020+ family
p715
ss(g221
g686
g190
tp716
(dp717
g224
(lp718
Vm68k
p719
asg228
I01
ss(Vbase
p720
Vmips
p721
tp722
(dp723
Vkernel-arch
p724
Vmips
p725
sg188
(lp726
g190
ass(Vbuild
p727
g721
tp728
(dp729
Vimage-file
p730
Vvmlinuz
p731
ss(Vimage
p732
g721
tp733
(dp734
Vinstall-stem
p735
Vvmlinuz
p736
ss(Vdescription
p737
g721
NV4kc-malta
p738
tp739
(dp740
Vhardware
p741
VMIPS Malta
p742
sVhardware-long
p743
VMIPS Malta boards
p744
ss(Vimage
p745
g721
NV4kc-malta
p746
tp747
(dp748
Vconfigs
p749
(lp750
Vkernelarch-mips/config.malta
p751
aVkernelarch-mips/config.mips32r2
p752
ass(Vdescription
p753
g721
NV5kc-malta
p754
tp755
(dp756
Vhardware
p757
VMIPS Malta (64-bit)
p758
sVhardware-long
p759
VMIPS Malta boards (64-bit)
p760
ss(Vimage
p761
g721
NV5kc-malta
p762
tp763
(dp764
Vconfigs
p765
(lp766
Vkernelarch-mips/config.malta
p767
aVkernelarch-mips/config.mips64r2
p768
ass(Vdescription
p769
g721
NVocteon
p770
tp771
(dp772
Vhardware
p773
VOcteon
p774
sVhardware-long
p775
VCavium Networks Octeon
p776
ss(Vbuild
p777
g721
NVocteon
p778
tp779
(dp780
Vimage-file
p781
Vvmlinux
p782
ss(Vimage
p783
g721
NVocteon
p784
tp785
(dp786
Vinstall-stem
p787
Vvmlinux
p788
sVconfigs
p789
(lp790
Vkernelarch-mips/config.octeon
p791
ass(g221
g721
g190
tp792
(dp793
g224
(lp794
V4kc-malta
p795
aV5kc-malta
p796
aVocteon
p797
asg228
I01
ss(Vbase
p798
Vmips64
p799
tp800
(dp801
Vkernel-arch
p802
Vmips
p803
sg188
(lp804
g190
ass(Vbuild
p805
g799
tp806
(dp807
Vimage-file
p808
Vvmlinuz
p809
ss(Vimage
p810
g799
tp811
(dp812
Vinstall-stem
p813
Vvmlinuz
p814
ss(Vdescription
p815
g799
NV5kc-malta
p816
tp817
(dp818
Vhardware
p819
VMIPS Malta
p820
sVhardware-long
p821
VMIPS Malta boards
p822
ss(Vimage
p823
g799
NV5kc-malta
p824
tp825
(dp826
Vconfigs
p827
(lp828
Vkernelarch-mips/config.malta
p829
aVkernelarch-mips/config.mips64r2
p830
ass(Vdescription
p831
g799
NVocteon
p832
tp833
(dp834
Vhardware
p835
VOcteon
p836
sVhardware-long
p837
VCavium Networks Octeon
p838
ss(Vbuild
p839
g799
NVocteon
p840
tp841
(dp842
Vimage-file
p843
Vvmlinux
p844
ss(Vimage
p845
g799
NVocteon
p846
tp847
(dp848
Vinstall-stem
p849
Vvmlinux
p850
sVconfigs
p851
(lp852
Vkernelarch-mips/config.octeon
p853
ass(g221
g799
g190
tp854
(dp855
g224
(lp856
V5kc-malta
p857
aVocteon
p858
asg228
I01
ss(Vbase
p859
Vmips64el
p860
tp861
(dp862
Vkernel-arch
p863
Vmips
p864
sg188
(lp865
g190
ass(Vbuild
p866
g860
tp867
(dp868
Vimage-file
p869
Vvmlinuz
p870
ss(Vimage
p871
g860
tp872
(dp873
Vinstall-stem
p874
Vvmlinuz
p875
ss(Vdescription
p876
g860
NV5kc-malta
p877
tp878
(dp879
Vhardware
p880
VMIPS Malta
p881
sVhardware-long
p882
VMIPS Malta boards
p883
ss(Vimage
p884
g860
NV5kc-malta
p885
tp886
(dp887
Vconfigs
p888
(lp889
Vkernelarch-mips/config.malta
p890
aVkernelarch-mips/config.mips64r2
p891
ass(Vdescription
p892
g860
NVloongson-3
p893
tp894
(dp895
Vhardware
p896
VLoongson 3A/3B
p897
sVhardware-long
p898
VLoongson 3A or 3B based systems (e.g. from Loongson or Lemote)
p899
ss(Vimage
p900
g860
NVloongson-3
p901
tp902
(dp903
Vconfigs
p904
(lp905
Vkernelarch-mips/config.loongson-3
p906
ass(Vdescription
p907
g860
NVocteon
p908
tp909
(dp910
Vhardware
p911
VOcteon
p912
sVhardware-long
p913
VCavium Networks Octeon
p914
ss(Vbuild
p915
g860
NVocteon
p916
tp917
(dp918
Vimage-file
p919
Vvmlinux
p920
ss(Vimage
p921
g860
NVocteon
p922
tp923
(dp924
Vinstall-stem
p925
Vvmlinux
p926
sVconfigs
p927
(lp928
Vkernelarch-mips/config.octeon
p929
ass(g221
g860
g190
tp930
(dp931
g224
(lp932
V5kc-malta
p933
aVloongson-3
p934
aVocteon
p935
asg228
I01
ss(Vbase
p936
Vmips64r6
p937
tp938
(dp939
Vdefault-flavour
p940
Vmips64r6
p941
sVkernel-arch
p942
Vmips
p943
sg188
(lp944
g190
ass(Vbuild
p945
g937
tp946
(dp947
Vimage-file
p948
Vvmlinux
p949
ss(Vimage
p950
g937
tp951
(dp952
Vinstall-stem
p953
Vvmlinux
p954
ss(Vdescription
p955
g937
NVmips64r6
p956
tp957
(dp958
Vhardware
p959
VMIPS R6 (64 bit, big endian)
p960
sVhardware-long
p961
VMIPS R6 (64 bit, big endian)
p962
ss(Vimage
p963
g937
NVmips64r6
p964
tp965
(dp966
Vconfigs
p967
(lp968
Vkernelarch-mips/config.boston
p969
aVkernelarch-mips/config.mips64r6
p970
ass(g221
g937
g190
tp971
(dp972
g224
(lp973
Vmips64r6
p974
asg228
I01
ss(Vbase
p975
Vmips64r6el
p976
tp977
(dp978
Vdefault-flavour
p979
Vmips64r6el
p980
sVkernel-arch
p981
Vmips
p982
sg188
(lp983
g190
ass(Vbuild
p984
g976
tp985
(dp986
Vimage-file
p987
Vvmlinux
p988
ss(Vimage
p989
g976
tp990
(dp991
Vinstall-stem
p992
Vvmlinux
p993
ss(Vdescription
p994
g976
NVmips64r6el
p995
tp996
(dp997
Vhardware
p998
VMIPS R6 (64 bit, little endian)
p999
sVhardware-long
p1000
VMIPS R6 (64 bit, little endian)
p1001
ss(Vimage
p1002
g976
NVmips64r6el
p1003
tp1004
(dp1005
Vconfigs
p1006
(lp1007
Vkernelarch-mips/config.boston
p1008
aVkernelarch-mips/config.mips64r6
p1009
ass(g221
g976
g190
tp1010
(dp1011
g224
(lp1012
Vmips64r6el
p1013
asg228
I01
ss(Vbase
p1014
Vmipsel
p1015
tp1016
(dp1017
Vkernel-arch
p1018
Vmips
p1019
sg188
(lp1020
g190
ass(Vbuild
p1021
g1015
tp1022
(dp1023
Vimage-file
p1024
Vvmlinuz
p1025
ss(Vimage
p1026
g1015
tp1027
(dp1028
Vinstall-stem
p1029
Vvmlinuz
p1030
ss(Vdescription
p1031
g1015
NV4kc-malta
p1032
tp1033
(dp1034
Vhardware
p1035
VMIPS Malta
p1036
sVhardware-long
p1037
VMIPS Malta boards
p1038
ss(Vimage
p1039
g1015
NV4kc-malta
p1040
tp1041
(dp1042
Vconfigs
p1043
(lp1044
Vkernelarch-mips/config.malta
p1045
aVkernelarch-mips/config.mips32r2
p1046
ass(Vdescription
p1047
g1015
NV5kc-malta
p1048
tp1049
(dp1050
Vhardware
p1051
VMIPS Malta (64-bit)
p1052
sVhardware-long
p1053
VMIPS Malta boards (64-bit)
p1054
ss(Vimage
p1055
g1015
NV5kc-malta
p1056
tp1057
(dp1058
Vconfigs
p1059
(lp1060
Vkernelarch-mips/config.malta
p1061
aVkernelarch-mips/config.mips64r2
p1062
ass(Vdescription
p1063
g1015
NVloongson-3
p1064
tp1065
(dp1066
Vhardware
p1067
VLoongson 3A/3B
p1068
sVhardware-long
p1069
VLoongson 3A or 3B based systems (e.g. from Loongson or Lemote)
p1070
ss(Vimage
p1071
g1015
NVloongson-3
p1072
tp1073
(dp1074
Vconfigs
p1075
(lp1076
Vkernelarch-mips/config.loongson-3
p1077
ass(Vdescription
p1078
g1015
NVocteon
p1079
tp1080
(dp1081
Vhardware
p1082
VOcteon
p1083
sVhardware-long
p1084
VCavium Networks Octeon
p1085
ss(Vbuild
p1086
g1015
NVocteon
p1087
tp1088
(dp1089
Vimage-file
p1090
Vvmlinux
p1091
ss(Vimage
p1092
g1015
NVocteon
p1093
tp1094
(dp1095
Vinstall-stem
p1096
Vvmlinux
p1097
sVconfigs
p1098
(lp1099
Vkernelarch-mips/config.octeon
p1100
ass(g221
g1015
g190
tp1101
(dp1102
g224
(lp1103
V4kc-malta
p1104
aV5kc-malta
p1105
aVloongson-3
p1106
aVocteon
p1107
asg228
I01
ss(Vbase
p1108
Vmipsn32
p1109
tp1110
(dp1111
Vkernel-arch
p1112
Vmips
p1113
sVfeaturesets
p1114
(lp1115
ss(Vbase
p1116
Vmipsn32el
p1117
tp1118
(dp1119
Vkernel-arch
p1120
Vmips
p1121
sVfeaturesets
p1122
(lp1123
ss(Vbase
p1124
Vmipsn32r6
p1125
tp1126
(dp1127
Vkernel-arch
p1128
Vmips
p1129
sVfeaturesets
p1130
(lp1131
ss(Vbase
p1132
Vmipsn32r6el
p1133
tp1134
(dp1135
Vkernel-arch
p1136
Vmips
p1137
sVfeaturesets
p1138
(lp1139
ss(Vbase
p1140
Vmipsr6
p1141
tp1142
(dp1143
Vdefault-flavour
p1144
Vmips32r6
p1145
sVkernel-arch
p1146
Vmips
p1147
sg188
(lp1148
g190
ass(Vbuild
p1149
g1141
tp1150
(dp1151
Vimage-file
p1152
Vvmlinux
p1153
ss(Vimage
p1154
g1141
tp1155
(dp1156
Vinstall-stem
p1157
Vvmlinux
p1158
ss(Vdescription
p1159
g1141
NVmips32r6
p1160
tp1161
(dp1162
Vhardware
p1163
VMIPS R6 (32 bit, big endian)
p1164
sVhardware-long
p1165
VMIPS R6 (32 bit, big endian)
p1166
ss(Vimage
p1167
g1141
NVmips32r6
p1168
tp1169
(dp1170
Vconfigs
p1171
(lp1172
Vkernelarch-mips/config.boston
p1173
aVkernelarch-mips/config.mips32r6
p1174
ass(Vdescription
p1175
g1141
NVmips64r6
p1176
tp1177
(dp1178
Vhardware
p1179
VMIPS R6 (64 bit, big endian)
p1180
sVhardware-long
p1181
VMIPS R6 (64 bit, big endian)
p1182
ss(Vimage
p1183
g1141
NVmips64r6
p1184
tp1185
(dp1186
Vconfigs
p1187
(lp1188
Vkernelarch-mips/config.boston
p1189
aVkernelarch-mips/config.mips64r6
p1190
ass(g221
g1141
g190
tp1191
(dp1192
g224
(lp1193
Vmips32r6
p1194
aVmips64r6
p1195
asg228
I01
ss(Vbase
p1196
Vmipsr6el
p1197
tp1198
(dp1199
Vdefault-flavour
p1200
Vmips32r6el
p1201
sVkernel-arch
p1202
Vmips
p1203
sg188
(lp1204
g190
ass(Vbuild
p1205
g1197
tp1206
(dp1207
Vimage-file
p1208
Vvmlinux
p1209
ss(Vimage
p1210
g1197
tp1211
(dp1212
Vinstall-stem
p1213
Vvmlinux
p1214
ss(Vdescription
p1215
g1197
NVmips32r6el
p1216
tp1217
(dp1218
Vhardware
p1219
VMIPS R6 (32 bit, little endian)
p1220
sVhardware-long
p1221
VMIPS R6 (32 bit, little endian)
p1222
ss(Vimage
p1223
g1197
NVmips32r6el
p1224
tp1225
(dp1226
Vconfigs
p1227
(lp1228
Vkernelarch-mips/config.boston
p1229
aVkernelarch-mips/config.mips32r6
p1230
ass(Vdescription
p1231
g1197
NVmips64r6el
p1232
tp1233
(dp1234
Vhardware
p1235
VMIPS R6 (64 bit, little endian)
p1236
sVhardware-long
p1237
VMIPS R6 (64 bit, little endian)
p1238
ss(Vimage
p1239
g1197
NVmips64r6el
p1240
tp1241
(dp1242
Vconfigs
p1243
(lp1244
Vkernelarch-mips/config.boston
p1245
aVkernelarch-mips/config.mips64r6
p1246
ass(g221
g1197
g190
tp1247
(dp1248
g224
(lp1249
Vmips32r6el
p1250
aVmips64r6el
p1251
asg228
I01
ss(Vbase
p1252
Vpowerpc
p1253
tp1254
(dp1255
Vkernel-arch
p1256
Vpowerpc
p1257
sg188
(lp1258
g190
ass(Vbuild
p1259
g1253
tp1260
(dp1261
Vimage-file
p1262
Vvmlinux
p1263
sVvdso
p1264
I01
ss(Vimage
p1265
g1253
tp1266
(dp1267
Vconfigs
p1268
(lp1269
sVbootloaders
p1270
(lp1271
Vgrub-ieee1275
p1272
asVsuggests
p1273
(lp1274
Vmkvmlinuz
p1275
asVinstall-stem
p1276
Vvmlinux
p1277
ss(Vdescription
p1278
g1253
NVpowerpc
p1279
tp1280
(dp1281
Vhardware
p1282
Vuniprocessor 32-bit PowerPC
p1283
ss(Vdescription
p1284
g1253
NVpowerpc-smp
p1285
tp1286
(dp1287
Vhardware
p1288
Vmultiprocessor 32-bit PowerPC
p1289
ss(Vimage
p1290
g1253
NVpowerpc-smp
p1291
tp1292
(dp1293
Vconfigs
p1294
(lp1295
Vpowerpc/config.powerpc
p1296
aVpowerpc/config.powerpc-smp
p1297
ass(Vdescription
p1298
g1253
NVpowerpc64
p1299
tp1300
(dp1301
Vhardware
p1302
V64-bit PowerPC
p1303
ss(Vimage
p1304
g1253
NVpowerpc64
p1305
tp1306
(dp1307
Vconfigs
p1308
(lp1309
Vkernelarch-powerpc/config-arch-64
p1310
aVkernelarch-powerpc/config-arch-64-be
p1311
ass(g221
g1253
g190
tp1312
(dp1313
g224
(lp1314
Vpowerpc
p1315
aVpowerpc-smp
p1316
aVpowerpc64
p1317
asg228
I01
ss(Vbase
p1318
Vppc64
p1319
tp1320
(dp1321
Vdefault-flavour
p1322
Vpowerpc64
p1323
sVkernel-arch
p1324
Vpowerpc
p1325
sg188
(lp1326
g190
ass(Vbuild
p1327
g1319
tp1328
(dp1329
Vimage-file
p1330
Vvmlinux
p1331
sVvdso
p1332
I01
ss(Vimage
p1333
g1319
tp1334
(dp1335
Vconfigs
p1336
(lp1337
sVbootloaders
p1338
(lp1339
Vgrub-ieee1275
p1340
asVsuggests
p1341
(lp1342
Vmkvmlinuz
p1343
asVinstall-stem
p1344
Vvmlinux
p1345
ss(Vdescription
p1346
g1319
NVpowerpc64
p1347
tp1348
(dp1349
Vhardware
p1350
V64-bit PowerPC
p1351
ss(Vimage
p1352
g1319
NVpowerpc64
p1353
tp1354
(dp1355
Vconfigs
p1356
(lp1357
Vkernelarch-powerpc/config-arch-64
p1358
aVkernelarch-powerpc/config-arch-64-be
p1359
ass(g221
g1319
g190
tp1360
(dp1361
g224
(lp1362
Vpowerpc64
p1363
asg228
I01
ss(Vbase
p1364
Vppc64el
p1365
tp1366
(dp1367
Vdefault-flavour
p1368
Vpowerpc64le
p1369
sVkernel-arch
p1370
Vpowerpc
p1371
sg188
(lp1372
g190
ass(Vbuild
p1373
g1365
tp1374
(dp1375
Vimage-file
p1376
Vvmlinux
p1377
sVvdso
p1378
I01
ss(Vimage
p1379
g1365
tp1380
(dp1381
Vconfigs
p1382
(lp1383
sVbootloaders
p1384
(lp1385
Vgrub-ieee1275
p1386
asVsuggests
p1387
(lp1388
Vmkvmlinuz
p1389
asVinstall-stem
p1390
Vvmlinux
p1391
ss(Vdescription
p1392
g1365
NVpowerpc64le
p1393
tp1394
(dp1395
Vhardware
p1396
VLittle-endian 64-bit PowerPC
p1397
ss(Vimage
p1398
g1365
NVpowerpc64le
p1399
tp1400
(dp1401
Vconfigs
p1402
(lp1403
Vkernelarch-powerpc/config-arch-64
p1404
aVkernelarch-powerpc/config-arch-64-le
p1405
ass(g221
g1365
g190
tp1406
(dp1407
g224
(lp1408
Vpowerpc64le
p1409
asg228
I01
ss(Vbase
p1410
Vriscv64
p1411
tp1412
(dp1413
Vkernel-arch
p1414
Vriscv
p1415
sVfeaturesets
p1416
(lp1417
Vnone
p1418
ass(Vbuild
p1419
g1411
tp1420
(dp1421
Vimage-file
p1422
Varch/riscv/boot/Image
p1423
sVvdso
p1424
I01
ss(Vimage
p1425
g1411
tp1426
(dp1427
Vinstall-stem
p1428
Vvmlinux
p1429
ss(Vdescription
p1430
g1411
NVriscv64
p1431
tp1432
(dp1433
Vhardware
p1434
V64-bit RISC-V platforms
p1435
sVhardware-long
p1436
V64-bit RISC-V platforms
p1437
ss(Vbase
p1438
g1411
Vnone
p1439
tp1440
(dp1441
Vflavours
p1442
(lp1443
Vriscv64
p1444
asVdefault-flavour
p1445
Vriscv64
p1446
ss(Vbase
p1447
Vs390
p1448
tp1449
(dp1450
Vkernel-arch
p1451
Vs390
p1452
sVfeaturesets
p1453
(lp1454
ss(Vbase
p1455
Vs390x
p1456
tp1457
(dp1458
Vdefault-flavour
p1459
Vs390x
p1460
sVkernel-arch
p1461
Vs390
p1462
sg188
(lp1463
g190
ass(Vbuild
p1464
g1456
tp1465
(dp1466
Vimage-file
p1467
Varch/s390/boot/bzImage
p1468
sVvdso
p1469
I01
ss(Vimage
p1470
g1456
tp1471
(dp1472
Vbootloaders
p1473
(lp1474
Vs390-tools
p1475
asVinstall-stem
p1476
Vvmlinuz
p1477
ss(Vrelations
p1478
g1456
tp1479
(dp1480
Vheaders%gcc-10
p1481
Vlinux-compiler-gcc-10-s390
p1482
ss(Vdescription
p1483
g1456
NVs390x
p1484
tp1485
(dp1486
Vhardware
p1487
VIBM zSeries
p1488
ss(g221
g1456
g190
tp1489
(dp1490
g224
(lp1491
Vs390x
p1492
asg228
I01
ss(Vbase
p1493
Vsh3
p1494
tp1495
(dp1496
Vkernel-arch
p1497
Vsh
p1498
sVfeaturesets
p1499
(lp1500
ss(Vbase
p1501
Vsh4
p1502
tp1503
(dp1504
Vkernel-arch
p1505
Vsh
p1506
sg188
(lp1507
g190
ass(Vbuild
p1508
g1502
tp1509
(dp1510
Vimage-file
p1511
Varch/sh/boot/zImage
p1512
ss(Vimage
p1513
g1502
tp1514
(dp1515
Vinstall-stem
p1516
Vvmlinuz
p1517
ss(Vdescription
p1518
g1502
NVsh7751r
p1519
tp1520
(dp1521
Vhardware
p1522
Vsh7751r
p1523
sVhardware-long
p1524
VRenesas SH7751R R2D plus board
p1525
ss(Vdescription
p1526
g1502
NVsh7785lcr
p1527
tp1528
(dp1529
Vhardware
p1530
Vsh7785lcr
p1531
sVhardware-long
p1532
VRenesas SH7785 reference board
p1533
ss(Vimage
p1534
g1502
NVsh7785lcr
p1535
tp1536
(dp1537
Vrecommends
p1538
(lp1539
Vu-boot-tools
p1540
asVcheck-size
p1541
I4194304
ss(g221
g1502
g190
tp1542
(dp1543
g224
(lp1544
Vsh7751r
p1545
aVsh7785lcr
p1546
asg228
I01
ss(Vbase
p1547
Vsparc
p1548
tp1549
(dp1550
Vkernel-arch
p1551
Vsparc
p1552
sVfeaturesets
p1553
(lp1554
ss(Vbase
p1555
Vsparc64
p1556
tp1557
(dp1558
Vdefault-flavour
p1559
Vsparc64-smp
p1560
sVkernel-arch
p1561
Vsparc
p1562
sg188
(lp1563
g190
ass(Vbuild
p1564
g1556
tp1565
(dp1566
Vimage-file
p1567
Vvmlinux
p1568
ss(Vimage
p1569
g1556
tp1570
(dp1571
Vconfigs
p1572
(lp1573
sVbootloaders
p1574
(lp1575
Vgrub-ieee1275
p1576
asVsuggests
p1577
(lp1578
Vfdutils
p1579
asVinstall-stem
p1580
Vvmlinux
p1581
ss(Vdescription
p1582
g1556
NVsparc64
p1583
tp1584
(dp1585
Vhardware
p1586
Vuniprocessor 64-bit UltraSPARC
p1587
ss(Vimage
p1588
g1556
NVsparc64
p1589
tp1590
(dp1591
Vconfigs
p1592
(lp1593
Vkernelarch-sparc/config-up
p1594
ass(Vdescription
p1595
g1556
NVsparc64-smp
p1596
tp1597
(dp1598
Vhardware
p1599
Vmultiprocessor 64-bit UltraSPARC
p1600
ss(Vimage
p1601
g1556
NVsparc64-smp
p1602
tp1603
(dp1604
Vconfigs
p1605
(lp1606
Vkernelarch-sparc/config-smp
p1607
ass(g221
g1556
g190
tp1608
(dp1609
g224
(lp1610
Vsparc64
p1611
aVsparc64-smp
p1612
asg228
I01
ss(Vbase
p1613
Vx32
p1614
tp1615
(dp1616
Vkernel-arch
p1617
Vx86
p1618
sVfeaturesets
p1619
(lp1620
ss(Vabi
p1621
NVrt
p1622
tp1623
(dp1624
Vignore-changes
p1625
(lp1626
V*
p1627
ass(Vdescription
p1628
Ng1622
tp1629
(dp1630
Vpart-long-rt
p1631
VThis kernel includes the PREEMPT_RT realtime patch set.
p1632
sVpart-short-rt
p1633
VPREEMPT_RT
p1634
sVparts
p1635
(lp1636
Vrt
p1637
ass(Vversion
p1638
tp1639
(dp1640
Vsource
p1641
V5.10.46-4kali1
p1642
sVupstream
p1643
V5.10
p1644
sVabiname_base
p1645
V5.10.0
p1646
sVabiname
p1647
V5.10.0-kali9
p1648
ss.