ccopy_reg
_reconstructor
p0
(cdebian_linux.config
ConfigCore
p1
c__builtin__
dict
p2
(dp3
(S'image'
p4
S'amd64'
p5
tp6
(dp7
S'install-stem'
p8
S'vmlinuz'
p9
sS'configs'
p10
(lp11
sS'bootloaders'
p12
(lp13
S'grub-pc'
p14
aS'grub-efi'
p15
aS'extlinux'
p16
ass(S'description'
p17
S'mips64'
p18
NS'sb1-bcm91250a'
p19
tp20
(dp21
S'hardware'
p22
S'BCM91250A'
p23
sS'hardware-long'
p24
S'Broadcom BCM91250A systems (aka SWARM)'
p25
ss(S'description'
p26
S'sh4'
p27
NS'sh7751r'
p28
tp29
(dp30
S'hardware'
p31
S'sh7751r'
p32
sS'hardware-long'
p33
S'Renesas SH7751R R2D plus board'
p34
ss(S'base'
p35
g5
S'none'
p36
tp37
(dp38
S'flavours'
p39
(lp40
S'amd64'
p41
ass(S'description'
p42
S'alpha'
p43
NS'alpha-smp'
p44
tp45
(dp46
S'hardware'
p47
S'Alpha SMP'
p48
sS'hardware-long'
p49
S'DEC Alpha SMP systems with extended kernel start address (Wildfire, Titan, Marvel)'
p50
ss(S'image'
p51
S'mips'
p52
NS'octeon'
p53
tp54
(dp55
S'configs'
p56
(lp57
S'kernelarch-mips/config.octeon'
p58
ass(S'image'
p59
S'ia64'
p60
tp61
(dp62
S'suggests'
p63
S'fdutils'
p64
sS'bootloaders'
p65
(lp66
S'elilo'
p67
asS'install-stem'
p68
S'vmlinuz'
p69
ss(S'abi'
p70
NS'rt'
p71
tp72
(dp73
S'ignore-changes'
p74
(lp75
S'*'
p76
ass(S'image'
p77
S'i386'
p78
NS'586'
p79
tp80
(dp81
S'configs'
p82
(lp83
S'kernelarch-x86/config-arch-32'
p84
aS'i386/config.586'
p85
ass(S'description'
p86
S'arm64'
p87
NS'arm64'
p88
tp89
(dp90
S'hardware'
p91
S'64-bit ARMv8 machines'
p92
ss(S'version'
p93
tp94
(dp95
S'abiname'
p96
S'4.0.0-kali1'
p97
sS'source'
p98
V4.0.4-1+kali1
p99
sS'abiname_base'
p100
S'4.0.0'
p101
sS'upstream'
p102
S'4.0'
p103
ss(S'description'
p104
S'powerpc'
p105
NS'powerpc-smp'
p106
tp107
(dp108
S'hardware'
p109
S'multiprocessor 32-bit PowerPC'
p110
ss(S'description'
p111
g5
g36
S'amd64'
p112
tp113
(dp114
S'parts'
p115
(lp116
S'xen'
p117
ass(S'description'
p118
g18
NS'5kc-malta'
p119
tp120
(dp121
S'hardware'
p122
S'MIPS Malta'
p123
sS'hardware-long'
p124
S'MIPS Malta boards'
p125
ss(S'base'
p126
S'ppc64'
p127
S'none'
p128
tp129
(dp130
S'implicit-flavour'
p131
I01
sS'flavours'
p132
(lp133
S'powerpc64'
p134
ass(S'description'
p135
S'hppa'
p136
NS'parisc'
p137
tp138
(dp139
S'hardware'
p140
S'32-bit PA-RISC'
p141
sS'hardware-long'
p142
S'HP PA-RISC 32-bit systems with max 4 GB RAM'
p143
ss(S'description'
p144
g52
NS'r4k-ip22'
p145
tp146
(dp147
S'hardware'
p148
S'SGI IP22'
p149
sS'hardware-long'
p150
S'SGI IP22 systems (Indy, Indigo2)'
p151
ss(S'image'
p152
g27
NS'sh7785lcr'
p153
tp154
(dp155
S'check-size'
p156
I4194304
sS'recommends'
p157
S'uboot-mkimage'
p158
ss(S'description'
p159
g78
NS'686-pae'
p160
tp161
(dp162
S'hardware'
p163
S'modern PCs'
p164
sS'parts'
p165
(lp166
S'pae'
p167
asS'hardware-long'
p168
S'PCs with one or more processors supporting PAE'
p169
ss(S'description'
p170
g105
NS'powerpc'
p171
tp172
(dp173
S'hardware'
p174
S'uniprocessor 32-bit PowerPC'
p175
ss(S'base'
p176
g43
tp177
(dp178
S'kernel-arch'
p179
S'alpha'
p180
sS'featuresets'
p181
(lp182
g128
ass(S'description'
p183
g52
NS'5kc-malta'
p184
tp185
(dp186
S'hardware'
p187
S'MIPS Malta (64-bit)'
p188
sS'hardware-long'
p189
S'MIPS Malta boards (64-bit)'
p190
ss(S'image'
p191
g18
NS'octeon'
p192
tp193
(dp194
S'configs'
p195
(lp196
S'kernelarch-mips/config.octeon'
p197
ass(g126
S'armhf'
p198
g128
tp199
(dp200
g131
I01
sg132
(lp201
S'armmp'
p202
aS'armmp-lpae'
p203
ass(S'description'
p204
g52
NS'sb1-bcm91250a'
p205
tp206
(dp207
S'hardware'
p208
S'BCM91250A'
p209
sS'hardware-long'
p210
S'Broadcom BCM91250A systems (aka SWARM)'
p211
ss(S'base'
p212
g78
S'rt'
p213
tp214
(dp215
S'flavours'
p216
(lp217
S'686-pae'
p218
ass(S'description'
p219
S'mipsel'
p220
NS'sb1-bcm91250a'
p221
tp222
(dp223
S'hardware'
p224
S'BCM91250A'
p225
sS'hardware-long'
p226
S'Broadcom BCM91250A systems (aka SWARM)'
p227
ss(S'image'
p228
g220
NS'loongson-3'
p229
tp230
(dp231
S'configs'
p232
(lp233
S'kernelarch-mips/config.loongson-3'
p234
ass(S'relations'
p235
g78
tp236
(dp237
S'headers%gcc-4.9'
p238
S'linux-compiler-gcc-4.9-x86'
p239
ss(S'image'
p240
g220
NS'4kc-malta'
p241
tp242
(dp243
S'configs'
p244
(lp245
S'kernelarch-mips/config.4kc-malta'
p246
ass(S'description'
p247
g220
NS'loongson-3'
p248
tp249
(dp250
S'hardware'
p251
S'Loongson 3A/3B'
p252
sS'hardware-long'
p253
S'Loongson 3A or 3B based systems (e.g. from Loongson or Lemote)'
p254
ss(S'image'
p255
g105
tp256
(dp257
S'suggests'
p258
S'mkvmlinuz'
p259
sS'configs'
p260
(lp261
sS'install-stem'
p262
S'vmlinux'
p263
ss(S'description'
p264
g43
NS'alpha-generic'
p265
tp266
(dp267
S'hardware'
p268
S'Alpha'
p269
sS'hardware-long'
p270
S'DEC Alpha systems with extended kernel start address (Wildfire, Titan, Marvel)'
p271
ss(S'description'
p272
S'sparc64'
p273
NS'sparc64'
p274
tp275
(dp276
S'hardware'
p277
S'uniprocessor 64-bit UltraSPARC'
p278
ss(S'base'
p279
g5
S'rt'
p280
tp281
(dp282
S'flavours'
p283
(lp284
S'amd64'
p285
ass(S'build'
p286
S'ppc64el'
p287
tp288
(dp289
S'image-file'
p290
S'vmlinux'
p291
ss(S'build'
p292
g127
tp293
(dp294
S'image-file'
p295
S'vmlinux'
p296
ss(S'description'
p297
g52
NS'octeon'
p298
tp299
(dp300
S'hardware'
p301
S'Octeon'
p302
sS'hardware-long'
p303
S'Cavium Networks Octeon'
p304
ss(S'image'
p305
g87
NS'arm64'
p306
tp307
(dp308
s(S'image'
p309
S'armel'
p310
NS'orion5x'
p311
tp312
(dp313
S'check-size'
p314
I2097080
sS'check-size-with-dtb'
p315
I01
sS'configs'
p316
(lp317
S'armel/config-reduced'
p318
aS'armel/config.orion5x'
p319
asS'recommends'
p320
S'uboot-mkimage'
p321
ss(S'base'
p322
g78
tp323
(dp324
S'kernel-arch'
p325
S'x86'
p326
sS'featuresets'
p327
(lp328
S'none'
p329
aS'rt'
p330
ass(S'base'
p331
g220
tp332
(dp333
S'kernel-arch'
p334
S'mips'
p335
sg181
(lp336
g128
ass(S'relations'
p337
g5
tp338
(dp339
S'headers%gcc-4.9'
p340
S'linux-compiler-gcc-4.9-x86'
p341
ss(S'image'
p342
g52
NS'sb1-bcm91250a'
p343
tp344
(dp345
S'configs'
p346
(lp347
S'kernelarch-mips/config.sb1-bcm91250a'
p348
ass(S'image'
p349
g198
NS'armmp-lpae'
p350
tp351
(dp352
S'configs'
p353
(lp354
S'armhf/config.armmp'
p355
aS'armhf/config.lpae'
p356
ass(g126
g220
g128
tp357
(dp358
g131
I01
sg132
(lp359
S'sb1-bcm91250a'
p360
aS'4kc-malta'
p361
aS'5kc-malta'
p362
aS'loongson-2e'
p363
aS'loongson-2f'
p364
aS'loongson-3'
p365
ass(S'image'
p366
g78
NS'686-pae'
p367
tp368
(dp369
S'configs'
p370
(lp371
S'kernelarch-x86/config-arch-32'
p372
aS'i386/config.686-pae'
p373
asS'recommends'
p374
S'libc6-i686'
p375
ss(S'description'
p376
S'powerpcspe'
p377
tp378
(dp379
S'hardware'
p380
S'32-bit PowerPC with SPE (instead of AltiVec) with SMP support'
p381
ss(S'relations'
p382
tp383
(dp384
S'gcc-4.9'
p385
S'gcc-4.9'
p386
sS'gcc-4.8'
p387
S'gcc-4.8'
p388
sS'initramfs-fallback'
p389
S'linux-initramfs-tool'
p390
sS'gcc-4.7'
p391
S'gcc-4.7'
p392
sS'gcc-4.6'
p393
S'gcc-4.6'
p394
sS'initramfs-tools'
p395
S'initramfs-tools (>= 0.110~)'
p396
ss(S'image'
p397
g220
NS'loongson-2f'
p398
tp399
(dp400
S'configs'
p401
(lp402
S'kernelarch-mips/config.loongson-2f'
p403
asS'recommends'
p404
S'libc6-loongson2f'
p405
ss(S'description'
p406
g198
NS'armmp'
p407
tp408
(dp409
S'hardware'
p410
S'ARMv7 multiplatform compatible SoCs'
p411
sS'hardware-long'
p412
S'ARMv7 multiplatform kernel. See\nhttps://wiki.debian.org/DebianKernel/ARMMP for details of supported\nplatforms'
p413
ss(S'description'
p414
g18
NS'octeon'
p415
tp416
(dp417
S'hardware'
p418
S'Octeon'
p419
sS'hardware-long'
p420
S'Cavium Networks Octeon'
p421
ss(S'base'
p422
g27
tp423
(dp424
S'kernel-arch'
p425
S'sh'
p426
sg181
(lp427
g128
ass(S'build'
p428
g377
tp429
(dp430
S'image-file'
p431
S'vmlinux'
p432
ss(S'description'
p433
g310
NS'versatile'
p434
tp435
(dp436
S'hardware'
p437
S'Versatile'
p438
sS'hardware-long'
p439
S'Versatile systems (PB, AB, Qemu)'
p440
ss(S'build'
p441
g136
tp442
(dp443
S'image-file'
p444
S'vmlinux'
p445
ss(S'image'
p446
g43
tp447
(dp448
S'suggests'
p449
S'aboot, fdutils'
p450
sS'install-stem'
p451
S'vmlinuz'
p452
ss(S'description'
p453
g78
NS'586'
p454
tp455
(dp456
S'hardware'
p457
S'older PCs'
p458
sS'parts'
p459
(lp460
S'up'
p461
asS'hardware-long'
p462
S'PCs with a single processor not supporting PAE'
p463
ss(S'description'
p464
g273
NS'sparc64-smp'
p465
tp466
(dp467
S'hardware'
p468
S'multiprocessor 64-bit UltraSPARC'
p469
ss(S'description'
p470
S'mips64el'
p471
NS'octeon'
p472
tp473
(dp474
S'hardware'
p475
S'Octeon'
p476
sS'hardware-long'
p477
S'Cavium Networks Octeon'
p478
ss(S'description'
p479
g471
NS'sb1-bcm91250a'
p480
tp481
(dp482
S'hardware'
p483
S'BCM91250A'
p484
sS'hardware-long'
p485
S'Broadcom BCM91250A systems (aka SWARM)'
p486
ss(S'description'
p487
g471
NS'loongson-3'
p488
tp489
(dp490
S'hardware'
p491
S'Loongson 3A/3B'
p492
sS'hardware-long'
p493
S'Loongson 3A or 3B based systems (e.g. from Loongson or Lemote)'
p494
ss(S'image'
p495
g127
NS'powerpc64'
p496
tp497
(dp498
S'configs'
p499
(lp500
S'kernelarch-powerpc/config-arch-64'
p501
aS'kernelarch-powerpc/config-arch-64-be'
p502
ass(S'description'
p503
g136
NS'parisc64-smp'
p504
tp505
(dp506
S'hardware'
p507
S'multiprocessor 64-bit PA-RISC'
p508
sS'hardware-long'
p509
S'HP PA-RISC 64-bit SMP systems with support for more than 4 GB RAM'
p510
ss(S'base'
p511
g377
tp512
(dp513
S'kernel-arch'
p514
S'powerpc'
p515
sg181
(lp516
g128
ass(g126
g105
g128
tp517
(dp518
g131
I01
sg132
(lp519
S'powerpc'
p520
aS'powerpc-smp'
p521
aS'powerpc64'
p522
ass(S'description'
p523
g60
NS'itanium'
p524
tp525
(dp526
S'hardware'
p527
S'Itanium'
p528
ss(S'image'
p529
g52
NS'4kc-malta'
p530
tp531
(dp532
S'configs'
p533
(lp534
S'kernelarch-mips/config.4kc-malta'
p535
ass(g126
S's390x'
p536
g128
tp537
(dp538
g131
I01
sg132
(lp539
S's390x'
p540
ass(S'base'
p541
g52
tp542
(dp543
S'kernel-arch'
p544
S'mips'
p545
sg181
(lp546
g128
ass(S'build'
p547
g5
tp548
(dp549
S'debug-info'
p550
I01
sS'image-file'
p551
S'arch/x86/boot/bzImage'
p552
ss(S'description'
p553
g471
NS'5kc-malta'
p554
tp555
(dp556
S'hardware'
p557
S'MIPS Malta'
p558
sS'hardware-long'
p559
S'MIPS Malta boards'
p560
ss(S'base'
p561
g136
NS'parisc64-smp'
p562
tp563
(dp564
S'override-host-type'
p565
S'hppa64-linux-gnu'
p566
sS'cflags'
p567
S'-fno-cse-follow-jumps'
p568
ss(S'image'
p569
g287
NS'powerpc64le'
p570
tp571
(dp572
S'configs'
p573
(lp574
S'kernelarch-powerpc/config-arch-64'
p575
aS'kernelarch-powerpc/config-arch-64-le'
p576
ass(S'build'
p577
S'sparc'
p578
tp579
(dp580
S'image-file'
p581
S'arch/sparc/boot/zImage'
p582
ss(S'image'
p583
g220
tp584
(dp585
S'install-stem'
p586
S'vmlinux'
p587
ss(S'description'
p588
g578
NS'sparc64-smp'
p589
tp590
(dp591
S'hardware'
p592
S'multiprocessor 64-bit UltraSPARC'
p593
ss(S'build'
p594
g105
tp595
(dp596
S'image-file'
p597
S'vmlinux'
p598
ss(S'build'
p599
g87
tp600
(dp601
S'debug-info'
p602
I01
sS'image-file'
p603
S'arch/arm64/boot/Image'
p604
ss(S'build'
p605
g220
tp606
(dp607
S'image-file'
p608
S'vmlinux'
p609
ss(S'base'
p610
g18
tp611
(dp612
S'kernel-arch'
p613
S'mips'
p614
sg181
(lp615
g128
ass(S'base'
p616
g536
tp617
(dp618
S'kernel-arch'
p619
S's390'
p620
sg181
(lp621
g128
asS'compiler'
p622
S'gcc-4.8'
p623
ss(S'base'
p624
g5
tp625
(dp626
S'kernel-arch'
p627
S'x86'
p628
sS'featuresets'
p629
(lp630
S'none'
p631
aS'rt'
p632
ass(S'base'
p633
g60
tp634
(dp635
S'kernel-arch'
p636
S'ia64'
p637
sg181
(lp638
g128
asS'compiler'
p639
S'gcc-4.6'
p640
ss(S'image'
p641
g220
NS'5kc-malta'
p642
tp643
(dp644
S'configs'
p645
(lp646
S'kernelarch-mips/config.5kc-malta'
p647
ass(S'base'
p648
S's390'
p649
tp650
(dp651
S'kernel-arch'
p652
S's390'
p653
sS'featuresets'
p654
(lp655
ss(g126
g310
g128
tp656
(dp657
g131
I01
sg132
(lp658
S'kirkwood'
p659
aS'orion5x'
p660
aS'versatile'
p661
ass(S'description'
p662
g60
NS'mckinley'
p663
tp664
(dp665
S'hardware'
p666
S'Itanium II'
p667
ss(S'description'
p668
g220
NS'5kc-malta'
p669
tp670
(dp671
S'hardware'
p672
S'MIPS Malta (64-bit)'
p673
sS'hardware-long'
p674
S'MIPS Malta boards (64-bit)'
p675
ss(S'description'
p676
g78
tp677
(dp678
S'part-long-pae'
p679
S'This kernel requires PAE (Physical Address Extension).\nThis feature is supported by the Intel Pentium Pro/II/III/4/4M/D, Xeon,\nCore and Atom; AMD Geode NX, Athlon (K7), Duron, Opteron, Sempron,\nTurion or Phenom; Transmeta Efficeon; VIA C7; and some other processors.'
p680
ss(S'build'
p681
g471
tp682
(dp683
S'image-file'
p684
S'vmlinux'
p685
ss(S'xen'
p686
g5
g36
S'amd64'
p687
tp688
(dp689
S'flavours'
p690
(lp691
S'amd64'
p692
ass(S'image'
p693
g310
tp694
(dp695
S'suggests'
p696
S'fdutils'
p697
sS'configs'
p698
(lp699
S'kernelarch-arm/config'
p700
aS'armel/config'
p701
asS'install-stem'
p702
S'vmlinuz'
p703
ss(S'build'
p704
g78
NS'686-pae'
p705
tp706
(dp707
S'debug-info'
p708
I01
ss(S'relations'
p709
g310
tp710
(dp711
S'headers%gcc-4.9'
p712
S'linux-compiler-gcc-4.9-arm'
p713
ss(S'image'
p714
g136
tp715
(dp716
S'suggests'
p717
S'palo'
p718
sS'install-stem'
p719
S'vmlinux'
p720
ss(S'image'
p721
g105
NS'powerpc64'
p722
tp723
(dp724
S'configs'
p725
(lp726
S'kernelarch-powerpc/config-arch-64'
p727
aS'kernelarch-powerpc/config-arch-64-be'
p728
ass(S'image'
p729
g377
tp730
(dp731
S'suggests'
p732
S'mkvmlinuz'
p733
sS'install-stem'
p734
S'vmlinux'
p735
ss(S'relations'
p736
g136
tp737
(dp738
S'gcc-4.9'
p739
S'gcc-4.9, binutils-hppa64, gcc-4.9-hppa64'
p740
ss(S'description'
p741
g52
NS'4kc-malta'
p742
tp743
(dp744
S'hardware'
p745
S'MIPS Malta'
p746
sS'hardware-long'
p747
S'MIPS Malta boards'
p748
ss(S'image'
p749
g52
NS'r4k-ip22'
p750
tp751
(dp752
S'configs'
p753
(lp754
S'kernelarch-mips/config.r4k-ip22'
p755
ass(S'image'
p756
g273
NS'sparc64-smp'
p757
tp758
(dp759
S'configs'
p760
(lp761
S'kernelarch-sparc/config-smp'
p762
ass(S'description'
p763
g287
NS'powerpc64le'
p764
tp765
(dp766
S'hardware'
p767
S'Little-endian 64-bit PowerPC'
p768
ss(S'description'
p769
g578
NS'sparc64'
p770
tp771
(dp772
S'hardware'
p773
S'uniprocessor 64-bit UltraSPARC'
p774
ss(S'image'
p775
g310
NS'kirkwood'
p776
tp777
(dp778
S'check-size'
p779
I2097080
sS'check-size-with-dtb'
p780
I01
sS'breaks'
p781
S'flash-kernel (<< 3.30~)'
p782
sS'recommends'
p783
S'uboot-mkimage'
p784
sS'configs'
p785
(lp786
S'armel/config-reduced'
p787
aS'armel/config.kirkwood'
p788
ass(g126
g136
g128
tp789
(dp790
g131
I01
sg132
(lp791
S'parisc'
p792
aS'parisc64-smp'
p793
ass(S'image'
p794
g52
NS'r5k-ip32'
p795
tp796
(dp797
S'configs'
p798
(lp799
S'kernelarch-mips/config.r5k-ip32'
p800
ass(S'image'
p801
g105
NS'powerpc-smp'
p802
tp803
(dp804
S'configs'
p805
(lp806
S'powerpc/config.powerpc'
p807
aS'powerpc/config.powerpc-smp'
p808
ass(S'base'
p809
g273
tp810
(dp811
S'kernel-arch'
p812
S'sparc'
p813
sg181
(lp814
g128
ass(S'image'
p815
g18
NS'5kc-malta'
p816
tp817
(dp818
S'configs'
p819
(lp820
S'kernelarch-mips/config.5kc-malta'
p821
ass(S'base'
p822
S'or1k'
p823
tp824
(dp825
S'kernel-arch'
p826
S'openrisc'
p827
sS'featuresets'
p828
(lp829
ss(S'description'
p830
g27
NS'sh7785lcr'
p831
tp832
(dp833
S'hardware'
p834
S'sh7785lcr'
p835
sS'hardware-long'
p836
S'Renesas SH7785 reference board'
p837
ss(g126
g471
g128
tp838
(dp839
g131
I01
sg132
(lp840
S'sb1-bcm91250a'
p841
aS'5kc-malta'
p842
aS'loongson-3'
p843
aS'octeon'
p844
ass(S'image'
p845
g471
NS'sb1-bcm91250a'
p846
tp847
(dp848
S'configs'
p849
(lp850
S'kernelarch-mips/config.sb1-bcm91250a'
p851
ass(S'image'
p852
g127
tp853
(dp854
S'suggests'
p855
S'mkvmlinuz'
p856
sS'configs'
p857
(lp858
sS'install-stem'
p859
S'vmlinux'
p860
ss(S'image'
p861
g52
tp862
(dp863
S'install-stem'
p864
S'vmlinux'
p865
ss(S'image'
p866
g78
tp867
(dp868
S'install-stem'
p869
S'vmlinuz'
p870
sS'configs'
p871
(lp872
sS'bootloaders'
p873
(lp874
S'grub-pc'
p875
aS'extlinux'
p876
ass(g126
g578
g128
tp877
(dp878
g131
I01
sg132
(lp879
S'sparc64'
p880
aS'sparc64-smp'
p881
ass(S'description'
p882
S'm68k'
p883
NS'm68k'
p884
tp885
(dp886
S'hardware'
p887
S'Motorola MC68020+ family'
p888
ss(S'base'
p889
NS'rt'
p890
tp891
(dp892
S'enabled'
p893
I01
ss(g126
g43
g128
tp894
(dp895
g131
I01
sg132
(lp896
S'alpha-generic'
p897
aS'alpha-smp'
p898
ass(S'description'
p899
g78
S'none'
p900
S'686-pae'
p901
tp902
(dp903
S'parts'
p904
(lp905
S'xen'
p906
ass(g126
g60
g128
tp907
(dp908
g131
I01
sg132
(lp909
S'itanium'
p910
aS'mckinley'
p911
ass(S'base'
p912
g127
tp913
(dp914
S'kernel-arch'
p915
S'powerpc'
p916
sg181
(lp917
g128
ass(S'description'
p918
g5
NS'amd64'
p919
tp920
(dp921
S'hardware'
p922
S'64-bit PCs'
p923
sS'hardware-long'
p924
S'PCs with AMD64, Intel 64 or VIA Nano processors'
p925
ss(S'build'
p926
g536
tp927
(dp928
S'image-file'
p929
S'arch/s390/boot/image'
p930
ss(g126
g52
g128
tp931
(dp932
g131
I01
sg132
(lp933
S'r4k-ip22'
p934
aS'r5k-ip32'
p935
aS'sb1-bcm91250a'
p936
aS'4kc-malta'
p937
aS'5kc-malta'
p938
aS'octeon'
p939
ass(S'build'
p940
g52
tp941
(dp942
S'image-file'
p943
S'vmlinux'
p944
ss(S'image'
p945
g18
tp946
(dp947
S'install-stem'
p948
S'vmlinux'
p949
ss(g126
g27
g128
tp950
(dp951
g131
I01
sg132
(lp952
S'sh7751r'
p953
aS'sh7785lcr'
p954
ass(S'base'
p955
S'x32'
p956
tp957
(dp958
S'kernel-arch'
p959
S'x86'
p960
sS'featuresets'
p961
(lp962
ss(S'build'
p963
g27
tp964
(dp965
S'image-file'
p966
S'arch/sh/boot/zImage'
p967
ss(S'image'
p968
g883
tp969
(dp970
S'suggests'
p971
S'vmelilo, fdutils'
p972
sS'install-stem'
p973
S'vmlinuz'
p974
ss(S'base'
p975
g87
S'none'
p976
tp977
(dp978
S'flavours'
p979
(lp980
S'arm64'
p981
ass(S'description'
p982
g52
NS'r5k-ip32'
p983
tp984
(dp985
S'hardware'
p986
S'SGI IP32'
p987
sS'hardware-long'
p988
S'SGI IP32 systems (O2)'
p989
ss(S'build'
p990
g18
tp991
(dp992
S'image-file'
p993
S'vmlinux'
p994
ss(S'build'
p995
g60
tp996
(dp997
S'image-file'
p998
S'vmlinux.gz'
p999
ss(S'base'
p1000
g198
tp1001
(dp1002
S'kernel-arch'
p1003
S'arm'
p1004
sg181
(lp1005
g128
ass(S'image'
p1006
g27
tp1007
(dp1008
S'suggests'
p1009
S'fdutils'
p1010
sS'install-stem'
p1011
S'vmlinuz'
p1012
ss(S'image'
p1013
g578
NS'sparc32'
p1014
tp1015
(dp1016
S'image-postproc'
p1017
S'sparc32-image-postproc'
p1018
ss(S'base'
p1019
g136
tp1020
(dp1021
S'kernel-arch'
p1022
S'parisc'
p1023
sg181
(lp1024
g128
ass(S'description'
p1025
g310
NS'kirkwood'
p1026
tp1027
(dp1028
S'hardware'
p1029
S'Marvell Kirkwood'
p1030
sS'hardware-long'
p1031
S'Marvell Kirkwood based systems (SheevaPlug, QNAP TS-119/TS-219, etc)'
p1032
ss(S'image'
p1033
g578
NS'sparc64-smp'
p1034
tp1035
(dp1036
S'configs'
p1037
(lp1038
S'kernelarch-sparc/config-smp'
p1039
ass(S'image'
p1040
g578
tp1041
(dp1042
S'suggests'
p1043
S'silo, fdutils'
p1044
sS'configs'
p1045
(lp1046
sS'install-stem'
p1047
S'vmlinuz'
p1048
ss(S'description'
p1049
tp1050
(dp1051
S'part-long-up'
p1052
S'This kernel is not suitable for SMP (multi-processor,\nmulti-core or hyper-threaded) systems.'
p1053
sS'part-long-xen'
p1054
S'This kernel also runs on a Xen hypervisor.\nIt supports both privileged (dom0) and unprivileged (domU) operation.'
p1055
ss(S'build'
p1056
g273
tp1057
(dp1058
S'image-file'
p1059
S'arch/sparc/boot/zImage'
p1060
ss(S'relations'
p1061
g198
tp1062
(dp1063
S'headers%gcc-4.9'
p1064
S'linux-compiler-gcc-4.9-arm'
p1065
ss(S'description'
p1066
g105
NS'powerpc64'
p1067
tp1068
(dp1069
S'hardware'
p1070
S'64-bit PowerPC'
p1071
ss(S'image'
p1072
g536
NS's390x'
p1073
tp1074
(dp1075
S'configs'
p1076
(lp1077
S'kernelarch-s390/config-arch-64'
p1078
ass(S'image'
p1079
g471
NS'loongson-3'
p1080
tp1081
(dp1082
S'configs'
p1083
(lp1084
S'kernelarch-mips/config.loongson-3'
p1085
ass(S'build'
p1086
g43
tp1087
(dp1088
S'image-file'
p1089
S'arch/alpha/boot/vmlinux.gz'
p1090
ss(S'relations'
p1091
g536
tp1092
(dp1093
S'headers%gcc-4.8'
p1094
S'linux-compiler-gcc-4.8-s390'
p1095
ss(S'description'
p1096
g220
NS'loongson-2f'
p1097
tp1098
(dp1099
S'hardware'
p1100
S'Loongson 2F'
p1101
sS'hardware-long'
p1102
S'Lemote Loongson 2F systems'
p1103
ss(S'base'
p1104
g105
tp1105
(dp1106
S'kernel-arch'
p1107
S'powerpc'
p1108
sg181
(lp1109
g128
ass(S'image'
p1110
g220
NS'sb1-bcm91250a'
p1111
tp1112
(dp1113
S'configs'
p1114
(lp1115
S'kernelarch-mips/config.sb1-bcm91250a'
p1116
ass(S'description'
p1117
g536
NS's390x'
p1118
tp1119
(dp1120
S'hardware'
p1121
S'IBM zSeries'
p1122
ss(S'description'
p1123
g220
NS'4kc-malta'
p1124
tp1125
(dp1126
S'hardware'
p1127
S'MIPS Malta'
p1128
sS'hardware-long'
p1129
S'MIPS Malta boards'
p1130
ss(S'image'
p1131
g536
tp1132
(dp1133
S'install-stem'
p1134
S'vmlinuz'
p1135
sS'configs'
p1136
(lp1137
sS'bootloaders'
p1138
(lp1139
S's390-tools'
p1140
ass(S'image'
p1141
g287
tp1142
(dp1143
S'suggests'
p1144
S'mkvmlinuz'
p1145
sS'configs'
p1146
(lp1147
sS'install-stem'
p1148
S'vmlinux'
p1149
ss(S'base'
p1150
g310
tp1151
(dp1152
S'kernel-arch'
p1153
S'arm'
p1154
sg181
(lp1155
g128
ass(S'base'
p1156
g87
tp1157
(dp1158
S'kernel-arch'
p1159
S'arm64'
p1160
sS'featuresets'
p1161
(lp1162
S'none'
p1163
ass(S'image'
p1164
g198
tp1165
(dp1166
S'suggests'
p1167
S'fdutils'
p1168
sS'configs'
p1169
(lp1170
S'kernelarch-arm/config'
p1171
aS'armhf/config'
p1172
asS'install-stem'
p1173
S'vmlinuz'
p1174
ss(S'abi'
p1175
tp1176
(dp1177
S'abiname'
p1178
S'kali1'
p1179
ss(S'image'
p1180
g471
NS'5kc-malta'
p1181
tp1182
(dp1183
S'configs'
p1184
(lp1185
S'kernelarch-mips/config.5kc-malta'
p1186
ass(g126
g377
g128
tp1187
(dp1188
g131
I01
sg132
(lp1189
S'powerpcspe'
p1190
ass(g126
g883
g128
tp1191
(dp1192
g131
I01
sg132
(lp1193
S'm68k'
p1194
ass(S'image'
p1195
g18
NS'sb1-bcm91250a'
p1196
tp1197
(dp1198
S'configs'
p1199
(lp1200
S'kernelarch-mips/config.sb1-bcm91250a'
p1201
ass(S'base'
p1202
g78
g900
tp1203
(dp1204
S'flavours'
p1205
(lp1206
S'586'
p1207
aS'686-pae'
p1208
ass(S'base'
p1209
tp1210
(dp1211
S'arches'
p1212
(lp1213
S'alpha'
p1214
aS'amd64'
p1215
aS'arm64'
p1216
aS'armel'
p1217
aS'armhf'
p1218
aS'hppa'
p1219
aS'i386'
p1220
aS'ia64'
p1221
aS'm68k'
p1222
aS'mips'
p1223
aS'mipsel'
p1224
aS'mips64'
p1225
aS'mips64el'
p1226
aS'or1k'
p1227
aS'powerpc'
p1228
aS'powerpcspe'
p1229
aS'ppc64'
p1230
aS'ppc64el'
p1231
aS's390'
p1232
aS's390x'
p1233
aS'sh4'
p1234
aS'sparc'
p1235
aS'sparc64'
p1236
aS'x32'
p1237
asS'featuresets'
p1238
(lp1239
S'none'
p1240
aS'rt'
p1241
asS'compiler'
p1242
S'gcc-4.9'
p1243
ss(S'description'
p1244
Ng71
tp1245
(dp1246
S'part-long-rt'
p1247
S'This kernel includes the PREEMPT_RT realtime patch set.'
p1248
sS'parts'
p1249
(lp1250
S'rt'
p1251
asS'part-short-rt'
p1252
S'PREEMPT_RT'
p1253
ss(S'build'
p1254
g883
tp1255
(dp1256
S'image-file'
p1257
S'vmlinux.gz'
p1258
ss(S'build'
p1259
g310
tp1260
(dp1261
S'image-file'
p1262
S'arch/arm/boot/zImage'
p1263
ss(S'image'
p1264
g578
NS'sparc64'
p1265
tp1266
(dp1267
S'configs'
p1268
(lp1269
S'kernelarch-sparc/config-up'
p1270
ass(S'image'
p1271
g273
tp1272
(dp1273
S'suggests'
p1274
S'silo, fdutils'
p1275
sS'configs'
p1276
(lp1277
sS'install-stem'
p1278
S'vmlinuz'
p1279
ss(S'build'
p1280
g198
tp1281
(dp1282
S'image-file'
p1283
S'arch/arm/boot/zImage'
p1284
ss(S'build'
p1285
g536
NS's390x'
p1286
tp1287
(dp1288
S'debug-info'
p1289
I01
ss(S'base'
p1290
g287
tp1291
(dp1292
S'kernel-arch'
p1293
S'powerpc'
p1294
sg181
(lp1295
g128
ass(S'base'
p1296
g471
tp1297
(dp1298
S'kernel-arch'
p1299
S'mips'
p1300
sg181
(lp1301
g128
ass(S'base'
p1302
g578
tp1303
(dp1304
S'kernel-arch'
p1305
S'sparc'
p1306
sg181
(lp1307
g128
ass(S'base'
p1308
g883
tp1309
(dp1310
S'kernel-arch'
p1311
S'm68k'
p1312
sg181
(lp1313
g128
asS'cflags'
p1314
S'-ffreestanding'
p1315
sS'compiler'
p1316
S'gcc-4.8'
p1317
ss(S'description'
p1318
g220
NS'loongson-2e'
p1319
tp1320
(dp1321
S'hardware'
p1322
S'Loongson 2E'
p1323
sS'hardware-long'
p1324
S'Lemote Loongson 2E systems'
p1325
ss(S'image'
p1326
tp1327
(dp1328
S'initramfs-generators'
p1329
(lp1330
S'initramfs-tools'
p1331
aS'initramfs-fallback'
p1332
asS'type'
p1333
S'plain'
p1334
ss(S'image'
p1335
g220
NS'loongson-2e'
p1336
tp1337
(dp1338
S'configs'
p1339
(lp1340
S'kernelarch-mips/config.loongson-2e'
p1341
ass(g126
g273
g128
tp1342
(dp1343
g131
I01
sg132
(lp1344
S'sparc64'
p1345
aS'sparc64-smp'
p1346
ass(S'image'
p1347
g471
tp1348
(dp1349
S'install-stem'
p1350
S'vmlinux'
p1351
ss(S'description'
p1352
g310
NS'orion5x'
p1353
tp1354
(dp1355
S'hardware'
p1356
S'Marvell Orion'
p1357
sS'hardware-long'
p1358
S'Marvell Orion 5181, 5182 and 5281 based systems (QNAP TS-109/TS-209, etc)'
p1359
ss(S'description'
p1360
g578
NS'sparc32'
p1361
tp1362
(dp1363
S'hardware'
p1364
S'uniprocessor sparc32 (sun4m)'
p1365
ss(S'image'
p1366
g52
NS'5kc-malta'
p1367
tp1368
(dp1369
S'configs'
p1370
(lp1371
S'kernelarch-mips/config.5kc-malta'
p1372
ass(S'description'
p1373
g127
NS'powerpc64'
p1374
tp1375
(dp1376
S'hardware'
p1377
S'64-bit PowerPC'
p1378
ss(S'image'
p1379
g273
NS'sparc64'
p1380
tp1381
(dp1382
S'configs'
p1383
(lp1384
S'kernelarch-sparc/config-up'
p1385
ass(g126
g18
g128
tp1386
(dp1387
g131
I01
sg132
(lp1388
S'sb1-bcm91250a'
p1389
aS'5kc-malta'
p1390
aS'octeon'
p1391
ass(S'image'
p1392
g87
tp1393
(dp1394
S'install-stem'
p1395
S'vmlinuz'
p1396
ss(S'image'
p1397
g471
NS'octeon'
p1398
tp1399
(dp1400
S'configs'
p1401
(lp1402
S'kernelarch-mips/config.octeon'
p1403
ass(S'description'
p1404
g198
NS'armmp-lpae'
p1405
tp1406
(dp1407
S'hardware'
p1408
S'ARMv7 multiplatform compatible SoCs supporting LPAE'
p1409
sS'hardware-long'
p1410
S'ARMv7 multiplatform kernel supporting LPAE. See\nhttps://wiki.debian.org/DebianKernel/ARMMP for details of supported\nplatforms.'
p1411
ss(S'build'
p1412
g78
tp1413
(dp1414
S'image-file'
p1415
S'arch/x86/boot/bzImage'
p1416
ss(g126
g287
g128
tp1417
(dp1418
g131
I01
sg132
(lp1419
S'powerpc64le'
p1420
ass(S'image'
p1421
g5
NS'amd64'
p1422
tp1423
(dp1424
S'configs'
p1425
(lp1426
S'kernelarch-x86/config-arch-64'
p1427
asstp1428
Rp1429
.