ccopy_reg
_reconstructor
p0
(cdebian_linux.config
ConfigCore
p1
c__builtin__
dict
p2
(dp3
(Vbuild
p4
Vsparc64
p5
tp6
(dp7
Vimage-file
p8
Varch/sparc/boot/zImage
p9
ss(Vdescription
p10
tp11
(dp12
Vpart-long-up
p13
VThis kernel is not suitable for SMP (multi-processor,\u000amulti-core or hyper-threaded) systems.
p14
sVpart-long-xen
p15
VThis kernel also runs on a Xen hypervisor.\u000aIt supports both privileged (dom0) and unprivileged (domU) operation.
p16
ss(Vrelations
p17
tp18
(dp19
Vinitramfs-fallback
p20
Vlinux-initramfs-tool
p21
sVgcc-5
p22
Vgcc-5 <!stage1>
p23
sVgcc-4.8
p24
Vgcc-4.8 <!stage1>
p25
sVinitramfs-tools
p26
Vinitramfs-tools (>= 0.110~)
p27
sVgcc-4.9
p28
Vgcc-4.9 <!stage1>
p29
ss(Vimage
p30
Vmips64el
p31
NVocteon
p32
tp33
(dp34
Vconfigs
p35
(lp36
Vkernelarch-mips/config.octeon
p37
ass(Vimage
p38
Vs390x
p39
NVs390x
p40
tp41
(dp42
Vconfigs
p43
(lp44
Vkernelarch-s390/config-arch-64
p45
ass(Vdescription
p46
Vamd64
p47
Vnone
p48
Vamd64
p49
tp50
(dp51
Vparts
p52
(lp53
Vxen
p54
ass(Vimage
p55
Vmips64
p56
NV5kc-malta
p57
tp58
(dp59
Vconfigs
p60
(lp61
Vkernelarch-mips/config.5kc-malta
p62
ass(Vbase
p63
Varm64
p64
tp65
(dp66
Vkernel-arch
p67
Varm64
p68
sVfeaturesets
p69
(lp70
Vnone
p71
ass(Vimage
p72
Vi386
p73
NV686
p74
tp75
(dp76
Vconfigs
p77
(lp78
Vkernelarch-x86/config-arch-32
p79
aVi386/config.686
p80
asVrecommends
p81
Vlibc6-i686
p82
ss(Vimage
p83
Varmhf
p84
tp85
(dp86
Vsuggests
p87
Vfdutils
p88
sVconfigs
p89
(lp90
Vkernelarch-arm/config
p91
asVinstall-stem
p92
Vvmlinuz
p93
ss(Vimage
p94
g47
tp95
(dp96
Vbreaks
p97
Vxserver-xorg-input-vmmouse (<< 1:13.0.99)
p98
sVinstall-stem
p99
Vvmlinuz
p100
sVconfigs
p101
(lp102
sVbootloaders
p103
(lp104
Vgrub-pc
p105
aVgrub-efi
p106
aVextlinux
p107
ass(Vbuild
p108
g84
tp109
(dp110
Vimage-file
p111
Varch/arm/boot/zImage
p112
ss(Vdescription
p113
Vhppa
p114
NVparisc64-smp
p115
tp116
(dp117
Vhardware
p118
Vmultiprocessor 64-bit PA-RISC
p119
sVhardware-long
p120
VHP PA-RISC 64-bit SMP systems with support for more than 4 GB RAM
p121
ss(Vimage
p122
Varmel
p123
tp124
(dp125
Vsuggests
p126
Vfdutils
p127
sVconfigs
p128
(lp129
Vkernelarch-arm/config
p130
aVarmel/config
p131
asVinstall-stem
p132
Vvmlinuz
p133
ss(Vrelations
p134
g114
tp135
(dp136
Vgcc-4.9
p137
Vgcc-4.9 <!stage1>, binutils-hppa64 <!stage1>, gcc-4.9-hppa64 <!stage1>
p138
ss(Vdescription
p139
g31
NV5kc-malta
p140
tp141
(dp142
Vhardware
p143
VMIPS Malta
p144
sVhardware-long
p145
VMIPS Malta boards
p146
ss(Vbase
p147
Vsh4
p148
tp149
(dp150
Vfeaturesets
p151
(lp152
Vnone
p153
asVkernel-arch
p154
Vsh
p155
ss(Vimage
p156
g148
NVsh7785lcr
p157
tp158
(dp159
Vcheck-size
p160
L4194304L
sVrecommends
p161
Vu-boot-tools
p162
ss(Vdescription
p163
g148
NVsh7785lcr
p164
tp165
(dp166
Vhardware
p167
Vsh7785lcr
p168
sVhardware-long
p169
VRenesas SH7785 reference board
p170
ss(Vimage
p171
Vmips
p172
NV4kc-malta
p173
tp174
(dp175
Vconfigs
p176
(lp177
Vkernelarch-mips/config.4kc-malta
p178
ass(Vbase
p179
g31
tp180
(dp181
g151
(lp182
g153
asVkernel-arch
p183
Vmips
p184
ss(Vimage
p185
Vppc64el
p186
tp187
(dp188
Vsuggests
p189
Vmkvmlinuz
p190
sVconfigs
p191
(lp192
sVinstall-stem
p193
Vvmlinux
p194
ss(Vbase
p195
g56
g153
tp196
(dp197
Vimplicit-flavour
p198
I01
sVflavours
p199
(lp200
V5kc-malta
p201
aVocteon
p202
ass(Vimage
p203
g172
NV5kc-malta
p204
tp205
(dp206
Vconfigs
p207
(lp208
Vkernelarch-mips/config.5kc-malta
p209
ass(Vdescription
p210
g31
NVloongson-3
p211
tp212
(dp213
Vhardware
p214
VLoongson 3A/3B
p215
sVhardware-long
p216
VLoongson 3A or 3B based systems (e.g. from Loongson or Lemote)
p217
ss(Vdescription
p218
g56
NVocteon
p219
tp220
(dp221
Vhardware
p222
VOcteon
p223
sVhardware-long
p224
VCavium Networks Octeon
p225
ss(Vdescription
p226
g31
NVocteon
p227
tp228
(dp229
Vhardware
p230
VOcteon
p231
sVhardware-long
p232
VCavium Networks Octeon
p233
ss(Vimage
p234
g31
NV5kc-malta
p235
tp236
(dp237
Vconfigs
p238
(lp239
Vkernelarch-mips/config.5kc-malta
p240
ass(Vdescription
p241
g73
NV686-pae
p242
tp243
(dp244
Vparts
p245
(lp246
Vpae
p247
asVhardware
p248
Vmodern PCs
p249
sVhardware-long
p250
VPCs with one or more processors supporting PAE
p251
ss(Vdescription
p252
g84
NVarmmp
p253
tp254
(dp255
Vhardware
p256
VARMv7 multiplatform compatible SoCs
p257
sVhardware-long
p258
VARMv7 multiplatform kernel. See\u000ahttps://wiki.debian.org/DebianKernel/ARMMP for details of supported\u000aplatforms
p259
ss(g195
g148
g153
tp260
(dp261
g198
I01
sg199
(lp262
Vsh7751r
p263
aVsh7785lcr
p264
ass(Vdescription
p265
g123
NVorion5x
p266
tp267
(dp268
Vhardware
p269
VMarvell Orion
p270
sVhardware-long
p271
VMarvell Orion 5181, 5182 and 5281 based systems (QNAP TS-109/TS-209, etc)
p272
ss(Vdescription
p273
g123
NVkirkwood
p274
tp275
(dp276
Vhardware
p277
VMarvell Kirkwood
p278
sVhardware-long
p279
VMarvell Kirkwood based systems (SheevaPlug, QNAP TS-119/TS-219, etc)
p280
ss(Vbuild
p281
g123
tp282
(dp283
Vimage-file
p284
Varch/arm/boot/zImage
p285
ss(Vrelations
p286
g47
tp287
(dp288
Vheaders%gcc-5
p289
Vlinux-compiler-gcc-5-x86
p290
ss(Vimage
p291
Vm68k
p292
tp293
(dp294
Vsuggests
p295
Vvmelilo, fdutils
p296
sVinstall-stem
p297
Vvmlinuz
p298
ss(Vimage
p299
g47
NVamd64
p300
tp301
(dp302
Vconfigs
p303
(lp304
Vkernelarch-x86/config-arch-64
p305
ass(Vbase
p306
g292
tp307
(dp308
g151
(lp309
g153
asVcflags
p310
V-ffreestanding
p311
sVcompiler
p312
Vgcc-4.8
p313
sVkernel-arch
p314
Vm68k
p315
ss(g195
Vpowerpc
p316
g153
tp317
(dp318
g198
I01
sg199
(lp319
Vpowerpc
p320
aVpowerpc-smp
p321
aVpowerpc64
p322
ass(Vdescription
p323
Valpha
p324
NValpha-smp
p325
tp326
(dp327
Vhardware
p328
VAlpha SMP
p329
sVhardware-long
p330
VDEC Alpha SMP systems with extended kernel start address (Wildfire, Titan, Marvel)
p331
ss(Vdescription
p332
g324
NValpha-generic
p333
tp334
(dp335
Vhardware
p336
VAlpha
p337
sVhardware-long
p338
VDEC Alpha systems with extended kernel start address (Wildfire, Titan, Marvel)
p339
ss(Vbase
p340
g47
g48
tp341
(dp342
Vflavours
p343
(lp344
Vamd64
p345
ass(Vbuild
p346
Vpowerpcspe
p347
tp348
(dp349
Vimage-file
p350
Vvmlinux
p351
ss(Vbase
p352
Vmipsel
p353
tp354
(dp355
g151
(lp356
g153
asVkernel-arch
p357
Vmips
p358
ss(Vdescription
p359
g47
NVamd64
p360
tp361
(dp362
Vhardware
p363
V64-bit PCs
p364
sVhardware-long
p365
VPCs with AMD64, Intel 64 or VIA Nano processors
p366
ss(Vdescription
p367
g353
NV4kc-malta
p368
tp369
(dp370
Vhardware
p371
VMIPS Malta
p372
sVhardware-long
p373
VMIPS Malta boards
p374
ss(g195
g31
g153
tp375
(dp376
g198
I01
sg199
(lp377
V5kc-malta
p378
aVloongson-3
p379
aVocteon
p380
ass(Vimage
p381
g84
NVarmmp-lpae
p382
tp383
(dp384
Vconfigs
p385
(lp386
Varmhf/config.armmp
p387
aVarmhf/config.lpae
p388
ass(Vbuild
p389
g353
tp390
(dp391
Vimage-file
p392
Vvmlinux
p393
ss(Vversion
p394
tp395
(dp396
Vabiname_base
p397
V4.3.0
p398
sVupstream
p399
V4.3
p400
sVabiname
p401
V4.3.0-kali1
p402
sVsource
p403
V4.3.3-5kali4
p404
ss(Vimage
p405
g172
NVocteon
p406
tp407
(dp408
Vconfigs
p409
(lp410
Vkernelarch-mips/config.octeon
p411
ass(g195
g114
g153
tp412
(dp413
g198
I01
sg199
(lp414
Vparisc
p415
aVparisc64-smp
p416
ass(Vdescription
p417
g316
NVpowerpc64
p418
tp419
(dp420
Vhardware
p421
V64-bit PowerPC
p422
ss(Vimage
p423
g172
tp424
(dp425
Vinstall-stem
p426
Vvmlinux
p427
ss(Vimage
p428
g148
tp429
(dp430
Vsuggests
p431
Vfdutils
p432
sVinstall-stem
p433
Vvmlinuz
p434
ss(Vbuild
p435
g292
tp436
(dp437
Vimage-file
p438
Vvmlinux.gz
p439
ss(Vimage
p440
g73
tp441
(dp442
Vbreaks
p443
Vxserver-xorg-input-vmmouse (<< 1:13.0.99)
p444
sVinstall-stem
p445
Vvmlinuz
p446
sVconfigs
p447
(lp448
sVbootloaders
p449
(lp450
Vgrub-pc
p451
aVextlinux
p452
ass(Vdescription
p453
g73
NV686
p454
tp455
(dp456
Vhardware
p457
Volder PCs
p458
sVhardware-long
p459
VPCs with one or more processors not supporting PAE
p460
ss(g195
g39
g153
tp461
(dp462
g198
I01
sg199
(lp463
Vs390x
p464
ass(Vdescription
p465
g84
NVarmmp-lpae
p466
tp467
(dp468
Vhardware
p469
VARMv7 multiplatform compatible SoCs supporting LPAE
p470
sVhardware-long
p471
VARMv7 multiplatform kernel supporting LPAE. See\u000ahttps://wiki.debian.org/DebianKernel/ARMMP for details of supported\u000aplatforms.
p472
ss(Vbuild
p473
g73
tp474
(dp475
Vimage-file
p476
Varch/x86/boot/bzImage
p477
ss(Vdescription
p478
g172
NV4kc-malta
p479
tp480
(dp481
Vhardware
p482
VMIPS Malta
p483
sVhardware-long
p484
VMIPS Malta boards
p485
ss(Vbase
p486
tp487
(dp488
Vcompiler
p489
Vgcc-4.9
p490
sVfeaturesets
p491
(lp492
Vnone
p493
aVrt
p494
asVarches
p495
(lp496
Valpha
p497
aVamd64
p498
aVarm64
p499
aVarmel
p500
aVarmhf
p501
aVhppa
p502
aVi386
p503
aVm68k
p504
aVmips
p505
aVmipsel
p506
aVmips64
p507
aVmips64el
p508
aVor1k
p509
aVpowerpc
p510
aVpowerpcspe
p511
aVppc64
p512
aVppc64el
p513
aVs390
p514
aVs390x
p515
aVsh4
p516
aVsparc
p517
aVsparc64
p518
aVx32
p519
ass(Vdescription
p520
g5
NVsparc64
p521
tp522
(dp523
Vhardware
p524
Vuniprocessor 64-bit UltraSPARC
p525
ss(Vimage
p526
g123
NVorion5x
p527
tp528
(dp529
Vcheck-size-with-dtb
p530
I01
sVcheck-size
p531
L2097080L
sVrecommends
p532
Vu-boot-tools
p533
sVconfigs
p534
(lp535
Varmel/config-reduced
p536
aVarmel/config.orion5x
p537
ass(Vabi
p538
NVrt
p539
tp540
(dp541
Vignore-changes
p542
(lp543
V*
p544
ass(Vbuild
p545
g31
tp546
(dp547
Vimage-file
p548
Vvmlinux
p549
ss(Vbase
p550
g73
tp551
(dp552
Vcompiler
p553
Vgcc-5
p554
sVfeaturesets
p555
(lp556
Vnone
p557
aVrt
p558
asVkernel-arch
p559
Vx86
p560
ss(Vimage
p561
Vppc64
p562
NVpowerpc64
p563
tp564
(dp565
Vconfigs
p566
(lp567
Vkernelarch-powerpc/config-arch-64
p568
aVkernelarch-powerpc/config-arch-64-be
p569
ass(Vimage
p570
g64
NVarm64
p571
tp572
(dp573
s(Vdescription
p574
g186
NVpowerpc64le
p575
tp576
(dp577
Vhardware
p578
VLittle-endian 64-bit PowerPC
p579
ss(Vimage
p580
g316
NVpowerpc64
p581
tp582
(dp583
Vconfigs
p584
(lp585
Vkernelarch-powerpc/config-arch-64
p586
aVkernelarch-powerpc/config-arch-64-be
p587
ass(Vdescription
p588
g353
NVloongson-3
p589
tp590
(dp591
Vhardware
p592
VLoongson 3A/3B
p593
sVhardware-long
p594
VLoongson 3A or 3B based systems (e.g. from Loongson or Lemote)
p595
ss(g195
g84
g153
tp596
(dp597
g198
I01
sg199
(lp598
Varmmp
p599
aVarmmp-lpae
p600
ass(Vdescription
p601
g353
NV5kc-malta
p602
tp603
(dp604
Vhardware
p605
VMIPS Malta (64-bit)
p606
sVhardware-long
p607
VMIPS Malta boards (64-bit)
p608
ss(Vdescription
p609
g123
NVversatile
p610
tp611
(dp612
Vhardware
p613
VVersatile
p614
sVhardware-long
p615
VVersatile systems (PB, AB, Qemu)
p616
ss(Vbase
p617
g73
Vnone
p618
tp619
(dp620
Vflavours
p621
(lp622
V686
p623
aV686-pae
p624
ass(Vbase
p625
g114
NVparisc64-smp
p626
tp627
(dp628
Vcflags
p629
V-fno-cse-follow-jumps
p630
sVoverride-host-type
p631
Vhppa64-linux-gnu
p632
ss(Vrelations
p633
g84
tp634
(dp635
Vheaders%gcc-4.9
p636
Vlinux-compiler-gcc-4.9-arm
p637
ss(Vdescription
p638
g353
NVloongson-2e
p639
tp640
(dp641
Vhardware
p642
VLoongson 2E
p643
sVhardware-long
p644
VLemote Loongson 2E systems
p645
ss(Vbuild
p646
g64
tp647
(dp648
Vdebug-info
p649
I01
sVimage-file
p650
Varch/arm64/boot/Image
p651
ss(Vimage
p652
g347
tp653
(dp654
Vsuggests
p655
Vmkvmlinuz
p656
sVinstall-stem
p657
Vvmlinux
p658
ss(Vbuild
p659
g148
tp660
(dp661
Vimage-file
p662
Varch/sh/boot/zImage
p663
ss(Vabi
p664
tp665
(dp666
Vignore-changes
p667
(lp668
Vmodule:net/dccp/dccp
p669
aVfl6_*
p670
aVinet_sk_diag_fill
p671
aVip6_append_data
p672
aVip6_datagram_send_ctl
p673
aVip6_xmit
p674
aVipv6_dup_options
p675
aVipv6_fixup_options
p676
aVipv6_push_nfrag_opts
p677
aVtcp_cong_avoid_ai
p678
aVtcp_slow_start
p679
aVpin_is_valid
p680
aVpinctrl_*
p681
asVabiname
p682
Vkali1
p683
ss(Vbase
p684
g172
tp685
(dp686
g151
(lp687
g153
asVkernel-arch
p688
Vmips
p689
ss(Vbase
p690
g347
tp691
(dp692
g151
(lp693
g153
asVkernel-arch
p694
Vpowerpc
p695
ss(Vimage
p696
g114
tp697
(dp698
Vsuggests
p699
Vpalo
p700
sVinstall-stem
p701
Vvmlinux
p702
ss(Vbase
p703
NVrt
p704
tp705
(dp706
Venabled
p707
I00
ss(Vimage
p708
g316
tp709
(dp710
Vsuggests
p711
Vmkvmlinuz
p712
sVconfigs
p713
(lp714
sVinstall-stem
p715
Vvmlinux
p716
ss(Vdescription
p717
g292
NVm68k
p718
tp719
(dp720
Vhardware
p721
VMotorola MC68020+ family
p722
ss(Vimage
p723
g353
tp724
(dp725
Vinstall-stem
p726
Vvmlinux
p727
ss(Vdescription
p728
g347
tp729
(dp730
Vhardware
p731
V32-bit PowerPC with SPE (instead of AltiVec) with SMP support
p732
ss(Vdescription
p733
g316
NVpowerpc
p734
tp735
(dp736
Vhardware
p737
Vuniprocessor 32-bit PowerPC
p738
ss(Vbase
p739
g64
Vnone
p740
tp741
(dp742
Vflavours
p743
(lp744
Varm64
p745
ass(Vdescription
p746
g73
g618
V686-pae
p747
tp748
(dp749
Vparts
p750
(lp751
Vxen
p752
ass(Vbuild
p753
g186
tp754
(dp755
Vimage-file
p756
Vvmlinux
p757
ss(Vbase
p758
g5
tp759
(dp760
g151
(lp761
g153
asVkernel-arch
p762
Vsparc
p763
ss(Vbuild
p764
g73
NV686-pae
p765
tp766
(dp767
Vdebug-info
p768
I01
ss(Vbase
p769
g73
Vrt
p770
tp771
(dp772
Vflavours
p773
(lp774
V686-pae
p775
ass(Vdescription
p776
g114
NVparisc
p777
tp778
(dp779
Vhardware
p780
V32-bit PA-RISC
p781
sVhardware-long
p782
VHP PA-RISC 32-bit systems with max 4 GB RAM
p783
ss(g195
g562
g153
tp784
(dp785
g198
I01
sg199
(lp786
Vpowerpc64
p787
ass(g195
g123
g153
tp788
(dp789
g198
I01
sg199
(lp790
Vkirkwood
p791
aVorion5x
p792
aVversatile
p793
ass(Vbase
p794
g324
tp795
(dp796
g151
(lp797
g153
asVkernel-arch
p798
Valpha
p799
ss(Vimage
p800
g39
tp801
(dp802
Vinstall-stem
p803
Vvmlinuz
p804
sVconfigs
p805
(lp806
sVbootloaders
p807
(lp808
Vs390-tools
p809
ass(Vimage
p810
g56
NVocteon
p811
tp812
(dp813
Vconfigs
p814
(lp815
Vkernelarch-mips/config.octeon
p816
ass(Vbuild
p817
g47
tp818
(dp819
Vdebug-info
p820
I01
sVimage-file
p821
Varch/x86/boot/bzImage
p822
ss(Vbuild
p823
g114
tp824
(dp825
Vimage-file
p826
Vvmlinux
p827
ss(Vdescription
p828
g353
NVloongson-2f
p829
tp830
(dp831
Vhardware
p832
VLoongson 2F
p833
sVhardware-long
p834
VLemote Loongson 2F systems
p835
ss(g195
g292
g153
tp836
(dp837
g198
I01
sg199
(lp838
Vm68k
p839
ass(Vbase
p840
g39
tp841
(dp842
g151
(lp843
g153
asVkernel-arch
p844
Vs390
p845
ss(Vimage
p846
g5
NVsparc64-smp
p847
tp848
(dp849
Vconfigs
p850
(lp851
Vkernelarch-sparc/config-smp
p852
ass(g195
g5
g153
tp853
(dp854
g198
I01
sg199
(lp855
Vsparc64
p856
aVsparc64-smp
p857
ass(Vdescription
p858
g316
NVpowerpc-smp
p859
tp860
(dp861
Vhardware
p862
Vmultiprocessor 32-bit PowerPC
p863
ss(Vdescription
p864
g56
NV5kc-malta
p865
tp866
(dp867
Vhardware
p868
VMIPS Malta
p869
sVhardware-long
p870
VMIPS Malta boards
p871
ss(Vimage
p872
g353
NVloongson-2f
p873
tp874
(dp875
Vconfigs
p876
(lp877
Vkernelarch-mips/config.loongson-2f
p878
asVrecommends
p879
Vlibc6-loongson2f
p880
ss(Vimage
p881
g324
tp882
(dp883
Vsuggests
p884
Vaboot, fdutils
p885
sVinstall-stem
p886
Vvmlinuz
p887
ss(Vimage
p888
g353
NVloongson-3
p889
tp890
(dp891
Vconfigs
p892
(lp893
Vkernelarch-mips/config.loongson-3
p894
ass(Vdescription
p895
g148
NVsh7751r
p896
tp897
(dp898
Vhardware
p899
Vsh7751r
p900
sVhardware-long
p901
VRenesas SH7751R R2D plus board
p902
ss(Vbase
p903
g186
tp904
(dp905
g151
(lp906
g153
asVkernel-arch
p907
Vpowerpc
p908
ss(Vbuild
p909
g324
tp910
(dp911
Vimage-file
p912
Varch/alpha/boot/vmlinux.gz
p913
ss(Vbase
p914
Vx32
p915
tp916
(dp917
Vkernel-arch
p918
Vx86
p919
sVfeaturesets
p920
(lp921
ss(g195
g186
g153
tp922
(dp923
g198
I01
sg199
(lp924
Vpowerpc64le
p925
ass(Vdescription
p926
g172
NVocteon
p927
tp928
(dp929
Vhardware
p930
VOcteon
p931
sVhardware-long
p932
VCavium Networks Octeon
p933
ss(Vrelations
p934
g123
tp935
(dp936
Vheaders%gcc-4.9
p937
Vlinux-compiler-gcc-4.9-arm
p938
ss(Vrelations
p939
g73
tp940
(dp941
Vheaders%gcc-5
p942
Vlinux-compiler-gcc-5-x86
p943
ss(Vbuild
p944
g562
tp945
(dp946
Vimage-file
p947
Vvmlinux
p948
ss(Vbase
p949
Vsparc
p950
tp951
(dp952
Vkernel-arch
p953
Vsparc
p954
sVfeaturesets
p955
(lp956
ss(Vbuild
p957
g316
tp958
(dp959
Vimage-file
p960
Vvmlinux
p961
ss(Vbase
p962
Vor1k
p963
tp964
(dp965
Vkernel-arch
p966
Vopenrisc
p967
sVfeaturesets
p968
(lp969
ss(Vimage
p970
g5
NVsparc64
p971
tp972
(dp973
Vconfigs
p974
(lp975
Vkernelarch-sparc/config-up
p976
ass(Vimage
p977
g562
tp978
(dp979
Vsuggests
p980
Vmkvmlinuz
p981
sVconfigs
p982
(lp983
sVinstall-stem
p984
Vvmlinux
p985
ss(Vimage
p986
tp987
(dp988
Vinitramfs-generators
p989
(lp990
Vinitramfs-tools
p991
aVinitramfs-fallback
p992
asVtype
p993
Vplain
p994
ss(Vbuild
p995
g172
tp996
(dp997
Vimage-file
p998
Vvmlinux
p999
ss(Vdescription
p1000
g73
tp1001
(dp1002
Vpart-long-pae
p1003
VThis kernel requires PAE (Physical Address Extension).\u000aThis feature is supported by the Intel Pentium Pro/II/III/4/4M/D, Xeon,\u000aCore and Atom; AMD Geode NX, Athlon (K7), Duron, Opteron, Sempron,\u000aTurion or Phenom; Transmeta Efficeon; VIA C7; and some other processors.
p1004
ss(Vbase
p1005
g84
tp1006
(dp1007
g151
(lp1008
g153
asVkernel-arch
p1009
Varm
p1010
ss(Vbase
p1011
g316
tp1012
(dp1013
g151
(lp1014
g153
asVkernel-arch
p1015
Vpowerpc
p1016
ss(Vbase
p1017
g562
tp1018
(dp1019
g151
(lp1020
g153
asVkernel-arch
p1021
Vpowerpc
p1022
ss(g195
g347
g153
tp1023
(dp1024
g198
I01
sg199
(lp1025
Vpowerpcspe
p1026
ass(Vimage
p1027
g73
NV686-pae
p1028
tp1029
(dp1030
Vconfigs
p1031
(lp1032
Vkernelarch-x86/config-arch-32
p1033
aVi386/config.686-pae
p1034
asVrecommends
p1035
Vlibc6-i686
p1036
ss(Vbase
p1037
g47
Vrt
p1038
tp1039
(dp1040
Vflavours
p1041
(lp1042
Vamd64
p1043
ass(Vimage
p1044
g353
NV5kc-malta
p1045
tp1046
(dp1047
Vconfigs
p1048
(lp1049
Vkernelarch-mips/config.5kc-malta
p1050
ass(Vxen
p1051
g47
g48
Vamd64
p1052
tp1053
(dp1054
Vflavours
p1055
(lp1056
Vamd64
p1057
ass(Vimage
p1058
g31
tp1059
(dp1060
Vinstall-stem
p1061
Vvmlinux
p1062
ss(Vbase
p1063
Vs390
p1064
tp1065
(dp1066
Vkernel-arch
p1067
Vs390
p1068
sVfeaturesets
p1069
(lp1070
ss(Vimage
p1071
g353
NV4kc-malta
p1072
tp1073
(dp1074
Vconfigs
p1075
(lp1076
Vkernelarch-mips/config.4kc-malta
p1077
ass(Vimage
p1078
g5
tp1079
(dp1080
Vsuggests
p1081
Vsilo, fdutils
p1082
sVconfigs
p1083
(lp1084
sVinstall-stem
p1085
Vvmlinuz
p1086
ss(g195
g324
g153
tp1087
(dp1088
g198
I01
sg199
(lp1089
Valpha-generic
p1090
aValpha-smp
p1091
ass(g195
g172
g153
tp1092
(dp1093
g198
I01
sg199
(lp1094
V4kc-malta
p1095
aV5kc-malta
p1096
aVocteon
p1097
ass(Vbase
p1098
g56
tp1099
(dp1100
g151
(lp1101
g153
asVkernel-arch
p1102
Vmips
p1103
ss(Vbase
p1104
g123
tp1105
(dp1106
g151
(lp1107
g153
asVkernel-arch
p1108
Varm
p1109
ss(Vdescription
p1110
g64
NVarm64
p1111
tp1112
(dp1113
Vhardware
p1114
V64-bit ARMv8 machines
p1115
ss(Vdescription
p1116
g172
NV5kc-malta
p1117
tp1118
(dp1119
Vhardware
p1120
VMIPS Malta (64-bit)
p1121
sVhardware-long
p1122
VMIPS Malta boards (64-bit)
p1123
ss(Vbase
p1124
g47
tp1125
(dp1126
Vcompiler
p1127
Vgcc-5
p1128
sVfeaturesets
p1129
(lp1130
Vnone
p1131
aVrt
p1132
asVkernel-arch
p1133
Vx86
p1134
ss(Vimage
p1135
g316
NVpowerpc-smp
p1136
tp1137
(dp1138
Vconfigs
p1139
(lp1140
Vpowerpc/config.powerpc
p1141
aVpowerpc/config.powerpc-smp
p1142
ass(Vimage
p1143
g64
tp1144
(dp1145
Vinstall-stem
p1146
Vvmlinuz
p1147
ss(Vimage
p1148
g186
NVpowerpc64le
p1149
tp1150
(dp1151
Vconfigs
p1152
(lp1153
Vkernelarch-powerpc/config-arch-64
p1154
aVkernelarch-powerpc/config-arch-64-le
p1155
ass(Vbuild
p1156
g39
NVs390x
p1157
tp1158
(dp1159
Vdebug-info
p1160
I01
ss(Vimage
p1161
g123
NVkirkwood
p1162
tp1163
(dp1164
Vcheck-size-with-dtb
p1165
I01
sVbreaks
p1166
Vflash-kernel (<< 3.37~)
p1167
sVcheck-size
p1168
L2097080L
sVrecommends
p1169
Vu-boot-tools
p1170
sVconfigs
p1171
(lp1172
Varmel/config-reduced
p1173
aVarmel/config.kirkwood
p1174
ass(Vbase
p1175
g114
tp1176
(dp1177
g151
(lp1178
g153
asVkernel-arch
p1179
Vparisc
p1180
ss(Vdescription
p1181
g5
NVsparc64-smp
p1182
tp1183
(dp1184
Vhardware
p1185
Vmultiprocessor 64-bit UltraSPARC
p1186
ss(Vimage
p1187
g56
tp1188
(dp1189
Vinstall-stem
p1190
Vvmlinux
p1191
ss(g195
g353
g153
tp1192
(dp1193
g198
I01
sg199
(lp1194
V4kc-malta
p1195
aV5kc-malta
p1196
aVloongson-2e
p1197
aVloongson-2f
p1198
aVloongson-3
p1199
ass(Vbuild
p1200
g56
tp1201
(dp1202
Vimage-file
p1203
Vvmlinux
p1204
ss(Vdescription
p1205
Ng539
tp1206
(dp1207
Vpart-long-rt
p1208
VThis kernel includes the PREEMPT_RT realtime patch set.
p1209
sVparts
p1210
(lp1211
Vrt
p1212
asVpart-short-rt
p1213
VPREEMPT_RT
p1214
ss(Vdescription
p1215
g39
NVs390x
p1216
tp1217
(dp1218
Vhardware
p1219
VIBM zSeries
p1220
ss(Vdescription
p1221
g562
NVpowerpc64
p1222
tp1223
(dp1224
Vhardware
p1225
V64-bit PowerPC
p1226
ss(Vbuild
p1227
g39
tp1228
(dp1229
Vimage-file
p1230
Varch/s390/boot/image
p1231
ss(Vimage
p1232
g353
NVloongson-2e
p1233
tp1234
(dp1235
Vconfigs
p1236
(lp1237
Vkernelarch-mips/config.loongson-2e
p1238
ass(Vimage
p1239
g31
NVloongson-3
p1240
tp1241
(dp1242
Vconfigs
p1243
(lp1244
Vkernelarch-mips/config.loongson-3
p1245
ass(Vrelations
p1246
g39
tp1247
(dp1248
Vheaders%gcc-4.9
p1249
Vlinux-compiler-gcc-4.9-s390
p1250
sstp1251
Rp1252
.