cdebian_linux.config
ConfigCore
p0
(tRp1
(Vabi
p2
tp3
(dp4
Vabiname
p5
Vkali2
p6
sVignore-changes
p7
(lp8
V__cpuhp_*
p9
aV__xive_vm_h_*
p10
aVbpf_analyzer
p11
aVcxl_*
p12
aVdax_flush
p13
aVieee80211_nullfunc_get
p14
aVinet_add_protocol
p15
aVinet_del_protocol
p16
aViommu_device_*
p17
aVkvm_async_pf_task_wait
p18
aVkvmppc_*
p19
aVmm_iommu_*
p20
aVmv_mbus_*
p21
aVperf_*
p22
aVregister_cxl_calls
p23
aVregister_key_type
p24
aVunregister_cxl_calls
p25
aV*_hw_breakpoint
p26
aVmodule:arch/x86/kvm/*
p27
aVmodule:drivers/crypto/ccp/*
p28
aVmodule:drivers/hv/*
p29
aVmodule:drivers/iio/common/hid-sensors/*
p30
aVmodule:drivers/iio/common/st_sensors/**
p31
aVmodule:drivers/mtd/nand/*
p32
aVmodule:drivers/net/wireless/**
p33
aVmodule:drivers/nvdimm/*
p34
aVmodule:drivers/power/supply/bq27xxx_battery
p35
aVmodule:drivers/scsi/cxgbi/*
p36
aVmodule:drivers/scsi/libiscs*
p37
aVmodule:drivers/scsi/qla2xxx/qla2xxx
p38
aVmodule:drivers/scsi/ufs/*
p39
aVmodule:drivers/target/**
p40
aVmodule:drivers/usb/chipidea/**
p41
aVmodule:drivers/usb/gadget/**
p42
aVmodule:drivers/usb/host/**
p43
aVmodule:drivers/usb/musb/**
p44
aVmodule:fs/nfs/**
p45
aVmodule:net/ceph/libceph
p46
aVmodule:net/l2tp/**
p47
aVmodule:net/rxrpc/rxrpc
p48
aVmodule:sound/core/seq/**
p49
aVmodule:sound/firewire/snd-firewire-lib
p50
aVbtree_*
p51
aVvisitor*
p52
aVcan_rx_register
p53
aVip6_xmit
p54
aVmodule:net/dccp/dccp
p55
aVmodule:net/rds/rds
p56
aVdevfreq_*
p57
aVdevm_devfreq_*
p58
aVupdate_devfreq
p59
aVmodule:drivers/infiniband/**
p60
aVacpi_ec_add_query_handler
p61
aVacpi_ec_remove_query_handler
p62
aVfirst_ec
p63
aVdebugfs_create_automount
p64
aVmodule:drivers/iio/imu/inv_mpu6050/*
p65
ass(Vbase
p66
tp67
(dp68
Varches
p69
(lp70
Valpha
p71
aVamd64
p72
aVarm64
p73
aVarm64ilp32
p74
aVarmel
p75
aVarmhf
p76
aVhppa
p77
aVi386
p78
aVm68k
p79
aVmips
p80
aVmips64
p81
aVmips64el
p82
aVmips64r6
p83
aVmips64r6el
p84
aVmipsel
p85
aVmipsn32
p86
aVmipsn32el
p87
aVmipsn32r6
p88
aVmipsn32r6el
p89
aVmipsr6
p90
aVmipsr6el
p91
aVpowerpc
p92
aVpowerpcspe
p93
aVppc64
p94
aVppc64el
p95
aVs390
p96
aVs390x
p97
aVsh3
p98
aVsh4
p99
aVsparc
p100
aVsparc64
p101
aVtilegx
p102
aVx32
p103
asVcompiler
p104
Vgcc-7
p105
sVfeaturesets
p106
(lp107
Vnone
p108
aVrt
p109
ass(Vbuild
p110
tp111
(dp112
Vdebug-info
p113
I01
sVsigned-modules
p114
I00
ss(Vbase
p115
NVrt
p116
tp117
(dp118
Venabled
p119
I00
ss(Vdescription
p120
tp121
(dp122
Vpart-long-up
p123
VThis kernel is not suitable for SMP (multi-processor,\u000amulti-core or hyper-threaded) systems.
p124
ss(Vimage
p125
tp126
(dp127
Vinitramfs-generators
p128
(lp129
Vinitramfs-tools
p130
aVinitramfs-fallback
p131
asVrecommends
p132
Vapparmor
p133
ss(Vrelations
p134
tp135
(dp136
Vgcc-7
p137
Vgcc-7 <!stage1 !cross>, gcc-7-@gnu-type-package@ <!stage1 cross>
p138
sVinitramfs-fallback
p139
Vlinux-initramfs-tool
p140
sVinitramfs-tools
p141
Vinitramfs-tools (>= 0.120+deb8u2)
p142
ss(Vbase
p143
Valpha
p144
tp145
(dp146
Vkernel-arch
p147
Valpha
p148
sVfeaturesets
p149
(lp150
Vnone
p151
ass(Vbuild
p152
g144
tp153
(dp154
Vimage-file
p155
Varch/alpha/boot/vmlinux.gz
p156
sVsigned-modules
p157
I00
ss(Vimage
p158
g144
tp159
(dp160
Vsuggests
p161
Vaboot, fdutils
p162
sVinstall-stem
p163
Vvmlinuz
p164
ss(Vdescription
p165
g144
NValpha-generic
p166
tp167
(dp168
Vhardware
p169
VAlpha
p170
sVhardware-long
p171
VDEC Alpha systems with extended kernel start address (Wildfire, Titan, Marvel)
p172
ss(Vdescription
p173
g144
NValpha-smp
p174
tp175
(dp176
Vhardware
p177
VAlpha SMP
p178
sVhardware-long
p179
VDEC Alpha SMP systems with extended kernel start address (Wildfire, Titan, Marvel)
p180
ss(Vbase
p181
g144
g151
tp182
(dp183
Vflavours
p184
(lp185
Valpha-generic
p186
aValpha-smp
p187
asVimplicit-flavour
p188
I01
ss(Vbase
p189
Vamd64
p190
tp191
(dp192
Vfeaturesets
p193
(lp194
Vnone
p195
aVrt
p196
asVkernel-arch
p197
Vx86
p198
ss(Vbuild
p199
g190
tp200
(dp201
Vdebug-info
p202
I01
sVimage-file
p203
Varch/x86/boot/bzImage
p204
sVvdso
p205
I01
sVsigned-modules
p206
I00
ss(Vimage
p207
g190
tp208
(dp209
Vbootloaders
p210
(lp211
Vgrub-pc
p212
aVgrub-efi-amd64
p213
aVextlinux
p214
asVinstall-stem
p215
Vvmlinuz
p216
sVbreaks
p217
Vxserver-xorg-input-vmmouse (<< 1:13.0.99)
p218
ss(Vrelations
p219
g190
tp220
(dp221
Vgcc-7
p222
Vgcc-7 (>= 7.2.0-20~) <!stage1 !cross>, gcc-7-x86-64-linux-gnu (>= 7.2.0-20~) <!stage1 cross>
p223
sVheaders%gcc-7
p224
Vlinux-compiler-gcc-7-x86 (>= 4.14.17-1~)
p225
ss(Vdescription
p226
g190
NVamd64
p227
tp228
(dp229
Vhardware
p230
V64-bit PCs
p231
sVhardware-long
p232
VPCs with AMD64, Intel 64 or VIA Nano processors
p233
ss(Vdescription
p234
g190
NVcloud-amd64
p235
tp236
(dp237
Vhardware
p238
Vx86-64 cloud
p239
sVhardware-long
p240
VAmazon EC2, Google Compute Engine and Microsoft Azure cloud platforms
p241
ss(Vbase
p242
g190
Vnone
p243
tp244
(dp245
Vflavours
p246
(lp247
Vamd64
p248
aVcloud-amd64
p249
ass(Vbase
p250
g190
Vrt
p251
tp252
(dp253
Vflavours
p254
(lp255
Vamd64
p256
ass(Vbase
p257
Varm64
p258
tp259
(dp260
Vkernel-arch
p261
Varm64
p262
sVfeaturesets
p263
(lp264
Vnone
p265
ass(Vbuild
p266
g258
tp267
(dp268
Vdebug-info
p269
I01
sVimage-file
p270
Varch/arm64/boot/Image
p271
sVvdso
p272
I01
sVsigned-modules
p273
I00
ss(Vimage
p274
g258
tp275
(dp276
Vinstall-stem
p277
Vvmlinuz
p278
sVbreaks
p279
Vlibmozjs185-1.0, libmozjs-24-0 (<< 24.2.0-5.1~)
p280
ss(Vdescription
p281
g258
NVarm64
p282
tp283
(dp284
Vhardware
p285
V64-bit ARMv8 machines
p286
ss(Vimage
p287
g258
NVarm64
p288
tp289
(dp290
s(Vbase
p291
g258
Vnone
p292
tp293
(dp294
Vflavours
p295
(lp296
Varm64
p297
ass(Vbase
p298
Varm64ilp32
p299
tp300
(dp301
Vkernel-arch
p302
Varm64
p303
sVfeaturesets
p304
(lp305
ss(Vbase
p306
Varmel
p307
tp308
(dp309
Vflavours
p310
(lp311
sVkernel-arch
p312
Varm
p313
sVfeaturesets
p314
(lp315
ss(Vbuild
p316
g307
tp317
(dp318
Vimage-file
p319
Varch/arm/boot/zImage
p320
sVsigned-modules
p321
I00
sVuncompressed-image-file
p322
Varch/arm/boot/Image
p323
ss(Vimage
p324
g307
tp325
(dp326
Vinstall-stem
p327
Vvmlinuz
p328
ss(Vrelations
p329
g307
tp330
(dp331
Vheaders%gcc-7
p332
Vlinux-compiler-gcc-7-arm
p333
ss(Vdescription
p334
g307
NVmarvell
p335
tp336
(dp337
Vhardware
p338
VMarvell Kirkwood/Orion
p339
sVhardware-long
p340
VMarvell Kirkwood based systems (SheevaPlug, QNAP TS-119/TS-219, etc)\u000aand Orion 5181, 5182 and 5281 based systems (QNAP TS-109/TS-209, etc)
p341
ss(Vimage
p342
g307
NVmarvell
p343
tp344
(dp345
Vrecommends
p346
Vu-boot-tools
p347
sVcheck-size
p348
L2097080L
sVcheck-size-with-dtb
p349
I01
sVcheck-uncompressed-size
p350
L7340032L
sVbreaks
p351
Vflash-kernel (<< 3.57~)
p352
ss(Vbase
p353
Varmhf
p354
tp355
(dp356
Vkernel-arch
p357
Varm
p358
sg149
(lp359
g151
ass(Vbuild
p360
g354
tp361
(dp362
Vimage-file
p363
Varch/arm/boot/zImage
p364
sVvdso
p365
I01
sVsigned-modules
p366
I00
ss(Vimage
p367
g354
tp368
(dp369
Vinstall-stem
p370
Vvmlinuz
p371
ss(Vrelations
p372
g354
tp373
(dp374
Vheaders%gcc-7
p375
Vlinux-compiler-gcc-7-arm
p376
ss(Vdescription
p377
g354
NVarmmp
p378
tp379
(dp380
Vhardware
p381
VARMv7 multiplatform compatible SoCs
p382
sVhardware-long
p383
VARMv7 multiplatform kernel. See\u000ahttps://wiki.debian.org/DebianKernel/ARMMP for details of supported\u000aplatforms
p384
ss(Vdescription
p385
g354
NVarmmp-lpae
p386
tp387
(dp388
Vhardware
p389
VARMv7 multiplatform compatible SoCs supporting LPAE
p390
sVhardware-long
p391
VARMv7 multiplatform kernel supporting LPAE. See\u000ahttps://wiki.debian.org/DebianKernel/ARMMP for details of supported\u000aplatforms.
p392
ss(g181
g354
g151
tp393
(dp394
g184
(lp395
Varmmp
p396
aVarmmp-lpae
p397
asg188
I01
ss(Vbase
p398
Vhppa
p399
tp400
(dp401
Vkernel-arch
p402
Vparisc
p403
sg149
(lp404
g151
ass(Vbuild
p405
g399
tp406
(dp407
Vimage-file
p408
Vvmlinux
p409
sVsigned-modules
p410
I00
ss(Vimage
p411
g399
tp412
(dp413
Vsuggests
p414
Vpalo
p415
sVinstall-stem
p416
Vvmlinux
p417
ss(Vdescription
p418
g399
NVparisc
p419
tp420
(dp421
Vhardware
p422
V32-bit PA-RISC
p423
sVhardware-long
p424
VHP PA-RISC 32-bit systems with max 4 GB RAM
p425
ss(Vbase
p426
g399
NVparisc64-smp
p427
tp428
(dp429
Vcflags
p430
V-fno-cse-follow-jumps
p431
sVoverride-host-type
p432
Vhppa64-linux-gnu
p433
ss(Vdescription
p434
g399
NVparisc64-smp
p435
tp436
(dp437
Vhardware
p438
Vmultiprocessor 64-bit PA-RISC
p439
sVhardware-long
p440
VHP PA-RISC 64-bit SMP systems with support for more than 4 GB RAM
p441
ss(Vrelations
p442
g399
tp443
(dp444
Vgcc-7
p445
Vgcc-7 <!stage1 !cross>, binutils-hppa64-linux-gnu <!stage1 !cross>, gcc-7-hppa64-linux-gnu <!stage1 !cross>, gcc-7-hppa-linux-gnu <!stage1 cross>, binutils-hppa64-linux-gnu <!stage1 cross>, gcc-7-hppa64-linux-gnu <!stage1 cross>
p446
ss(g181
g399
g151
tp447
(dp448
g184
(lp449
Vparisc
p450
aVparisc64-smp
p451
asg188
I01
ss(Vbase
p452
Vi386
p453
tp454
(dp455
Vfeaturesets
p456
(lp457
Vnone
p458
aVrt
p459
asVkernel-arch
p460
Vx86
p461
ss(Vbuild
p462
g453
tp463
(dp464
Vimage-file
p465
Varch/x86/boot/bzImage
p466
sVvdso
p467
I01
sVsigned-modules
p468
I00
ss(Vdescription
p469
g453
tp470
(dp471
Vpart-long-pae
p472
VThis kernel requires PAE (Physical Address Extension).\u000aThis feature is supported by the Intel Pentium Pro/II/III/4/4M/D, Xeon,\u000aCore and Atom; AMD Geode NX, Athlon (K7), Duron, Opteron, Sempron,\u000aTurion or Phenom; Transmeta Efficeon; VIA C7; and some other processors.
p473
ss(Vimage
p474
g453
tp475
(dp476
Vbootloaders
p477
(lp478
Vgrub-pc
p479
aVextlinux
p480
asVinstall-stem
p481
Vvmlinuz
p482
sVbreaks
p483
Vxserver-xorg-input-vmmouse (<< 1:13.0.99)
p484
ss(Vrelations
p485
g453
tp486
(dp487
Vgcc-7
p488
Vgcc-7 (>= 7.2.0-20~) <!stage1 !cross>, gcc-7-i686-linux-gnu (>= 7.2.0-20~) <!stage1 cross>
p489
sVheaders%gcc-7
p490
Vlinux-compiler-gcc-7-x86 (>= 4.14.17-1~)
p491
ss(Vdescription
p492
g453
NV686
p493
tp494
(dp495
Vhardware
p496
Volder PCs
p497
sVhardware-long
p498
VPCs with one or more processors not supporting PAE
p499
ss(Vbuild
p500
g453
NV686-pae
p501
tp502
(dp503
Vdebug-info
p504
I01
ss(Vdescription
p505
g453
NV686-pae
p506
tp507
(dp508
Vhardware
p509
Vmodern PCs
p510
sVhardware-long
p511
VPCs with one or more processors supporting PAE
p512
sVparts
p513
(lp514
Vpae
p515
ass(Vbase
p516
g453
Vnone
p517
tp518
(dp519
Vflavours
p520
(lp521
V686
p522
aV686-pae
p523
ass(Vbase
p524
g453
Vrt
p525
tp526
(dp527
Vflavours
p528
(lp529
V686-pae
p530
ass(Vbase
p531
Vm68k
p532
tp533
(dp534
Vcflags
p535
V-ffreestanding
p536
sVkernel-arch
p537
Vm68k
p538
sg149
(lp539
g151
ass(Vbuild
p540
g532
tp541
(dp542
Vimage-file
p543
Vvmlinux
p544
sVsigned-modules
p545
I00
ss(Vimage
p546
g532
tp547
(dp548
Vsuggests
p549
Vvmelilo, fdutils
p550
sVinstall-stem
p551
Vvmlinux
p552
ss(Vdescription
p553
g532
NVm68k
p554
tp555
(dp556
Vhardware
p557
VMotorola MC68020+ family
p558
ss(g181
g532
g151
tp559
(dp560
g184
(lp561
Vm68k
p562
asg188
I01
ss(Vbase
p563
Vmips
p564
tp565
(dp566
Vkernel-arch
p567
Vmips
p568
sg149
(lp569
g151
ass(Vbuild
p570
g564
tp571
(dp572
Vimage-file
p573
Vvmlinux
p574
sVsigned-modules
p575
I00
ss(Vimage
p576
g564
tp577
(dp578
Vinstall-stem
p579
Vvmlinux
p580
ss(Vdescription
p581
g564
NV4kc-malta
p582
tp583
(dp584
Vhardware
p585
VMIPS Malta
p586
sVhardware-long
p587
VMIPS Malta boards
p588
ss(Vimage
p589
g564
NV4kc-malta
p590
tp591
(dp592
Vconfigs
p593
(lp594
Vkernelarch-mips/config.malta
p595
aVkernelarch-mips/config.mips32r2
p596
ass(Vdescription
p597
g564
NV5kc-malta
p598
tp599
(dp600
Vhardware
p601
VMIPS Malta (64-bit)
p602
sVhardware-long
p603
VMIPS Malta boards (64-bit)
p604
ss(Vimage
p605
g564
NV5kc-malta
p606
tp607
(dp608
Vconfigs
p609
(lp610
Vkernelarch-mips/config.malta
p611
aVkernelarch-mips/config.mips64r2
p612
ass(Vdescription
p613
g564
NVocteon
p614
tp615
(dp616
Vhardware
p617
VOcteon
p618
sVhardware-long
p619
VCavium Networks Octeon
p620
ss(Vimage
p621
g564
NVocteon
p622
tp623
(dp624
Vconfigs
p625
(lp626
Vkernelarch-mips/config.octeon
p627
ass(g181
g564
g151
tp628
(dp629
g184
(lp630
V4kc-malta
p631
aV5kc-malta
p632
aVocteon
p633
asg188
I01
ss(Vbase
p634
Vmips64
p635
tp636
(dp637
Vkernel-arch
p638
Vmips
p639
sg149
(lp640
g151
ass(Vbuild
p641
g635
tp642
(dp643
Vimage-file
p644
Vvmlinux
p645
sVsigned-modules
p646
I00
ss(Vimage
p647
g635
tp648
(dp649
Vinstall-stem
p650
Vvmlinux
p651
ss(Vdescription
p652
g635
NV5kc-malta
p653
tp654
(dp655
Vhardware
p656
VMIPS Malta
p657
sVhardware-long
p658
VMIPS Malta boards
p659
ss(Vimage
p660
g635
NV5kc-malta
p661
tp662
(dp663
Vconfigs
p664
(lp665
Vkernelarch-mips/config.malta
p666
aVkernelarch-mips/config.mips64r2
p667
ass(Vdescription
p668
g635
NVocteon
p669
tp670
(dp671
Vhardware
p672
VOcteon
p673
sVhardware-long
p674
VCavium Networks Octeon
p675
ss(Vimage
p676
g635
NVocteon
p677
tp678
(dp679
Vconfigs
p680
(lp681
Vkernelarch-mips/config.octeon
p682
ass(g181
g635
g151
tp683
(dp684
g184
(lp685
V5kc-malta
p686
aVocteon
p687
asg188
I01
ss(Vbase
p688
Vmips64el
p689
tp690
(dp691
Vkernel-arch
p692
Vmips
p693
sg149
(lp694
g151
ass(Vbuild
p695
g689
tp696
(dp697
Vimage-file
p698
Vvmlinux
p699
sVsigned-modules
p700
I00
ss(Vimage
p701
g689
tp702
(dp703
Vinstall-stem
p704
Vvmlinux
p705
ss(Vdescription
p706
g689
NV5kc-malta
p707
tp708
(dp709
Vhardware
p710
VMIPS Malta
p711
sVhardware-long
p712
VMIPS Malta boards
p713
ss(Vimage
p714
g689
NV5kc-malta
p715
tp716
(dp717
Vconfigs
p718
(lp719
Vkernelarch-mips/config.malta
p720
aVkernelarch-mips/config.mips64r2
p721
ass(Vdescription
p722
g689
NVloongson-3
p723
tp724
(dp725
Vhardware
p726
VLoongson 3A/3B
p727
sVhardware-long
p728
VLoongson 3A or 3B based systems (e.g. from Loongson or Lemote)
p729
ss(Vimage
p730
g689
NVloongson-3
p731
tp732
(dp733
Vconfigs
p734
(lp735
Vkernelarch-mips/config.loongson-3
p736
ass(Vdescription
p737
g689
NVocteon
p738
tp739
(dp740
Vhardware
p741
VOcteon
p742
sVhardware-long
p743
VCavium Networks Octeon
p744
ss(Vimage
p745
g689
NVocteon
p746
tp747
(dp748
Vconfigs
p749
(lp750
Vkernelarch-mips/config.octeon
p751
ass(g181
g689
g151
tp752
(dp753
g184
(lp754
V5kc-malta
p755
aVloongson-3
p756
aVocteon
p757
asg188
I01
ss(Vbase
p758
Vmips64r6
p759
tp760
(dp761
Vkernel-arch
p762
Vmips
p763
sg149
(lp764
g151
ass(Vbuild
p765
g759
tp766
(dp767
Vimage-file
p768
Vvmlinux
p769
sVsigned-modules
p770
I00
ss(Vimage
p771
g759
tp772
(dp773
Vinstall-stem
p774
Vvmlinux
p775
ss(Vdescription
p776
g759
NVmips64r6
p777
tp778
(dp779
Vhardware
p780
VMIPS R6 (64 bit, big endian)
p781
sVhardware-long
p782
VMIPS R6 (64 bit, big endian)
p783
ss(Vimage
p784
g759
NVmips64r6
p785
tp786
(dp787
Vconfigs
p788
(lp789
Vkernelarch-mips/config.malta
p790
aVkernelarch-mips/config.mips64r6
p791
ass(g181
g759
g151
tp792
(dp793
g184
(lp794
Vmips64r6
p795
asg188
I01
ss(Vbase
p796
Vmips64r6el
p797
tp798
(dp799
Vkernel-arch
p800
Vmips
p801
sg149
(lp802
g151
ass(Vbuild
p803
g797
tp804
(dp805
Vimage-file
p806
Vvmlinux
p807
sVsigned-modules
p808
I00
ss(Vimage
p809
g797
tp810
(dp811
Vinstall-stem
p812
Vvmlinux
p813
ss(Vdescription
p814
g797
NVmips64r6el
p815
tp816
(dp817
Vhardware
p818
VMIPS R6 (64 bit, little endian)
p819
sVhardware-long
p820
VMIPS R6 (64 bit, little endian)
p821
ss(Vimage
p822
g797
NVmips64r6el
p823
tp824
(dp825
Vconfigs
p826
(lp827
Vkernelarch-mips/config.malta
p828
aVkernelarch-mips/config.mips64r6
p829
ass(g181
g797
g151
tp830
(dp831
g184
(lp832
Vmips64r6el
p833
asg188
I01
ss(Vbase
p834
Vmipsel
p835
tp836
(dp837
Vkernel-arch
p838
Vmips
p839
sg149
(lp840
g151
ass(Vbuild
p841
g835
tp842
(dp843
Vimage-file
p844
Vvmlinux
p845
sVsigned-modules
p846
I00
ss(Vimage
p847
g835
tp848
(dp849
Vinstall-stem
p850
Vvmlinux
p851
ss(Vdescription
p852
g835
NV4kc-malta
p853
tp854
(dp855
Vhardware
p856
VMIPS Malta
p857
sVhardware-long
p858
VMIPS Malta boards
p859
ss(Vimage
p860
g835
NV4kc-malta
p861
tp862
(dp863
Vconfigs
p864
(lp865
Vkernelarch-mips/config.malta
p866
aVkernelarch-mips/config.mips32r2
p867
ass(Vdescription
p868
g835
NV5kc-malta
p869
tp870
(dp871
Vhardware
p872
VMIPS Malta (64-bit)
p873
sVhardware-long
p874
VMIPS Malta boards (64-bit)
p875
ss(Vimage
p876
g835
NV5kc-malta
p877
tp878
(dp879
Vconfigs
p880
(lp881
Vkernelarch-mips/config.malta
p882
aVkernelarch-mips/config.mips64r2
p883
ass(Vdescription
p884
g835
NVloongson-3
p885
tp886
(dp887
Vhardware
p888
VLoongson 3A/3B
p889
sVhardware-long
p890
VLoongson 3A or 3B based systems (e.g. from Loongson or Lemote)
p891
ss(Vimage
p892
g835
NVloongson-3
p893
tp894
(dp895
Vconfigs
p896
(lp897
Vkernelarch-mips/config.loongson-3
p898
ass(Vdescription
p899
g835
NVocteon
p900
tp901
(dp902
Vhardware
p903
VOcteon
p904
sVhardware-long
p905
VCavium Networks Octeon
p906
ss(Vimage
p907
g835
NVocteon
p908
tp909
(dp910
Vconfigs
p911
(lp912
Vkernelarch-mips/config.octeon
p913
ass(g181
g835
g151
tp914
(dp915
g184
(lp916
V4kc-malta
p917
aV5kc-malta
p918
aVloongson-3
p919
aVocteon
p920
asg188
I01
ss(Vbase
p921
Vmipsn32
p922
tp923
(dp924
Vkernel-arch
p925
Vmips
p926
sVfeaturesets
p927
(lp928
ss(Vbase
p929
Vmipsn32el
p930
tp931
(dp932
Vkernel-arch
p933
Vmips
p934
sVfeaturesets
p935
(lp936
ss(Vbase
p937
Vmipsn32r6
p938
tp939
(dp940
Vkernel-arch
p941
Vmips
p942
sVfeaturesets
p943
(lp944
ss(Vbase
p945
Vmipsn32r6el
p946
tp947
(dp948
Vkernel-arch
p949
Vmips
p950
sVfeaturesets
p951
(lp952
ss(Vbase
p953
Vmipsr6
p954
tp955
(dp956
Vkernel-arch
p957
Vmips
p958
sg149
(lp959
g151
ass(Vbuild
p960
g954
tp961
(dp962
Vimage-file
p963
Vvmlinux
p964
sVsigned-modules
p965
I00
ss(Vimage
p966
g954
tp967
(dp968
Vinstall-stem
p969
Vvmlinux
p970
ss(Vdescription
p971
g954
NVmips32r6
p972
tp973
(dp974
Vhardware
p975
VMIPS R6 (32 bit, big endian)
p976
sVhardware-long
p977
VMIPS R6 (32 bit, big endian)
p978
ss(Vimage
p979
g954
NVmips32r6
p980
tp981
(dp982
Vconfigs
p983
(lp984
Vkernelarch-mips/config.malta
p985
aVkernelarch-mips/config.mips32r6
p986
ass(Vdescription
p987
g954
NVmips64r6
p988
tp989
(dp990
Vhardware
p991
VMIPS R6 (64 bit, big endian)
p992
sVhardware-long
p993
VMIPS R6 (64 bit, big endian)
p994
ss(Vimage
p995
g954
NVmips64r6
p996
tp997
(dp998
Vconfigs
p999
(lp1000
Vkernelarch-mips/config.malta
p1001
aVkernelarch-mips/config.mips64r6
p1002
ass(g181
g954
g151
tp1003
(dp1004
g184
(lp1005
Vmips32r6
p1006
aVmips64r6
p1007
asg188
I01
ss(Vbase
p1008
Vmipsr6el
p1009
tp1010
(dp1011
Vkernel-arch
p1012
Vmips
p1013
sg149
(lp1014
g151
ass(Vbuild
p1015
g1009
tp1016
(dp1017
Vimage-file
p1018
Vvmlinux
p1019
sVsigned-modules
p1020
I00
ss(Vimage
p1021
g1009
tp1022
(dp1023
Vinstall-stem
p1024
Vvmlinux
p1025
ss(Vdescription
p1026
g1009
NVmips32r6el
p1027
tp1028
(dp1029
Vhardware
p1030
VMIPS R6 (32 bit, little endian)
p1031
sVhardware-long
p1032
VMIPS R6 (32 bit, little endian)
p1033
ss(Vimage
p1034
g1009
NVmips32r6el
p1035
tp1036
(dp1037
Vconfigs
p1038
(lp1039
Vkernelarch-mips/config.malta
p1040
aVkernelarch-mips/config.mips32r6
p1041
ass(Vdescription
p1042
g1009
NVmips64r6el
p1043
tp1044
(dp1045
Vhardware
p1046
VMIPS R6 (64 bit, little endian)
p1047
sVhardware-long
p1048
VMIPS R6 (64 bit, little endian)
p1049
ss(Vimage
p1050
g1009
NVmips64r6el
p1051
tp1052
(dp1053
Vconfigs
p1054
(lp1055
Vkernelarch-mips/config.malta
p1056
aVkernelarch-mips/config.mips64r6
p1057
ass(g181
g1009
g151
tp1058
(dp1059
g184
(lp1060
Vmips32r6el
p1061
aVmips64r6el
p1062
asg188
I01
ss(Vbase
p1063
Vpowerpc
p1064
tp1065
(dp1066
Vkernel-arch
p1067
Vpowerpc
p1068
sg149
(lp1069
g151
ass(Vbuild
p1070
g1064
tp1071
(dp1072
Vimage-file
p1073
Vvmlinux
p1074
sVvdso
p1075
I01
ss(Vimage
p1076
g1064
tp1077
(dp1078
Vconfigs
p1079
(lp1080
sVsuggests
p1081
Vmkvmlinuz
p1082
sVinstall-stem
p1083
Vvmlinux
p1084
ss(Vdescription
p1085
g1064
NVpowerpc
p1086
tp1087
(dp1088
Vhardware
p1089
Vuniprocessor 32-bit PowerPC
p1090
ss(Vdescription
p1091
g1064
NVpowerpc-smp
p1092
tp1093
(dp1094
Vhardware
p1095
Vmultiprocessor 32-bit PowerPC
p1096
ss(Vimage
p1097
g1064
NVpowerpc-smp
p1098
tp1099
(dp1100
Vconfigs
p1101
(lp1102
Vpowerpc/config.powerpc
p1103
aVpowerpc/config.powerpc-smp
p1104
ass(Vdescription
p1105
g1064
NVpowerpc64
p1106
tp1107
(dp1108
Vhardware
p1109
V64-bit PowerPC
p1110
ss(Vimage
p1111
g1064
NVpowerpc64
p1112
tp1113
(dp1114
Vconfigs
p1115
(lp1116
Vkernelarch-powerpc/config-arch-64
p1117
aVkernelarch-powerpc/config-arch-64-be
p1118
ass(g181
g1064
g151
tp1119
(dp1120
g184
(lp1121
Vpowerpc
p1122
aVpowerpc-smp
p1123
aVpowerpc64
p1124
asg188
I01
ss(Vbase
p1125
Vpowerpcspe
p1126
tp1127
(dp1128
Vkernel-arch
p1129
Vpowerpc
p1130
sg149
(lp1131
g151
ass(Vbuild
p1132
g1126
tp1133
(dp1134
Vimage-file
p1135
Vvmlinux
p1136
sVsigned-modules
p1137
I00
sVvdso
p1138
I01
ss(Vimage
p1139
g1126
tp1140
(dp1141
Vsuggests
p1142
Vmkvmlinuz
p1143
sVinstall-stem
p1144
Vvmlinux
p1145
ss(Vdescription
p1146
g1126
tp1147
(dp1148
Vhardware
p1149
V32-bit PowerPC with SPE (instead of AltiVec) with SMP support
p1150
ss(g181
g1126
g151
tp1151
(dp1152
g184
(lp1153
Vpowerpcspe
p1154
asg188
I01
ss(Vbase
p1155
Vppc64
p1156
tp1157
(dp1158
Vkernel-arch
p1159
Vpowerpc
p1160
sg149
(lp1161
g151
ass(Vbuild
p1162
g1156
tp1163
(dp1164
Vimage-file
p1165
Vvmlinux
p1166
sVsigned-modules
p1167
I00
sVvdso
p1168
I01
ss(Vimage
p1169
g1156
tp1170
(dp1171
Vconfigs
p1172
(lp1173
sVsuggests
p1174
Vmkvmlinuz
p1175
sVinstall-stem
p1176
Vvmlinux
p1177
ss(Vdescription
p1178
g1156
NVpowerpc64
p1179
tp1180
(dp1181
Vhardware
p1182
V64-bit PowerPC
p1183
ss(Vimage
p1184
g1156
NVpowerpc64
p1185
tp1186
(dp1187
Vconfigs
p1188
(lp1189
Vkernelarch-powerpc/config-arch-64
p1190
aVkernelarch-powerpc/config-arch-64-be
p1191
ass(g181
g1156
g151
tp1192
(dp1193
g184
(lp1194
Vpowerpc64
p1195
asg188
I01
ss(Vbase
p1196
Vppc64el
p1197
tp1198
(dp1199
Vkernel-arch
p1200
Vpowerpc
p1201
sg149
(lp1202
g151
ass(Vbuild
p1203
g1197
tp1204
(dp1205
Vimage-file
p1206
Vvmlinux
p1207
sVvdso
p1208
I01
ss(Vimage
p1209
g1197
tp1210
(dp1211
Vconfigs
p1212
(lp1213
sVsuggests
p1214
Vmkvmlinuz
p1215
sVinstall-stem
p1216
Vvmlinux
p1217
ss(Vdescription
p1218
g1197
NVpowerpc64le
p1219
tp1220
(dp1221
Vhardware
p1222
VLittle-endian 64-bit PowerPC
p1223
ss(Vimage
p1224
g1197
NVpowerpc64le
p1225
tp1226
(dp1227
Vconfigs
p1228
(lp1229
Vkernelarch-powerpc/config-arch-64
p1230
aVkernelarch-powerpc/config-arch-64-le
p1231
ass(g181
g1197
g151
tp1232
(dp1233
g184
(lp1234
Vpowerpc64le
p1235
asg188
I01
ss(Vbase
p1236
Vs390
p1237
tp1238
(dp1239
Vkernel-arch
p1240
Vs390
p1241
sVfeaturesets
p1242
(lp1243
ss(Vbase
p1244
Vs390x
p1245
tp1246
(dp1247
Vkernel-arch
p1248
Vs390
p1249
sg149
(lp1250
g151
ass(Vbuild
p1251
g1245
tp1252
(dp1253
Vimage-file
p1254
Varch/s390/boot/image
p1255
sVvdso
p1256
I01
ss(Vimage
p1257
g1245
tp1258
(dp1259
Vbootloaders
p1260
(lp1261
Vs390-tools
p1262
asVinstall-stem
p1263
Vvmlinuz
p1264
ss(Vrelations
p1265
g1245
tp1266
(dp1267
Vheaders%gcc-7
p1268
Vlinux-compiler-gcc-7-s390
p1269
ss(Vbuild
p1270
g1245
NVs390x
p1271
tp1272
(dp1273
Vdebug-info
p1274
I01
ss(Vdescription
p1275
g1245
NVs390x
p1276
tp1277
(dp1278
Vhardware
p1279
VIBM zSeries
p1280
ss(g181
g1245
g151
tp1281
(dp1282
g184
(lp1283
Vs390x
p1284
asg188
I01
ss(Vbase
p1285
Vsh3
p1286
tp1287
(dp1288
Vkernel-arch
p1289
Vsh
p1290
sVfeaturesets
p1291
(lp1292
ss(Vbase
p1293
Vsh4
p1294
tp1295
(dp1296
Vkernel-arch
p1297
Vsh
p1298
sg149
(lp1299
g151
ass(Vbuild
p1300
g1294
tp1301
(dp1302
Vimage-file
p1303
Varch/sh/boot/zImage
p1304
sVsigned-modules
p1305
I00
ss(Vimage
p1306
g1294
tp1307
(dp1308
Vinstall-stem
p1309
Vvmlinuz
p1310
ss(Vdescription
p1311
g1294
NVsh7751r
p1312
tp1313
(dp1314
Vhardware
p1315
Vsh7751r
p1316
sVhardware-long
p1317
VRenesas SH7751R R2D plus board
p1318
ss(Vdescription
p1319
g1294
NVsh7785lcr
p1320
tp1321
(dp1322
Vhardware
p1323
Vsh7785lcr
p1324
sVhardware-long
p1325
VRenesas SH7785 reference board
p1326
ss(Vimage
p1327
g1294
NVsh7785lcr
p1328
tp1329
(dp1330
Vrecommends
p1331
Vu-boot-tools
p1332
sVcheck-size
p1333
L4194304L
ss(g181
g1294
g151
tp1334
(dp1335
g184
(lp1336
Vsh7751r
p1337
aVsh7785lcr
p1338
asg188
I01
ss(Vbase
p1339
Vsparc
p1340
tp1341
(dp1342
Vkernel-arch
p1343
Vsparc
p1344
sVfeaturesets
p1345
(lp1346
ss(Vbase
p1347
Vsparc64
p1348
tp1349
(dp1350
Vkernel-arch
p1351
Vsparc
p1352
sg149
(lp1353
g151
ass(Vbuild
p1354
g1348
tp1355
(dp1356
Vimage-file
p1357
Varch/sparc/boot/zImage
p1358
sVsigned-modules
p1359
I00
ss(Vimage
p1360
g1348
tp1361
(dp1362
Vconfigs
p1363
(lp1364
sVsuggests
p1365
Vsilo, fdutils
p1366
sVinstall-stem
p1367
Vvmlinuz
p1368
ss(Vdescription
p1369
g1348
NVsparc64
p1370
tp1371
(dp1372
Vhardware
p1373
Vuniprocessor 64-bit UltraSPARC
p1374
ss(Vimage
p1375
g1348
NVsparc64
p1376
tp1377
(dp1378
Vconfigs
p1379
(lp1380
Vkernelarch-sparc/config-up
p1381
ass(Vdescription
p1382
g1348
NVsparc64-smp
p1383
tp1384
(dp1385
Vhardware
p1386
Vmultiprocessor 64-bit UltraSPARC
p1387
ss(Vimage
p1388
g1348
NVsparc64-smp
p1389
tp1390
(dp1391
Vconfigs
p1392
(lp1393
Vkernelarch-sparc/config-smp
p1394
ass(g181
g1348
g151
tp1395
(dp1396
g184
(lp1397
Vsparc64
p1398
aVsparc64-smp
p1399
asg188
I01
ss(Vbase
p1400
Vtilegx
p1401
tp1402
(dp1403
Vkernel-arch
p1404
Vtile
p1405
sVfeaturesets
p1406
(lp1407
ss(Vbase
p1408
Vx32
p1409
tp1410
(dp1411
Vkernel-arch
p1412
Vx86
p1413
sVfeaturesets
p1414
(lp1415
ss(Vabi
p1416
NVrt
p1417
tp1418
(dp1419
Vignore-changes
p1420
(lp1421
V*
p1422
ass(Vdescription
p1423
Ng1417
tp1424
(dp1425
Vpart-long-rt
p1426
VThis kernel includes the PREEMPT_RT realtime patch set.
p1427
sVpart-short-rt
p1428
VPREEMPT_RT
p1429
sVparts
p1430
(lp1431
Vrt
p1432
ass(Vversion
p1433
tp1434
(dp1435
Vsource
p1436
V4.15.11-1kali1
p1437
sVupstream
p1438
V4.15
p1439
sVabiname_base
p1440
V4.15.0
p1441
sVabiname
p1442
V4.15.0-kali2
p1443
ss.