cdebian_linux.config
ConfigCore
p0
(tRp1
(Vabi
p2
tp3
(dp4
Vabiname
p5
Vkali1
p6
sVignore-changes
p7
(lp8
V__cpuhp_*
p9
aV__xive_vm_h_*
p10
aVbpf_analyzer
p11
aVcxl_*
p12
aVdax_flush
p13
aVieee80211_nullfunc_get
p14
aVinet_add_protocol
p15
aVinet_del_protocol
p16
aViommu_device_*
p17
aVkvm_async_pf_task_wait
p18
aVkvmppc_*
p19
aVmm_iommu_*
p20
aVmv_mbus_*
p21
aVperf_*
p22
aVregister_cxl_calls
p23
aVregister_key_type
p24
aVunregister_cxl_calls
p25
aV*_hw_breakpoint
p26
aVmodule:arch/x86/kvm/*
p27
aVmodule:drivers/crypto/ccp/*
p28
aVmodule:drivers/hv/*
p29
aVmodule:drivers/gpu/drm/sun4i/*
p30
aVmodule:drivers/iio/**
p31
aVmodule:drivers/misc/cxl/*
p32
aVmodule:drivers/mtd/nand/*
p33
aVmodule:drivers/net/wireless/**
p34
aVmodule:drivers/nvdimm/*
p35
aVmodule:drivers/power/supply/bq27xxx_battery
p36
aVmodule:drivers/scsi/cxgbi/*
p37
aVmodule:drivers/scsi/libiscs*
p38
aVmodule:drivers/scsi/qla2xxx/qla2xxx
p39
aVmodule:drivers/scsi/ufs/*
p40
aVmodule:drivers/target/**
p41
aVmodule:drivers/usb/chipidea/**
p42
aVmodule:drivers/usb/gadget/**
p43
aVmodule:drivers/usb/host/**
p44
aVmodule:drivers/usb/musb/**
p45
aVmodule:fs/nfs/**
p46
aVmodule:net/ceph/libceph
p47
aVmodule:net/l2tp/**
p48
aVmodule:net/rxrpc/rxrpc
p49
aVmodule:sound/core/seq/**
p50
aVmodule:sound/firewire/snd-firewire-lib
p51
aVmodule:sound/pci/hda/*
p52
aVbtree_*
p53
aVvisitor*
p54
aVcan_rx_register
p55
aVip6_xmit
p56
aVmodule:net/dccp/dccp
p57
aVmodule:net/rds/rds
p58
aVdevfreq_*
p59
aVdevm_devfreq_*
p60
aVupdate_devfreq
p61
aVmodule:drivers/infiniband/**
p62
aVacpi_ec_add_query_handler
p63
aVacpi_ec_remove_query_handler
p64
aVfirst_ec
p65
aVdebugfs_create_automount
p66
aVmodule:drivers/iio/imu/inv_mpu6050/*
p67
aVdrm_crtc_accurate_vblank_count
p68
ass(Vbase
p69
tp70
(dp71
Varches
p72
(lp73
Valpha
p74
aVamd64
p75
aVarm64
p76
aVarm64ilp32
p77
aVarmel
p78
aVarmhf
p79
aVhppa
p80
aVi386
p81
aVia64
p82
aVm68k
p83
aVmips
p84
aVmips64
p85
aVmips64el
p86
aVmips64r6
p87
aVmips64r6el
p88
aVmipsel
p89
aVmipsn32
p90
aVmipsn32el
p91
aVmipsn32r6
p92
aVmipsn32r6el
p93
aVmipsr6
p94
aVmipsr6el
p95
aVpowerpc
p96
aVpowerpcspe
p97
aVppc64
p98
aVppc64el
p99
aVriscv64
p100
aVs390
p101
aVs390x
p102
aVsh3
p103
aVsh4
p104
aVsparc
p105
aVsparc64
p106
aVtilegx
p107
aVx32
p108
asVcompiler
p109
Vgcc-7
p110
sVfeaturesets
p111
(lp112
Vnone
p113
aVrt
p114
ass(Vbuild
p115
tp116
(dp117
Vdebug-info
p118
I01
sVsigned-code
p119
I00
ss(Vbase
p120
NVrt
p121
tp122
(dp123
Venabled
p124
I00
ss(Vdescription
p125
tp126
(dp127
Vpart-long-up
p128
VThis kernel is not suitable for SMP (multi-processor,\u000amulti-core or hyper-threaded) systems.
p129
ss(Vimage
p130
tp131
(dp132
Vinitramfs-generators
p133
(lp134
Vinitramfs-tools
p135
aVinitramfs-fallback
p136
asVrecommends
p137
Vapparmor
p138
ss(Vrelations
p139
tp140
(dp141
Vgcc-7
p142
Vgcc-7 <!stage1 !cross>, gcc-7-@gnu-type-package@ <!stage1 cross>
p143
sVinitramfs-fallback
p144
Vlinux-initramfs-tool
p145
sVinitramfs-tools
p146
Vinitramfs-tools (>= 0.120+deb8u2)
p147
ss(Vbase
p148
Valpha
p149
tp150
(dp151
Vkernel-arch
p152
Valpha
p153
sVfeaturesets
p154
(lp155
Vnone
p156
ass(Vbuild
p157
g149
tp158
(dp159
Vimage-file
p160
Varch/alpha/boot/vmlinux.gz
p161
ss(Vimage
p162
g149
tp163
(dp164
Vsuggests
p165
Vaboot, fdutils
p166
sVinstall-stem
p167
Vvmlinuz
p168
ss(Vdescription
p169
g149
NValpha-generic
p170
tp171
(dp172
Vhardware
p173
VAlpha
p174
sVhardware-long
p175
VDEC Alpha systems with extended kernel start address (Wildfire, Titan, Marvel)
p176
ss(Vdescription
p177
g149
NValpha-smp
p178
tp179
(dp180
Vhardware
p181
VAlpha SMP
p182
sVhardware-long
p183
VDEC Alpha SMP systems with extended kernel start address (Wildfire, Titan, Marvel)
p184
ss(Vbase
p185
g149
g156
tp186
(dp187
Vflavours
p188
(lp189
Valpha-generic
p190
aValpha-smp
p191
asVimplicit-flavour
p192
I01
ss(Vbase
p193
Vamd64
p194
tp195
(dp196
Vfeaturesets
p197
(lp198
Vnone
p199
aVrt
p200
asVkernel-arch
p201
Vx86
p202
ss(Vbuild
p203
g194
tp204
(dp205
Vdebug-info
p206
I01
sVimage-file
p207
Varch/x86/boot/bzImage
p208
sVvdso
p209
I01
sVsigned-modules
p210
Vfalse
p211
ss(Vimage
p212
g194
tp213
(dp214
Vbootloaders
p215
(lp216
Vgrub-pc
p217
aVgrub-efi-amd64
p218
aVextlinux
p219
asVinstall-stem
p220
Vvmlinuz
p221
sVbreaks
p222
Vxserver-xorg-input-vmmouse (<< 1:13.0.99)
p223
ss(Vrelations
p224
g194
tp225
(dp226
Vgcc-7
p227
Vgcc-7 (>= 7.2.0-20~) <!stage1 !cross>, gcc-7-x86-64-linux-gnu (>= 7.2.0-20~) <!stage1 cross>
p228
sVheaders%gcc-7
p229
Vlinux-compiler-gcc-7-x86 (>= 4.14.17-1~)
p230
ss(Vdescription
p231
g194
NVamd64
p232
tp233
(dp234
Vhardware
p235
V64-bit PCs
p236
sVhardware-long
p237
VPCs with AMD64, Intel 64 or VIA Nano processors
p238
ss(Vdescription
p239
g194
NVcloud-amd64
p240
tp241
(dp242
Vhardware
p243
Vx86-64 cloud
p244
sVhardware-long
p245
VAmazon EC2, Google Compute Engine and Microsoft Azure cloud platforms
p246
ss(Vbase
p247
g194
Vnone
p248
tp249
(dp250
Vflavours
p251
(lp252
Vamd64
p253
aVcloud-amd64
p254
ass(Vbase
p255
g194
Vrt
p256
tp257
(dp258
Vflavours
p259
(lp260
Vamd64
p261
ass(Vbase
p262
Varm64
p263
tp264
(dp265
Vkernel-arch
p266
Varm64
p267
sVfeaturesets
p268
(lp269
Vnone
p270
ass(Vbuild
p271
g263
tp272
(dp273
Vdebug-info
p274
I01
sVimage-file
p275
Varch/arm64/boot/Image
p276
sVvdso
p277
I01
sVsigned-modules
p278
Vfalse
p279
ss(Vimage
p280
g263
tp281
(dp282
Vinstall-stem
p283
Vvmlinuz
p284
sVbreaks
p285
Vlibmozjs185-1.0, libmozjs-24-0 (<< 24.2.0-5.1~)
p286
ss(Vdescription
p287
g263
NVarm64
p288
tp289
(dp290
Vhardware
p291
V64-bit ARMv8 machines
p292
ss(Vimage
p293
g263
NVarm64
p294
tp295
(dp296
s(Vbase
p297
g263
Vnone
p298
tp299
(dp300
Vflavours
p301
(lp302
Varm64
p303
ass(Vbase
p304
Varm64ilp32
p305
tp306
(dp307
Vkernel-arch
p308
Varm64
p309
sVfeaturesets
p310
(lp311
ss(Vbase
p312
Varmel
p313
tp314
(dp315
Vkernel-arch
p316
Varm
p317
sg154
(lp318
g156
ass(Vbuild
p319
g313
tp320
(dp321
Vimage-file
p322
Varch/arm/boot/zImage
p323
sVuncompressed-image-file
p324
Varch/arm/boot/Image
p325
ss(Vimage
p326
g313
tp327
(dp328
Vinstall-stem
p329
Vvmlinuz
p330
ss(Vrelations
p331
g313
tp332
(dp333
Vheaders%gcc-7
p334
Vlinux-compiler-gcc-7-arm
p335
ss(Vdescription
p336
g313
NVmarvell
p337
tp338
(dp339
Vhardware
p340
VMarvell Kirkwood/Orion
p341
sVhardware-long
p342
VMarvell Kirkwood and Orion based systems (https://wiki.debian.org/ArmEabiPort#Supported_hardware)
p343
ss(Vimage
p344
g313
NVmarvell
p345
tp346
(dp347
Vrecommends
p348
Vu-boot-tools
p349
sVcheck-size
p350
L2097080L
sVcheck-size-with-dtb
p351
I01
sVcheck-uncompressed-size
p352
L7340032L
sVbreaks
p353
Vflash-kernel (<< 3.57~)
p354
ss(g185
g313
g156
tp355
(dp356
g188
(lp357
Vmarvell
p358
asg192
I01
ss(Vbase
p359
Varmhf
p360
tp361
(dp362
Vkernel-arch
p363
Varm
p364
sg154
(lp365
g156
ass(Vbuild
p366
g360
tp367
(dp368
Vimage-file
p369
Varch/arm/boot/zImage
p370
sVvdso
p371
I01
sVsigned-modules
p372
Vfalse
p373
ss(Vimage
p374
g360
tp375
(dp376
Vinstall-stem
p377
Vvmlinuz
p378
ss(Vrelations
p379
g360
tp380
(dp381
Vheaders%gcc-7
p382
Vlinux-compiler-gcc-7-arm
p383
ss(Vdescription
p384
g360
NVarmmp
p385
tp386
(dp387
Vhardware
p388
VARMv7 multiplatform compatible SoCs
p389
sVhardware-long
p390
VARMv7 multiplatform kernel. See\u000ahttps://wiki.debian.org/DebianKernel/ARMMP for details of supported\u000aplatforms
p391
ss(Vdescription
p392
g360
NVarmmp-lpae
p393
tp394
(dp395
Vhardware
p396
VARMv7 multiplatform compatible SoCs supporting LPAE
p397
sVhardware-long
p398
VARMv7 multiplatform kernel supporting LPAE. See\u000ahttps://wiki.debian.org/DebianKernel/ARMMP for details of supported\u000aplatforms.
p399
ss(g185
g360
g156
tp400
(dp401
g188
(lp402
Varmmp
p403
aVarmmp-lpae
p404
asg192
I01
ss(Vbase
p405
Vhppa
p406
tp407
(dp408
Vkernel-arch
p409
Vparisc
p410
sg154
(lp411
g156
ass(Vbuild
p412
g406
tp413
(dp414
Vimage-file
p415
Varch/parisc/boot/bzImage
p416
sVdebug-info
p417
I00
ss(Vimage
p418
g406
tp419
(dp420
Vsuggests
p421
Vpalo
p422
sVinstall-stem
p423
Vvmlinuz
p424
ss(Vdescription
p425
g406
NVparisc
p426
tp427
(dp428
Vhardware
p429
V32-bit PA-RISC
p430
sVhardware-long
p431
VHP PA-RISC 32-bit systems with max 4 GB RAM
p432
ss(Vdescription
p433
g406
NVparisc-smp
p434
tp435
(dp436
Vhardware
p437
Vmultiprocessor 32-bit PA-RISC
p438
sVhardware-long
p439
VHP PA-RISC 32-bit SMP systems with max 4 GB RAM
p440
ss(Vbase
p441
g406
NVparisc64-smp
p442
tp443
(dp444
Vcflags
p445
V-fno-cse-follow-jumps
p446
sVoverride-host-type
p447
Vhppa64-linux-gnu
p448
ss(Vdescription
p449
g406
NVparisc64-smp
p450
tp451
(dp452
Vhardware
p453
Vmultiprocessor 64-bit PA-RISC
p454
sVhardware-long
p455
VHP PA-RISC 64-bit SMP systems with support for more than 4 GB RAM
p456
ss(Vrelations
p457
g406
tp458
(dp459
Vgcc-7
p460
Vgcc-7 <!stage1 !cross>, binutils-hppa64-linux-gnu <!stage1 !cross>, gcc-7-hppa64-linux-gnu <!stage1 !cross>, gcc-7-hppa-linux-gnu <!stage1 cross>, binutils-hppa64-linux-gnu <!stage1 cross>, gcc-7-hppa64-linux-gnu <!stage1 cross>
p461
ss(g185
g406
g156
tp462
(dp463
g188
(lp464
Vparisc
p465
aVparisc-smp
p466
aVparisc64-smp
p467
asg192
I01
ss(Vbase
p468
Vi386
p469
tp470
(dp471
Vfeaturesets
p472
(lp473
Vnone
p474
aVrt
p475
asVkernel-arch
p476
Vx86
p477
ss(Vbuild
p478
g469
tp479
(dp480
Vimage-file
p481
Varch/x86/boot/bzImage
p482
sVvdso
p483
I01
sVsigned-modules
p484
Vfalse
p485
ss(Vdescription
p486
g469
tp487
(dp488
Vpart-long-pae
p489
VThis kernel requires PAE (Physical Address Extension).\u000aThis feature is supported by the Intel Pentium Pro/II/III/4/4M/D, Xeon,\u000aCore and Atom; AMD Geode NX, Athlon (K7), Duron, Opteron, Sempron,\u000aTurion or Phenom; Transmeta Efficeon; VIA C7; and some other processors.
p490
ss(Vimage
p491
g469
tp492
(dp493
Vbootloaders
p494
(lp495
Vgrub-pc
p496
aVextlinux
p497
asVinstall-stem
p498
Vvmlinuz
p499
sVbreaks
p500
Vxserver-xorg-input-vmmouse (<< 1:13.0.99)
p501
ss(Vrelations
p502
g469
tp503
(dp504
Vgcc-7
p505
Vgcc-7 (>= 7.2.0-20~) <!stage1 !cross>, gcc-7-i686-linux-gnu (>= 7.2.0-20~) <!stage1 cross>
p506
sVheaders%gcc-7
p507
Vlinux-compiler-gcc-7-x86 (>= 4.14.17-1~)
p508
ss(Vdescription
p509
g469
NV686
p510
tp511
(dp512
Vhardware
p513
Volder PCs
p514
sVhardware-long
p515
VPCs with one or more processors not supporting PAE
p516
ss(Vbuild
p517
g469
NV686-pae
p518
tp519
(dp520
Vdebug-info
p521
I01
ss(Vdescription
p522
g469
NV686-pae
p523
tp524
(dp525
Vhardware
p526
Vmodern PCs
p527
sVhardware-long
p528
VPCs with one or more processors supporting PAE
p529
sVparts
p530
(lp531
Vpae
p532
ass(Vbase
p533
g469
Vnone
p534
tp535
(dp536
Vflavours
p537
(lp538
V686
p539
aV686-pae
p540
ass(Vbase
p541
g469
Vrt
p542
tp543
(dp544
Vflavours
p545
(lp546
V686-pae
p547
ass(Vbase
p548
Via64
p549
tp550
(dp551
Vkernel-arch
p552
Via64
p553
sg154
(lp554
g156
ass(Vbuild
p555
g549
tp556
(dp557
Vimage-file
p558
Vvmlinux.gz
p559
ss(Vimage
p560
g549
tp561
(dp562
Vbootloaders
p563
(lp564
Velilo
p565
asVinstall-stem
p566
Vvmlinuz
p567
ss(Vdescription
p568
g549
NVitanium
p569
tp570
(dp571
Vhardware
p572
VItanium (Merced)
p573
sVhardware-long
p574
Vsystems with original Itanium (Merced) processors
p575
ss(Vdescription
p576
g549
NVmckinley
p577
tp578
(dp579
Vhardware
p580
VItanium 2+
p581
sVhardware-long
p582
Vsystems with Itanium 2 or 9300/9500/9700-series processors
p583
ss(g185
g549
g156
tp584
(dp585
g188
(lp586
Vitanium
p587
aVmckinley
p588
asg192
I01
ss(Vbase
p589
Vm68k
p590
tp591
(dp592
Vcflags
p593
V-ffreestanding
p594
sVkernel-arch
p595
Vm68k
p596
sg154
(lp597
g156
ass(Vbuild
p598
g590
tp599
(dp600
Vimage-file
p601
Vvmlinux
p602
ss(Vimage
p603
g590
tp604
(dp605
Vsuggests
p606
Vvmelilo, fdutils
p607
sVinstall-stem
p608
Vvmlinux
p609
ss(Vdescription
p610
g590
NVm68k
p611
tp612
(dp613
Vhardware
p614
VMotorola MC68020+ family
p615
ss(g185
g590
g156
tp616
(dp617
g188
(lp618
Vm68k
p619
asg192
I01
ss(Vbase
p620
Vmips
p621
tp622
(dp623
Vkernel-arch
p624
Vmips
p625
sg154
(lp626
g156
ass(Vbuild
p627
g621
tp628
(dp629
Vimage-file
p630
Vvmlinux
p631
ss(Vimage
p632
g621
tp633
(dp634
Vinstall-stem
p635
Vvmlinux
p636
ss(Vdescription
p637
g621
NV4kc-malta
p638
tp639
(dp640
Vhardware
p641
VMIPS Malta
p642
sVhardware-long
p643
VMIPS Malta boards
p644
ss(Vimage
p645
g621
NV4kc-malta
p646
tp647
(dp648
Vconfigs
p649
(lp650
Vkernelarch-mips/config.malta
p651
aVkernelarch-mips/config.mips32r2
p652
ass(Vdescription
p653
g621
NV5kc-malta
p654
tp655
(dp656
Vhardware
p657
VMIPS Malta (64-bit)
p658
sVhardware-long
p659
VMIPS Malta boards (64-bit)
p660
ss(Vimage
p661
g621
NV5kc-malta
p662
tp663
(dp664
Vconfigs
p665
(lp666
Vkernelarch-mips/config.malta
p667
aVkernelarch-mips/config.mips64r2
p668
ass(Vdescription
p669
g621
NVocteon
p670
tp671
(dp672
Vhardware
p673
VOcteon
p674
sVhardware-long
p675
VCavium Networks Octeon
p676
ss(Vimage
p677
g621
NVocteon
p678
tp679
(dp680
Vconfigs
p681
(lp682
Vkernelarch-mips/config.octeon
p683
ass(g185
g621
g156
tp684
(dp685
g188
(lp686
V4kc-malta
p687
aV5kc-malta
p688
aVocteon
p689
asg192
I01
ss(Vbase
p690
Vmips64
p691
tp692
(dp693
Vkernel-arch
p694
Vmips
p695
sg154
(lp696
g156
ass(Vbuild
p697
g691
tp698
(dp699
Vimage-file
p700
Vvmlinux
p701
ss(Vimage
p702
g691
tp703
(dp704
Vinstall-stem
p705
Vvmlinux
p706
ss(Vdescription
p707
g691
NV5kc-malta
p708
tp709
(dp710
Vhardware
p711
VMIPS Malta
p712
sVhardware-long
p713
VMIPS Malta boards
p714
ss(Vimage
p715
g691
NV5kc-malta
p716
tp717
(dp718
Vconfigs
p719
(lp720
Vkernelarch-mips/config.malta
p721
aVkernelarch-mips/config.mips64r2
p722
ass(Vdescription
p723
g691
NVocteon
p724
tp725
(dp726
Vhardware
p727
VOcteon
p728
sVhardware-long
p729
VCavium Networks Octeon
p730
ss(Vimage
p731
g691
NVocteon
p732
tp733
(dp734
Vconfigs
p735
(lp736
Vkernelarch-mips/config.octeon
p737
ass(g185
g691
g156
tp738
(dp739
g188
(lp740
V5kc-malta
p741
aVocteon
p742
asg192
I01
ss(Vbase
p743
Vmips64el
p744
tp745
(dp746
Vkernel-arch
p747
Vmips
p748
sg154
(lp749
g156
ass(Vbuild
p750
g744
tp751
(dp752
Vimage-file
p753
Vvmlinux
p754
ss(Vimage
p755
g744
tp756
(dp757
Vinstall-stem
p758
Vvmlinux
p759
ss(Vdescription
p760
g744
NV5kc-malta
p761
tp762
(dp763
Vhardware
p764
VMIPS Malta
p765
sVhardware-long
p766
VMIPS Malta boards
p767
ss(Vimage
p768
g744
NV5kc-malta
p769
tp770
(dp771
Vconfigs
p772
(lp773
Vkernelarch-mips/config.malta
p774
aVkernelarch-mips/config.mips64r2
p775
ass(Vdescription
p776
g744
NVloongson-3
p777
tp778
(dp779
Vhardware
p780
VLoongson 3A/3B
p781
sVhardware-long
p782
VLoongson 3A or 3B based systems (e.g. from Loongson or Lemote)
p783
ss(Vimage
p784
g744
NVloongson-3
p785
tp786
(dp787
Vconfigs
p788
(lp789
Vkernelarch-mips/config.loongson-3
p790
ass(Vdescription
p791
g744
NVocteon
p792
tp793
(dp794
Vhardware
p795
VOcteon
p796
sVhardware-long
p797
VCavium Networks Octeon
p798
ss(Vimage
p799
g744
NVocteon
p800
tp801
(dp802
Vconfigs
p803
(lp804
Vkernelarch-mips/config.octeon
p805
ass(g185
g744
g156
tp806
(dp807
g188
(lp808
V5kc-malta
p809
aVloongson-3
p810
aVocteon
p811
asg192
I01
ss(Vbase
p812
Vmips64r6
p813
tp814
(dp815
Vkernel-arch
p816
Vmips
p817
sg154
(lp818
g156
ass(Vbuild
p819
g813
tp820
(dp821
Vimage-file
p822
Vvmlinux
p823
ss(Vimage
p824
g813
tp825
(dp826
Vinstall-stem
p827
Vvmlinux
p828
ss(Vdescription
p829
g813
NVmips64r6
p830
tp831
(dp832
Vhardware
p833
VMIPS R6 (64 bit, big endian)
p834
sVhardware-long
p835
VMIPS R6 (64 bit, big endian)
p836
ss(Vimage
p837
g813
NVmips64r6
p838
tp839
(dp840
Vconfigs
p841
(lp842
Vkernelarch-mips/config.boston
p843
aVkernelarch-mips/config.mips64r6
p844
ass(g185
g813
g156
tp845
(dp846
g188
(lp847
Vmips64r6
p848
asg192
I01
ss(Vbase
p849
Vmips64r6el
p850
tp851
(dp852
Vkernel-arch
p853
Vmips
p854
sg154
(lp855
g156
ass(Vbuild
p856
g850
tp857
(dp858
Vimage-file
p859
Vvmlinux
p860
ss(Vimage
p861
g850
tp862
(dp863
Vinstall-stem
p864
Vvmlinux
p865
ss(Vdescription
p866
g850
NVmips64r6el
p867
tp868
(dp869
Vhardware
p870
VMIPS R6 (64 bit, little endian)
p871
sVhardware-long
p872
VMIPS R6 (64 bit, little endian)
p873
ss(Vimage
p874
g850
NVmips64r6el
p875
tp876
(dp877
Vconfigs
p878
(lp879
Vkernelarch-mips/config.boston
p880
aVkernelarch-mips/config.mips64r6
p881
ass(g185
g850
g156
tp882
(dp883
g188
(lp884
Vmips64r6el
p885
asg192
I01
ss(Vbase
p886
Vmipsel
p887
tp888
(dp889
Vkernel-arch
p890
Vmips
p891
sg154
(lp892
g156
ass(Vbuild
p893
g887
tp894
(dp895
Vimage-file
p896
Vvmlinux
p897
ss(Vimage
p898
g887
tp899
(dp900
Vinstall-stem
p901
Vvmlinux
p902
ss(Vdescription
p903
g887
NV4kc-malta
p904
tp905
(dp906
Vhardware
p907
VMIPS Malta
p908
sVhardware-long
p909
VMIPS Malta boards
p910
ss(Vimage
p911
g887
NV4kc-malta
p912
tp913
(dp914
Vconfigs
p915
(lp916
Vkernelarch-mips/config.malta
p917
aVkernelarch-mips/config.mips32r2
p918
ass(Vdescription
p919
g887
NV5kc-malta
p920
tp921
(dp922
Vhardware
p923
VMIPS Malta (64-bit)
p924
sVhardware-long
p925
VMIPS Malta boards (64-bit)
p926
ss(Vimage
p927
g887
NV5kc-malta
p928
tp929
(dp930
Vconfigs
p931
(lp932
Vkernelarch-mips/config.malta
p933
aVkernelarch-mips/config.mips64r2
p934
ass(Vdescription
p935
g887
NVloongson-3
p936
tp937
(dp938
Vhardware
p939
VLoongson 3A/3B
p940
sVhardware-long
p941
VLoongson 3A or 3B based systems (e.g. from Loongson or Lemote)
p942
ss(Vimage
p943
g887
NVloongson-3
p944
tp945
(dp946
Vconfigs
p947
(lp948
Vkernelarch-mips/config.loongson-3
p949
ass(Vdescription
p950
g887
NVocteon
p951
tp952
(dp953
Vhardware
p954
VOcteon
p955
sVhardware-long
p956
VCavium Networks Octeon
p957
ss(Vimage
p958
g887
NVocteon
p959
tp960
(dp961
Vconfigs
p962
(lp963
Vkernelarch-mips/config.octeon
p964
ass(g185
g887
g156
tp965
(dp966
g188
(lp967
V4kc-malta
p968
aV5kc-malta
p969
aVloongson-3
p970
aVocteon
p971
asg192
I01
ss(Vbase
p972
Vmipsn32
p973
tp974
(dp975
Vkernel-arch
p976
Vmips
p977
sVfeaturesets
p978
(lp979
ss(Vbase
p980
Vmipsn32el
p981
tp982
(dp983
Vkernel-arch
p984
Vmips
p985
sVfeaturesets
p986
(lp987
ss(Vbase
p988
Vmipsn32r6
p989
tp990
(dp991
Vkernel-arch
p992
Vmips
p993
sVfeaturesets
p994
(lp995
ss(Vbase
p996
Vmipsn32r6el
p997
tp998
(dp999
Vkernel-arch
p1000
Vmips
p1001
sVfeaturesets
p1002
(lp1003
ss(Vbase
p1004
Vmipsr6
p1005
tp1006
(dp1007
Vkernel-arch
p1008
Vmips
p1009
sg154
(lp1010
g156
ass(Vbuild
p1011
g1005
tp1012
(dp1013
Vimage-file
p1014
Vvmlinux
p1015
ss(Vimage
p1016
g1005
tp1017
(dp1018
Vinstall-stem
p1019
Vvmlinux
p1020
ss(Vdescription
p1021
g1005
NVmips32r6
p1022
tp1023
(dp1024
Vhardware
p1025
VMIPS R6 (32 bit, big endian)
p1026
sVhardware-long
p1027
VMIPS R6 (32 bit, big endian)
p1028
ss(Vimage
p1029
g1005
NVmips32r6
p1030
tp1031
(dp1032
Vconfigs
p1033
(lp1034
Vkernelarch-mips/config.boston
p1035
aVkernelarch-mips/config.mips32r6
p1036
ass(Vdescription
p1037
g1005
NVmips64r6
p1038
tp1039
(dp1040
Vhardware
p1041
VMIPS R6 (64 bit, big endian)
p1042
sVhardware-long
p1043
VMIPS R6 (64 bit, big endian)
p1044
ss(Vimage
p1045
g1005
NVmips64r6
p1046
tp1047
(dp1048
Vconfigs
p1049
(lp1050
Vkernelarch-mips/config.boston
p1051
aVkernelarch-mips/config.mips64r6
p1052
ass(g185
g1005
g156
tp1053
(dp1054
g188
(lp1055
Vmips32r6
p1056
aVmips64r6
p1057
asg192
I01
ss(Vbase
p1058
Vmipsr6el
p1059
tp1060
(dp1061
Vkernel-arch
p1062
Vmips
p1063
sg154
(lp1064
g156
ass(Vbuild
p1065
g1059
tp1066
(dp1067
Vimage-file
p1068
Vvmlinux
p1069
ss(Vimage
p1070
g1059
tp1071
(dp1072
Vinstall-stem
p1073
Vvmlinux
p1074
ss(Vdescription
p1075
g1059
NVmips32r6el
p1076
tp1077
(dp1078
Vhardware
p1079
VMIPS R6 (32 bit, little endian)
p1080
sVhardware-long
p1081
VMIPS R6 (32 bit, little endian)
p1082
ss(Vimage
p1083
g1059
NVmips32r6el
p1084
tp1085
(dp1086
Vconfigs
p1087
(lp1088
Vkernelarch-mips/config.boston
p1089
aVkernelarch-mips/config.mips32r6
p1090
ass(Vdescription
p1091
g1059
NVmips64r6el
p1092
tp1093
(dp1094
Vhardware
p1095
VMIPS R6 (64 bit, little endian)
p1096
sVhardware-long
p1097
VMIPS R6 (64 bit, little endian)
p1098
ss(Vimage
p1099
g1059
NVmips64r6el
p1100
tp1101
(dp1102
Vconfigs
p1103
(lp1104
Vkernelarch-mips/config.boston
p1105
aVkernelarch-mips/config.mips64r6
p1106
ass(g185
g1059
g156
tp1107
(dp1108
g188
(lp1109
Vmips32r6el
p1110
aVmips64r6el
p1111
asg192
I01
ss(Vbase
p1112
Vpowerpc
p1113
tp1114
(dp1115
Vkernel-arch
p1116
Vpowerpc
p1117
sg154
(lp1118
g156
ass(Vbuild
p1119
g1113
tp1120
(dp1121
Vimage-file
p1122
Vvmlinux
p1123
sVvdso
p1124
I01
ss(Vimage
p1125
g1113
tp1126
(dp1127
Vconfigs
p1128
(lp1129
sVsuggests
p1130
Vmkvmlinuz
p1131
sVinstall-stem
p1132
Vvmlinux
p1133
ss(Vdescription
p1134
g1113
NVpowerpc
p1135
tp1136
(dp1137
Vhardware
p1138
Vuniprocessor 32-bit PowerPC
p1139
ss(Vdescription
p1140
g1113
NVpowerpc-smp
p1141
tp1142
(dp1143
Vhardware
p1144
Vmultiprocessor 32-bit PowerPC
p1145
ss(Vimage
p1146
g1113
NVpowerpc-smp
p1147
tp1148
(dp1149
Vconfigs
p1150
(lp1151
Vpowerpc/config.powerpc
p1152
aVpowerpc/config.powerpc-smp
p1153
ass(Vdescription
p1154
g1113
NVpowerpc64
p1155
tp1156
(dp1157
Vhardware
p1158
V64-bit PowerPC
p1159
ss(Vimage
p1160
g1113
NVpowerpc64
p1161
tp1162
(dp1163
Vconfigs
p1164
(lp1165
Vkernelarch-powerpc/config-arch-64
p1166
aVkernelarch-powerpc/config-arch-64-be
p1167
ass(g185
g1113
g156
tp1168
(dp1169
g188
(lp1170
Vpowerpc
p1171
aVpowerpc-smp
p1172
aVpowerpc64
p1173
asg192
I01
ss(Vbase
p1174
Vpowerpcspe
p1175
tp1176
(dp1177
Vkernel-arch
p1178
Vpowerpc
p1179
sg154
(lp1180
g156
ass(Vbuild
p1181
g1175
tp1182
(dp1183
Vimage-file
p1184
Vvmlinux
p1185
sVvdso
p1186
I01
ss(Vimage
p1187
g1175
tp1188
(dp1189
Vsuggests
p1190
Vmkvmlinuz
p1191
sVinstall-stem
p1192
Vvmlinux
p1193
ss(Vdescription
p1194
g1175
tp1195
(dp1196
Vhardware
p1197
V32-bit PowerPC with SPE (instead of AltiVec) with SMP support
p1198
ss(g185
g1175
g156
tp1199
(dp1200
g188
(lp1201
Vpowerpcspe
p1202
asg192
I01
ss(Vbase
p1203
Vppc64
p1204
tp1205
(dp1206
Vkernel-arch
p1207
Vpowerpc
p1208
sg154
(lp1209
g156
ass(Vbuild
p1210
g1204
tp1211
(dp1212
Vimage-file
p1213
Vvmlinux
p1214
sVvdso
p1215
I01
ss(Vimage
p1216
g1204
tp1217
(dp1218
Vconfigs
p1219
(lp1220
sVsuggests
p1221
Vmkvmlinuz
p1222
sVinstall-stem
p1223
Vvmlinux
p1224
ss(Vdescription
p1225
g1204
NVpowerpc64
p1226
tp1227
(dp1228
Vhardware
p1229
V64-bit PowerPC
p1230
ss(Vimage
p1231
g1204
NVpowerpc64
p1232
tp1233
(dp1234
Vconfigs
p1235
(lp1236
Vkernelarch-powerpc/config-arch-64
p1237
aVkernelarch-powerpc/config-arch-64-be
p1238
ass(g185
g1204
g156
tp1239
(dp1240
g188
(lp1241
Vpowerpc64
p1242
asg192
I01
ss(Vbase
p1243
Vppc64el
p1244
tp1245
(dp1246
Vkernel-arch
p1247
Vpowerpc
p1248
sg154
(lp1249
g156
ass(Vbuild
p1250
g1244
tp1251
(dp1252
Vimage-file
p1253
Vvmlinux
p1254
sVvdso
p1255
I01
ss(Vimage
p1256
g1244
tp1257
(dp1258
Vconfigs
p1259
(lp1260
sVsuggests
p1261
Vmkvmlinuz
p1262
sVinstall-stem
p1263
Vvmlinux
p1264
ss(Vdescription
p1265
g1244
NVpowerpc64le
p1266
tp1267
(dp1268
Vhardware
p1269
VLittle-endian 64-bit PowerPC
p1270
ss(Vimage
p1271
g1244
NVpowerpc64le
p1272
tp1273
(dp1274
Vconfigs
p1275
(lp1276
Vkernelarch-powerpc/config-arch-64
p1277
aVkernelarch-powerpc/config-arch-64-le
p1278
ass(g185
g1244
g156
tp1279
(dp1280
g188
(lp1281
Vpowerpc64le
p1282
asg192
I01
ss(Vbase
p1283
Vriscv64
p1284
tp1285
(dp1286
Vkernel-arch
p1287
Vriscv
p1288
sVfeaturesets
p1289
(lp1290
ss(Vbase
p1291
Vs390
p1292
tp1293
(dp1294
Vkernel-arch
p1295
Vs390
p1296
sVfeaturesets
p1297
(lp1298
ss(Vbase
p1299
Vs390x
p1300
tp1301
(dp1302
Vkernel-arch
p1303
Vs390
p1304
sg154
(lp1305
g156
ass(Vbuild
p1306
g1300
tp1307
(dp1308
Vimage-file
p1309
Varch/s390/boot/image
p1310
sVvdso
p1311
I01
ss(Vimage
p1312
g1300
tp1313
(dp1314
Vbootloaders
p1315
(lp1316
Vs390-tools
p1317
asVinstall-stem
p1318
Vvmlinuz
p1319
ss(Vrelations
p1320
g1300
tp1321
(dp1322
Vheaders%gcc-7
p1323
Vlinux-compiler-gcc-7-s390
p1324
ss(Vbuild
p1325
g1300
NVs390x
p1326
tp1327
(dp1328
Vdebug-info
p1329
I01
ss(Vdescription
p1330
g1300
NVs390x
p1331
tp1332
(dp1333
Vhardware
p1334
VIBM zSeries
p1335
ss(g185
g1300
g156
tp1336
(dp1337
g188
(lp1338
Vs390x
p1339
asg192
I01
ss(Vbase
p1340
Vsh3
p1341
tp1342
(dp1343
Vkernel-arch
p1344
Vsh
p1345
sVfeaturesets
p1346
(lp1347
ss(Vbase
p1348
Vsh4
p1349
tp1350
(dp1351
Vkernel-arch
p1352
Vsh
p1353
sg154
(lp1354
g156
ass(Vbuild
p1355
g1349
tp1356
(dp1357
Vimage-file
p1358
Varch/sh/boot/zImage
p1359
ss(Vimage
p1360
g1349
tp1361
(dp1362
Vinstall-stem
p1363
Vvmlinuz
p1364
ss(Vdescription
p1365
g1349
NVsh7751r
p1366
tp1367
(dp1368
Vhardware
p1369
Vsh7751r
p1370
sVhardware-long
p1371
VRenesas SH7751R R2D plus board
p1372
ss(Vdescription
p1373
g1349
NVsh7785lcr
p1374
tp1375
(dp1376
Vhardware
p1377
Vsh7785lcr
p1378
sVhardware-long
p1379
VRenesas SH7785 reference board
p1380
ss(Vimage
p1381
g1349
NVsh7785lcr
p1382
tp1383
(dp1384
Vrecommends
p1385
Vu-boot-tools
p1386
sVcheck-size
p1387
L4194304L
ss(g185
g1349
g156
tp1388
(dp1389
g188
(lp1390
Vsh7751r
p1391
aVsh7785lcr
p1392
asg192
I01
ss(Vbase
p1393
Vsparc
p1394
tp1395
(dp1396
Vkernel-arch
p1397
Vsparc
p1398
sVfeaturesets
p1399
(lp1400
ss(Vbase
p1401
Vsparc64
p1402
tp1403
(dp1404
Vkernel-arch
p1405
Vsparc
p1406
sg154
(lp1407
g156
ass(Vbuild
p1408
g1402
tp1409
(dp1410
Vimage-file
p1411
Varch/sparc/boot/zImage
p1412
ss(Vimage
p1413
g1402
tp1414
(dp1415
Vconfigs
p1416
(lp1417
sVsuggests
p1418
Vsilo, fdutils
p1419
sVinstall-stem
p1420
Vvmlinuz
p1421
ss(Vdescription
p1422
g1402
NVsparc64
p1423
tp1424
(dp1425
Vhardware
p1426
Vuniprocessor 64-bit UltraSPARC
p1427
ss(Vimage
p1428
g1402
NVsparc64
p1429
tp1430
(dp1431
Vconfigs
p1432
(lp1433
Vkernelarch-sparc/config-up
p1434
ass(Vdescription
p1435
g1402
NVsparc64-smp
p1436
tp1437
(dp1438
Vhardware
p1439
Vmultiprocessor 64-bit UltraSPARC
p1440
ss(Vimage
p1441
g1402
NVsparc64-smp
p1442
tp1443
(dp1444
Vconfigs
p1445
(lp1446
Vkernelarch-sparc/config-smp
p1447
ass(g185
g1402
g156
tp1448
(dp1449
g188
(lp1450
Vsparc64
p1451
aVsparc64-smp
p1452
asg192
I01
ss(Vbase
p1453
Vtilegx
p1454
tp1455
(dp1456
Vkernel-arch
p1457
Vtile
p1458
sVfeaturesets
p1459
(lp1460
ss(Vbase
p1461
Vx32
p1462
tp1463
(dp1464
Vkernel-arch
p1465
Vx86
p1466
sVfeaturesets
p1467
(lp1468
ss(Vabi
p1469
NVrt
p1470
tp1471
(dp1472
Vignore-changes
p1473
(lp1474
V*
p1475
ass(Vdescription
p1476
Ng1470
tp1477
(dp1478
Vpart-long-rt
p1479
VThis kernel includes the PREEMPT_RT realtime patch set.
p1480
sVpart-short-rt
p1481
VPREEMPT_RT
p1482
sVparts
p1483
(lp1484
Vrt
p1485
ass(Vversion
p1486
tp1487
(dp1488
Vsource
p1489
V4.17.6-2kali1
p1490
sVupstream
p1491
V4.17
p1492
sVabiname_base
p1493
V4.17.0
p1494
sVabiname
p1495
V4.17.0-kali1
p1496
ss.