cdebian_linux.config
ConfigCore
p0
(tRp1
(Vbase
p2
tp3
(dp4
Varches
p5
(lp6
Valpha
p7
aVamd64
p8
aVarm64
p9
aVarmel
p10
aVarmhf
p11
aVhppa
p12
aVi386
p13
aVm68k
p14
aVmips
p15
aVmipsel
p16
aVmipsn32
p17
aVmipsn32el
p18
aVmips64
p19
aVmips64el
p20
aVpowerpc
p21
aVpowerpcspe
p22
aVppc64
p23
aVppc64el
p24
aVs390
p25
aVs390x
p26
aVsh3
p27
aVsh4
p28
aVsparc
p29
aVsparc64
p30
aVtilegx
p31
aVx32
p32
asVfeaturesets
p33
(lp34
Vnone
p35
aVrt
p36
asVcompiler
p37
Vgcc-6
p38
ss(Vbuild
p39
tp40
(dp41
Vsigned-modules
p42
I00
sVdebug-info
p43
I01
ss(Vbase
p44
NVrt
p45
tp46
(dp47
Venabled
p48
I00
ss(Vdescription
p49
tp50
(dp51
Vpart-long-up
p52
VThis kernel is not suitable for SMP (multi-processor,\u000amulti-core or hyper-threaded) systems.
p53
sVpart-long-xen
p54
VThis kernel also runs on a Xen hypervisor.\u000aIt supports both privileged (dom0) and unprivileged (domU) operation.
p55
ss(Vrelations
p56
tp57
(dp58
Vinitramfs-tools
p59
Vinitramfs-tools (>= 0.120+deb8u2)
p60
sVgcc-6
p61
Vgcc-6 <!stage1 !cross>, gcc-6-@gnu-type-package@ <!stage1 cross>
p62
sVinitramfs-fallback
p63
Vlinux-initramfs-tool
p64
ss(Vimage
p65
tp66
(dp67
Vinitramfs-generators
p68
(lp69
Vinitramfs-tools
p70
aVinitramfs-fallback
p71
ass(Vabi
p72
tp73
(dp74
Vabiname
p75
Vkali2
p76
sVignore-changes
p77
(lp78
V__cpuhp_*
p79
aVbpf_analyzer
p80
aVcxl_*
p81
aViommu_device_*
p82
aVmm_iommu_*
p83
aVperf_*
p84
aVregister_cxl_calls
p85
aVunregister_cxl_calls
p86
aV*_hw_breakpoint
p87
aVmodule:arch/x86/kvm/*
p88
aVmodule:drivers/crypto/ccp/*
p89
aVmodule:drivers/hv/*
p90
aVmodule:drivers/iio/common/hid-sensors/*
p91
aVmodule:drivers/iio/common/st_sensors/**
p92
aVmodule:drivers/mtd/nand/*
p93
aVmodule:drivers/net/wireless/**
p94
aVmodule:drivers/nvdimm/*
p95
aVmodule:drivers/power/supply/bq27xxx_battery
p96
aVmodule:drivers/scsi/cxgbi/*
p97
aVmodule:drivers/scsi/libiscs*
p98
aVmodule:drivers/scsi/qla2xxx/qla2xxx
p99
aVmodule:drivers/scsi/ufs/*
p100
aVmodule:drivers/target/**
p101
aVmodule:drivers/usb/chipidea/**
p102
aVmodule:drivers/usb/host/**
p103
aVmodule:drivers/usb/musb/**
p104
aVmodule:net/ceph/libceph
p105
aVmodule:net/l2tp/l2tp_core
p106
aVmodule:sound/firewire/snd-firewire-lib
p107
aVbtree_*
p108
aVvisitor*
p109
aVcan_rx_register
p110
aVip6_xmit
p111
aVmodule:net/dccp/dccp
p112
aVmodule:net/rds/rds
p113
aVdevfreq_*
p114
aVdevm_devfreq_*
p115
aVupdate_devfreq
p116
aVmodule:drivers/infiniband/**
p117
aVacpi_ec_add_query_handler
p118
aVacpi_ec_remove_query_handler
p119
aVfirst_ec
p120
aVdebugfs_create_automount
p121
aVmodule:drivers/iio/imu/inv_mpu6050/*
p122
ass(Vbase
p123
Valpha
p124
tp125
(dp126
Vfeaturesets
p127
(lp128
Vnone
p129
asVkernel-arch
p130
Valpha
p131
ss(Vdescription
p132
g124
NValpha-smp
p133
tp134
(dp135
Vhardware
p136
VAlpha SMP
p137
sVhardware-long
p138
VDEC Alpha SMP systems with extended kernel start address (Wildfire, Titan, Marvel)
p139
ss(Vbuild
p140
g124
tp141
(dp142
Vsigned-modules
p143
I00
sVimage-file
p144
Varch/alpha/boot/vmlinux.gz
p145
ss(Vdescription
p146
g124
NValpha-generic
p147
tp148
(dp149
Vhardware
p150
VAlpha
p151
sVhardware-long
p152
VDEC Alpha systems with extended kernel start address (Wildfire, Titan, Marvel)
p153
ss(Vimage
p154
g124
tp155
(dp156
Vsuggests
p157
Vaboot, fdutils
p158
sVinstall-stem
p159
Vvmlinuz
p160
ss(Vbase
p161
g124
g129
tp162
(dp163
Vflavours
p164
(lp165
Valpha-generic
p166
aValpha-smp
p167
asVimplicit-flavour
p168
I01
ss(Vbase
p169
Vamd64
p170
tp171
(dp172
Vfeaturesets
p173
(lp174
Vnone
p175
aVrt
p176
asVkernel-arch
p177
Vx86
p178
ss(Vdescription
p179
g170
NVamd64
p180
tp181
(dp182
Vhardware
p183
V64-bit PCs
p184
sVhardware-long
p185
VPCs with AMD64, Intel 64 or VIA Nano processors
p186
ss(Vbuild
p187
g170
tp188
(dp189
Vvdso
p190
I01
sVimage-file
p191
Varch/x86/boot/bzImage
p192
sVdebug-info
p193
I01
sVsigned-modules
p194
I00
ss(Vrelations
p195
g170
tp196
(dp197
Vheaders%gcc-6
p198
Vlinux-compiler-gcc-6-x86
p199
ss(Vimage
p200
g170
tp201
(dp202
Vbreaks
p203
Vxserver-xorg-input-vmmouse (<< 1:13.0.99)
p204
sVinstall-stem
p205
Vvmlinuz
p206
sVbootloaders
p207
(lp208
Vgrub-pc
p209
aVgrub-efi-amd64
p210
aVextlinux
p211
ass(Vbase
p212
g170
Vnone
p213
tp214
(dp215
Vflavours
p216
(lp217
Vamd64
p218
ass(Vdescription
p219
g170
g213
Vamd64
p220
tp221
(dp222
Vparts
p223
(lp224
Vxen
p225
ass(Vbase
p226
g170
Vrt
p227
tp228
(dp229
Vflavours
p230
(lp231
Vamd64
p232
ass(Vbase
p233
Varm64
p234
tp235
(dp236
Vfeaturesets
p237
(lp238
Vnone
p239
asVkernel-arch
p240
Varm64
p241
ss(Vdescription
p242
g234
NVarm64
p243
tp244
(dp245
Vhardware
p246
V64-bit ARMv8 machines
p247
ss(Vbuild
p248
g234
tp249
(dp250
Vvdso
p251
I01
sVimage-file
p252
Varch/arm64/boot/Image
p253
sVdebug-info
p254
I01
sVsigned-modules
p255
I00
ss(Vimage
p256
g234
NVarm64
p257
tp258
(dp259
s(Vimage
p260
g234
tp261
(dp262
Vbreaks
p263
Vlibmozjs185-1.0, libmozjs-24-0 (<< 24.2.0-5.1~)
p264
sVinstall-stem
p265
Vvmlinuz
p266
ss(Vbase
p267
g234
Vnone
p268
tp269
(dp270
Vflavours
p271
(lp272
Varm64
p273
ass(Vbase
p274
Varmel
p275
tp276
(dp277
g127
(lp278
g129
asVkernel-arch
p279
Varm
p280
ss(Vbuild
p281
g275
tp282
(dp283
Vsigned-modules
p284
I00
sVimage-file
p285
Varch/arm/boot/zImage
p286
ss(Vimage
p287
g275
NVmarvell
p288
tp289
(dp290
Vrecommends
p291
Vu-boot-tools
p292
sVbreaks
p293
Vflash-kernel (<< 3.57~)
p294
sVcheck-size-with-dtb
p295
I01
sVcheck-size
p296
L2097080L
ss(Vdescription
p297
g275
NVmarvell
p298
tp299
(dp300
Vhardware
p301
VMarvell Kirkwood/Orion
p302
sVhardware-long
p303
VMarvell Kirkwood based systems (SheevaPlug, QNAP TS-119/TS-219, etc)\u000aand Orion 5181, 5182 and 5281 based systems (QNAP TS-109/TS-209, etc)
p304
ss(Vrelations
p305
g275
tp306
(dp307
Vheaders%gcc-6
p308
Vlinux-compiler-gcc-6-arm
p309
ss(Vimage
p310
g275
tp311
(dp312
Vinstall-stem
p313
Vvmlinuz
p314
ss(g161
g275
g129
tp315
(dp316
g164
(lp317
Vmarvell
p318
asg168
I01
ss(Vbase
p319
Varmhf
p320
tp321
(dp322
g127
(lp323
g129
asVkernel-arch
p324
Varm
p325
ss(Vdescription
p326
g320
NVarmmp
p327
tp328
(dp329
Vhardware
p330
VARMv7 multiplatform compatible SoCs
p331
sVhardware-long
p332
VARMv7 multiplatform kernel. See\u000ahttps://wiki.debian.org/DebianKernel/ARMMP for details of supported\u000aplatforms
p333
ss(Vbuild
p334
g320
tp335
(dp336
Vvdso
p337
I01
sVimage-file
p338
Varch/arm/boot/zImage
p339
sVsigned-modules
p340
I00
ss(Vdescription
p341
g320
NVarmmp-lpae
p342
tp343
(dp344
Vhardware
p345
VARMv7 multiplatform compatible SoCs supporting LPAE
p346
sVhardware-long
p347
VARMv7 multiplatform kernel supporting LPAE. See\u000ahttps://wiki.debian.org/DebianKernel/ARMMP for details of supported\u000aplatforms.
p348
ss(Vrelations
p349
g320
tp350
(dp351
Vheaders%gcc-6
p352
Vlinux-compiler-gcc-6-arm
p353
ss(Vimage
p354
g320
tp355
(dp356
Vinstall-stem
p357
Vvmlinuz
p358
ss(g161
g320
g129
tp359
(dp360
g164
(lp361
Varmmp
p362
aVarmmp-lpae
p363
asg168
I01
ss(Vbase
p364
Vhppa
p365
tp366
(dp367
g127
(lp368
g129
asVkernel-arch
p369
Vparisc
p370
ss(Vbuild
p371
g365
tp372
(dp373
Vsigned-modules
p374
I00
sVimage-file
p375
Vvmlinux
p376
ss(Vdescription
p377
g365
NVparisc64-smp
p378
tp379
(dp380
Vhardware
p381
Vmultiprocessor 64-bit PA-RISC
p382
sVhardware-long
p383
VHP PA-RISC 64-bit SMP systems with support for more than 4 GB RAM
p384
ss(Vbase
p385
g365
NVparisc64-smp
p386
tp387
(dp388
Vcflags
p389
V-fno-cse-follow-jumps
p390
sVoverride-host-type
p391
Vhppa64-linux-gnu
p392
ss(Vrelations
p393
g365
tp394
(dp395
Vgcc-6
p396
Vgcc-6 <!stage1 !cross>, binutils-hppa64-linux-gnu <!stage1 !cross>, gcc-6-hppa64-linux-gnu <!stage1 !cross>, gcc-6-hppa-linux-gnu <!stage1 cross>, binutils-hppa64-linux-gnu <!stage1 cross>, gcc-6-hppa64-linux-gnu <!stage1 cross>
p397
ss(Vdescription
p398
g365
NVparisc
p399
tp400
(dp401
Vhardware
p402
V32-bit PA-RISC
p403
sVhardware-long
p404
VHP PA-RISC 32-bit systems with max 4 GB RAM
p405
ss(Vimage
p406
g365
tp407
(dp408
Vsuggests
p409
Vpalo
p410
sVinstall-stem
p411
Vvmlinux
p412
ss(g161
g365
g129
tp413
(dp414
g164
(lp415
Vparisc
p416
aVparisc64-smp
p417
asg168
I01
ss(Vbase
p418
Vi386
p419
tp420
(dp421
Vfeaturesets
p422
(lp423
Vnone
p424
aVrt
p425
asVkernel-arch
p426
Vx86
p427
ss(Vbuild
p428
g419
tp429
(dp430
Vvdso
p431
I01
sVimage-file
p432
Varch/x86/boot/bzImage
p433
sVsigned-modules
p434
I00
ss(Vdescription
p435
g419
NV686-pae
p436
tp437
(dp438
Vhardware
p439
Vmodern PCs
p440
sVhardware-long
p441
VPCs with one or more processors supporting PAE
p442
sVparts
p443
(lp444
Vpae
p445
ass(Vdescription
p446
g419
tp447
(dp448
Vpart-long-pae
p449
VThis kernel requires PAE (Physical Address Extension).\u000aThis feature is supported by the Intel Pentium Pro/II/III/4/4M/D, Xeon,\u000aCore and Atom; AMD Geode NX, Athlon (K7), Duron, Opteron, Sempron,\u000aTurion or Phenom; Transmeta Efficeon; VIA C7; and some other processors.
p450
ss(Vbuild
p451
g419
NV686-pae
p452
tp453
(dp454
Vdebug-info
p455
I01
ss(Vdescription
p456
g419
NV686
p457
tp458
(dp459
Vhardware
p460
Volder PCs
p461
sVhardware-long
p462
VPCs with one or more processors not supporting PAE
p463
ss(Vrelations
p464
g419
tp465
(dp466
Vheaders%gcc-6
p467
Vlinux-compiler-gcc-6-x86
p468
ss(Vimage
p469
g419
tp470
(dp471
Vbreaks
p472
Vxserver-xorg-input-vmmouse (<< 1:13.0.99)
p473
sVinstall-stem
p474
Vvmlinuz
p475
sVbootloaders
p476
(lp477
Vgrub-pc
p478
aVextlinux
p479
ass(Vbase
p480
g419
Vnone
p481
tp482
(dp483
Vflavours
p484
(lp485
V686
p486
aV686-pae
p487
ass(Vdescription
p488
g419
g481
V686-pae
p489
tp490
(dp491
Vparts
p492
(lp493
Vxen
p494
ass(Vbase
p495
g419
Vrt
p496
tp497
(dp498
Vflavours
p499
(lp500
V686-pae
p501
ass(Vbase
p502
Vm68k
p503
tp504
(dp505
Vcflags
p506
V-ffreestanding
p507
sg127
(lp508
g129
asVkernel-arch
p509
Vm68k
p510
ss(Vbuild
p511
g503
tp512
(dp513
Vsigned-modules
p514
I00
sVimage-file
p515
Vvmlinux.gz
p516
ss(Vdescription
p517
g503
NVm68k
p518
tp519
(dp520
Vhardware
p521
VMotorola MC68020+ family
p522
ss(Vimage
p523
g503
tp524
(dp525
Vsuggests
p526
Vvmelilo, fdutils
p527
sVinstall-stem
p528
Vvmlinuz
p529
ss(g161
g503
g129
tp530
(dp531
g164
(lp532
Vm68k
p533
asg168
I01
ss(Vbase
p534
Vmips
p535
tp536
(dp537
g127
(lp538
g129
asVkernel-arch
p539
Vmips
p540
ss(Vbuild
p541
g535
tp542
(dp543
Vsigned-modules
p544
I00
sVimage-file
p545
Vvmlinux
p546
ss(Vimage
p547
g535
NV4kc-malta
p548
tp549
(dp550
Vconfigs
p551
(lp552
Vkernelarch-mips/config.malta
p553
aVkernelarch-mips/config.mips32r2
p554
ass(Vimage
p555
g535
NV5kc-malta
p556
tp557
(dp558
Vconfigs
p559
(lp560
Vkernelarch-mips/config.malta
p561
aVkernelarch-mips/config.mips64r2
p562
ass(Vdescription
p563
g535
NVocteon
p564
tp565
(dp566
Vhardware
p567
VOcteon
p568
sVhardware-long
p569
VCavium Networks Octeon
p570
ss(Vimage
p571
g535
NVocteon
p572
tp573
(dp574
Vconfigs
p575
(lp576
Vkernelarch-mips/config.octeon
p577
ass(Vimage
p578
g535
tp579
(dp580
Vinstall-stem
p581
Vvmlinux
p582
ss(Vdescription
p583
g535
NV5kc-malta
p584
tp585
(dp586
Vhardware
p587
VMIPS Malta (64-bit)
p588
sVhardware-long
p589
VMIPS Malta boards (64-bit)
p590
ss(Vdescription
p591
g535
NV4kc-malta
p592
tp593
(dp594
Vhardware
p595
VMIPS Malta
p596
sVhardware-long
p597
VMIPS Malta boards
p598
ss(g161
g535
g129
tp599
(dp600
g164
(lp601
V4kc-malta
p602
aV5kc-malta
p603
aVocteon
p604
asg168
I01
ss(Vbase
p605
Vmipsel
p606
tp607
(dp608
g127
(lp609
g129
asVkernel-arch
p610
Vmips
p611
ss(Vimage
p612
g606
NVloongson-3
p613
tp614
(dp615
Vconfigs
p616
(lp617
Vkernelarch-mips/config.loongson-3
p618
ass(Vbuild
p619
g606
tp620
(dp621
Vsigned-modules
p622
I00
sVimage-file
p623
Vvmlinux
p624
ss(Vimage
p625
g606
NV4kc-malta
p626
tp627
(dp628
Vconfigs
p629
(lp630
Vkernelarch-mips/config.malta
p631
aVkernelarch-mips/config.mips32r2
p632
ass(Vimage
p633
g606
NV5kc-malta
p634
tp635
(dp636
Vconfigs
p637
(lp638
Vkernelarch-mips/config.malta
p639
aVkernelarch-mips/config.mips64r2
p640
ass(Vdescription
p641
g606
NVocteon
p642
tp643
(dp644
Vhardware
p645
VOcteon
p646
sVhardware-long
p647
VCavium Networks Octeon
p648
ss(Vdescription
p649
g606
NVloongson-3
p650
tp651
(dp652
Vhardware
p653
VLoongson 3A/3B
p654
sVhardware-long
p655
VLoongson 3A or 3B based systems (e.g. from Loongson or Lemote)
p656
ss(Vimage
p657
g606
NVocteon
p658
tp659
(dp660
Vconfigs
p661
(lp662
Vkernelarch-mips/config.octeon
p663
ass(Vimage
p664
g606
tp665
(dp666
Vinstall-stem
p667
Vvmlinux
p668
ss(Vdescription
p669
g606
NV5kc-malta
p670
tp671
(dp672
Vhardware
p673
VMIPS Malta (64-bit)
p674
sVhardware-long
p675
VMIPS Malta boards (64-bit)
p676
ss(Vdescription
p677
g606
NV4kc-malta
p678
tp679
(dp680
Vhardware
p681
VMIPS Malta
p682
sVhardware-long
p683
VMIPS Malta boards
p684
ss(g161
g606
g129
tp685
(dp686
g164
(lp687
V4kc-malta
p688
aV5kc-malta
p689
aVloongson-3
p690
aVocteon
p691
asg168
I01
ss(Vbase
p692
Vmipsn32
p693
tp694
(dp695
Vfeaturesets
p696
(lp697
sVkernel-arch
p698
Vmips
p699
ss(Vbase
p700
Vmipsn32el
p701
tp702
(dp703
Vfeaturesets
p704
(lp705
sVkernel-arch
p706
Vmips
p707
ss(Vbase
p708
Vmips64
p709
tp710
(dp711
g127
(lp712
g129
asVkernel-arch
p713
Vmips
p714
ss(Vbuild
p715
g709
tp716
(dp717
Vsigned-modules
p718
I00
sVimage-file
p719
Vvmlinux
p720
ss(Vimage
p721
g709
NV5kc-malta
p722
tp723
(dp724
Vconfigs
p725
(lp726
Vkernelarch-mips/config.malta
p727
aVkernelarch-mips/config.mips64r2
p728
ass(Vdescription
p729
g709
NVocteon
p730
tp731
(dp732
Vhardware
p733
VOcteon
p734
sVhardware-long
p735
VCavium Networks Octeon
p736
ss(Vimage
p737
g709
tp738
(dp739
Vinstall-stem
p740
Vvmlinux
p741
ss(Vdescription
p742
g709
NV5kc-malta
p743
tp744
(dp745
Vhardware
p746
VMIPS Malta
p747
sVhardware-long
p748
VMIPS Malta boards
p749
ss(Vimage
p750
g709
NVocteon
p751
tp752
(dp753
Vconfigs
p754
(lp755
Vkernelarch-mips/config.octeon
p756
ass(g161
g709
g129
tp757
(dp758
g164
(lp759
V5kc-malta
p760
aVocteon
p761
asg168
I01
ss(Vbase
p762
Vmips64el
p763
tp764
(dp765
g127
(lp766
g129
asVkernel-arch
p767
Vmips
p768
ss(Vimage
p769
g763
NVloongson-3
p770
tp771
(dp772
Vconfigs
p773
(lp774
Vkernelarch-mips/config.loongson-3
p775
ass(Vbuild
p776
g763
tp777
(dp778
Vsigned-modules
p779
I00
sVimage-file
p780
Vvmlinux
p781
ss(Vimage
p782
g763
NV5kc-malta
p783
tp784
(dp785
Vconfigs
p786
(lp787
Vkernelarch-mips/config.malta
p788
aVkernelarch-mips/config.mips64r2
p789
ass(Vdescription
p790
g763
NVocteon
p791
tp792
(dp793
Vhardware
p794
VOcteon
p795
sVhardware-long
p796
VCavium Networks Octeon
p797
ss(Vdescription
p798
g763
NVloongson-3
p799
tp800
(dp801
Vhardware
p802
VLoongson 3A/3B
p803
sVhardware-long
p804
VLoongson 3A or 3B based systems (e.g. from Loongson or Lemote)
p805
ss(Vimage
p806
g763
tp807
(dp808
Vinstall-stem
p809
Vvmlinux
p810
ss(Vdescription
p811
g763
NV5kc-malta
p812
tp813
(dp814
Vhardware
p815
VMIPS Malta
p816
sVhardware-long
p817
VMIPS Malta boards
p818
ss(Vimage
p819
g763
NVocteon
p820
tp821
(dp822
Vconfigs
p823
(lp824
Vkernelarch-mips/config.octeon
p825
ass(g161
g763
g129
tp826
(dp827
g164
(lp828
V5kc-malta
p829
aVloongson-3
p830
aVocteon
p831
asg168
I01
ss(Vbase
p832
Vpowerpc
p833
tp834
(dp835
g127
(lp836
g129
asVkernel-arch
p837
Vpowerpc
p838
ss(Vdescription
p839
g833
NVpowerpc64
p840
tp841
(dp842
Vhardware
p843
V64-bit PowerPC
p844
ss(Vbuild
p845
g833
tp846
(dp847
Vvdso
p848
I01
sVimage-file
p849
Vvmlinux
p850
ss(Vimage
p851
g833
NVpowerpc-smp
p852
tp853
(dp854
Vconfigs
p855
(lp856
Vpowerpc/config.powerpc
p857
aVpowerpc/config.powerpc-smp
p858
ass(Vdescription
p859
g833
NVpowerpc
p860
tp861
(dp862
Vhardware
p863
Vuniprocessor 32-bit PowerPC
p864
ss(Vimage
p865
g833
NVpowerpc64
p866
tp867
(dp868
Vconfigs
p869
(lp870
Vkernelarch-powerpc/config-arch-64
p871
aVkernelarch-powerpc/config-arch-64-be
p872
ass(Vdescription
p873
g833
NVpowerpc-smp
p874
tp875
(dp876
Vhardware
p877
Vmultiprocessor 32-bit PowerPC
p878
ss(Vimage
p879
g833
tp880
(dp881
Vsuggests
p882
Vmkvmlinuz
p883
sVinstall-stem
p884
Vvmlinux
p885
sVconfigs
p886
(lp887
ss(g161
g833
g129
tp888
(dp889
g164
(lp890
Vpowerpc
p891
aVpowerpc-smp
p892
aVpowerpc64
p893
asg168
I01
ss(Vbase
p894
Vpowerpcspe
p895
tp896
(dp897
g127
(lp898
g129
asVkernel-arch
p899
Vpowerpc
p900
ss(Vbuild
p901
g895
tp902
(dp903
Vsigned-modules
p904
I00
sVimage-file
p905
Vvmlinux
p906
sVvdso
p907
I01
ss(Vimage
p908
g895
tp909
(dp910
Vsuggests
p911
Vmkvmlinuz
p912
sVinstall-stem
p913
Vvmlinux
p914
ss(Vdescription
p915
g895
tp916
(dp917
Vhardware
p918
V32-bit PowerPC with SPE (instead of AltiVec) with SMP support
p919
ss(g161
g895
g129
tp920
(dp921
g164
(lp922
Vpowerpcspe
p923
asg168
I01
ss(Vbase
p924
Vppc64
p925
tp926
(dp927
g127
(lp928
g129
asVkernel-arch
p929
Vpowerpc
p930
ss(Vdescription
p931
g925
NVpowerpc64
p932
tp933
(dp934
Vhardware
p935
V64-bit PowerPC
p936
ss(Vbuild
p937
g925
tp938
(dp939
Vsigned-modules
p940
I00
sVimage-file
p941
Vvmlinux
p942
sVvdso
p943
I01
ss(Vimage
p944
g925
NVpowerpc64
p945
tp946
(dp947
Vconfigs
p948
(lp949
Vkernelarch-powerpc/config-arch-64
p950
aVkernelarch-powerpc/config-arch-64-be
p951
ass(Vimage
p952
g925
tp953
(dp954
Vsuggests
p955
Vmkvmlinuz
p956
sVinstall-stem
p957
Vvmlinux
p958
sVconfigs
p959
(lp960
ss(g161
g925
g129
tp961
(dp962
g164
(lp963
Vpowerpc64
p964
asg168
I01
ss(Vbase
p965
Vppc64el
p966
tp967
(dp968
g127
(lp969
g129
asVkernel-arch
p970
Vpowerpc
p971
ss(Vdescription
p972
g966
NVpowerpc64le
p973
tp974
(dp975
Vhardware
p976
VLittle-endian 64-bit PowerPC
p977
ss(Vbuild
p978
g966
tp979
(dp980
Vvdso
p981
I01
sVimage-file
p982
Vvmlinux
p983
ss(Vimage
p984
g966
tp985
(dp986
Vsuggests
p987
Vmkvmlinuz
p988
sVinstall-stem
p989
Vvmlinux
p990
sVconfigs
p991
(lp992
ss(Vimage
p993
g966
NVpowerpc64le
p994
tp995
(dp996
Vconfigs
p997
(lp998
Vkernelarch-powerpc/config-arch-64
p999
aVkernelarch-powerpc/config-arch-64-le
p1000
ass(g161
g966
g129
tp1001
(dp1002
g164
(lp1003
Vpowerpc64le
p1004
asg168
I01
ss(Vbase
p1005
Vs390
p1006
tp1007
(dp1008
Vfeaturesets
p1009
(lp1010
sVkernel-arch
p1011
Vs390
p1012
ss(Vbase
p1013
Vs390x
p1014
tp1015
(dp1016
g127
(lp1017
g129
asVkernel-arch
p1018
Vs390
p1019
ss(Vdescription
p1020
g1014
NVs390x
p1021
tp1022
(dp1023
Vhardware
p1024
VIBM zSeries
p1025
ss(Vbuild
p1026
g1014
tp1027
(dp1028
Vvdso
p1029
I01
sVimage-file
p1030
Varch/s390/boot/image
p1031
ss(Vbuild
p1032
g1014
NVs390x
p1033
tp1034
(dp1035
Vdebug-info
p1036
I01
ss(Vrelations
p1037
g1014
tp1038
(dp1039
Vheaders%gcc-6
p1040
Vlinux-compiler-gcc-6-s390
p1041
ss(Vimage
p1042
g1014
tp1043
(dp1044
Vinstall-stem
p1045
Vvmlinuz
p1046
sVbootloaders
p1047
(lp1048
Vs390-tools
p1049
ass(g161
g1014
g129
tp1050
(dp1051
g164
(lp1052
Vs390x
p1053
asg168
I01
ss(Vbase
p1054
Vsh3
p1055
tp1056
(dp1057
Vfeaturesets
p1058
(lp1059
sVkernel-arch
p1060
Vsh
p1061
ss(Vbase
p1062
Vsh4
p1063
tp1064
(dp1065
g127
(lp1066
g129
asVkernel-arch
p1067
Vsh
p1068
ss(Vbuild
p1069
g1063
tp1070
(dp1071
Vsigned-modules
p1072
I00
sVimage-file
p1073
Varch/sh/boot/zImage
p1074
ss(Vdescription
p1075
g1063
NVsh7751r
p1076
tp1077
(dp1078
Vhardware
p1079
Vsh7751r
p1080
sVhardware-long
p1081
VRenesas SH7751R R2D plus board
p1082
ss(Vdescription
p1083
g1063
NVsh7785lcr
p1084
tp1085
(dp1086
Vhardware
p1087
Vsh7785lcr
p1088
sVhardware-long
p1089
VRenesas SH7785 reference board
p1090
ss(Vimage
p1091
g1063
tp1092
(dp1093
Vinstall-stem
p1094
Vvmlinuz
p1095
ss(Vimage
p1096
g1063
NVsh7785lcr
p1097
tp1098
(dp1099
Vrecommends
p1100
Vu-boot-tools
p1101
sVcheck-size
p1102
L4194304L
ss(g161
g1063
g129
tp1103
(dp1104
g164
(lp1105
Vsh7751r
p1106
aVsh7785lcr
p1107
asg168
I01
ss(Vbase
p1108
Vsparc
p1109
tp1110
(dp1111
Vfeaturesets
p1112
(lp1113
sVkernel-arch
p1114
Vsparc
p1115
ss(Vbase
p1116
Vsparc64
p1117
tp1118
(dp1119
g127
(lp1120
g129
asVkernel-arch
p1121
Vsparc
p1122
ss(Vbuild
p1123
g1117
tp1124
(dp1125
Vsigned-modules
p1126
I00
sVimage-file
p1127
Varch/sparc/boot/zImage
p1128
ss(Vimage
p1129
g1117
NVsparc64
p1130
tp1131
(dp1132
Vconfigs
p1133
(lp1134
Vkernelarch-sparc/config-up
p1135
ass(Vimage
p1136
g1117
NVsparc64-smp
p1137
tp1138
(dp1139
Vconfigs
p1140
(lp1141
Vkernelarch-sparc/config-smp
p1142
ass(Vimage
p1143
g1117
tp1144
(dp1145
Vsuggests
p1146
Vsilo, fdutils
p1147
sVinstall-stem
p1148
Vvmlinuz
p1149
sVconfigs
p1150
(lp1151
ss(Vdescription
p1152
g1117
NVsparc64-smp
p1153
tp1154
(dp1155
Vhardware
p1156
Vmultiprocessor 64-bit UltraSPARC
p1157
ss(Vdescription
p1158
g1117
NVsparc64
p1159
tp1160
(dp1161
Vhardware
p1162
Vuniprocessor 64-bit UltraSPARC
p1163
ss(g161
g1117
g129
tp1164
(dp1165
g164
(lp1166
Vsparc64
p1167
aVsparc64-smp
p1168
asg168
I01
ss(Vbase
p1169
Vtilegx
p1170
tp1171
(dp1172
Vfeaturesets
p1173
(lp1174
sVkernel-arch
p1175
Vtile
p1176
ss(Vbase
p1177
Vx32
p1178
tp1179
(dp1180
Vfeaturesets
p1181
(lp1182
sVkernel-arch
p1183
Vx86
p1184
ss(Vdescription
p1185
NVrt
p1186
tp1187
(dp1188
Vparts
p1189
(lp1190
Vrt
p1191
asVpart-long-rt
p1192
VThis kernel includes the PREEMPT_RT realtime patch set.
p1193
sVpart-short-rt
p1194
VPREEMPT_RT
p1195
ss(Vabi
p1196
Ng1186
tp1197
(dp1198
Vignore-changes
p1199
(lp1200
V*
p1201
ass(Vversion
p1202
tp1203
(dp1204
Vupstream
p1205
V4.12
p1206
sVsource
p1207
V4.12.12-2kali1
p1208
sVabiname
p1209
V4.12.0-kali2
p1210
sVabiname_base
p1211
V4.12.0
p1212
ss.