ccopy_reg
_reconstructor
p0
(cdebian_linux.config
ConfigCore
p1
c__builtin__
dict
p2
(dp3
(Vbuild
p4
Varmhf
p5
tp6
(dp7
Vimage-file
p8
Varch/arm/boot/zImage
p9
sVvdso
p10
I01
ss(Vdescription
p11
Vmipsel
p12
NVloongson-2f
p13
tp14
(dp15
Vhardware-long
p16
VLemote Loongson 2F systems
p17
sVhardware
p18
VLoongson 2F
p19
ss(Vbase
p20
tp21
(dp22
Vcompiler
p23
Vgcc-5
p24
sVfeaturesets
p25
(lp26
Vnone
p27
aVrt
p28
asVarches
p29
(lp30
Valpha
p31
aVamd64
p32
aVarm64
p33
aVarmel
p34
aVarmhf
p35
aVhppa
p36
aVi386
p37
aVm68k
p38
aVmips
p39
aVmipsel
p40
aVmipsn32
p41
aVmipsn32el
p42
aVmips64
p43
aVmips64el
p44
aVor1k
p45
aVpowerpc
p46
aVpowerpcspe
p47
aVppc64
p48
aVppc64el
p49
aVs390
p50
aVs390x
p51
aVsh4
p52
aVsparc
p53
aVsparc64
p54
aVtilegx
p55
aVx32
p56
ass(Vbase
p57
Vhppa
p58
tp59
(dp60
Vfeaturesets
p61
(lp62
Vnone
p63
asVkernel-arch
p64
Vparisc
p65
ss(Vabi
p66
Vmips64el
p67
tp68
(dp69
Vignore-changes
p70
(lp71
V__flush_icache_page
p72
ass(Vimage
p73
Vsparc64
p74
NVsparc64-smp
p75
tp76
(dp77
Vconfigs
p78
(lp79
Vkernelarch-sparc/config-smp
p80
ass(Vimage
p81
g12
NV5kc-malta
p82
tp83
(dp84
Vconfigs
p85
(lp86
Vkernelarch-mips/config.malta
p87
aVkernelarch-mips/config.mips64r1
p88
ass(Vimage
p89
g12
NV4kc-malta
p90
tp91
(dp92
Vconfigs
p93
(lp94
Vkernelarch-mips/config.malta
p95
aVkernelarch-mips/config.mips32r1
p96
ass(Vdescription
p97
g67
NV5kc-malta
p98
tp99
(dp100
Vhardware-long
p101
VMIPS Malta boards
p102
sVhardware
p103
VMIPS Malta
p104
ss(Vbase
p105
Vsparc
p106
tp107
(dp108
Vfeaturesets
p109
(lp110
sVkernel-arch
p111
Vsparc
p112
ss(Vbuild
p113
Vsh4
p114
tp115
(dp116
Vimage-file
p117
Varch/sh/boot/zImage
p118
sVsigned-modules
p119
I00
ss(Vdescription
p120
Vppc64el
p121
NVpowerpc64le
p122
tp123
(dp124
Vhardware
p125
VLittle-endian 64-bit PowerPC
p126
ss(Vbuild
p127
Vamd64
p128
tp129
(dp130
Vimage-file
p131
Varch/x86/boot/bzImage
p132
sVvdso
p133
I01
sVdebug-info
p134
I01
ss(Vimage
p135
Vpowerpcspe
p136
tp137
(dp138
Vsuggests
p139
Vmkvmlinuz
p140
sVinstall-stem
p141
Vvmlinux
p142
ss(Vdescription
p143
g128
Vnone
p144
Vamd64
p145
tp146
(dp147
Vparts
p148
(lp149
Vxen
p150
ass(Vbase
p151
g74
tp152
(dp153
g61
(lp154
g63
asVkernel-arch
p155
Vsparc
p156
ss(Vimage
p157
Varmel
p158
NVmarvell
p159
tp160
(dp161
Vrecommends
p162
Vu-boot-tools
p163
sVcheck-size
p164
L2097080L
sVbreaks
p165
Vflash-kernel (<< 3.57~)
p166
sVcheck-size-with-dtb
p167
I01
ss(Vdescription
p168
g58
NVparisc64-smp
p169
tp170
(dp171
Vhardware-long
p172
VHP PA-RISC 64-bit SMP systems with support for more than 4 GB RAM
p173
sVhardware
p174
Vmultiprocessor 64-bit PA-RISC
p175
ss(Vimage
p176
g121
tp177
(dp178
Vsuggests
p179
Vmkvmlinuz
p180
sVconfigs
p181
(lp182
sVinstall-stem
p183
Vvmlinux
p184
ss(Vbase
p185
g158
g63
tp186
(dp187
Vflavours
p188
(lp189
Vmarvell
p190
aVversatile
p191
asVimplicit-flavour
p192
I01
ss(Vbase
p193
Vmipsn32
p194
tp195
(dp196
Vfeaturesets
p197
(lp198
sVkernel-arch
p199
Vmips
p200
ss(Vabi
p201
tp202
(dp203
Vignore-changes
p204
(lp205
Vmodule:drivers/net/wireless/realtek/rtlwifi/*
p206
aVxt_compat_match_from_user
p207
asVabiname
p208
Vkali1
p209
ss(g185
g67
g63
tp210
(dp211
g188
(lp212
V5kc-malta
p213
aVloongson-3
p214
aVocteon
p215
asg192
I01
ss(Vdescription
p216
Vpowerpc
p217
NVpowerpc64
p218
tp219
(dp220
Vhardware
p221
V64-bit PowerPC
p222
ss(Vimage
p223
tp224
(dp225
Vinitramfs-generators
p226
(lp227
Vinitramfs-tools
p228
aVinitramfs-fallback
p229
ass(Vbuild
p230
Vppc64
p231
tp232
(dp233
Vimage-file
p234
Vvmlinux
p235
sVvdso
p236
I01
sVsigned-modules
p237
I00
ss(Vimage
p238
g114
tp239
(dp240
Vinstall-stem
p241
Vvmlinuz
p242
ss(Vimage
p243
g128
tp244
(dp245
Vbreaks
p246
Vxserver-xorg-input-vmmouse (<< 1:13.0.99)
p247
sVinstall-stem
p248
Vvmlinuz
p249
sVbootloaders
p250
(lp251
Vgrub-pc
p252
aVgrub-efi
p253
aVextlinux
p254
ass(g185
Vm68k
p255
g63
tp256
(dp257
g188
(lp258
Vm68k
p259
asg192
I01
ss(Vbase
p260
NVrt
p261
tp262
(dp263
Venabled
p264
I01
ss(Vbase
p265
g12
tp266
(dp267
g61
(lp268
g63
asVkernel-arch
p269
Vmips
p270
ss(g185
g58
g63
tp271
(dp272
g188
(lp273
Vparisc
p274
aVparisc64-smp
p275
asg192
I01
ss(Vimage
p276
g12
NVloongson-2f
p277
tp278
(dp279
Vrecommends
p280
Vlibc6-loongson2f
p281
sVconfigs
p282
(lp283
Vkernelarch-mips/config.loongson-2f
p284
ass(g185
g74
g63
tp285
(dp286
g188
(lp287
Vsparc64
p288
aVsparc64-smp
p289
asg192
I01
ss(Vimage
p290
g114
NVsh7785lcr
p291
tp292
(dp293
Vrecommends
p294
Vu-boot-tools
p295
sVcheck-size
p296
L4194304L
ss(Vbase
p297
Vi386
p298
tp299
(dp300
Vfeaturesets
p301
(lp302
Vnone
p303
aVrt
p304
asVkernel-arch
p305
Vx86
p306
ss(Vimage
p307
g231
NVpowerpc64
p308
tp309
(dp310
Vconfigs
p311
(lp312
Vkernelarch-powerpc/config-arch-64
p313
aVkernelarch-powerpc/config-arch-64-be
p314
ass(Vdescription
p315
g12
NVocteon
p316
tp317
(dp318
Vhardware-long
p319
VCavium Networks Octeon
p320
sVhardware
p321
VOcteon
p322
ss(Vimage
p323
g12
NVloongson-2e
p324
tp325
(dp326
Vconfigs
p327
(lp328
Vkernelarch-mips/config.loongson-2e
p329
ass(Vbuild
p330
g298
NV686-pae
p331
tp332
(dp333
Vdebug-info
p334
I01
ss(Vversion
p335
tp336
(dp337
Vupstream
p338
V4.6
p339
sVabiname_base
p340
V4.6.0
p341
sVabiname
p342
V4.6.0-kali1
p343
sVsource
p344
V4.6.2-2kali1
p345
ss(Vbuild
p346
g298
tp347
(dp348
Vimage-file
p349
Varch/x86/boot/bzImage
p350
sVvdso
p351
I01
ss(Vdescription
p352
g298
tp353
(dp354
Vpart-long-pae
p355
VThis kernel requires PAE (Physical Address Extension).\u000aThis feature is supported by the Intel Pentium Pro/II/III/4/4M/D, Xeon,\u000aCore and Atom; AMD Geode NX, Athlon (K7), Duron, Opteron, Sempron,\u000aTurion or Phenom; Transmeta Efficeon; VIA C7; and some other processors.
p356
ss(Vbuild
p357
g12
tp358
(dp359
Vimage-file
p360
Vvmlinux
p361
sVsigned-modules
p362
I00
ss(Vdescription
p363
g158
NVversatile
p364
tp365
(dp366
Vhardware-long
p367
VVersatile systems (PB, AB, Qemu)
p368
sVhardware
p369
VVersatile
p370
ss(Vbuild
p371
Vmips
p372
tp373
(dp374
Vimage-file
p375
Vvmlinux
p376
sVsigned-modules
p377
I00
ss(Vbuild
p378
Valpha
p379
tp380
(dp381
Vimage-file
p382
Varch/alpha/boot/vmlinux.gz
p383
sVsigned-modules
p384
I00
ss(Vdescription
p385
g114
NVsh7751r
p386
tp387
(dp388
Vhardware-long
p389
VRenesas SH7751R R2D plus board
p390
sVhardware
p391
Vsh7751r
p392
ss(Vimage
p393
g298
tp394
(dp395
Vbreaks
p396
Vxserver-xorg-input-vmmouse (<< 1:13.0.99)
p397
sVinstall-stem
p398
Vvmlinuz
p399
sVbootloaders
p400
(lp401
Vgrub-pc
p402
aVextlinux
p403
ass(Vdescription
p404
Vmips64
p405
NV5kc-malta
p406
tp407
(dp408
Vhardware-long
p409
VMIPS Malta boards
p410
sVhardware
p411
VMIPS Malta
p412
ss(Vimage
p413
g217
NVpowerpc-smp
p414
tp415
(dp416
Vconfigs
p417
(lp418
Vpowerpc/config.powerpc
p419
aVpowerpc/config.powerpc-smp
p420
ass(Vdescription
p421
g372
NVocteon
p422
tp423
(dp424
Vhardware-long
p425
VCavium Networks Octeon
p426
sVhardware
p427
VOcteon
p428
ss(Vrelations
p429
g158
tp430
(dp431
Vheaders%gcc-5
p432
Vlinux-compiler-gcc-5-arm
p433
ss(Vbase
p434
g58
NVparisc64-smp
p435
tp436
(dp437
Vcflags
p438
V-fno-cse-follow-jumps
p439
sVoverride-host-type
p440
Vhppa64-linux-gnu
p441
ss(Vdescription
p442
g114
NVsh7785lcr
p443
tp444
(dp445
Vhardware-long
p446
VRenesas SH7785 reference board
p447
sVhardware
p448
Vsh7785lcr
p449
ss(Vdescription
p450
g255
NVm68k
p451
tp452
(dp453
Vhardware
p454
VMotorola MC68020+ family
p455
ss(Vxen
p456
g128
g144
Vamd64
p457
tp458
(dp459
Vflavours
p460
(lp461
Vamd64
p462
ass(Vbuild
p463
g158
NVmarvell
p464
tp465
(dp466
Vsigned-modules
p467
I00
ss(Vbase
p468
Vor1k
p469
tp470
(dp471
Vfeaturesets
p472
(lp473
sVkernel-arch
p474
Vopenrisc
p475
ss(Vbase
p476
Vx32
p477
tp478
(dp479
Vfeaturesets
p480
(lp481
sVkernel-arch
p482
Vx86
p483
ss(g185
g231
g63
tp484
(dp485
g188
(lp486
Vpowerpc64
p487
asg192
I01
ss(Vbuild
p488
g74
tp489
(dp490
Vimage-file
p491
Varch/sparc/boot/zImage
p492
sVsigned-modules
p493
I00
ss(Vbase
p494
g136
tp495
(dp496
g61
(lp497
g63
asVkernel-arch
p498
Vpowerpc
p499
ss(Vimage
p500
g58
tp501
(dp502
Vsuggests
p503
Vpalo
p504
sVinstall-stem
p505
Vvmlinux
p506
ss(g185
g114
g63
tp507
(dp508
g188
(lp509
Vsh7751r
p510
aVsh7785lcr
p511
asg192
I01
ss(Vdescription
p512
g372
NV5kc-malta
p513
tp514
(dp515
Vhardware-long
p516
VMIPS Malta boards (64-bit)
p517
sVhardware
p518
VMIPS Malta (64-bit)
p519
ss(Vdescription
p520
g5
NVarmmp
p521
tp522
(dp523
Vhardware-long
p524
VARMv7 multiplatform kernel. See\u000ahttps://wiki.debian.org/DebianKernel/ARMMP for details of supported\u000aplatforms
p525
sVhardware
p526
VARMv7 multiplatform compatible SoCs
p527
ss(Vbuild
p528
Varm64
p529
tp530
(dp531
Vimage-file
p532
Varch/arm64/boot/Image
p533
sVvdso
p534
I01
sVdebug-info
p535
I01
ss(Vrelations
p536
g58
tp537
(dp538
Vgcc-5
p539
Vgcc-5 <!stage1>, binutils-hppa64-linux-gnu <!stage1>, gcc-5-hppa64-linux-gnu <!stage1>
p540
ss(Vbase
p541
Vtilegx
p542
tp543
(dp544
Vfeaturesets
p545
(lp546
sVkernel-arch
p547
Vtile
p548
ss(Vimage
p549
g67
NVloongson-3
p550
tp551
(dp552
Vconfigs
p553
(lp554
Vkernelarch-mips/config.loongson-3
p555
ass(Vbase
p556
g298
Vnone
p557
tp558
(dp559
Vflavours
p560
(lp561
V686
p562
aV686-pae
p563
ass(Vimage
p564
g372
NV4kc-malta
p565
tp566
(dp567
Vconfigs
p568
(lp569
Vkernelarch-mips/config.malta
p570
aVkernelarch-mips/config.mips32r2
p571
ass(Vrelations
p572
tp573
(dp574
Vinitramfs-fallback
p575
Vlinux-initramfs-tool
p576
sVinitramfs-tools
p577
Vinitramfs-tools (>= 0.110~)
p578
sVgcc-5
p579
Vgcc-5 <!stage1>
p580
ss(Vabi
p581
g5
tp582
(dp583
Vignore-changes
p584
(lp585
Vmodule:drivers/gpu/drm/imx/*
p586
ass(Vdescription
p587
g298
NV686-pae
p588
tp589
(dp590
Vparts
p591
(lp592
Vpae
p593
asVhardware-long
p594
VPCs with one or more processors supporting PAE
p595
sVhardware
p596
Vmodern PCs
p597
ss(Vimage
p598
Vs390x
p599
tp600
(dp601
Vinstall-stem
p602
Vvmlinuz
p603
sVbootloaders
p604
(lp605
Vs390-tools
p606
ass(Vdescription
p607
g67
NVloongson-3
p608
tp609
(dp610
Vhardware-long
p611
VLoongson 3A or 3B based systems (e.g. from Loongson or Lemote)
p612
sVhardware
p613
VLoongson 3A/3B
p614
ss(Vdescription
p615
g298
NV686
p616
tp617
(dp618
Vhardware-long
p619
VPCs with one or more processors not supporting PAE
p620
sVhardware
p621
Volder PCs
p622
ss(Vdescription
p623
g12
NV5kc-malta
p624
tp625
(dp626
Vhardware-long
p627
VMIPS Malta boards (64-bit)
p628
sVhardware
p629
VMIPS Malta (64-bit)
p630
ss(g185
g599
g63
tp631
(dp632
g188
(lp633
Vs390x
p634
asg192
I01
ss(Vdescription
p635
g5
NVarmmp-lpae
p636
tp637
(dp638
Vhardware-long
p639
VARMv7 multiplatform kernel supporting LPAE. See\u000ahttps://wiki.debian.org/DebianKernel/ARMMP for details of supported\u000aplatforms.
p640
sVhardware
p641
VARMv7 multiplatform compatible SoCs supporting LPAE
p642
ss(Vbase
p643
g128
tp644
(dp645
Vfeaturesets
p646
(lp647
Vnone
p648
aVrt
p649
asVkernel-arch
p650
Vx86
p651
ss(Vimage
p652
g231
tp653
(dp654
Vsuggests
p655
Vmkvmlinuz
p656
sVconfigs
p657
(lp658
sVinstall-stem
p659
Vvmlinux
p660
ss(Vdescription
p661
g217
NVpowerpc
p662
tp663
(dp664
Vhardware
p665
Vuniprocessor 32-bit PowerPC
p666
ss(g185
g121
g63
tp667
(dp668
g188
(lp669
Vpowerpc64le
p670
asg192
I01
ss(Vdescription
p671
g599
NVs390x
p672
tp673
(dp674
Vhardware
p675
VIBM zSeries
p676
ss(Vimage
p677
g529
tp678
(dp679
Vinstall-stem
p680
Vvmlinuz
p681
ss(Vimage
p682
g12
tp683
(dp684
Vinstall-stem
p685
Vvmlinux
p686
ss(Vabi
p687
g372
tp688
(dp689
Vignore-changes
p690
(lp691
V__flush_icache_page
p692
ass(Vimage
p693
g121
NVpowerpc64le
p694
tp695
(dp696
Vconfigs
p697
(lp698
Vkernelarch-powerpc/config-arch-64
p699
aVkernelarch-powerpc/config-arch-64-le
p700
ass(Vabi
p701
NVrt
p702
tp703
(dp704
Vignore-changes
p705
(lp706
V*
p707
ass(Vrelations
p708
g5
tp709
(dp710
Vheaders%gcc-5
p711
Vlinux-compiler-gcc-5-arm
p712
ss(Vimage
p713
g12
NVloongson-3
p714
tp715
(dp716
Vconfigs
p717
(lp718
Vkernelarch-mips/config.loongson-3
p719
ass(Vbuild
p720
g136
tp721
(dp722
Vimage-file
p723
Vvmlinux
p724
sVvdso
p725
I01
sVsigned-modules
p726
I00
ss(Vbuild
p727
g158
tp728
(dp729
Vimage-file
p730
Varch/arm/boot/zImage
p731
ss(Vdescription
p732
g67
NVocteon
p733
tp734
(dp735
Vhardware-long
p736
VCavium Networks Octeon
p737
sVhardware
p738
VOcteon
p739
ss(Vimage
p740
g5
tp741
(dp742
Vinstall-stem
p743
Vvmlinuz
p744
ss(Vdescription
p745
g379
NValpha-generic
p746
tp747
(dp748
Vhardware-long
p749
VDEC Alpha systems with extended kernel start address (Wildfire, Titan, Marvel)
p750
sVhardware
p751
VAlpha
p752
ss(Vdescription
p753
g298
g557
V686-pae
p754
tp755
(dp756
Vparts
p757
(lp758
Vxen
p759
ass(Vbase
p760
Vmipsn32el
p761
tp762
(dp763
Vfeaturesets
p764
(lp765
sVkernel-arch
p766
Vmips
p767
ss(Vimage
p768
g379
tp769
(dp770
Vsuggests
p771
Vaboot, fdutils
p772
sVinstall-stem
p773
Vvmlinuz
p774
ss(Vimage
p775
g74
tp776
(dp777
Vsuggests
p778
Vsilo, fdutils
p779
sVconfigs
p780
(lp781
sVinstall-stem
p782
Vvmlinuz
p783
ss(Vdescription
p784
g58
NVparisc
p785
tp786
(dp787
Vhardware-long
p788
VHP PA-RISC 32-bit systems with max 4 GB RAM
p789
sVhardware
p790
V32-bit PA-RISC
p791
ss(Vbase
p792
g379
tp793
(dp794
g61
(lp795
g63
asVkernel-arch
p796
Valpha
p797
ss(Vbase
p798
g529
Vnone
p799
tp800
(dp801
Vflavours
p802
(lp803
Varm64
p804
ass(Vrelations
p805
g128
tp806
(dp807
Vheaders%gcc-5
p808
Vlinux-compiler-gcc-5-x86
p809
ss(Vbase
p810
g298
Vrt
p811
tp812
(dp813
Vflavours
p814
(lp815
V686-pae
p816
ass(Vdescription
p817
g372
NV4kc-malta
p818
tp819
(dp820
Vhardware-long
p821
VMIPS Malta boards
p822
sVhardware
p823
VMIPS Malta
p824
ss(Vimage
p825
g67
NV5kc-malta
p826
tp827
(dp828
Vconfigs
p829
(lp830
Vkernelarch-mips/config.malta
p831
aVkernelarch-mips/config.mips64r2
p832
ass(g185
g217
g63
tp833
(dp834
g188
(lp835
Vpowerpc
p836
aVpowerpc-smp
p837
aVpowerpc64
p838
asg192
I01
ss(Vbuild
p839
g405
tp840
(dp841
Vimage-file
p842
Vvmlinux
p843
sVsigned-modules
p844
I00
ss(Vbase
p845
g372
tp846
(dp847
g61
(lp848
g63
asVkernel-arch
p849
Vmips
p850
ss(Vbuild
p851
g217
tp852
(dp853
Vimage-file
p854
Vvmlinux
p855
sVvdso
p856
I01
ss(g185
g405
g63
tp857
(dp858
g188
(lp859
V5kc-malta
p860
aVocteon
p861
asg192
I01
ss(Vimage
p862
g217
tp863
(dp864
Vsuggests
p865
Vmkvmlinuz
p866
sVconfigs
p867
(lp868
sVinstall-stem
p869
Vvmlinux
p870
ss(Vimage
p871
g217
NVpowerpc64
p872
tp873
(dp874
Vconfigs
p875
(lp876
Vkernelarch-powerpc/config-arch-64
p877
aVkernelarch-powerpc/config-arch-64-be
p878
ass(Vbase
p879
g599
tp880
(dp881
g61
(lp882
g63
asVkernel-arch
p883
Vs390
p884
ss(Vimage
p885
g372
NV5kc-malta
p886
tp887
(dp888
Vconfigs
p889
(lp890
Vkernelarch-mips/config.malta
p891
aVkernelarch-mips/config.mips64r2
p892
ass(Vbase
p893
g121
tp894
(dp895
g61
(lp896
g63
asVkernel-arch
p897
Vpowerpc
p898
ss(Vdescription
p899
tp900
(dp901
Vpart-long-up
p902
VThis kernel is not suitable for SMP (multi-processor,\u000amulti-core or hyper-threaded) systems.
p903
sVpart-long-xen
p904
VThis kernel also runs on a Xen hypervisor.\u000aIt supports both privileged (dom0) and unprivileged (domU) operation.
p905
ss(Vdescription
p906
g405
NVocteon
p907
tp908
(dp909
Vhardware-long
p910
VCavium Networks Octeon
p911
sVhardware
p912
VOcteon
p913
ss(g185
g5
g63
tp914
(dp915
g188
(lp916
Varmmp
p917
aVarmmp-lpae
p918
asg192
I01
ss(Vdescription
p919
g74
NVsparc64
p920
tp921
(dp922
Vhardware
p923
Vuniprocessor 64-bit UltraSPARC
p924
ss(Vimage
p925
g405
NV5kc-malta
p926
tp927
(dp928
Vconfigs
p929
(lp930
Vkernelarch-mips/config.malta
p931
aVkernelarch-mips/config.mips64r2
p932
ass(Vdescription
p933
g158
NVmarvell
p934
tp935
(dp936
Vhardware-long
p937
VMarvell Kirkwood based systems (SheevaPlug, QNAP TS-119/TS-219, etc)\u000aand Orion 5181, 5182 and 5281 based systems (QNAP TS-109/TS-209, etc)
p938
sVhardware
p939
VMarvell Kirkwood/Orion
p940
ss(Vbuild
p941
g255
tp942
(dp943
Vimage-file
p944
Vvmlinux.gz
p945
sVsigned-modules
p946
I00
ss(Vbase
p947
g255
tp948
(dp949
Vcflags
p950
V-ffreestanding
p951
sg61
(lp952
g63
asVkernel-arch
p953
Vm68k
p954
ss(Vrelations
p955
g298
tp956
(dp957
Vheaders%gcc-5
p958
Vlinux-compiler-gcc-5-x86
p959
ss(Vbase
p960
g529
tp961
(dp962
Vfeaturesets
p963
(lp964
Vnone
p965
asVkernel-arch
p966
Varm64
p967
ss(Vimage
p968
g529
NVarm64
p969
tp970
(dp971
s(Vdescription
p972
g12
NVloongson-3
p973
tp974
(dp975
Vhardware-long
p976
VLoongson 3A or 3B based systems (e.g. from Loongson or Lemote)
p977
sVhardware
p978
VLoongson 3A/3B
p979
ss(Vbuild
p980
g121
tp981
(dp982
Vimage-file
p983
Vvmlinux
p984
sVvdso
p985
I01
ss(Vdescription
p986
g74
NVsparc64-smp
p987
tp988
(dp989
Vhardware
p990
Vmultiprocessor 64-bit UltraSPARC
p991
ss(Vimage
p992
g158
tp993
(dp994
Vinstall-stem
p995
Vvmlinuz
p996
ss(Vimage
p997
g67
tp998
(dp999
Vinstall-stem
p1000
Vvmlinux
p1001
ss(Vimage
p1002
g372
tp1003
(dp1004
Vinstall-stem
p1005
Vvmlinux
p1006
ss(Vabi
p1007
g12
tp1008
(dp1009
Vignore-changes
p1010
(lp1011
V__flush_icache_page
p1012
ass(Vdescription
p1013
g379
NValpha-smp
p1014
tp1015
(dp1016
Vhardware-long
p1017
VDEC Alpha SMP systems with extended kernel start address (Wildfire, Titan, Marvel)
p1018
sVhardware
p1019
VAlpha SMP
p1020
ss(Vimage
p1021
g405
NVocteon
p1022
tp1023
(dp1024
Vconfigs
p1025
(lp1026
Vkernelarch-mips/config.octeon
p1027
ass(Vimage
p1028
g255
tp1029
(dp1030
Vsuggests
p1031
Vvmelilo, fdutils
p1032
sVinstall-stem
p1033
Vvmlinuz
p1034
ss(Vbase
p1035
g114
tp1036
(dp1037
g61
(lp1038
g63
asVkernel-arch
p1039
Vsh
p1040
ss(Vbuild
p1041
g58
tp1042
(dp1043
Vimage-file
p1044
Vvmlinux
p1045
sVsigned-modules
p1046
I00
ss(Vdescription
p1047
g529
NVarm64
p1048
tp1049
(dp1050
Vhardware
p1051
V64-bit ARMv8 machines
p1052
ss(Vbase
p1053
g217
tp1054
(dp1055
g61
(lp1056
g63
asVkernel-arch
p1057
Vpowerpc
p1058
ss(g185
g372
g63
tp1059
(dp1060
g188
(lp1061
V4kc-malta
p1062
aV5kc-malta
p1063
aVocteon
p1064
asg192
I01
ss(Vbase
p1065
g231
tp1066
(dp1067
g61
(lp1068
g63
asVkernel-arch
p1069
Vpowerpc
p1070
ss(Vbase
p1071
g405
tp1072
(dp1073
g61
(lp1074
g63
asVkernel-arch
p1075
Vmips
p1076
ss(Vbase
p1077
g67
tp1078
(dp1079
g61
(lp1080
g63
asVkernel-arch
p1081
Vmips
p1082
ss(Vbase
p1083
g5
tp1084
(dp1085
g61
(lp1086
g63
asVkernel-arch
p1087
Varm
p1088
ss(Vbuild
p1089
g599
NVs390x
p1090
tp1091
(dp1092
Vdebug-info
p1093
I01
ss(g185
g12
g63
tp1094
(dp1095
g188
(lp1096
V4kc-malta
p1097
aV5kc-malta
p1098
aVloongson-2e
p1099
aVloongson-2f
p1100
aVloongson-3
p1101
aVocteon
p1102
asg192
I01
ss(Vimage
p1103
g74
NVsparc64
p1104
tp1105
(dp1106
Vconfigs
p1107
(lp1108
Vkernelarch-sparc/config-up
p1109
ass(Vbase
p1110
g128
g144
tp1111
(dp1112
Vflavours
p1113
(lp1114
Vamd64
p1115
ass(Vrelations
p1116
g599
tp1117
(dp1118
Vheaders%gcc-5
p1119
Vlinux-compiler-gcc-5-s390
p1120
ss(Vbuild
p1121
g67
tp1122
(dp1123
Vimage-file
p1124
Vvmlinux
p1125
sVsigned-modules
p1126
I00
ss(Vdescription
p1127
Ng702
tp1128
(dp1129
Vpart-long-rt
p1130
VThis kernel includes the PREEMPT_RT realtime patch set.
p1131
sVpart-short-rt
p1132
VPREEMPT_RT
p1133
sVparts
p1134
(lp1135
Vrt
p1136
ass(Vimage
p1137
g372
NVocteon
p1138
tp1139
(dp1140
Vconfigs
p1141
(lp1142
Vkernelarch-mips/config.octeon
p1143
ass(Vdescription
p1144
g136
tp1145
(dp1146
Vhardware
p1147
V32-bit PowerPC with SPE (instead of AltiVec) with SMP support
p1148
ss(Vbuild
p1149
tp1150
(dp1151
Vsigned-modules
p1152
I01
ss(Vdescription
p1153
g217
NVpowerpc-smp
p1154
tp1155
(dp1156
Vhardware
p1157
Vmultiprocessor 32-bit PowerPC
p1158
ss(Vdescription
p1159
g12
NV4kc-malta
p1160
tp1161
(dp1162
Vhardware-long
p1163
VMIPS Malta boards
p1164
sVhardware
p1165
VMIPS Malta
p1166
ss(g185
g379
g63
tp1167
(dp1168
g188
(lp1169
Valpha-generic
p1170
aValpha-smp
p1171
asg192
I01
ss(Vbase
p1172
g158
tp1173
(dp1174
g61
(lp1175
g63
asVkernel-arch
p1176
Varm
p1177
ss(Vbase
p1178
Vs390
p1179
tp1180
(dp1181
Vfeaturesets
p1182
(lp1183
sVkernel-arch
p1184
Vs390
p1185
ss(Vimage
p1186
g405
tp1187
(dp1188
Vinstall-stem
p1189
Vvmlinux
p1190
ss(Vbuild
p1191
g599
tp1192
(dp1193
Vimage-file
p1194
Varch/s390/boot/image
p1195
sVvdso
p1196
I01
ss(Vdescription
p1197
g128
NVamd64
p1198
tp1199
(dp1200
Vhardware-long
p1201
VPCs with AMD64, Intel 64 or VIA Nano processors
p1202
sVhardware
p1203
V64-bit PCs
p1204
ss(Vimage
p1205
g67
NVocteon
p1206
tp1207
(dp1208
Vconfigs
p1209
(lp1210
Vkernelarch-mips/config.octeon
p1211
ass(Vbase
p1212
g128
Vrt
p1213
tp1214
(dp1215
Vflavours
p1216
(lp1217
Vamd64
p1218
ass(g185
g136
g63
tp1219
(dp1220
g188
(lp1221
Vpowerpcspe
p1222
asg192
I01
ss(Vdescription
p1223
g12
NVloongson-2e
p1224
tp1225
(dp1226
Vhardware-long
p1227
VLemote Loongson 2E systems
p1228
sVhardware
p1229
VLoongson 2E
p1230
ss(Vimage
p1231
g12
NVocteon
p1232
tp1233
(dp1234
Vconfigs
p1235
(lp1236
Vkernelarch-mips/config.octeon
p1237
ass(Vdescription
p1238
g231
NVpowerpc64
p1239
tp1240
(dp1241
Vhardware
p1242
V64-bit PowerPC
p1243
sstp1244
Rp1245
.