ccopy_reg
_reconstructor
p0
(cdebian_linux.config
ConfigCore
p1
c__builtin__
dict
p2
(dp3
(Vbase
p4
Vsparc64
p5
tp6
(dp7
Vfeaturesets
p8
(lp9
Vnone
p10
asVkernel-arch
p11
Vsparc
p12
ss(Vimage
p13
Vppc64
p14
NVpowerpc64
p15
tp16
(dp17
Vconfigs
p18
(lp19
Vkernelarch-powerpc/config-arch-64
p20
aVkernelarch-powerpc/config-arch-64-be
p21
ass(Vbase
p22
Vx32
p23
tp24
(dp25
Vfeaturesets
p26
(lp27
sVkernel-arch
p28
Vx86
p29
ss(Vbase
p30
Vor1k
p31
tp32
(dp33
Vfeaturesets
p34
(lp35
sVkernel-arch
p36
Vopenrisc
p37
ss(Vimage
p38
Valpha
p39
tp40
(dp41
Vinstall-stem
p42
Vvmlinuz
p43
sVsuggests
p44
Vaboot, fdutils
p45
ss(Vdescription
p46
Vmips
p47
NVocteon
p48
tp49
(dp50
Vhardware
p51
VOcteon
p52
sVhardware-long
p53
VCavium Networks Octeon
p54
ss(Vimage
p55
Vs390x
p56
tp57
(dp58
Vinstall-stem
p59
Vvmlinuz
p60
sVconfigs
p61
(lp62
sVbootloaders
p63
(lp64
Vs390-tools
p65
ass(Vimage
p66
Vsh4
p67
NVsh7785lcr
p68
tp69
(dp70
Vrecommends
p71
Vu-boot-tools
p72
sVcheck-size
p73
L4194304L
ss(Vbase
p74
Vhppa
p75
NVparisc64-smp
p76
tp77
(dp78
Voverride-host-type
p79
Vhppa64-linux-gnu
p80
sVcflags
p81
V-fno-cse-follow-jumps
p82
ss(Vrelations
p83
Vamd64
p84
tp85
(dp86
Vheaders%gcc-5
p87
Vlinux-compiler-gcc-5-x86
p88
ss(Vdescription
p89
Varmhf
p90
NVarmmp
p91
tp92
(dp93
Vhardware
p94
VARMv7 multiplatform compatible SoCs
p95
sVhardware-long
p96
VARMv7 multiplatform kernel. See\u000ahttps://wiki.debian.org/DebianKernel/ARMMP for details of supported\u000aplatforms
p97
ss(Vbuild
p98
Varm64
p99
tp100
(dp101
Vimage-file
p102
Varch/arm64/boot/Image
p103
sVdebug-info
p104
I01
sVvdso
p105
I01
ss(Vbuild
p106
g67
tp107
(dp108
Vimage-file
p109
Varch/sh/boot/zImage
p110
sVsigned-modules
p111
I00
ss(Vbuild
p112
Varmel
p113
NVmarvell
p114
tp115
(dp116
Vsigned-modules
p117
I00
ss(Vdescription
p118
Vmips64el
p119
NVloongson-3
p120
tp121
(dp122
Vhardware
p123
VLoongson 3A/3B
p124
sVhardware-long
p125
VLoongson 3A or 3B based systems (e.g. from Loongson or Lemote)
p126
ss(Vdescription
p127
g90
NVarmmp-lpae
p128
tp129
(dp130
Vhardware
p131
VARMv7 multiplatform compatible SoCs supporting LPAE
p132
sVhardware-long
p133
VARMv7 multiplatform kernel supporting LPAE. See\u000ahttps://wiki.debian.org/DebianKernel/ARMMP for details of supported\u000aplatforms.
p134
ss(Vimage
p135
g5
NVsparc64
p136
tp137
(dp138
Vconfigs
p139
(lp140
Vkernelarch-sparc/config-up
p141
ass(Vimage
p142
Vmipsel
p143
NVloongson-2f
p144
tp145
(dp146
Vrecommends
p147
Vlibc6-loongson2f
p148
sVconfigs
p149
(lp150
Vkernelarch-mips/config.loongson-2f
p151
ass(Vdescription
p152
g143
NVloongson-2e
p153
tp154
(dp155
Vhardware
p156
VLoongson 2E
p157
sVhardware-long
p158
VLemote Loongson 2E systems
p159
ss(Vdescription
p160
g119
NV5kc-malta
p161
tp162
(dp163
Vhardware
p164
VMIPS Malta
p165
sVhardware-long
p166
VMIPS Malta boards
p167
ss(Vbuild
p168
g56
NVs390x
p169
tp170
(dp171
Vdebug-info
p172
I01
ss(Vdescription
p173
g143
NV4kc-malta
p174
tp175
(dp176
Vhardware
p177
VMIPS Malta
p178
sVhardware-long
p179
VMIPS Malta boards
p180
ss(Vdescription
p181
tp182
(dp183
Vpart-long-xen
p184
VThis kernel also runs on a Xen hypervisor.\u000aIt supports both privileged (dom0) and unprivileged (domU) operation.
p185
sVpart-long-up
p186
VThis kernel is not suitable for SMP (multi-processor,\u000amulti-core or hyper-threaded) systems.
p187
ss(Vimage
p188
g75
tp189
(dp190
Vinstall-stem
p191
Vvmlinux
p192
sVsuggests
p193
Vpalo
p194
ss(Vdescription
p195
g47
NV5kc-malta
p196
tp197
(dp198
Vhardware
p199
VMIPS Malta (64-bit)
p200
sVhardware-long
p201
VMIPS Malta boards (64-bit)
p202
ss(Vimage
p203
Vpowerpc
p204
NVpowerpc-smp
p205
tp206
(dp207
Vconfigs
p208
(lp209
Vpowerpc/config.powerpc
p210
aVpowerpc/config.powerpc-smp
p211
ass(Vimage
p212
Vi386
p213
NV686
p214
tp215
(dp216
Vrecommends
p217
Vlibc6-i686
p218
sVconfigs
p219
(lp220
Vkernelarch-x86/config-arch-32
p221
aVi386/config.686
p222
ass(Vversion
p223
tp224
(dp225
Vabiname_base
p226
V4.5.0
p227
sVabiname
p228
V4.5.0-kali1
p229
sVupstream
p230
V4.5
p231
sVsource
p232
V4.5.3-2kali1
p233
ss(Vbase
p234
g5
g10
tp235
(dp236
Vflavours
p237
(lp238
Vsparc64
p239
aVsparc64-smp
p240
asVimplicit-flavour
p241
I01
ss(Vbase
p242
Vs390
p243
tp244
(dp245
Vfeaturesets
p246
(lp247
sVkernel-arch
p248
Vs390
p249
ss(Vdescription
p250
g143
NV5kc-malta
p251
tp252
(dp253
Vhardware
p254
VMIPS Malta (64-bit)
p255
sVhardware-long
p256
VMIPS Malta boards (64-bit)
p257
ss(Vbase
p258
g39
tp259
(dp260
g8
(lp261
g10
asVkernel-arch
p262
Valpha
p263
ss(Vdescription
p264
g213
tp265
(dp266
Vpart-long-pae
p267
VThis kernel requires PAE (Physical Address Extension).\u000aThis feature is supported by the Intel Pentium Pro/II/III/4/4M/D, Xeon,\u000aCore and Atom; AMD Geode NX, Athlon (K7), Duron, Opteron, Sempron,\u000aTurion or Phenom; Transmeta Efficeon; VIA C7; and some other processors.
p268
ss(Vimage
p269
g119
NVloongson-3
p270
tp271
(dp272
Vconfigs
p273
(lp274
Vkernelarch-mips/config.loongson-3
p275
ass(Vbase
p276
g99
Vnone
p277
tp278
(dp279
Vflavours
p280
(lp281
Varm64
p282
ass(Vbase
p283
tp284
(dp285
Varches
p286
(lp287
Valpha
p288
aVamd64
p289
aVarm64
p290
aVarmel
p291
aVarmhf
p292
aVhppa
p293
aVi386
p294
aVm68k
p295
aVmips
p296
aVmipsel
p297
aVmips64
p298
aVmips64el
p299
aVor1k
p300
aVpowerpc
p301
aVpowerpcspe
p302
aVppc64
p303
aVppc64el
p304
aVs390
p305
aVs390x
p306
aVsh4
p307
aVsparc
p308
aVsparc64
p309
aVx32
p310
asVfeaturesets
p311
(lp312
Vnone
p313
aVrt
p314
asVcompiler
p315
Vgcc-5
p316
ss(Vbase
p317
g204
tp318
(dp319
g8
(lp320
g10
asVkernel-arch
p321
Vpowerpc
p322
ss(Vimage
p323
Vm68k
p324
tp325
(dp326
Vinstall-stem
p327
Vvmlinuz
p328
sVsuggests
p329
Vvmelilo, fdutils
p330
ss(g234
g75
g10
tp331
(dp332
g237
(lp333
Vparisc
p334
aVparisc64-smp
p335
asg241
I01
ss(Vdescription
p336
g213
NV686
p337
tp338
(dp339
Vhardware
p340
Volder PCs
p341
sVhardware-long
p342
VPCs with one or more processors not supporting PAE
p343
ss(Vimage
p344
g84
NVamd64
p345
tp346
(dp347
Vconfigs
p348
(lp349
Vkernelarch-x86/config-arch-64
p350
ass(Vdescription
p351
Vpowerpcspe
p352
tp353
(dp354
Vhardware
p355
V32-bit PowerPC with SPE (instead of AltiVec) with SMP support
p356
ss(g234
g14
g10
tp357
(dp358
g237
(lp359
Vpowerpc64
p360
asg241
I01
ss(Vimage
p361
g119
NV5kc-malta
p362
tp363
(dp364
Vconfigs
p365
(lp366
Vkernelarch-mips/config.5kc-malta
p367
ass(Vbase
p368
g213
Vnone
p369
tp370
(dp371
Vflavours
p372
(lp373
V686
p374
aV686-pae
p375
ass(Vimage
p376
Vmips64
p377
NV5kc-malta
p378
tp379
(dp380
Vconfigs
p381
(lp382
Vkernelarch-mips/config.5kc-malta
p383
ass(Vbuild
p384
g204
tp385
(dp386
Vimage-file
p387
Vvmlinux
p388
sVvdso
p389
I01
ss(Vimage
p390
g47
NV4kc-malta
p391
tp392
(dp393
Vconfigs
p394
(lp395
Vkernelarch-mips/config.4kc-malta
p396
ass(Vdescription
p397
g5
NVsparc64
p398
tp399
(dp400
Vhardware
p401
Vuniprocessor 64-bit UltraSPARC
p402
ss(Vdescription
p403
g143
NVloongson-2f
p404
tp405
(dp406
Vhardware
p407
VLoongson 2F
p408
sVhardware-long
p409
VLemote Loongson 2F systems
p410
ss(Vbuild
p411
g377
tp412
(dp413
Vimage-file
p414
Vvmlinux
p415
sVsigned-modules
p416
I00
ss(g234
g47
g10
tp417
(dp418
g237
(lp419
V4kc-malta
p420
aV5kc-malta
p421
aVocteon
p422
asg241
I01
ss(Vdescription
p423
g204
NVpowerpc
p424
tp425
(dp426
Vhardware
p427
Vuniprocessor 32-bit PowerPC
p428
ss(Vdescription
p429
g39
NValpha-smp
p430
tp431
(dp432
Vhardware
p433
VAlpha SMP
p434
sVhardware-long
p435
VDEC Alpha SMP systems with extended kernel start address (Wildfire, Titan, Marvel)
p436
ss(Vimage
p437
g47
NV5kc-malta
p438
tp439
(dp440
Vconfigs
p441
(lp442
Vkernelarch-mips/config.5kc-malta
p443
ass(Vbuild
p444
g324
tp445
(dp446
Vimage-file
p447
Vvmlinux.gz
p448
sVsigned-modules
p449
I00
ss(Vdescription
p450
g84
Vnone
p451
Vamd64
p452
tp453
(dp454
Vparts
p455
(lp456
Vxen
p457
ass(g234
g113
g10
tp458
(dp459
g237
(lp460
Vmarvell
p461
aVversatile
p462
asg241
I01
ss(Vimage
p463
g113
tp464
(dp465
Vinstall-stem
p466
Vvmlinuz
p467
sVconfigs
p468
(lp469
Vkernelarch-arm/config
p470
aVarmel/config
p471
asVsuggests
p472
Vfdutils
p473
ss(Vdescription
p474
Vppc64el
p475
NVpowerpc64le
p476
tp477
(dp478
Vhardware
p479
VLittle-endian 64-bit PowerPC
p480
ss(Vbuild
p481
g5
tp482
(dp483
Vimage-file
p484
Varch/sparc/boot/zImage
p485
sVsigned-modules
p486
I00
ss(Vdescription
p487
g377
NV5kc-malta
p488
tp489
(dp490
Vhardware
p491
VMIPS Malta
p492
sVhardware-long
p493
VMIPS Malta boards
p494
ss(g234
g119
g10
tp495
(dp496
g237
(lp497
V5kc-malta
p498
aVloongson-3
p499
aVocteon
p500
asg241
I01
ss(Vimage
p501
g56
NVs390x
p502
tp503
(dp504
Vconfigs
p505
(lp506
Vkernelarch-s390/config-arch-64
p507
ass(Vimage
p508
g90
tp509
(dp510
Vinstall-stem
p511
Vvmlinuz
p512
sVconfigs
p513
(lp514
Vkernelarch-arm/config
p515
asVsuggests
p516
Vfdutils
p517
ss(Vimage
p518
g377
NVocteon
p519
tp520
(dp521
Vconfigs
p522
(lp523
Vkernelarch-mips/config.octeon
p524
ass(Vimage
p525
g47
NVocteon
p526
tp527
(dp528
Vconfigs
p529
(lp530
Vkernelarch-mips/config.octeon
p531
ass(Vrelations
p532
tp533
(dp534
Vgcc-5
p535
Vgcc-5 <!stage1>
p536
sVinitramfs-tools
p537
Vinitramfs-tools (>= 0.110~)
p538
sVinitramfs-fallback
p539
Vlinux-initramfs-tool
p540
ss(Vbase
p541
g99
tp542
(dp543
Vfeaturesets
p544
(lp545
Vnone
p546
asVkernel-arch
p547
Varm64
p548
ss(Vabi
p549
tp550
(dp551
Vabiname
p552
Vkali1
p553
sVignore-changes
p554
(lp555
Vmodule:sound/hda/*
p556
aVzpci_disable_device
p557
aVzpci_enable_device
p558
aVzpci_stop_device
p559
ass(Vbase
p560
g475
tp561
(dp562
g8
(lp563
g10
asVkernel-arch
p564
Vpowerpc
p565
ss(Vimage
p566
g204
NVpowerpc64
p567
tp568
(dp569
Vconfigs
p570
(lp571
Vkernelarch-powerpc/config-arch-64
p572
aVkernelarch-powerpc/config-arch-64-be
p573
ass(Vimage
p574
tp575
(dp576
Vinitramfs-generators
p577
(lp578
Vinitramfs-tools
p579
aVinitramfs-fallback
p580
ass(Vbuild
p581
g90
tp582
(dp583
Vimage-file
p584
Varch/arm/boot/zImage
p585
sVvdso
p586
I01
ss(Vdescription
p587
g119
NVocteon
p588
tp589
(dp590
Vhardware
p591
VOcteon
p592
sVhardware-long
p593
VCavium Networks Octeon
p594
ss(Vbase
p595
g119
tp596
(dp597
g8
(lp598
g10
asVkernel-arch
p599
Vmips
p600
ss(Vbuild
p601
g475
tp602
(dp603
Vimage-file
p604
Vvmlinux
p605
sVvdso
p606
I01
ss(Vimage
p607
g119
tp608
(dp609
Vinstall-stem
p610
Vvmlinux
p611
ss(Vbuild
p612
g39
tp613
(dp614
Vimage-file
p615
Varch/alpha/boot/vmlinux.gz
p616
sVsigned-modules
p617
I00
ss(Vrelations
p618
g213
tp619
(dp620
Vheaders%gcc-5
p621
Vlinux-compiler-gcc-5-x86
p622
ss(Vbuild
p623
g143
tp624
(dp625
Vimage-file
p626
Vvmlinux
p627
sVsigned-modules
p628
I00
ss(Vdescription
p629
g39
NValpha-generic
p630
tp631
(dp632
Vhardware
p633
VAlpha
p634
sVhardware-long
p635
VDEC Alpha systems with extended kernel start address (Wildfire, Titan, Marvel)
p636
ss(Vbuild
p637
g56
tp638
(dp639
Vimage-file
p640
Varch/s390/boot/image
p641
sVvdso
p642
I01
ss(Vdescription
p643
g113
NVversatile
p644
tp645
(dp646
Vhardware
p647
VVersatile
p648
sVhardware-long
p649
VVersatile systems (PB, AB, Qemu)
p650
ss(g234
g90
g10
tp651
(dp652
g237
(lp653
Varmmp
p654
aVarmmp-lpae
p655
asg241
I01
ss(Vimage
p656
g143
tp657
(dp658
Vinstall-stem
p659
Vvmlinux
p660
ss(Vdescription
p661
g67
NVsh7785lcr
p662
tp663
(dp664
Vhardware
p665
Vsh7785lcr
p666
sVhardware-long
p667
VRenesas SH7785 reference board
p668
ss(Vbuild
p669
g119
tp670
(dp671
Vimage-file
p672
Vvmlinux
p673
sVsigned-modules
p674
I00
ss(Vimage
p675
g475
tp676
(dp677
Vinstall-stem
p678
Vvmlinux
p679
sVconfigs
p680
(lp681
sVsuggests
p682
Vmkvmlinuz
p683
ss(Vdescription
p684
g213
NV686-pae
p685
tp686
(dp687
Vparts
p688
(lp689
Vpae
p690
asVhardware
p691
Vmodern PCs
p692
sVhardware-long
p693
VPCs with one or more processors supporting PAE
p694
ss(Vdescription
p695
g143
NVloongson-3
p696
tp697
(dp698
Vhardware
p699
VLoongson 3A/3B
p700
sVhardware-long
p701
VLoongson 3A or 3B based systems (e.g. from Loongson or Lemote)
p702
ss(Vimage
p703
g14
tp704
(dp705
Vinstall-stem
p706
Vvmlinux
p707
sVconfigs
p708
(lp709
sVsuggests
p710
Vmkvmlinuz
p711
ss(Vdescription
p712
g75
NVparisc64-smp
p713
tp714
(dp715
Vhardware
p716
Vmultiprocessor 64-bit PA-RISC
p717
sVhardware-long
p718
VHP PA-RISC 64-bit SMP systems with support for more than 4 GB RAM
p719
ss(Vbuild
p720
g213
tp721
(dp722
Vimage-file
p723
Varch/x86/boot/bzImage
p724
sVvdso
p725
I01
ss(Vimage
p726
g204
tp727
(dp728
Vinstall-stem
p729
Vvmlinux
p730
sVconfigs
p731
(lp732
sVsuggests
p733
Vmkvmlinuz
p734
ss(Vimage
p735
g84
tp736
(dp737
Vinstall-stem
p738
Vvmlinuz
p739
sVconfigs
p740
(lp741
sVbreaks
p742
Vxserver-xorg-input-vmmouse (<< 1:13.0.99)
p743
sVbootloaders
p744
(lp745
Vgrub-pc
p746
aVgrub-efi
p747
aVextlinux
p748
ass(Vbase
p749
g84
tp750
(dp751
Vfeaturesets
p752
(lp753
Vnone
p754
aVrt
p755
asVkernel-arch
p756
Vx86
p757
ss(Vdescription
p758
g204
NVpowerpc-smp
p759
tp760
(dp761
Vhardware
p762
Vmultiprocessor 32-bit PowerPC
p763
ss(Vdescription
p764
g204
NVpowerpc64
p765
tp766
(dp767
Vhardware
p768
V64-bit PowerPC
p769
ss(g234
g67
g10
tp770
(dp771
g237
(lp772
Vsh7751r
p773
aVsh7785lcr
p774
asg241
I01
ss(Vbuild
p775
g75
tp776
(dp777
Vimage-file
p778
Vvmlinux
p779
sVsigned-modules
p780
I00
ss(Vdescription
p781
NVrt
p782
tp783
(dp784
Vparts
p785
(lp786
Vrt
p787
asVpart-short-rt
p788
VPREEMPT_RT
p789
sVpart-long-rt
p790
VThis kernel includes the PREEMPT_RT realtime patch set.
p791
ss(Vimage
p792
g99
NVarm64
p793
tp794
(dp795
s(Vbase
p796
g67
tp797
(dp798
g8
(lp799
g10
asVkernel-arch
p800
Vsh
p801
ss(Vdescription
p802
g75
NVparisc
p803
tp804
(dp805
Vhardware
p806
V32-bit PA-RISC
p807
sVhardware-long
p808
VHP PA-RISC 32-bit systems with max 4 GB RAM
p809
ss(Vbase
p810
g75
tp811
(dp812
g8
(lp813
g10
asVkernel-arch
p814
Vparisc
p815
ss(Vbuild
p816
g47
tp817
(dp818
Vimage-file
p819
Vvmlinux
p820
sVsigned-modules
p821
I00
ss(g234
g475
g10
tp822
(dp823
g237
(lp824
Vpowerpc64le
p825
asg241
I01
ss(Vdescription
p826
g84
NVamd64
p827
tp828
(dp829
Vhardware
p830
V64-bit PCs
p831
sVhardware-long
p832
VPCs with AMD64, Intel 64 or VIA Nano processors
p833
ss(Vdescription
p834
g113
NVmarvell
p835
tp836
(dp837
Vhardware
p838
VMarvell Kirkwood/Orion
p839
sVhardware-long
p840
VMarvell Kirkwood based systems (SheevaPlug, QNAP TS-119/TS-219, etc)\u000aand Orion 5181, 5182 and 5281 based systems (QNAP TS-109/TS-209, etc)
p841
ss(Vbase
p842
g84
Vrt
p843
tp844
(dp845
Vflavours
p846
(lp847
Vamd64
p848
ass(g234
g39
g10
tp849
(dp850
g237
(lp851
Valpha-generic
p852
aValpha-smp
p853
asg241
I01
ss(Vdescription
p854
g5
NVsparc64-smp
p855
tp856
(dp857
Vhardware
p858
Vmultiprocessor 64-bit UltraSPARC
p859
ss(Vbuild
p860
g14
tp861
(dp862
Vimage-file
p863
Vvmlinux
p864
sVsigned-modules
p865
I00
sVvdso
p866
I01
ss(Vdescription
p867
g377
NVocteon
p868
tp869
(dp870
Vhardware
p871
VOcteon
p872
sVhardware-long
p873
VCavium Networks Octeon
p874
ss(Vbase
p875
g47
tp876
(dp877
g8
(lp878
g10
asVkernel-arch
p879
Vmips
p880
ss(Vimage
p881
g213
NV686-pae
p882
tp883
(dp884
Vrecommends
p885
Vlibc6-i686
p886
sVconfigs
p887
(lp888
Vkernelarch-x86/config-arch-32
p889
aVi386/config.686-pae
p890
ass(Vimage
p891
g143
NVloongson-3
p892
tp893
(dp894
Vconfigs
p895
(lp896
Vkernelarch-mips/config.loongson-3
p897
ass(Vbuild
p898
g213
NV686-pae
p899
tp900
(dp901
Vdebug-info
p902
I01
ss(Vbase
p903
g90
tp904
(dp905
g8
(lp906
g10
asVkernel-arch
p907
Varm
p908
ss(g234
g204
g10
tp909
(dp910
g237
(lp911
Vpowerpc
p912
aVpowerpc-smp
p913
aVpowerpc64
p914
asg241
I01
ss(Vbase
p915
g143
tp916
(dp917
g8
(lp918
g10
asVkernel-arch
p919
Vmips
p920
ss(Vimage
p921
g90
NVarmmp-lpae
p922
tp923
(dp924
Vconfigs
p925
(lp926
Varmhf/config.armmp
p927
aVarmhf/config.lpae
p928
ass(Vbase
p929
NVrt
p930
tp931
(dp932
Venabled
p933
I00
ss(Vimage
p934
g113
NVmarvell
p935
tp936
(dp937
Vrecommends
p938
Vu-boot-tools
p939
sVcheck-size-with-dtb
p940
I01
sVbreaks
p941
Vflash-kernel (<< 3.57~)
p942
sVcheck-size
p943
L2097080L
ss(Vimage
p944
g67
tp945
(dp946
Vinstall-stem
p947
Vvmlinuz
p948
sVsuggests
p949
Vfdutils
p950
ss(Vbuild
p951
g84
tp952
(dp953
Vimage-file
p954
Varch/x86/boot/bzImage
p955
sVdebug-info
p956
I01
sVvdso
p957
I01
ss(Vrelations
p958
g90
tp959
(dp960
Vheaders%gcc-5
p961
Vlinux-compiler-gcc-5-arm
p962
ss(Vxen
p963
g84
g451
Vamd64
p964
tp965
(dp966
Vflavours
p967
(lp968
Vamd64
p969
ass(Vimage
p970
g99
tp971
(dp972
Vinstall-stem
p973
Vvmlinuz
p974
ss(Vbase
p975
g113
tp976
(dp977
g8
(lp978
g10
asVkernel-arch
p979
Varm
p980
ss(Vimage
p981
g475
NVpowerpc64le
p982
tp983
(dp984
Vconfigs
p985
(lp986
Vkernelarch-powerpc/config-arch-64
p987
aVkernelarch-powerpc/config-arch-64-le
p988
ass(Vbase
p989
g377
tp990
(dp991
g8
(lp992
g10
asVkernel-arch
p993
Vmips
p994
ss(Vdescription
p995
g99
NVarm64
p996
tp997
(dp998
Vhardware
p999
V64-bit ARMv8 machines
p1000
ss(Vimage
p1001
g143
NVloongson-2e
p1002
tp1003
(dp1004
Vconfigs
p1005
(lp1006
Vkernelarch-mips/config.loongson-2e
p1007
ass(Vrelations
p1008
g75
tp1009
(dp1010
Vgcc-5
p1011
Vgcc-5 <!stage1>, binutils-hppa64-linux-gnu <!stage1>, gcc-5-hppa64-linux-gnu <!stage1>
p1012
ss(Vrelations
p1013
g113
tp1014
(dp1015
Vheaders%gcc-5
p1016
Vlinux-compiler-gcc-5-arm
p1017
ss(g234
g377
g10
tp1018
(dp1019
g237
(lp1020
V5kc-malta
p1021
aVocteon
p1022
asg241
I01
ss(Vbase
p1023
g14
tp1024
(dp1025
g8
(lp1026
g10
asVkernel-arch
p1027
Vpowerpc
p1028
ss(g234
g143
g10
tp1029
(dp1030
g237
(lp1031
V4kc-malta
p1032
aV5kc-malta
p1033
aVloongson-2e
p1034
aVloongson-2f
p1035
aVloongson-3
p1036
asg241
I01
ss(Vbase
p1037
g56
tp1038
(dp1039
g8
(lp1040
g10
asVkernel-arch
p1041
Vs390
p1042
ss(Vbase
p1043
Vsparc
p1044
tp1045
(dp1046
Vfeaturesets
p1047
(lp1048
sVkernel-arch
p1049
Vsparc
p1050
ss(Vimage
p1051
g143
NV4kc-malta
p1052
tp1053
(dp1054
Vconfigs
p1055
(lp1056
Vkernelarch-mips/config.4kc-malta
p1057
ass(g234
g352
g10
tp1058
(dp1059
g237
(lp1060
Vpowerpcspe
p1061
asg241
I01
ss(Vdescription
p1062
g14
NVpowerpc64
p1063
tp1064
(dp1065
Vhardware
p1066
V64-bit PowerPC
p1067
ss(Vdescription
p1068
g67
NVsh7751r
p1069
tp1070
(dp1071
Vhardware
p1072
Vsh7751r
p1073
sVhardware-long
p1074
VRenesas SH7751R R2D plus board
p1075
ss(Vimage
p1076
g213
tp1077
(dp1078
Vinstall-stem
p1079
Vvmlinuz
p1080
sVconfigs
p1081
(lp1082
sVbreaks
p1083
Vxserver-xorg-input-vmmouse (<< 1:13.0.99)
p1084
sVbootloaders
p1085
(lp1086
Vgrub-pc
p1087
aVextlinux
p1088
ass(Vimage
p1089
g47
tp1090
(dp1091
Vinstall-stem
p1092
Vvmlinux
p1093
ss(Vbase
p1094
g84
g451
tp1095
(dp1096
Vflavours
p1097
(lp1098
Vamd64
p1099
ass(Vdescription
p1100
g213
g369
V686-pae
p1101
tp1102
(dp1103
Vparts
p1104
(lp1105
Vxen
p1106
ass(Vbase
p1107
g352
tp1108
(dp1109
g8
(lp1110
g10
asVkernel-arch
p1111
Vpowerpc
p1112
ss(Vdescription
p1113
g324
NVm68k
p1114
tp1115
(dp1116
Vhardware
p1117
VMotorola MC68020+ family
p1118
ss(Vimage
p1119
g352
tp1120
(dp1121
Vinstall-stem
p1122
Vvmlinux
p1123
sVsuggests
p1124
Vmkvmlinuz
p1125
ss(Vbase
p1126
g213
tp1127
(dp1128
Vfeaturesets
p1129
(lp1130
Vnone
p1131
aVrt
p1132
asVkernel-arch
p1133
Vx86
p1134
ss(Vimage
p1135
g119
NVocteon
p1136
tp1137
(dp1138
Vconfigs
p1139
(lp1140
Vkernelarch-mips/config.octeon
p1141
ass(Vbuild
p1142
g352
tp1143
(dp1144
Vimage-file
p1145
Vvmlinux
p1146
sVsigned-modules
p1147
I00
sVvdso
p1148
I01
ss(g234
g324
g10
tp1149
(dp1150
g237
(lp1151
Vm68k
p1152
asg241
I01
ss(Vimage
p1153
g143
NV5kc-malta
p1154
tp1155
(dp1156
Vconfigs
p1157
(lp1158
Vkernelarch-mips/config.5kc-malta
p1159
ass(Vbuild
p1160
tp1161
(dp1162
Vsigned-modules
p1163
I01
ss(Vbase
p1164
g324
tp1165
(dp1166
g8
(lp1167
g10
asVcflags
p1168
V-ffreestanding
p1169
sVkernel-arch
p1170
Vm68k
p1171
ss(g234
g56
g10
tp1172
(dp1173
g237
(lp1174
Vs390x
p1175
asg241
I01
ss(Vbase
p1176
g213
Vrt
p1177
tp1178
(dp1179
Vflavours
p1180
(lp1181
V686-pae
p1182
ass(Vbuild
p1183
g113
tp1184
(dp1185
Vimage-file
p1186
Varch/arm/boot/zImage
p1187
ss(Vrelations
p1188
g56
tp1189
(dp1190
Vheaders%gcc-5
p1191
Vlinux-compiler-gcc-5-s390
p1192
ss(Vdescription
p1193
g47
NV4kc-malta
p1194
tp1195
(dp1196
Vhardware
p1197
VMIPS Malta
p1198
sVhardware-long
p1199
VMIPS Malta boards
p1200
ss(Vabi
p1201
Ng782
tp1202
(dp1203
Vignore-changes
p1204
(lp1205
V*
p1206
ass(Vimage
p1207
g377
tp1208
(dp1209
Vinstall-stem
p1210
Vvmlinux
p1211
ss(Vimage
p1212
g5
NVsparc64-smp
p1213
tp1214
(dp1215
Vconfigs
p1216
(lp1217
Vkernelarch-sparc/config-smp
p1218
ass(Vimage
p1219
g5
tp1220
(dp1221
Vinstall-stem
p1222
Vvmlinuz
p1223
sVconfigs
p1224
(lp1225
sVsuggests
p1226
Vsilo, fdutils
p1227
ss(Vdescription
p1228
g56
NVs390x
p1229
tp1230
(dp1231
Vhardware
p1232
VIBM zSeries
p1233
sstp1234
Rp1235
.