ccopy_reg
_reconstructor
p0
(cdebian_linux.config
ConfigCore
p1
c__builtin__
dict
p2
(dp3
(Vdescription
p4
Vmips64
p5
NV5kc-malta
p6
tp7
(dp8
Vhardware-long
p9
VMIPS Malta boards
p10
sVhardware
p11
VMIPS Malta
p12
ss(Vbuild
p13
Varmel
p14
tp15
(dp16
Vimage-file
p17
Varch/arm/boot/zImage
p18
ss(Vimage
p19
Vppc64el
p20
NVpowerpc64le
p21
tp22
(dp23
Vconfigs
p24
(lp25
Vkernelarch-powerpc/config-arch-64
p26
aVkernelarch-powerpc/config-arch-64-le
p27
ass(Vbase
p28
Vm68k
p29
tp30
(dp31
Vkernel-arch
p32
Vm68k
p33
sVcflags
p34
V-ffreestanding
p35
sVfeaturesets
p36
(lp37
Vnone
p38
ass(Vbase
p39
Vmips64el
p40
tp41
(dp42
Vkernel-arch
p43
Vmips
p44
sg36
(lp45
g38
ass(Vimage
p46
Vmipsel
p47
tp48
(dp49
Vinstall-stem
p50
Vvmlinux
p51
ss(Vdescription
p52
tp53
(dp54
Vpart-long-xen
p55
VThis kernel also runs on a Xen hypervisor.\u000aIt supports both privileged (dom0) and unprivileged (domU) operation.
p56
sVpart-long-up
p57
VThis kernel is not suitable for SMP (multi-processor,\u000amulti-core or hyper-threaded) systems.
p58
ss(Vdescription
p59
g47
NV4kc-malta
p60
tp61
(dp62
Vhardware-long
p63
VMIPS Malta boards
p64
sVhardware
p65
VMIPS Malta
p66
ss(Vimage
p67
Vamd64
p68
tp69
(dp70
Vinstall-stem
p71
Vvmlinuz
p72
sVbootloaders
p73
(lp74
Vgrub-pc
p75
aVgrub-efi
p76
aVextlinux
p77
asVbreaks
p78
Vxserver-xorg-input-vmmouse (<< 1:13.0.99)
p79
ss(Vbuild
p80
g68
tp81
(dp82
Vimage-file
p83
Varch/x86/boot/bzImage
p84
sVvdso
p85
I01
sVdebug-info
p86
I01
ss(Vimage
p87
g14
NVmarvell
p88
tp89
(dp90
Vcheck-size
p91
L2097080L
sVbreaks
p92
Vflash-kernel (<< 3.57~)
p93
sVcheck-size-with-dtb
p94
I01
sVrecommends
p95
Vu-boot-tools
p96
ss(Vdescription
p97
Vppc64
p98
NVpowerpc64
p99
tp100
(dp101
Vhardware
p102
V64-bit PowerPC
p103
ss(Vdescription
p104
Vpowerpc
p105
NVpowerpc64
p106
tp107
(dp108
Vhardware
p109
V64-bit PowerPC
p110
ss(Vrelations
p111
g14
tp112
(dp113
Vheaders%gcc-5
p114
Vlinux-compiler-gcc-5-arm
p115
ss(Vimage
p116
tp117
(dp118
Vinitramfs-generators
p119
(lp120
Vinitramfs-tools
p121
aVinitramfs-fallback
p122
ass(Vdescription
p123
Varmhf
p124
NVarmmp-lpae
p125
tp126
(dp127
Vhardware-long
p128
VARMv7 multiplatform kernel supporting LPAE. See\u000ahttps://wiki.debian.org/DebianKernel/ARMMP for details of supported\u000aplatforms.
p129
sVhardware
p130
VARMv7 multiplatform compatible SoCs supporting LPAE
p131
ss(Vbuild
p132
g14
NVmarvell
p133
tp134
(dp135
Vsigned-modules
p136
I00
ss(Vbase
p137
Vsh4
p138
tp139
(dp140
Vkernel-arch
p141
Vsh
p142
sg36
(lp143
g38
ass(Vimage
p144
Vmips
p145
NVocteon
p146
tp147
(dp148
Vconfigs
p149
(lp150
Vkernelarch-mips/config.octeon
p151
ass(Vbase
p152
Vi386
p153
Vrt
p154
tp155
(dp156
Vflavours
p157
(lp158
V686-pae
p159
ass(Vimage
p160
g40
tp161
(dp162
Vinstall-stem
p163
Vvmlinux
p164
ss(Vbase
p165
g5
g38
tp166
(dp167
Vimplicit-flavour
p168
I01
sVflavours
p169
(lp170
V5kc-malta
p171
aVocteon
p172
ass(Vimage
p173
g105
NVpowerpc-smp
p174
tp175
(dp176
Vconfigs
p177
(lp178
Vpowerpc/config.powerpc
p179
aVpowerpc/config.powerpc-smp
p180
ass(Vimage
p181
g105
tp182
(dp183
Vinstall-stem
p184
Vvmlinux
p185
sVconfigs
p186
(lp187
sVsuggests
p188
Vmkvmlinuz
p189
ss(Vdescription
p190
g20
NVpowerpc64le
p191
tp192
(dp193
Vhardware
p194
VLittle-endian 64-bit PowerPC
p195
ss(Vdescription
p196
Vsparc64
p197
NVsparc64
p198
tp199
(dp200
Vhardware
p201
Vuniprocessor 64-bit UltraSPARC
p202
ss(Vimage
p203
g138
NVsh7785lcr
p204
tp205
(dp206
Vcheck-size
p207
L4194304L
sVrecommends
p208
Vu-boot-tools
p209
ss(Vabi
p210
NVrt
p211
tp212
(dp213
Vignore-changes
p214
(lp215
V*
p216
ass(Vdescription
p217
g153
tp218
(dp219
Vpart-long-pae
p220
VThis kernel requires PAE (Physical Address Extension).\u000aThis feature is supported by the Intel Pentium Pro/II/III/4/4M/D, Xeon,\u000aCore and Atom; AMD Geode NX, Athlon (K7), Duron, Opteron, Sempron,\u000aTurion or Phenom; Transmeta Efficeon; VIA C7; and some other processors.
p221
ss(Vimage
p222
g40
NVocteon
p223
tp224
(dp225
Vconfigs
p226
(lp227
Vkernelarch-mips/config.octeon
p228
ass(Vbase
p229
g145
tp230
(dp231
Vkernel-arch
p232
Vmips
p233
sg36
(lp234
g38
ass(Vbase
p235
tp236
(dp237
Varches
p238
(lp239
Valpha
p240
aVamd64
p241
aVarm64
p242
aVarmel
p243
aVarmhf
p244
aVhppa
p245
aVi386
p246
aVm68k
p247
aVmips
p248
aVmipsel
p249
aVmipsn32
p250
aVmipsn32el
p251
aVmips64
p252
aVmips64el
p253
aVor1k
p254
aVpowerpc
p255
aVpowerpcspe
p256
aVppc64
p257
aVppc64el
p258
aVs390
p259
aVs390x
p260
aVsh4
p261
aVsparc
p262
aVsparc64
p263
aVtilegx
p264
aVx32
p265
asVcompiler
p266
Vgcc-5
p267
sVfeaturesets
p268
(lp269
Vnone
p270
aVrt
p271
ass(Vdescription
p272
g29
NVm68k
p273
tp274
(dp275
Vhardware
p276
VMotorola MC68020+ family
p277
ss(Vdescription
p278
g47
NVocteon
p279
tp280
(dp281
Vhardware-long
p282
VCavium Networks Octeon
p283
sVhardware
p284
VOcteon
p285
ss(Vabi
p286
g145
tp287
(dp288
Vignore-changes
p289
(lp290
V__flush_icache_page
p291
ass(Vdescription
p292
g47
NVloongson-2e
p293
tp294
(dp295
Vhardware-long
p296
VLemote Loongson 2E systems
p297
sVhardware
p298
VLoongson 2E
p299
ss(Vimage
p300
g5
NVocteon
p301
tp302
(dp303
Vconfigs
p304
(lp305
Vkernelarch-mips/config.octeon
p306
ass(Vbase
p307
Varm64
p308
Vnone
p309
tp310
(dp311
Vflavours
p312
(lp313
Varm64
p314
ass(Vdescription
p315
g40
NVloongson-3
p316
tp317
(dp318
Vhardware-long
p319
VLoongson 3A or 3B based systems (e.g. from Loongson or Lemote)
p320
sVhardware
p321
VLoongson 3A/3B
p322
ss(Vimage
p323
g98
NVpowerpc64
p324
tp325
(dp326
Vconfigs
p327
(lp328
Vkernelarch-powerpc/config-arch-64
p329
aVkernelarch-powerpc/config-arch-64-be
p330
ass(Vrelations
p331
g68
tp332
(dp333
Vheaders%gcc-5
p334
Vlinux-compiler-gcc-5-x86
p335
ss(Vimage
p336
g47
NV5kc-malta
p337
tp338
(dp339
Vconfigs
p340
(lp341
Vkernelarch-mips/config.malta
p342
aVkernelarch-mips/config.mips64r1
p343
ass(Vbuild
p344
tp345
(dp346
Vsigned-modules
p347
I01
ss(Vdescription
p348
g105
NVpowerpc-smp
p349
tp350
(dp351
Vhardware
p352
Vmultiprocessor 32-bit PowerPC
p353
ss(Vimage
p354
g308
tp355
(dp356
Vinstall-stem
p357
Vvmlinuz
p358
ss(Vimage
p359
g5
tp360
(dp361
Vinstall-stem
p362
Vvmlinux
p363
ss(g165
g197
g38
tp364
(dp365
g168
I01
sg169
(lp366
Vsparc64
p367
aVsparc64-smp
p368
ass(Vbase
p369
Vpowerpcspe
p370
tp371
(dp372
Vkernel-arch
p373
Vpowerpc
p374
sg36
(lp375
g38
ass(Vimage
p376
g308
NVarm64
p377
tp378
(dp379
s(Vbase
p380
g14
tp381
(dp382
Vkernel-arch
p383
Varm
p384
sg36
(lp385
g38
ass(Vbase
p386
g98
tp387
(dp388
Vkernel-arch
p389
Vpowerpc
p390
sg36
(lp391
g38
ass(Vdescription
p392
g138
NVsh7751r
p393
tp394
(dp395
Vhardware-long
p396
VRenesas SH7751R R2D plus board
p397
sVhardware
p398
Vsh7751r
p399
ss(Vdescription
p400
g153
NV686
p401
tp402
(dp403
Vhardware-long
p404
VPCs with one or more processors not supporting PAE
p405
sVhardware
p406
Volder PCs
p407
ss(Vbuild
p408
g40
tp409
(dp410
Vsigned-modules
p411
I00
sVimage-file
p412
Vvmlinux
p413
ss(Vbuild
p414
g124
tp415
(dp416
Vimage-file
p417
Varch/arm/boot/zImage
p418
sVvdso
p419
I01
ss(Vdescription
p420
g14
NVmarvell
p421
tp422
(dp423
Vhardware-long
p424
VMarvell Kirkwood based systems (SheevaPlug, QNAP TS-119/TS-219, etc)\u000aand Orion 5181, 5182 and 5281 based systems (QNAP TS-109/TS-209, etc)
p425
sVhardware
p426
VMarvell Kirkwood/Orion
p427
ss(Vdescription
p428
g47
NV5kc-malta
p429
tp430
(dp431
Vhardware-long
p432
VMIPS Malta boards (64-bit)
p433
sVhardware
p434
VMIPS Malta (64-bit)
p435
ss(Vabi
p436
g124
tp437
(dp438
Vignore-changes
p439
(lp440
Vmodule:drivers/gpu/drm/imx/*
p441
ass(g165
g20
g38
tp442
(dp443
g168
I01
sg169
(lp444
Vpowerpc64le
p445
ass(Vdescription
p446
Valpha
p447
NValpha-smp
p448
tp449
(dp450
Vhardware-long
p451
VDEC Alpha SMP systems with extended kernel start address (Wildfire, Titan, Marvel)
p452
sVhardware
p453
VAlpha SMP
p454
ss(Vimage
p455
g47
NVloongson-3
p456
tp457
(dp458
Vconfigs
p459
(lp460
Vkernelarch-mips/config.loongson-3
p461
ass(Vbase
p462
g197
tp463
(dp464
Vkernel-arch
p465
Vsparc
p466
sg36
(lp467
g38
ass(Vbase
p468
Vx32
p469
tp470
(dp471
Vkernel-arch
p472
Vx86
p473
sVfeaturesets
p474
(lp475
ss(Vbase
p476
NVrt
p477
tp478
(dp479
Venabled
p480
I01
ss(Vimage
p481
g197
NVsparc64
p482
tp483
(dp484
Vconfigs
p485
(lp486
Vkernelarch-sparc/config-up
p487
ass(Vdescription
p488
g153
NV686-pae
p489
tp490
(dp491
Vhardware-long
p492
VPCs with one or more processors supporting PAE
p493
sVhardware
p494
Vmodern PCs
p495
sVparts
p496
(lp497
Vpae
p498
ass(Vdescription
p499
g40
NV5kc-malta
p500
tp501
(dp502
Vhardware-long
p503
VMIPS Malta boards
p504
sVhardware
p505
VMIPS Malta
p506
ss(Vbuild
p507
g29
tp508
(dp509
Vsigned-modules
p510
I00
sVimage-file
p511
Vvmlinux.gz
p512
ss(Vxen
p513
g68
Vnone
p514
Vamd64
p515
tp516
(dp517
Vflavours
p518
(lp519
Vamd64
p520
ass(Vimage
p521
g138
tp522
(dp523
Vinstall-stem
p524
Vvmlinuz
p525
ss(Vimage
p526
g447
tp527
(dp528
Vinstall-stem
p529
Vvmlinuz
p530
sVsuggests
p531
Vaboot, fdutils
p532
ss(Vbase
p533
Vmipsn32
p534
tp535
(dp536
Vkernel-arch
p537
Vmips
p538
sVfeaturesets
p539
(lp540
ss(Vdescription
p541
g145
NV5kc-malta
p542
tp543
(dp544
Vhardware-long
p545
VMIPS Malta boards (64-bit)
p546
sVhardware
p547
VMIPS Malta (64-bit)
p548
ss(Vbase
p549
g68
Vrt
p550
tp551
(dp552
Vflavours
p553
(lp554
Vamd64
p555
ass(Vbase
p556
Vs390x
p557
tp558
(dp559
Vkernel-arch
p560
Vs390
p561
sg36
(lp562
g38
ass(Vbuild
p563
g138
tp564
(dp565
Vsigned-modules
p566
I00
sVimage-file
p567
Varch/sh/boot/zImage
p568
ss(Vabi
p569
g47
tp570
(dp571
Vignore-changes
p572
(lp573
V__flush_icache_page
p574
ass(Vimage
p575
g105
NVpowerpc64
p576
tp577
(dp578
Vconfigs
p579
(lp580
Vkernelarch-powerpc/config-arch-64
p581
aVkernelarch-powerpc/config-arch-64-be
p582
ass(Vdescription
p583
g557
NVs390x
p584
tp585
(dp586
Vhardware
p587
VIBM zSeries
p588
ss(Vdescription
p589
g68
g514
Vamd64
p590
tp591
(dp592
Vparts
p593
(lp594
Vxen
p595
ass(Vbase
p596
Vor1k
p597
tp598
(dp599
Vkernel-arch
p600
Vopenrisc
p601
sVfeaturesets
p602
(lp603
ss(g165
g98
g38
tp604
(dp605
g168
I01
sg169
(lp606
Vpowerpc64
p607
ass(g165
g138
g38
tp608
(dp609
g168
I01
sg169
(lp610
Vsh7751r
p611
aVsh7785lcr
p612
ass(Vdescription
p613
g5
NVocteon
p614
tp615
(dp616
Vhardware-long
p617
VCavium Networks Octeon
p618
sVhardware
p619
VOcteon
p620
ss(Vdescription
p621
g308
NVarm64
p622
tp623
(dp624
Vhardware
p625
V64-bit ARMv8 machines
p626
ss(Vdescription
p627
Ng211
tp628
(dp629
Vpart-short-rt
p630
VPREEMPT_RT
p631
sVpart-long-rt
p632
VThis kernel includes the PREEMPT_RT realtime patch set.
p633
sVparts
p634
(lp635
Vrt
p636
ass(Vrelations
p637
g557
tp638
(dp639
Vheaders%gcc-5
p640
Vlinux-compiler-gcc-5-s390
p641
ss(Vimage
p642
g40
NVloongson-3
p643
tp644
(dp645
Vconfigs
p646
(lp647
Vkernelarch-mips/config.loongson-3
p648
ass(Vrelations
p649
g124
tp650
(dp651
Vheaders%gcc-5
p652
Vlinux-compiler-gcc-5-arm
p653
ss(Vabi
p654
tp655
(dp656
Vabiname
p657
V1
p658
sVignore-changes
p659
(lp660
Vmodule:drivers/net/wireless/realtek/rtlwifi/*
p661
ass(g165
g557
g38
tp662
(dp663
g168
I01
sg169
(lp664
Vs390x
p665
ass(Vbase
p666
g153
tp667
(dp668
Vkernel-arch
p669
Vx86
p670
sVfeaturesets
p671
(lp672
Vnone
p673
aVrt
p674
ass(Vbase
p675
Vhppa
p676
tp677
(dp678
Vkernel-arch
p679
Vparisc
p680
sg36
(lp681
g38
ass(Vbase
p682
g308
tp683
(dp684
Vkernel-arch
p685
Varm64
p686
sVfeaturesets
p687
(lp688
Vnone
p689
ass(Vdescription
p690
g47
NVloongson-3
p691
tp692
(dp693
Vhardware-long
p694
VLoongson 3A or 3B based systems (e.g. from Loongson or Lemote)
p695
sVhardware
p696
VLoongson 3A/3B
p697
ss(g165
g676
g38
tp698
(dp699
g168
I01
sg169
(lp700
Vparisc
p701
aVparisc64-smp
p702
ass(Vdescription
p703
g105
NVpowerpc
p704
tp705
(dp706
Vhardware
p707
Vuniprocessor 32-bit PowerPC
p708
ss(Vdescription
p709
g153
Vnone
p710
V686-pae
p711
tp712
(dp713
Vparts
p714
(lp715
Vxen
p716
ass(Vdescription
p717
g40
NVocteon
p718
tp719
(dp720
Vhardware-long
p721
VCavium Networks Octeon
p722
sVhardware
p723
VOcteon
p724
ss(Vdescription
p725
g197
NVsparc64-smp
p726
tp727
(dp728
Vhardware
p729
Vmultiprocessor 64-bit UltraSPARC
p730
ss(Vimage
p731
g40
NV5kc-malta
p732
tp733
(dp734
Vconfigs
p735
(lp736
Vkernelarch-mips/config.malta
p737
aVkernelarch-mips/config.mips64r2
p738
ass(Vbase
p739
g47
tp740
(dp741
Vkernel-arch
p742
Vmips
p743
sg36
(lp744
g38
ass(Vimage
p745
g98
tp746
(dp747
Vinstall-stem
p748
Vvmlinux
p749
sVconfigs
p750
(lp751
sVsuggests
p752
Vmkvmlinuz
p753
ss(Vbase
p754
g676
NVparisc64-smp
p755
tp756
(dp757
Vcflags
p758
V-fno-cse-follow-jumps
p759
sVoverride-host-type
p760
Vhppa64-linux-gnu
p761
ss(Vbase
p762
g124
tp763
(dp764
Vkernel-arch
p765
Varm
p766
sg36
(lp767
g38
ass(Vbase
p768
g5
tp769
(dp770
Vkernel-arch
p771
Vmips
p772
sg36
(lp773
g38
ass(Vimage
p774
g5
NV5kc-malta
p775
tp776
(dp777
Vconfigs
p778
(lp779
Vkernelarch-mips/config.malta
p780
aVkernelarch-mips/config.mips64r2
p781
ass(Vbuild
p782
g370
tp783
(dp784
Vsigned-modules
p785
I00
sVimage-file
p786
Vvmlinux
p787
sVvdso
p788
I01
ss(Vbuild
p789
g98
tp790
(dp791
Vsigned-modules
p792
I00
sVimage-file
p793
Vvmlinux
p794
sVvdso
p795
I01
ss(Vbase
p796
g20
tp797
(dp798
Vkernel-arch
p799
Vpowerpc
p800
sg36
(lp801
g38
ass(g165
g29
g38
tp802
(dp803
g168
I01
sg169
(lp804
Vm68k
p805
ass(Vdescription
p806
g138
NVsh7785lcr
p807
tp808
(dp809
Vhardware-long
p810
VRenesas SH7785 reference board
p811
sVhardware
p812
Vsh7785lcr
p813
ss(Vdescription
p814
g47
NVloongson-2f
p815
tp816
(dp817
Vhardware-long
p818
VLemote Loongson 2F systems
p819
sVhardware
p820
VLoongson 2F
p821
ss(Vbuild
p822
g447
tp823
(dp824
Vsigned-modules
p825
I00
sVimage-file
p826
Varch/alpha/boot/vmlinux.gz
p827
ss(Vbase
p828
Vs390
p829
tp830
(dp831
Vkernel-arch
p832
Vs390
p833
sVfeaturesets
p834
(lp835
ss(Vbase
p836
g105
tp837
(dp838
Vkernel-arch
p839
Vpowerpc
p840
sg36
(lp841
g38
ass(Vbuild
p842
g47
tp843
(dp844
Vsigned-modules
p845
I00
sVimage-file
p846
Vvmlinux
p847
ss(Vbase
p848
Vmipsn32el
p849
tp850
(dp851
Vkernel-arch
p852
Vmips
p853
sVfeaturesets
p854
(lp855
ss(Vimage
p856
g557
tp857
(dp858
Vinstall-stem
p859
Vvmlinuz
p860
sVbootloaders
p861
(lp862
Vs390-tools
p863
ass(Vbuild
p864
g153
NV686-pae
p865
tp866
(dp867
Vdebug-info
p868
I01
ss(Vbase
p869
g68
tp870
(dp871
Vkernel-arch
p872
Vx86
p873
sVfeaturesets
p874
(lp875
Vnone
p876
aVrt
p877
ass(Vbase
p878
g68
g514
tp879
(dp880
Vflavours
p881
(lp882
Vamd64
p883
ass(Vimage
p884
g145
NV5kc-malta
p885
tp886
(dp887
Vconfigs
p888
(lp889
Vkernelarch-mips/config.malta
p890
aVkernelarch-mips/config.mips64r2
p891
ass(Vbuild
p892
g5
tp893
(dp894
Vsigned-modules
p895
I00
sVimage-file
p896
Vvmlinux
p897
ss(g165
g14
g38
tp898
(dp899
g168
I01
sg169
(lp900
Vmarvell
p901
aVversatile
p902
ass(Vdescription
p903
g370
tp904
(dp905
Vhardware
p906
V32-bit PowerPC with SPE (instead of AltiVec) with SMP support
p907
ss(Vdescription
p908
g124
NVarmmp
p909
tp910
(dp911
Vhardware-long
p912
VARMv7 multiplatform kernel. See\u000ahttps://wiki.debian.org/DebianKernel/ARMMP for details of supported\u000aplatforms
p913
sVhardware
p914
VARMv7 multiplatform compatible SoCs
p915
ss(Vrelations
p916
g153
tp917
(dp918
Vheaders%gcc-5
p919
Vlinux-compiler-gcc-5-x86
p920
ss(Vimage
p921
g153
tp922
(dp923
Vinstall-stem
p924
Vvmlinuz
p925
sVbootloaders
p926
(lp927
Vgrub-pc
p928
aVextlinux
p929
asVbreaks
p930
Vxserver-xorg-input-vmmouse (<< 1:13.0.99)
p931
ss(Vdescription
p932
g14
NVversatile
p933
tp934
(dp935
Vhardware-long
p936
VVersatile systems (PB, AB, Qemu)
p937
sVhardware
p938
VVersatile
p939
ss(Vimage
p940
g20
tp941
(dp942
Vinstall-stem
p943
Vvmlinux
p944
sVconfigs
p945
(lp946
sVsuggests
p947
Vmkvmlinuz
p948
ss(Vimage
p949
g29
tp950
(dp951
Vinstall-stem
p952
Vvmlinuz
p953
sVsuggests
p954
Vvmelilo, fdutils
p955
ss(Vversion
p956
tp957
(dp958
Vsource
p959
V4.6.2-1
p960
sVupstream
p961
V4.6
p962
sVabiname
p963
V4.6.0-1
p964
sVabiname_base
p965
V4.6.0
p966
ss(Vimage
p967
g197
NVsparc64-smp
p968
tp969
(dp970
Vconfigs
p971
(lp972
Vkernelarch-sparc/config-smp
p973
ass(g165
g40
g38
tp974
(dp975
g168
I01
sg169
(lp976
V5kc-malta
p977
aVloongson-3
p978
aVocteon
p979
ass(Vbuild
p980
g557
tp981
(dp982
Vimage-file
p983
Varch/s390/boot/image
p984
sVvdso
p985
I01
ss(Vimage
p986
g47
NV4kc-malta
p987
tp988
(dp989
Vconfigs
p990
(lp991
Vkernelarch-mips/config.malta
p992
aVkernelarch-mips/config.mips32r1
p993
ass(Vbuild
p994
g676
tp995
(dp996
Vsigned-modules
p997
I00
sVimage-file
p998
Vvmlinux
p999
ss(Vimage
p1000
g676
tp1001
(dp1002
Vinstall-stem
p1003
Vvmlinux
p1004
sVsuggests
p1005
Vpalo
p1006
ss(Vimage
p1007
g370
tp1008
(dp1009
Vinstall-stem
p1010
Vvmlinux
p1011
sVsuggests
p1012
Vmkvmlinuz
p1013
ss(Vimage
p1014
g197
tp1015
(dp1016
Vinstall-stem
p1017
Vvmlinuz
p1018
sVconfigs
p1019
(lp1020
sVsuggests
p1021
Vsilo, fdutils
p1022
ss(g165
g47
g38
tp1023
(dp1024
g168
I01
sg169
(lp1025
V4kc-malta
p1026
aV5kc-malta
p1027
aVloongson-2e
p1028
aVloongson-2f
p1029
aVloongson-3
p1030
aVocteon
p1031
ass(Vimage
p1032
g145
tp1033
(dp1034
Vinstall-stem
p1035
Vvmlinux
p1036
ss(Vimage
p1037
g14
tp1038
(dp1039
Vinstall-stem
p1040
Vvmlinuz
p1041
ss(Vdescription
p1042
g676
NVparisc
p1043
tp1044
(dp1045
Vhardware-long
p1046
VHP PA-RISC 32-bit systems with max 4 GB RAM
p1047
sVhardware
p1048
V32-bit PA-RISC
p1049
ss(Vbuild
p1050
g153
tp1051
(dp1052
Vimage-file
p1053
Varch/x86/boot/bzImage
p1054
sVvdso
p1055
I01
ss(Vdescription
p1056
g145
NVocteon
p1057
tp1058
(dp1059
Vhardware-long
p1060
VCavium Networks Octeon
p1061
sVhardware
p1062
VOcteon
p1063
ss(Vbuild
p1064
g145
tp1065
(dp1066
Vsigned-modules
p1067
I00
sVimage-file
p1068
Vvmlinux
p1069
ss(Vrelations
p1070
g676
tp1071
(dp1072
Vgcc-5
p1073
Vgcc-5 <!stage1>, binutils-hppa64-linux-gnu <!stage1>, gcc-5-hppa64-linux-gnu <!stage1>
p1074
ss(Vbase
p1075
Vtilegx
p1076
tp1077
(dp1078
Vkernel-arch
p1079
Vtile
p1080
sVfeaturesets
p1081
(lp1082
ss(Vbase
p1083
Vsparc
p1084
tp1085
(dp1086
Vkernel-arch
p1087
Vsparc
p1088
sVfeaturesets
p1089
(lp1090
ss(Vbuild
p1091
g308
tp1092
(dp1093
Vimage-file
p1094
Varch/arm64/boot/Image
p1095
sVvdso
p1096
I01
sVdebug-info
p1097
I01
ss(Vrelations
p1098
tp1099
(dp1100
Vgcc-5
p1101
Vgcc-5 <!stage1>
p1102
sVinitramfs-fallback
p1103
Vlinux-initramfs-tool
p1104
sVinitramfs-tools
p1105
Vinitramfs-tools (>= 0.110~)
p1106
ss(Vdescription
p1107
g447
NValpha-generic
p1108
tp1109
(dp1110
Vhardware-long
p1111
VDEC Alpha systems with extended kernel start address (Wildfire, Titan, Marvel)
p1112
sVhardware
p1113
VAlpha
p1114
ss(Vimage
p1115
g124
tp1116
(dp1117
Vinstall-stem
p1118
Vvmlinuz
p1119
ss(Vimage
p1120
g47
NVloongson-2e
p1121
tp1122
(dp1123
Vconfigs
p1124
(lp1125
Vkernelarch-mips/config.loongson-2e
p1126
ass(Vimage
p1127
g47
NVloongson-2f
p1128
tp1129
(dp1130
Vrecommends
p1131
Vlibc6-loongson2f
p1132
sVconfigs
p1133
(lp1134
Vkernelarch-mips/config.loongson-2f
p1135
ass(g165
g124
g38
tp1136
(dp1137
g168
I01
sg169
(lp1138
Varmmp
p1139
aVarmmp-lpae
p1140
ass(Vbase
p1141
g153
g710
tp1142
(dp1143
Vflavours
p1144
(lp1145
V686
p1146
aV686-pae
p1147
ass(g165
g447
g38
tp1148
(dp1149
g168
I01
sg169
(lp1150
Valpha-generic
p1151
aValpha-smp
p1152
ass(Vbuild
p1153
g105
tp1154
(dp1155
Vimage-file
p1156
Vvmlinux
p1157
sVvdso
p1158
I01
ss(Vbuild
p1159
g20
tp1160
(dp1161
Vimage-file
p1162
Vvmlinux
p1163
sVvdso
p1164
I01
ss(Vimage
p1165
g145
NV4kc-malta
p1166
tp1167
(dp1168
Vconfigs
p1169
(lp1170
Vkernelarch-mips/config.malta
p1171
aVkernelarch-mips/config.mips32r2
p1172
ass(Vdescription
p1173
g68
NVamd64
p1174
tp1175
(dp1176
Vhardware-long
p1177
VPCs with AMD64, Intel 64 or VIA Nano processors
p1178
sVhardware
p1179
V64-bit PCs
p1180
ss(Vabi
p1181
g40
tp1182
(dp1183
Vignore-changes
p1184
(lp1185
V__flush_icache_page
p1186
ass(g165
g145
g38
tp1187
(dp1188
g168
I01
sg169
(lp1189
V4kc-malta
p1190
aV5kc-malta
p1191
aVocteon
p1192
ass(Vbuild
p1193
g557
NVs390x
p1194
tp1195
(dp1196
Vdebug-info
p1197
I01
ss(Vdescription
p1198
g676
NVparisc64-smp
p1199
tp1200
(dp1201
Vhardware-long
p1202
VHP PA-RISC 64-bit SMP systems with support for more than 4 GB RAM
p1203
sVhardware
p1204
Vmultiprocessor 64-bit PA-RISC
p1205
ss(g165
g105
g38
tp1206
(dp1207
g168
I01
sg169
(lp1208
Vpowerpc
p1209
aVpowerpc-smp
p1210
aVpowerpc64
p1211
ass(Vimage
p1212
g47
NVocteon
p1213
tp1214
(dp1215
Vconfigs
p1216
(lp1217
Vkernelarch-mips/config.octeon
p1218
ass(g165
g370
g38
tp1219
(dp1220
g168
I01
sg169
(lp1221
Vpowerpcspe
p1222
ass(Vdescription
p1223
g145
NV4kc-malta
p1224
tp1225
(dp1226
Vhardware-long
p1227
VMIPS Malta boards
p1228
sVhardware
p1229
VMIPS Malta
p1230
ss(Vbuild
p1231
g197
tp1232
(dp1233
Vsigned-modules
p1234
I00
sVimage-file
p1235
Varch/sparc/boot/zImage
p1236
ss(Vbase
p1237
g447
tp1238
(dp1239
Vkernel-arch
p1240
Valpha
p1241
sg36
(lp1242
g38
asstp1243
Rp1244
.