ccopy_reg
_reconstructor
p0
(cdebian_linux.config
ConfigCore
p1
c__builtin__
dict
p2
(dp3
(Vbase
p4
Vmips64
p5
tp6
(dp7
Vkernel-arch
p8
Vmips
p9
sVfeaturesets
p10
(lp11
Vnone
p12
ass(Vbase
p13
Vtilegx
p14
tp15
(dp16
Vkernel-arch
p17
Vtile
p18
sVfeaturesets
p19
(lp20
ss(Vimage
p21
Vppc64
p22
tp23
(dp24
Vinstall-stem
p25
Vvmlinux
p26
sVconfigs
p27
(lp28
sVsuggests
p29
Vmkvmlinuz
p30
ss(Vimage
p31
Vhppa
p32
tp33
(dp34
Vinstall-stem
p35
Vvmlinux
p36
sVsuggests
p37
Vpalo
p38
ss(Vdescription
p39
Vppc64el
p40
NVpowerpc64le
p41
tp42
(dp43
Vhardware
p44
VLittle-endian 64-bit PowerPC
p45
ss(Vdescription
p46
g5
NV5kc-malta
p47
tp48
(dp49
Vhardware-long
p50
VMIPS Malta boards
p51
sVhardware
p52
VMIPS Malta
p53
ss(Vimage
p54
Varmhf
p55
tp56
(dp57
Vinstall-stem
p58
Vvmlinuz
p59
ss(Vimage
p60
Vmipsel
p61
tp62
(dp63
Vinstall-stem
p64
Vvmlinux
p65
ss(Vxen
p66
Vamd64
p67
Vnone
p68
Vamd64
p69
tp70
(dp71
Vflavours
p72
(lp73
Vamd64
p74
ass(Vimage
p75
g61
NVloongson-2f
p76
tp77
(dp78
Vrecommends
p79
Vlibc6-loongson2f
p80
sVconfigs
p81
(lp82
Vkernelarch-mips/config.loongson-2f
p83
ass(Vbuild
p84
tp85
(dp86
Vsigned-modules
p87
I01
ss(Vdescription
p88
Vs390x
p89
NVs390x
p90
tp91
(dp92
Vhardware
p93
VIBM zSeries
p94
ss(Vimage
p95
Vmips
p96
NV4kc-malta
p97
tp98
(dp99
Vconfigs
p100
(lp101
Vkernelarch-mips/config.malta
p102
aVkernelarch-mips/config.mips32r2
p103
ass(Vimage
p104
Vsparc64
p105
tp106
(dp107
Vinstall-stem
p108
Vvmlinuz
p109
sVconfigs
p110
(lp111
sVsuggests
p112
Vsilo, fdutils
p113
ss(Vabi
p114
g55
tp115
(dp116
Vignore-changes
p117
(lp118
Vmodule:drivers/gpu/drm/imx/*
p119
ass(Vimage
p120
g22
NVpowerpc64
p121
tp122
(dp123
Vconfigs
p124
(lp125
Vkernelarch-powerpc/config-arch-64
p126
aVkernelarch-powerpc/config-arch-64-be
p127
ass(Vimage
p128
g61
NVloongson-2e
p129
tp130
(dp131
Vconfigs
p132
(lp133
Vkernelarch-mips/config.loongson-2e
p134
ass(Vimage
p135
g61
NVloongson-3
p136
tp137
(dp138
Vconfigs
p139
(lp140
Vkernelarch-mips/config.loongson-3
p141
ass(Vdescription
p142
Vsh4
p143
NVsh7751r
p144
tp145
(dp146
Vhardware-long
p147
VRenesas SH7751R R2D plus board
p148
sVhardware
p149
Vsh7751r
p150
ss(Vbase
p151
g32
NVparisc64-smp
p152
tp153
(dp154
Voverride-host-type
p155
Vhppa64-linux-gnu
p156
sVcflags
p157
V-fno-cse-follow-jumps
p158
ss(Vdescription
p159
g61
NVocteon
p160
tp161
(dp162
Vhardware-long
p163
VCavium Networks Octeon
p164
sVhardware
p165
VOcteon
p166
ss(Vdescription
p167
Vmips64el
p168
NV5kc-malta
p169
tp170
(dp171
Vhardware-long
p172
VMIPS Malta boards
p173
sVhardware
p174
VMIPS Malta
p175
ss(Vrelations
p176
g89
tp177
(dp178
Vheaders%gcc-5
p179
Vlinux-compiler-gcc-5-s390
p180
ss(Vbase
p181
g67
tp182
(dp183
Vfeaturesets
p184
(lp185
Vnone
p186
aVrt
p187
asVkernel-arch
p188
Vx86
p189
ss(Vimage
p190
Vi386
p191
tp192
(dp193
Vinstall-stem
p194
Vvmlinuz
p195
sVbootloaders
p196
(lp197
Vgrub-pc
p198
aVextlinux
p199
asVbreaks
p200
Vxserver-xorg-input-vmmouse (<< 1:13.0.99)
p201
ss(Vbase
p202
Valpha
p203
tp204
(dp205
Vkernel-arch
p206
Valpha
p207
sg10
(lp208
g12
ass(Vdescription
p209
Varm64
p210
NVarm64
p211
tp212
(dp213
Vhardware
p214
V64-bit ARMv8 machines
p215
ss(Vbase
p216
g96
g12
tp217
(dp218
Vflavours
p219
(lp220
V4kc-malta
p221
aV5kc-malta
p222
aVocteon
p223
asVimplicit-flavour
p224
I01
ss(g216
g203
g12
tp225
(dp226
g219
(lp227
Valpha-generic
p228
aValpha-smp
p229
asg224
I01
ss(Vdescription
p230
g96
NV5kc-malta
p231
tp232
(dp233
Vhardware-long
p234
VMIPS Malta boards (64-bit)
p235
sVhardware
p236
VMIPS Malta (64-bit)
p237
ss(Vdescription
p238
g191
NV686-pae
p239
tp240
(dp241
Vparts
p242
(lp243
Vpae
p244
asVhardware-long
p245
VPCs with one or more processors supporting PAE
p246
sVhardware
p247
Vmodern PCs
p248
ss(Vimage
p249
g61
NV5kc-malta
p250
tp251
(dp252
Vconfigs
p253
(lp254
Vkernelarch-mips/config.malta
p255
aVkernelarch-mips/config.mips64r1
p256
ass(Vbase
p257
g40
tp258
(dp259
Vkernel-arch
p260
Vpowerpc
p261
sg10
(lp262
g12
ass(Vbuild
p263
Varmel
p264
NVmarvell
p265
tp266
(dp267
Vsigned-modules
p268
I00
ss(Vimage
p269
g210
tp270
(dp271
Vinstall-stem
p272
Vvmlinuz
p273
ss(Vimage
p274
g89
tp275
(dp276
Vinstall-stem
p277
Vvmlinuz
p278
sVbootloaders
p279
(lp280
Vs390-tools
p281
ass(Vimage
p282
g143
tp283
(dp284
Vinstall-stem
p285
Vvmlinuz
p286
ss(Vimage
p287
g105
NVsparc64-smp
p288
tp289
(dp290
Vconfigs
p291
(lp292
Vkernelarch-sparc/config-smp
p293
ass(Vbuild
p294
g55
tp295
(dp296
Vimage-file
p297
Varch/arm/boot/zImage
p298
sVvdso
p299
I01
ss(Vbase
p300
g67
g68
tp301
(dp302
Vflavours
p303
(lp304
Vamd64
p305
ass(Vbase
p306
Vpowerpcspe
p307
tp308
(dp309
Vkernel-arch
p310
Vpowerpc
p311
sg10
(lp312
g12
ass(Vbase
p313
g61
tp314
(dp315
Vkernel-arch
p316
Vmips
p317
sg10
(lp318
g12
ass(Vdescription
p319
g191
tp320
(dp321
Vpart-long-pae
p322
VThis kernel requires PAE (Physical Address Extension).\u000aThis feature is supported by the Intel Pentium Pro/II/III/4/4M/D, Xeon,\u000aCore and Atom; AMD Geode NX, Athlon (K7), Duron, Opteron, Sempron,\u000aTurion or Phenom; Transmeta Efficeon; VIA C7; and some other processors.
p323
ss(Vimage
p324
tp325
(dp326
Vinitramfs-generators
p327
(lp328
Vinitramfs-tools
p329
aVinitramfs-fallback
p330
ass(Vdescription
p331
g61
NVloongson-2f
p332
tp333
(dp334
Vhardware-long
p335
VLemote Loongson 2F systems
p336
sVhardware
p337
VLoongson 2F
p338
ss(Vdescription
p339
g96
NVocteon
p340
tp341
(dp342
Vhardware-long
p343
VCavium Networks Octeon
p344
sVhardware
p345
VOcteon
p346
ss(Vabi
p347
tp348
(dp349
Vabiname
p350
Vkali1
p351
sVignore-changes
p352
(lp353
Vmodule:drivers/net/wireless/realtek/rtlwifi/*
p354
aVxt_compat_match_from_user
p355
ass(Vimage
p356
Vpowerpc
p357
NVpowerpc64
p358
tp359
(dp360
Vconfigs
p361
(lp362
Vkernelarch-powerpc/config-arch-64
p363
aVkernelarch-powerpc/config-arch-64-be
p364
ass(Vbuild
p365
g89
tp366
(dp367
Vimage-file
p368
Varch/s390/boot/image
p369
sVvdso
p370
I01
ss(Vdescription
p371
g168
NVloongson-3
p372
tp373
(dp374
Vhardware-long
p375
VLoongson 3A or 3B based systems (e.g. from Loongson or Lemote)
p376
sVhardware
p377
VLoongson 3A/3B
p378
ss(Vimage
p379
g357
NVpowerpc-smp
p380
tp381
(dp382
Vconfigs
p383
(lp384
Vpowerpc/config.powerpc
p385
aVpowerpc/config.powerpc-smp
p386
ass(Vrelations
p387
g264
tp388
(dp389
Vheaders%gcc-5
p390
Vlinux-compiler-gcc-5-arm
p391
ss(Vdescription
p392
g32
NVparisc
p393
tp394
(dp395
Vhardware-long
p396
VHP PA-RISC 32-bit systems with max 4 GB RAM
p397
sVhardware
p398
V32-bit PA-RISC
p399
ss(g216
g168
g12
tp400
(dp401
g219
(lp402
V5kc-malta
p403
aVloongson-3
p404
aVocteon
p405
asg224
I01
ss(Vimage
p406
g264
tp407
(dp408
Vinstall-stem
p409
Vvmlinuz
p410
ss(Vimage
p411
g168
NVloongson-3
p412
tp413
(dp414
Vconfigs
p415
(lp416
Vkernelarch-mips/config.loongson-3
p417
ass(Vbuild
p418
g143
tp419
(dp420
Vsigned-modules
p421
I00
sVimage-file
p422
Varch/sh/boot/zImage
p423
ss(Vbase
p424
Vmipsn32el
p425
tp426
(dp427
Vkernel-arch
p428
Vmips
p429
sVfeaturesets
p430
(lp431
ss(Vbuild
p432
g307
tp433
(dp434
Vsigned-modules
p435
I00
sVimage-file
p436
Vvmlinux
p437
sVvdso
p438
I01
ss(Vdescription
p439
g357
NVpowerpc64
p440
tp441
(dp442
Vhardware
p443
V64-bit PowerPC
p444
ss(Vimage
p445
g203
tp446
(dp447
Vinstall-stem
p448
Vvmlinuz
p449
sVsuggests
p450
Vaboot, fdutils
p451
ss(Vimage
p452
g96
NVocteon
p453
tp454
(dp455
Vconfigs
p456
(lp457
Vkernelarch-mips/config.octeon
p458
ass(Vbuild
p459
g191
NV686-pae
p460
tp461
(dp462
Vdebug-info
p463
I01
ss(Vimage
p464
g357
tp465
(dp466
Vinstall-stem
p467
Vvmlinux
p468
sVconfigs
p469
(lp470
sVsuggests
p471
Vmkvmlinuz
p472
ss(Vdescription
p473
g203
NValpha-smp
p474
tp475
(dp476
Vhardware-long
p477
VDEC Alpha SMP systems with extended kernel start address (Wildfire, Titan, Marvel)
p478
sVhardware
p479
VAlpha SMP
p480
ss(Vdescription
p481
g5
NVocteon
p482
tp483
(dp484
Vhardware-long
p485
VCavium Networks Octeon
p486
sVhardware
p487
VOcteon
p488
ss(Vdescription
p489
g61
NV4kc-malta
p490
tp491
(dp492
Vhardware-long
p493
VMIPS Malta boards
p494
sVhardware
p495
VMIPS Malta
p496
ss(Vrelations
p497
tp498
(dp499
Vinitramfs-tools
p500
Vinitramfs-tools (>= 0.110~)
p501
sVinitramfs-fallback
p502
Vlinux-initramfs-tool
p503
sVgcc-5
p504
Vgcc-5 <!stage1>
p505
ss(Vbase
p506
g22
tp507
(dp508
Vkernel-arch
p509
Vpowerpc
p510
sg10
(lp511
g12
ass(g216
g55
g12
tp512
(dp513
g219
(lp514
Varmmp
p515
aVarmmp-lpae
p516
asg224
I01
ss(Vbuild
p517
g210
tp518
(dp519
Vdebug-info
p520
I01
sVimage-file
p521
Varch/arm64/boot/Image
p522
sVvdso
p523
I01
ss(Vdescription
p524
g22
NVpowerpc64
p525
tp526
(dp527
Vhardware
p528
V64-bit PowerPC
p529
ss(Vbase
p530
g55
tp531
(dp532
Vkernel-arch
p533
Varm
p534
sg10
(lp535
g12
ass(Vimage
p536
g67
tp537
(dp538
Vinstall-stem
p539
Vvmlinuz
p540
sVbootloaders
p541
(lp542
Vgrub-pc
p543
aVgrub-efi
p544
aVextlinux
p545
asVbreaks
p546
Vxserver-xorg-input-vmmouse (<< 1:13.0.99)
p547
ss(Vrelations
p548
g55
tp549
(dp550
Vheaders%gcc-5
p551
Vlinux-compiler-gcc-5-arm
p552
ss(Vimage
p553
g5
NV5kc-malta
p554
tp555
(dp556
Vconfigs
p557
(lp558
Vkernelarch-mips/config.malta
p559
aVkernelarch-mips/config.mips64r2
p560
ass(Vdescription
p561
g67
g68
Vamd64
p562
tp563
(dp564
Vparts
p565
(lp566
Vxen
p567
ass(Vbase
p568
g357
tp569
(dp570
Vkernel-arch
p571
Vpowerpc
p572
sg10
(lp573
g12
ass(Vbase
p574
g105
tp575
(dp576
Vkernel-arch
p577
Vsparc
p578
sg10
(lp579
g12
ass(Vbase
p580
g96
tp581
(dp582
Vkernel-arch
p583
Vmips
p584
sg10
(lp585
g12
ass(Vimage
p586
g40
NVpowerpc64le
p587
tp588
(dp589
Vconfigs
p590
(lp591
Vkernelarch-powerpc/config-arch-64
p592
aVkernelarch-powerpc/config-arch-64-le
p593
ass(Vrelations
p594
g67
tp595
(dp596
Vheaders%gcc-5
p597
Vlinux-compiler-gcc-5-x86
p598
ss(Vrelations
p599
g32
tp600
(dp601
Vgcc-5
p602
Vgcc-5 <!stage1>, binutils-hppa64-linux-gnu <!stage1>, gcc-5-hppa64-linux-gnu <!stage1>
p603
ss(Vdescription
p604
g357
NVpowerpc-smp
p605
tp606
(dp607
Vhardware
p608
Vmultiprocessor 32-bit PowerPC
p609
ss(Vimage
p610
g168
tp611
(dp612
Vinstall-stem
p613
Vvmlinux
p614
ss(Vdescription
p615
g105
NVsparc64
p616
tp617
(dp618
Vhardware
p619
Vuniprocessor 64-bit UltraSPARC
p620
ss(Vbase
p621
Vsparc
p622
tp623
(dp624
Vkernel-arch
p625
Vsparc
p626
sVfeaturesets
p627
(lp628
ss(Vbase
p629
g191
tp630
(dp631
Vfeaturesets
p632
(lp633
Vnone
p634
aVrt
p635
asVkernel-arch
p636
Vx86
p637
ss(Vimage
p638
g61
NVocteon
p639
tp640
(dp641
Vconfigs
p642
(lp643
Vkernelarch-mips/config.octeon
p644
ass(Vrelations
p645
g191
tp646
(dp647
Vheaders%gcc-5
p648
Vlinux-compiler-gcc-5-x86
p649
ss(g216
g105
g12
tp650
(dp651
g219
(lp652
Vsparc64
p653
aVsparc64-smp
p654
asg224
I01
ss(Vimage
p655
g168
NV5kc-malta
p656
tp657
(dp658
Vconfigs
p659
(lp660
Vkernelarch-mips/config.malta
p661
aVkernelarch-mips/config.mips64r2
p662
ass(g216
Vm68k
p663
g12
tp664
(dp665
g219
(lp666
Vm68k
p667
asg224
I01
ss(g216
g264
g12
tp668
(dp669
g219
(lp670
Vmarvell
p671
aVversatile
p672
asg224
I01
ss(Vbuild
p673
g32
tp674
(dp675
Vsigned-modules
p676
I00
sVimage-file
p677
Vvmlinux
p678
ss(Vdescription
p679
g96
NV4kc-malta
p680
tp681
(dp682
Vhardware-long
p683
VMIPS Malta boards
p684
sVhardware
p685
VMIPS Malta
p686
ss(Vbuild
p687
g96
tp688
(dp689
Vsigned-modules
p690
I00
sVimage-file
p691
Vvmlinux
p692
ss(Vdescription
p693
g55
NVarmmp
p694
tp695
(dp696
Vhardware-long
p697
VARMv7 multiplatform kernel. See\u000ahttps://wiki.debian.org/DebianKernel/ARMMP for details of supported\u000aplatforms
p698
sVhardware
p699
VARMv7 multiplatform compatible SoCs
p700
ss(Vbase
p701
g67
Vrt
p702
tp703
(dp704
Vflavours
p705
(lp706
Vamd64
p707
ass(Vdescription
p708
g61
NVloongson-3
p709
tp710
(dp711
Vhardware-long
p712
VLoongson 3A or 3B based systems (e.g. from Loongson or Lemote)
p713
sVhardware
p714
VLoongson 3A/3B
p715
ss(Vbase
p716
g663
tp717
(dp718
Vkernel-arch
p719
Vm68k
p720
sg10
(lp721
g12
asVcflags
p722
V-ffreestanding
p723
ss(Vversion
p724
tp725
(dp726
Vupstream
p727
V4.6
p728
sVabiname_base
p729
V4.6.0
p730
sVabiname
p731
V4.6.0-kali1
p732
sVsource
p733
V4.6.2-2kali2
p734
ss(Vdescription
p735
g32
NVparisc64-smp
p736
tp737
(dp738
Vhardware-long
p739
VHP PA-RISC 64-bit SMP systems with support for more than 4 GB RAM
p740
sVhardware
p741
Vmultiprocessor 64-bit PA-RISC
p742
ss(Vbase
p743
g143
tp744
(dp745
Vkernel-arch
p746
Vsh
p747
sg10
(lp748
g12
ass(Vdescription
p749
g61
NVloongson-2e
p750
tp751
(dp752
Vhardware-long
p753
VLemote Loongson 2E systems
p754
sVhardware
p755
VLoongson 2E
p756
ss(Vbase
p757
g210
Vnone
p758
tp759
(dp760
Vflavours
p761
(lp762
Varm64
p763
ass(Vbase
p764
Vx32
p765
tp766
(dp767
Vkernel-arch
p768
Vx86
p769
sVfeaturesets
p770
(lp771
ss(Vimage
p772
g307
tp773
(dp774
Vinstall-stem
p775
Vvmlinux
p776
sVsuggests
p777
Vmkvmlinuz
p778
ss(Vdescription
p779
g61
NV5kc-malta
p780
tp781
(dp782
Vhardware-long
p783
VMIPS Malta boards (64-bit)
p784
sVhardware
p785
VMIPS Malta (64-bit)
p786
ss(Vimage
p787
g264
NVmarvell
p788
tp789
(dp790
Vrecommends
p791
Vu-boot-tools
p792
sVbreaks
p793
Vflash-kernel (<< 3.57~)
p794
sVcheck-size-with-dtb
p795
I01
sVcheck-size
p796
L2097080L
ss(Vbuild
p797
g663
tp798
(dp799
Vsigned-modules
p800
I00
sVimage-file
p801
Vvmlinux.gz
p802
ss(Vdescription
p803
g203
NValpha-generic
p804
tp805
(dp806
Vhardware-long
p807
VDEC Alpha systems with extended kernel start address (Wildfire, Titan, Marvel)
p808
sVhardware
p809
VAlpha
p810
ss(Vdescription
p811
g663
NVm68k
p812
tp813
(dp814
Vhardware
p815
VMotorola MC68020+ family
p816
ss(Vbuild
p817
g5
tp818
(dp819
Vsigned-modules
p820
I00
sVimage-file
p821
Vvmlinux
p822
ss(g216
g143
g12
tp823
(dp824
g219
(lp825
Vsh7751r
p826
aVsh7785lcr
p827
asg224
I01
ss(Vabi
p828
g61
tp829
(dp830
Vignore-changes
p831
(lp832
V__flush_icache_page
p833
ass(g216
g61
g12
tp834
(dp835
g219
(lp836
V4kc-malta
p837
aV5kc-malta
p838
aVloongson-2e
p839
aVloongson-2f
p840
aVloongson-3
p841
aVocteon
p842
asg224
I01
ss(Vdescription
p843
g143
NVsh7785lcr
p844
tp845
(dp846
Vhardware-long
p847
VRenesas SH7785 reference board
p848
sVhardware
p849
Vsh7785lcr
p850
ss(Vimage
p851
g5
NVocteon
p852
tp853
(dp854
Vconfigs
p855
(lp856
Vkernelarch-mips/config.octeon
p857
ass(Vdescription
p858
g55
NVarmmp-lpae
p859
tp860
(dp861
Vhardware-long
p862
VARMv7 multiplatform kernel supporting LPAE. See\u000ahttps://wiki.debian.org/DebianKernel/ARMMP for details of supported\u000aplatforms.
p863
sVhardware
p864
VARMv7 multiplatform compatible SoCs supporting LPAE
p865
ss(Vbuild
p866
g61
tp867
(dp868
Vsigned-modules
p869
I00
sVimage-file
p870
Vvmlinux
p871
ss(Vimage
p872
g210
NVarm64
p873
tp874
(dp875
s(Vbuild
p876
g40
tp877
(dp878
Vimage-file
p879
Vvmlinux
p880
sVvdso
p881
I01
ss(Vbuild
p882
g357
tp883
(dp884
Vimage-file
p885
Vvmlinux
p886
sVvdso
p887
I01
ss(Vimage
p888
g61
NV4kc-malta
p889
tp890
(dp891
Vconfigs
p892
(lp893
Vkernelarch-mips/config.malta
p894
aVkernelarch-mips/config.mips32r1
p895
ass(Vbuild
p896
g203
tp897
(dp898
Vsigned-modules
p899
I00
sVimage-file
p900
Varch/alpha/boot/vmlinux.gz
p901
ss(Vimage
p902
g5
tp903
(dp904
Vinstall-stem
p905
Vvmlinux
p906
ss(Vbuild
p907
g89
NVs390x
p908
tp909
(dp910
Vdebug-info
p911
I01
ss(Vbase
p912
g191
Vrt
p913
tp914
(dp915
Vflavours
p916
(lp917
V686-pae
p918
ass(Vdescription
p919
g168
NVocteon
p920
tp921
(dp922
Vhardware-long
p923
VCavium Networks Octeon
p924
sVhardware
p925
VOcteon
p926
ss(Vbase
p927
g89
tp928
(dp929
Vkernel-arch
p930
Vs390
p931
sg10
(lp932
g12
ass(Vdescription
p933
g191
NV686
p934
tp935
(dp936
Vhardware-long
p937
VPCs with one or more processors not supporting PAE
p938
sVhardware
p939
Volder PCs
p940
ss(Vbase
p941
Vmipsn32
p942
tp943
(dp944
Vkernel-arch
p945
Vmips
p946
sVfeaturesets
p947
(lp948
ss(Vimage
p949
g96
NV5kc-malta
p950
tp951
(dp952
Vconfigs
p953
(lp954
Vkernelarch-mips/config.malta
p955
aVkernelarch-mips/config.mips64r2
p956
ass(Vbuild
p957
g22
tp958
(dp959
Vsigned-modules
p960
I00
sVimage-file
p961
Vvmlinux
p962
sVvdso
p963
I01
ss(Vbuild
p964
g67
tp965
(dp966
Vdebug-info
p967
I01
sVimage-file
p968
Varch/x86/boot/bzImage
p969
sVvdso
p970
I01
ss(g216
g32
g12
tp971
(dp972
g219
(lp973
Vparisc
p974
aVparisc64-smp
p975
asg224
I01
ss(Vdescription
p976
g307
tp977
(dp978
Vhardware
p979
V32-bit PowerPC with SPE (instead of AltiVec) with SMP support
p980
ss(Vimage
p981
g143
NVsh7785lcr
p982
tp983
(dp984
Vrecommends
p985
Vu-boot-tools
p986
sVcheck-size
p987
L4194304L
ss(Vdescription
p988
g357
NVpowerpc
p989
tp990
(dp991
Vhardware
p992
Vuniprocessor 32-bit PowerPC
p993
ss(Vimage
p994
g168
NVocteon
p995
tp996
(dp997
Vconfigs
p998
(lp999
Vkernelarch-mips/config.octeon
p1000
ass(Vimage
p1001
g663
tp1002
(dp1003
Vinstall-stem
p1004
Vvmlinuz
p1005
sVsuggests
p1006
Vvmelilo, fdutils
p1007
ss(Vbase
p1008
tp1009
(dp1010
Vcompiler
p1011
Vgcc-5
p1012
sVfeaturesets
p1013
(lp1014
Vnone
p1015
aVrt
p1016
asVarches
p1017
(lp1018
Valpha
p1019
aVamd64
p1020
aVarm64
p1021
aVarmel
p1022
aVarmhf
p1023
aVhppa
p1024
aVi386
p1025
aVm68k
p1026
aVmips
p1027
aVmipsel
p1028
aVmipsn32
p1029
aVmipsn32el
p1030
aVmips64
p1031
aVmips64el
p1032
aVor1k
p1033
aVpowerpc
p1034
aVpowerpcspe
p1035
aVppc64
p1036
aVppc64el
p1037
aVs390
p1038
aVs390x
p1039
aVsh4
p1040
aVsparc
p1041
aVsparc64
p1042
aVtilegx
p1043
aVx32
p1044
ass(g216
g89
g12
tp1045
(dp1046
g219
(lp1047
Vs390x
p1048
asg224
I01
ss(g216
g5
g12
tp1049
(dp1050
g219
(lp1051
V5kc-malta
p1052
aVocteon
p1053
asg224
I01
ss(g216
g22
g12
tp1054
(dp1055
g219
(lp1056
Vpowerpc64
p1057
asg224
I01
ss(Vdescription
p1058
g105
NVsparc64-smp
p1059
tp1060
(dp1061
Vhardware
p1062
Vmultiprocessor 64-bit UltraSPARC
p1063
ss(Vimage
p1064
g105
NVsparc64
p1065
tp1066
(dp1067
Vconfigs
p1068
(lp1069
Vkernelarch-sparc/config-up
p1070
ass(Vbase
p1071
g32
tp1072
(dp1073
Vkernel-arch
p1074
Vparisc
p1075
sg10
(lp1076
g12
ass(Vimage
p1077
g96
tp1078
(dp1079
Vinstall-stem
p1080
Vvmlinux
p1081
ss(Vdescription
p1082
NVrt
p1083
tp1084
(dp1085
Vpart-short-rt
p1086
VPREEMPT_RT
p1087
sVpart-long-rt
p1088
VThis kernel includes the PREEMPT_RT realtime patch set.
p1089
sVparts
p1090
(lp1091
Vrt
p1092
ass(Vbase
p1093
Vs390
p1094
tp1095
(dp1096
Vkernel-arch
p1097
Vs390
p1098
sVfeaturesets
p1099
(lp1100
ss(Vdescription
p1101
g191
Vnone
p1102
V686-pae
p1103
tp1104
(dp1105
Vparts
p1106
(lp1107
Vxen
p1108
ass(Vabi
p1109
Ng1083
tp1110
(dp1111
Vignore-changes
p1112
(lp1113
V*
p1114
ass(Vbase
p1115
NVrt
p1116
tp1117
(dp1118
Venabled
p1119
I01
ss(Vdescription
p1120
g264
NVmarvell
p1121
tp1122
(dp1123
Vhardware-long
p1124
VMarvell Kirkwood based systems (SheevaPlug, QNAP TS-119/TS-219, etc)\u000aand Orion 5181, 5182 and 5281 based systems (QNAP TS-109/TS-209, etc)
p1125
sVhardware
p1126
VMarvell Kirkwood/Orion
p1127
ss(Vbase
p1128
g191
g1102
tp1129
(dp1130
Vflavours
p1131
(lp1132
V686
p1133
aV686-pae
p1134
ass(Vbase
p1135
g168
tp1136
(dp1137
Vkernel-arch
p1138
Vmips
p1139
sg10
(lp1140
g12
ass(Vbuild
p1141
g264
tp1142
(dp1143
Vimage-file
p1144
Varch/arm/boot/zImage
p1145
ss(Vbuild
p1146
g191
tp1147
(dp1148
Vimage-file
p1149
Varch/x86/boot/bzImage
p1150
sVvdso
p1151
I01
ss(Vbase
p1152
g264
tp1153
(dp1154
Vkernel-arch
p1155
Varm
p1156
sg10
(lp1157
g12
ass(g216
g357
g12
tp1158
(dp1159
g219
(lp1160
Vpowerpc
p1161
aVpowerpc-smp
p1162
aVpowerpc64
p1163
asg224
I01
ss(Vabi
p1164
g96
tp1165
(dp1166
Vignore-changes
p1167
(lp1168
V__flush_icache_page
p1169
ass(Vdescription
p1170
g67
NVamd64
p1171
tp1172
(dp1173
Vhardware-long
p1174
VPCs with AMD64, Intel 64 or VIA Nano processors
p1175
sVhardware
p1176
V64-bit PCs
p1177
ss(g216
g40
g12
tp1178
(dp1179
g219
(lp1180
Vpowerpc64le
p1181
asg224
I01
ss(Vbuild
p1182
g168
tp1183
(dp1184
Vsigned-modules
p1185
I00
sVimage-file
p1186
Vvmlinux
p1187
ss(Vbase
p1188
Vor1k
p1189
tp1190
(dp1191
Vkernel-arch
p1192
Vopenrisc
p1193
sVfeaturesets
p1194
(lp1195
ss(Vdescription
p1196
g264
NVversatile
p1197
tp1198
(dp1199
Vhardware-long
p1200
VVersatile systems (PB, AB, Qemu)
p1201
sVhardware
p1202
VVersatile
p1203
ss(Vimage
p1204
g40
tp1205
(dp1206
Vinstall-stem
p1207
Vvmlinux
p1208
sVconfigs
p1209
(lp1210
sVsuggests
p1211
Vmkvmlinuz
p1212
ss(g216
g307
g12
tp1213
(dp1214
g219
(lp1215
Vpowerpcspe
p1216
asg224
I01
ss(Vdescription
p1217
tp1218
(dp1219
Vpart-long-xen
p1220
VThis kernel also runs on a Xen hypervisor.\u000aIt supports both privileged (dom0) and unprivileged (domU) operation.
p1221
sVpart-long-up
p1222
VThis kernel is not suitable for SMP (multi-processor,\u000amulti-core or hyper-threaded) systems.
p1223
ss(Vabi
p1224
g168
tp1225
(dp1226
Vignore-changes
p1227
(lp1228
V__flush_icache_page
p1229
ass(Vbase
p1230
g210
tp1231
(dp1232
Vkernel-arch
p1233
Varm64
p1234
sVfeaturesets
p1235
(lp1236
Vnone
p1237
ass(Vbuild
p1238
g105
tp1239
(dp1240
Vsigned-modules
p1241
I00
sVimage-file
p1242
Varch/sparc/boot/zImage
p1243
sstp1244
Rp1245
.