ccopy_reg
_reconstructor
p1
(cdebian_linux.config
ConfigCore
p2
c__builtin__
dict
p3
(dp4
(S'description'
S'sparc'
p5
NS'sparc32'
tp6
(dp7
S'hardware'
p8
S'uniprocessor sparc32 (sun4m)'
p9
ss(S'image'
S'amd64'
p10
tp11
(dp12
S'configs'
p13
(lp14
sS'bootloaders'
p15
(lp16
S'grub-pc'
p17
aS'extlinux'
p18
aS'lilo'
p19
ass(S'build'
S's390x'
p20
NS's390x'
tp21
(dp22
S'debug-info'
p23
I01
ss(S'description'
S'hppa'
p24
NS'parisc'
tp25
(dp26
S'hardware'
p27
S'32-bit PA-RISC'
p28
ss(S'description'
S'powerpc'
p29
NS'powerpc64'
tp30
(dp31
S'hardware'
p32
S'64-bit PowerPC'
p33
ss(S'base'
p34
g10
S'none'
p35
tp36
(dp37
S'implicit-flavour'
p38
I01
sS'flavours'
p39
(lp40
S'amd64'
p41
ass(S'description'
S'mips'
p42
NS'4kc-malta'
tp43
(dp44
S'hardware'
p45
S'MIPS Malta'
p46
sS'hardware-long'
p47
S'MIPS Malta boards'
p48
ss(S'image'
S'ia64'
p49
tp50
(dp51
S'suggests'
p52
S'fdutils'
p53
sS'bootloaders'
p54
(lp55
S'elilo'
p56
ass(S'description'
S'mipsel'
p57
NS'sb1a-bcm91480b'
tp58
(dp59
S'hardware'
p60
S'BCM91480B'
p61
sS'hardware-long'
p62
S'Broadcom BCM91480B systems (aka BigSur)'
p63
ss(S'description'
g24
NS'parisc64'
tp64
(dp65
S'hardware'
p66
S'64-bit PA-RISC'
p67
ss(S'version'
p68
tp69
(dp70
S'abiname'
p71
S'3.7-trunk'
p72
sS'source'
p73
V3.7.1-1~experimental.2+kali1
p74
ss(S'base'
g24
NS'parisc64'
tp75
(dp76
S'override-host-type'
p77
S'hppa64-linux-gnu'
p78
sS'cflags'
p79
S'-fno-cse-follow-jumps'
p80
ss(S'description'
S'm68k'
p81
NS'mvme16x'
tp82
(dp83
S'hardware'
p84
S'Motorola MVME162/6/7, MVME172/7'
p85
ss(g34
S'ppc64'
p86
g35
tp87
(dp88
g38
I01
sg39
(lp89
S'powerpc64'
p90
ass(S'description'
g49
NS'itanium'
tp91
(dp92
S'hardware'
p93
S'Itanium'
p94
ss(S'description'
g10
NS'amd64'
tp95
(dp96
S'hardware'
p97
S'64-bit PCs'
p98
sS'parts'
p99
(lp100
S'xen'
p101
asS'hardware-long'
p102
S'PCs with AMD64, Intel 64 or VIA Nano processors'
p103
ss(S'description'
g57
NS'loongson-2f'
tp104
(dp105
S'hardware'
p106
S'Loongson 2F'
p107
sS'hardware-long'
p108
S'Lemote Loongson 2F systems'
p109
ss(S'build'
S'armel'
p110
NS'kirkwood'
tp111
(dp112
S'image-file'
p113
S'arch/arm/boot/zImage'
p114
ss(S'build'
g110
NS'mv78xx0'
tp115
(dp116
S'image-file'
p117
S'arch/arm/boot/zImage'
p118
ss(S'description'
S'alpha'
p119
NS'alpha-generic'
tp120
(dp121
S'hardware'
p122
S'Alpha'
p123
sS'hardware-long'
p124
S'DEC Alpha systems with extended kernel start address (Wildfire, Titan, Marvel)'
p125
ss(S'base'
g119
tp126
(dp127
S'kernel-arch'
p128
S'alpha'
p129
sS'featuresets'
p130
(lp131
g35
ass(S'description'
S'i386'
p132
NS'686-pae'
tp133
(dp134
S'hardware'
p135
S'modern PCs'
p136
sS'parts'
p137
(lp138
S'pae'
p139
aS'xen'
p140
asS'hardware-long'
p141
S'PCs with one or more processors supporting PAE'
p142
ss(g34
S'armhf'
p143
g35
tp144
(dp145
g38
I01
sg39
(lp146
S'mx5'
p147
aS'omap'
p148
aS'vexpress'
p149
ass(S'base'
g143
tp150
(dp151
S'kernel-arch'
p152
S'arm'
p153
sg130
(lp154
g35
ass(S'base'
g132
S'rt'
p155
tp156
(dp157
S'flavours'
p158
(lp159
S'686-pae'
p160
ass(g34
g29
g35
tp161
(dp162
g38
I01
sg39
(lp163
S'powerpc'
p164
aS'powerpc-smp'
p165
aS'powerpc64'
p166
ass(S'description'
g5
NS'sparc64'
tp167
(dp168
S'hardware'
p169
S'uniprocessor 64-bit UltraSPARC'
p170
ss(S'image'
g132
NS'amd64'
tp171
(dp172
S'configs'
p173
(lp174
S'kernelarch-x86/config-arch-64'
p175
asS'recommends'
p176
S'libc6-i686'
p177
ss(S'image'
g29
tp178
(dp179
S'suggests'
p180
S'mkvmlinuz'
p181
ss(S'base'
g10
S'rt'
p182
tp183
(dp184
S'flavours'
p185
(lp186
S'amd64'
p187
ass(S'description'
g81
NS'atari'
tp188
(dp189
S'hardware'
p190
S'Atari'
p191
ss(S'description'
g42
NS'r5k-ip32'
tp192
(dp193
S'hardware'
p194
S'SGI IP32'
p195
sS'hardware-long'
p196
S'SGI IP32 systems (O2)'
p197
ss(S'description'
g57
NS'4kc-malta'
tp198
(dp199
S'hardware'
p200
S'MIPS Malta'
p201
sS'hardware-long'
p202
S'MIPS Malta boards'
p203
ss(S'image'
g110
NS'kirkwood'
tp204
(dp205
S'check-size'
p206
S'2097080'
p207
sS'recommends'
p208
S'uboot-mkimage'
p209
ss(S'base'
g132
tp210
(dp211
S'kernel-arch'
p212
S'x86'
p213
sS'featuresets'
p214
(lp215
g35
ag155
ass(S'base'
g57
tp216
(dp217
S'kernel-arch'
p218
S'mips'
p219
sg130
(lp220
g35
ass(S'base'
g24
NS'parisc64-smp'
tp221
(dp222
S'override-host-type'
p223
S'hppa64-linux-gnu'
p224
sS'cflags'
p225
S'-fno-cse-follow-jumps'
p226
ss(S'description'
g42
NS'sb1a-bcm91480b'
tp227
(dp228
S'hardware'
p229
S'BCM91480B'
p230
sS'hardware-long'
p231
S'Broadcom BCM91480B systems (aka BigSur)'
p232
ss(S'build'
S'sh4'
p233
NS'sh7751r'
tp234
(dp235
S'image-file'
p236
S'arch/sh/boot/zImage'
p237
ss(S'description'
g119
NS'alpha-legacy'
tp238
(dp239
S'hardware'
p240
S'Alpha Legacy'
p241
sS'hardware-long'
p242
S'DEC Alpha systems with legacy kernel start address'
p243
ss(g34
g57
g35
tp244
(dp245
g38
I01
sg39
(lp246
S'r5k-cobalt'
p247
aS'sb1-bcm91250a'
p248
aS'sb1a-bcm91480b'
p249
aS'4kc-malta'
p250
aS'5kc-malta'
p251
aS'loongson-2f'
p252
ass(S'relations'
tp253
(dp254
S'initramfs-fallback'
p255
S'linux-initramfs-tool'
p256
sS'gcc-4.7'
p257
S'gcc-4.7'
p258
sS'gcc-4.6'
p259
S'gcc-4.6'
p260
sS'initramfs-tools'
p261
S'initramfs-tools (>= 0.99~)'
p262
sS'gcc-4.4'
p263
S'gcc-4.4'
p264
ss(S'build'
g143
NS'mx5'
tp265
(dp266
S'image-file'
p267
S'arch/arm/boot/zImage'
p268
ss(S'build'
g110
NS'ixp4xx'
tp269
(dp270
S'image-file'
p271
S'arch/arm/boot/zImage'
p272
ss(S'description'
g42
NS'r4k-ip22'
tp273
(dp274
S'hardware'
p275
S'SGI IP22'
p276
sS'hardware-long'
p277
S'SGI IP22 systems (Indy, Indigo2)'
p278
ss(S'image'
g29
NS'powerpc-smp'
tp279
(dp280
S'configs'
p281
(lp282
S'powerpc/config.powerpc'
p283
aS'powerpc/config.powerpc-smp'
p284
ass(S'description'
g42
NS'5kc-malta'
tp285
(dp286
S'hardware'
p287
S'MIPS Malta (64-bit)'
p288
sS'hardware-long'
p289
S'MIPS Malta boards (64-bit)'
p290
ss(g34
g233
g35
tp291
(dp292
g38
I01
sg39
(lp293
S'sh7751r'
p294
aS'sh7785lcr'
p295
ass(S'description'
g143
NS'mx5'
tp296
(dp297
S'hardware'
p298
S'Freescale i.MX51'
p299
sS'hardware-long'
p300
S'Support for Freescale i.MX51 family of processors'
p301
ss(S'description'
g110
NS'kirkwood'
tp302
(dp303
S'hardware'
p304
S'Marvell Kirkwood'
p305
sS'hardware-long'
p306
S'Marvell Kirkwood based systems (SheevaPlug, QNAP TS-119/TS-219, etc)'
p307
ss(S'base'
g110
tp308
(dp309
S'kernel-arch'
p310
S'arm'
p311
sg130
(lp312
g35
ass(S'description'
g24
NS'parisc64-smp'
tp313
(dp314
S'hardware'
p315
S'multiprocessor 64-bit PA-RISC'
p316
ss(S'base'
g5
tp317
(dp318
S'kernel-arch'
p319
S'sparc'
p320
sg130
(lp321
g35
ass(S'description'
g5
NS'sparc64-smp'
tp322
(dp323
S'hardware'
p324
S'multiprocessor 64-bit UltraSPARC'
p325
ss(S'description'
g81
NS'mvme147'
tp326
(dp327
S'hardware'
p328
S'Motorola MVME147'
p329
ss(g34
S's390'
p330
g35
tp331
(dp332
g38
I01
sg39
(lp333
S's390x'
p334
ass(S'build'
g132
NS'686-pae'
tp335
(dp336
S'debug-info'
p337
I01
ss(g34
g20
g35
tp338
(dp339
g38
I01
sg39
(lp340
S's390x'
p341
ass(S'base'
g42
tp342
(dp343
S'kernel-arch'
p344
S'mips'
p345
sg130
(lp346
g35
ass(S'description'
g20
NS's390x'
tp347
(dp348
S'hardware'
p349
S'IBM zSeries'
p350
ss(S'build'
g10
tp351
(dp352
S'debug-info'
p353
I01
ss(S'abi'
NS'rt'
p354
tp355
(dp356
S'ignore-changes'
p357
(lp358
S'*'
ass(S'image'
g57
tp359
(dp360
S'initramfs'
p361
I00
ss(S'description'
g119
NS'alpha-smp'
tp362
(dp363
S'hardware'
p364
S'Alpha SMP'
p365
sS'hardware-long'
p366
S'DEC Alpha SMP systems with extended kernel start address (Wildfire, Titan, Marvel)'
p367
ss(S'description'
S'sparc64'
p368
NS'sparc64-smp'
tp369
(dp370
S'hardware'
p371
S'multiprocessor 64-bit UltraSPARC'
p372
ss(S'base'
g10
tp373
(dp374
S'kernel-arch'
p375
S'x86'
p376
sS'featuresets'
p377
(lp378
g35
ag182
ass(S'base'
g49
tp379
(dp380
S'kernel-arch'
p381
S'ia64'
p382
sg130
(lp383
g35
ass(S'image'
g57
NS'sb1-bcm91250a'
tp384
(dp385
S'configs'
p386
(lp387
S'mips/config.sb1-bcm91250a'
p388
ass(S'build'
g330
NS's390x'
tp389
(dp390
S'debug-info'
p391
I01
ss(S'image'
g233
NS'sh7785lcr'
tp392
(dp393
S'check-size'
p394
S'4194304'
p395
sS'recommends'
p396
S'uboot-mkimage'
p397
ss(S'base'
g330
tp398
(dp399
S'kernel-arch'
p400
S's390'
p401
sg130
(lp402
g35
ass(g34
g110
g35
tp403
(dp404
g38
I01
sg39
(lp405
S'iop32x'
p406
aS'ixp4xx'
p407
aS'kirkwood'
p408
aS'mv78xx0'
p409
aS'orion5x'
p410
aS'versatile'
p411
ass(S'description'
g132
NS'amd64'
tp412
(dp413
S'hardware'
p414
S'64-bit PCs'
p415
sS'parts'
p416
(lp417
S'xen'
p418
asS'hardware-long'
p419
S'PCs with AMD64, Intel 64 or VIA Nano processors'
p420
ss(S'description'
g132
tp421
(dp422
S'part-long-pae'
p423
S'This kernel requires PAE (Physical Address Extension).\nThis feature is supported by the Intel Pentium Pro/II/III/4/4M/D, Xeon,\nCore and Atom; AMD Geode NX, Athlon (K7), Duron, Opteron, Sempron,\nTurion or Phenom; Transmeta Efficeon; VIA C7; and some other processors.'
p424
ss(S'image'
g10
NS'amd64'
tp425
(dp426
S'configs'
p427
(lp428
S'kernelarch-x86/config-arch-64'
p429
ass(S'description'
g110
NS'ixp4xx'
tp430
(dp431
S'hardware'
p432
S'IXP4xx'
p433
sS'hardware-long'
p434
S'IXP4xx based systems (Linksys NSLU2, etc)'
p435
ss(g34
g132
g35
tp436
(dp437
g38
I01
sg39
(lp438
S'486'
p439
aS'686-pae'
p440
aS'amd64'
p441
ass(S'image'
g110
tp442
(dp443
S'suggests'
p444
S'fdutils'
p445
ss(S'image'
g330
tp446
(dp447
S'bootloaders'
p448
(lp449
S's390-tools'
p450
ass(S'image'
g132
NS'486'
tp451
(dp452
S'configs'
p453
(lp454
S'kernelarch-x86/config-arch-32'
p455
aS'i386/config.486'
p456
ass(S'image'
g57
NS'sb1a-bcm91480b'
tp457
(dp458
S'configs'
p459
(lp460
S'mips/config.sb1a-bcm91480b'
p461
ass(S'description'
g49
NS'mckinley'
tp462
(dp463
S'hardware'
p464
S'Itanium II'
p465
ss(S'relations'
g24
tp466
(dp467
S'gcc-4.4'
p468
S'gcc-4.4, binutils-hppa64, gcc-4.4-hppa64'
p469
ss(S'xen'
g132
NS'686-pae'
tp470
(dp471
S'flavours'
p472
(lp473
S'i386'
p474
aS'amd64'
p475
ass(S'description'
g29
NS'powerpc'
tp476
(dp477
S'hardware'
p478
S'uniprocessor 32-bit PowerPC'
p479
ss(S'image'
g57
NS'4kc-malta'
tp480
(dp481
S'configs'
p482
(lp483
S'mips/config.4kc-malta'
p484
ass(g34
g24
g35
tp485
(dp486
g38
I01
sg39
(lp487
S'parisc'
p488
aS'parisc-smp'
p489
aS'parisc64'
p490
aS'parisc64-smp'
p491
ass(S'image'
g119
tp492
(dp493
S'suggests'
p494
S'aboot, fdutils'
p495
ss(S'description'
g110
NS'orion5x'
tp496
(dp497
S'hardware'
p498
S'Marvell Orion'
p499
sS'hardware-long'
p500
S'Marvell Orion 5181, 5182 and 5281 based systems (QNAP TS-109/TS-209, etc)'
p501
ss(S'base'
g368
tp502
(dp503
S'kernel-arch'
p504
S'sparc'
p505
sg130
(lp506
g35
ass(S'build'
g110
NS'iop32x'
tp507
(dp508
S'image-file'
p509
S'arch/arm/boot/zImage'
p510
ss(S'base'
NS'rt'
tp511
(dp512
S'enabled'
p513
I00
ss(S'base'
g20
tp514
(dp515
S'kernel-arch'
p516
S's390'
p517
sg130
(lp518
g35
ass(S'description'
g57
NS'r5k-cobalt'
tp519
(dp520
S'hardware'
p521
S'Cobalt'
p522
sS'hardware-long'
p523
S'Cobalt systems (Qube, RaQ, Qube2, RaQ2)'
p524
ss(S'image'
g57
NS'loongson-2f'
tp525
(dp526
S'recommends'
p527
S'libc6-loongson2f'
p528
ss(S'build'
g110
NS'orion5x'
tp529
(dp530
S'image-file'
p531
S'arch/arm/boot/zImage'
p532
ss(S'image'
g86
tp533
(dp534
S'suggests'
p535
S'mkvmlinuz'
p536
sS'configs'
p537
(lp538
S'powerpc/config'
p539
ass(S'image'
g42
tp540
(dp541
S'initramfs'
p542
I00
ss(S'image'
g132
tp543
(dp544
S'configs'
p545
(lp546
sS'bootloaders'
p547
(lp548
S'grub-pc'
p549
aS'extlinux'
p550
aS'lilo'
p551
ass(g34
g5
g35
tp552
(dp553
g38
I01
sg39
(lp554
S'sparc64'
p555
aS'sparc64-smp'
p556
ass(S'base'
g86
tp557
(dp558
S'kernel-arch'
p559
S'powerpc'
p560
sg130
(lp561
g35
ass(g34
g119
g35
tp562
(dp563
g38
I01
sg39
(lp564
S'alpha-generic'
p565
aS'alpha-smp'
p566
aS'alpha-legacy'
p567
ass(S'image'
g368
NS'sparc64-smp'
tp568
(dp569
S'configs'
p570
(lp571
S'sparc/config.sparc64-smp'
p572
ass(g34
g49
g35
tp573
(dp574
g38
I01
sg39
(lp575
S'itanium'
p576
aS'mckinley'
p577
ass(g34
g42
g35
tp578
(dp579
g38
I01
sg39
(lp580
S'r4k-ip22'
p581
aS'r5k-ip32'
p582
aS'sb1-bcm91250a'
p583
aS'sb1a-bcm91480b'
p584
aS'4kc-malta'
p585
aS'5kc-malta'
p586
aS'octeon'
p587
ass(S'description'
g330
NS's390x'
tp588
(dp589
S'hardware'
p590
S'IBM zSeries'
p591
ss(S'description'
g86
NS'powerpc64'
tp592
(dp593
S'hardware'
p594
S'64-bit PowerPC'
p595
ss(S'xen'
g132
NS'amd64'
tp596
(dp597
S'flavours'
p598
(lp599
S'amd64'
p600
ass(S'base'
S'x32'
tp601
(dp602
S'kernel-arch'
p603
S'x86'
p604
sS'featuresets'
p605
(lp606
ss(S'image'
g81
tp607
(dp608
S'suggests'
p609
S'vmelilo, fdutils'
p610
sS'initramfs'
p611
I00
ss(S'description'
g233
NS'sh7751r'
tp612
(dp613
S'hardware'
p614
S'sh7751r'
p615
sS'hardware-long'
p616
S'Renesas SH7751R R2D plus board'
p617
ss(S'description'
g42
NS'sb1-bcm91250a'
tp618
(dp619
S'hardware'
p620
S'BCM91250A'
p621
sS'hardware-long'
p622
S'Broadcom BCM91250A systems (aka SWARM)'
p623
ss(S'description'
g42
NS'octeon'
tp624
(dp625
S'hardware'
p626
S'Octeon'
p627
sS'hardware-long'
p628
S'Cavium Networks Octeon'
p629
ss(S'description'
Ng354
tp630
(dp631
S'part-long-rt'
p632
S'This kernel includes the PREEMPT_RT realtime patch set.'
p633
sS'parts'
p634
(lp635
S'rt'
p636
asS'part-short-rt'
p637
S'PREEMPT_RT'
p638
ss(S'description'
g81
NS'bvme6000'
tp639
(dp640
S'hardware'
p641
S'BVM BVME4000 and BVME6000'
p642
ss(S'image'
g110
NS'ixp4xx'
tp643
(dp644
S'check-size'
p645
S'1441760'
p646
ss(S'image'
g233
tp647
(dp648
S'suggests'
p649
S'fdutils'
p650
ss(S'base'
g24
tp651
(dp652
S'kernel-arch'
p653
S'parisc'
p654
sg130
(lp655
g35
asS'compiler'
p656
S'gcc-4.4'
p657
ss(S'base'
g233
tp658
(dp659
S'kernel-arch'
p660
S'sh'
p661
sg130
(lp662
g35
ass(S'image'
g5
tp663
(dp664
S'suggests'
p665
S'silo, fdutils'
p666
ss(S'description'
tp667
(dp668
S'part-long-up'
p669
S'This kernel is not suitable for SMP (multi-processor,\nmulti-core or hyper-threaded) systems.'
p670
sS'part-long-xen'
p671
S'This kernel also runs on a Xen hypervisor.\nIt supports both privileged (dom0) and unprivileged (domU) operation.'
p672
ss(S'image'
g368
NS'sparc64'
tp673
(dp674
S'configs'
p675
(lp676
S'sparc/config.sparc64'
p677
ass(S'description'
g57
NS'sb1-bcm91250a'
tp678
(dp679
S'hardware'
p680
S'BCM91250A'
p681
sS'hardware-long'
p682
S'Broadcom BCM91250A systems (aka SWARM)'
p683
ss(S'image'
g368
tp684
(dp685
S'suggests'
p686
S'silo, fdutils'
p687
sS'configs'
p688
(lp689
S'sparc/config'
p690
ass(S'description'
g110
NS'iop32x'
tp691
(dp692
S'hardware'
p693
S'IOP32x'
p694
sS'hardware-long'
p695
S'IOP32x based systems (Thecus N2100, etc)'
p696
ss(S'image'
g5
NS'sparc32'
tp697
(dp698
S'image-postproc'
p699
S'sparc32-image-postproc'
p700
ss(S'description'
g29
NS'powerpc-smp'
tp701
(dp702
S'hardware'
p703
S'multiprocessor 32-bit PowerPC'
p704
ss(S'base'
g29
tp705
(dp706
S'kernel-arch'
p707
S'powerpc'
p708
sg130
(lp709
g35
ass(S'build'
g143
NS'vexpress'
tp710
(dp711
S'image-file'
p712
S'arch/arm/boot/zImage'
p713
ss(S'image'
g86
NS'powerpc64'
tp714
(dp715
S'configs'
p716
(lp717
S'powerpc/config.powerpc64'
p718
ass(S'description'
g81
NS'mac'
tp719
(dp720
S'hardware'
p721
S'Macintosh'
p722
ss(S'image'
g143
tp723
(dp724
S'suggests'
p725
S'fdutils'
p726
sS'configs'
p727
(lp728
S'armel/config'
p729
aS'armhf/config'
p730
ass(S'abi'
tp731
(dp732
S'abiname'
p733
S'trunk'
p734
ss(S'description'
g143
NS'vexpress'
tp735
(dp736
S'hardware'
p737
S'ARM Ltd. Versatile Express'
p738
sS'hardware-long'
p739
S'ARM Ltd. Versatile Express family of processors'
p740
ss(g34
g81
g35
tp741
(dp742
g38
I01
sg39
(lp743
S'amiga'
p744
aS'atari'
p745
aS'bvme6000'
p746
aS'mac'
p747
aS'mvme147'
p748
aS'mvme16x'
p749
ass(S'description'
g132
NS'486'
tp750
(dp751
S'hardware'
p752
S'older PCs'
p753
sS'parts'
p754
(lp755
S'up'
p756
asS'hardware-long'
p757
S'PCs with a single processor not supporting PAE'
p758
ss(S'description'
g143
NS'omap'
tp759
(dp760
S'hardware'
p761
S'TI OMAP3+'
p762
sS'hardware-long'
p763
S'Texas Instruments OMAP3 or OMAP4 based systems'
p764
ss(S'description'
g110
NS'mv78xx0'
tp765
(dp766
S'hardware'
p767
S'Marvell 78xx0'
p768
sS'hardware-long'
p769
S'Marvell DB-78xx0-BP Development Board'
p770
ss(S'base'
tp771
(dp772
S'arches'
p773
(lp774
S'alpha'
p775
aS'amd64'
p776
aS'armel'
p777
aS'armhf'
p778
aS'hppa'
p779
aS'i386'
p780
aS'ia64'
p781
aS'm68k'
p782
aS'mips'
p783
aS'mipsel'
p784
aS'powerpc'
p785
aS'ppc64'
p786
aS's390'
p787
aS's390x'
p788
aS'sh4'
p789
aS'sparc'
p790
aS'sparc64'
p791
aS'x32'
p792
asS'featuresets'
p793
(lp794
S'none'
p795
aS'rt'
p796
asS'compiler'
p797
S'gcc-4.7'
p798
ss(S'description'
g110
NS'versatile'
tp799
(dp800
S'hardware'
p801
S'Versatile'
p802
sS'hardware-long'
p803
S'Versatile systems (PB, AB, Qemu)'
p804
ss(S'description'
g24
NS'parisc-smp'
tp805
(dp806
S'hardware'
p807
S'multiprocessor 32-bit PA-RISC'
p808
ss(S'build'
g143
NS'omap'
tp809
(dp810
S'image-file'
p811
S'arch/arm/boot/zImage'
p812
ss(S'base'
g81
tp813
(dp814
S'kernel-arch'
p815
S'm68k'
p816
sg130
(lp817
g35
asS'cflags'
p818
S'-ffreestanding'
p819
sS'compiler'
p820
S'gcc-4.6'
p821
ss(S'description'
g233
NS'sh7785lcr'
tp822
(dp823
S'hardware'
p824
S'sh7785lcr'
p825
sS'hardware-long'
p826
S'Renesas SH7785 reference board'
p827
ss(S'image'
tp828
(dp829
S'initramfs-generators'
p830
(lp831
S'initramfs-tools'
p832
aS'initramfs-fallback'
p833
asS'type'
p834
S'plain'
p835
ss(S'image'
g110
NS'orion5x'
tp836
(dp837
S'check-size'
p838
S'1572792'
p839
sS'recommends'
p840
S'uboot-mkimage'
p841
ss(S'image'
g132
NS'686-pae'
tp842
(dp843
S'configs'
p844
(lp845
S'kernelarch-x86/config-arch-32'
p846
aS'i386/config.686-pae'
p847
asS'recommends'
p848
S'libc6-i686'
p849
ss(S'image'
g57
NS'5kc-malta'
tp850
(dp851
S'configs'
p852
(lp853
S'mips/config.5kc-malta'
p854
ass(S'description'
g330
NS's390'
tp855
(dp856
S'hardware'
p857
S'IBM S/390'
p858
ss(S'image'
g20
NS's390x'
tp859
(dp860
S'configs'
p861
(lp862
S's390/config.s390x'
p863
ass(g34
g368
g35
tp864
(dp865
g38
I01
sg39
(lp866
S'sparc64'
p867
aS'sparc64-smp'
p868
ass(S'image'
g24
tp869
(dp870
S'suggests'
p871
S'palo'
p872
ss(S'build'
g233
NS'sh7785lcr'
tp873
(dp874
S'image-file'
p875
S'arch/sh/boot/zImage'
p876
ss(S'description'
g368
NS'sparc64'
tp877
(dp878
S'hardware'
p879
S'uniprocessor 64-bit UltraSPARC'
p880
ss(S'xen'
g10
NS'amd64'
tp881
(dp882
S'flavours'
p883
(lp884
S'amd64'
p885
ass(S'image'
g20
tp886
(dp887
S'configs'
p888
(lp889
S's390/config'
p890
asS'bootloaders'
p891
(lp892
S's390-tools'
p893
ass(S'description'
g57
NS'5kc-malta'
tp894
(dp895
S'hardware'
p896
S'MIPS Malta (64-bit)'
p897
sS'hardware-long'
p898
S'MIPS Malta boards (64-bit)'
p899
ss(S'image'
g143
NS'omap'
tp900
(dp901
S'recommends'
p902
S'uboot-mkimage'
p903
ss(S'description'
g81
NS'amiga'
tp904
(dp905
S'hardware'
p906
S'Amiga'
p907
ss(S'image'
g110
NS'iop32x'
tp908
(dp909
S'check-size'
p910
S'1441784'
p911
sstRp912
.