cdebian_linux.config
ConfigCore
p0
(tRp1
(Vbase
p2
tp3
(dp4
Varches
p5
(lp6
Valpha
p7
aVamd64
p8
aVarm64
p9
aVarmel
p10
aVarmhf
p11
aVhppa
p12
aVi386
p13
aVm68k
p14
aVmips
p15
aVmipsel
p16
aVmipsn32
p17
aVmipsn32el
p18
aVmips64
p19
aVmips64el
p20
aVor1k
p21
aVpowerpc
p22
aVpowerpcspe
p23
aVppc64
p24
aVppc64el
p25
aVs390
p26
aVs390x
p27
aVsh3
p28
aVsh4
p29
aVsparc
p30
aVsparc64
p31
aVtilegx
p32
aVx32
p33
asVfeaturesets
p34
(lp35
Vnone
p36
aVrt
p37
asVcompiler
p38
Vgcc-6
p39
ss(Vbuild
p40
tp41
(dp42
Vsigned-modules
p43
I01
sVdebug-info
p44
I01
ss(Vbase
p45
NVrt
p46
tp47
(dp48
Venabled
p49
I01
ss(Vdescription
p50
tp51
(dp52
Vpart-long-up
p53
VThis kernel is not suitable for SMP (multi-processor,\u000amulti-core or hyper-threaded) systems.
p54
sVpart-long-xen
p55
VThis kernel also runs on a Xen hypervisor.\u000aIt supports both privileged (dom0) and unprivileged (domU) operation.
p56
ss(Vrelations
p57
tp58
(dp59
Vinitramfs-tools
p60
Vinitramfs-tools (>= 0.110~)
p61
sVgcc-6
p62
Vgcc-6 <!stage1 !cross>, gcc-6-@gnu-type-package@:native <!stage1 cross>
p63
sVinitramfs-fallback
p64
Vlinux-initramfs-tool
p65
ss(Vimage
p66
tp67
(dp68
Vinitramfs-generators
p69
(lp70
Vinitramfs-tools
p71
aVinitramfs-fallback
p72
ass(Vabi
p73
tp74
(dp75
Vabiname
p76
Vkali1
p77
ss(Vbase
p78
Valpha
p79
tp80
(dp81
Vfeaturesets
p82
(lp83
Vnone
p84
asVkernel-arch
p85
Valpha
p86
ss(Vdescription
p87
g79
NValpha-smp
p88
tp89
(dp90
Vhardware
p91
VAlpha SMP
p92
sVhardware-long
p93
VDEC Alpha SMP systems with extended kernel start address (Wildfire, Titan, Marvel)
p94
ss(Vbuild
p95
g79
tp96
(dp97
Vsigned-modules
p98
I00
sVimage-file
p99
Varch/alpha/boot/vmlinux.gz
p100
ss(Vdescription
p101
g79
NValpha-generic
p102
tp103
(dp104
Vhardware
p105
VAlpha
p106
sVhardware-long
p107
VDEC Alpha systems with extended kernel start address (Wildfire, Titan, Marvel)
p108
ss(Vimage
p109
g79
tp110
(dp111
Vsuggests
p112
Vaboot, fdutils
p113
sVinstall-stem
p114
Vvmlinuz
p115
ss(Vbase
p116
g79
g84
tp117
(dp118
Vflavours
p119
(lp120
Valpha-generic
p121
aValpha-smp
p122
asVimplicit-flavour
p123
I01
ss(Vbase
p124
Vamd64
p125
tp126
(dp127
Vfeaturesets
p128
(lp129
Vnone
p130
aVrt
p131
asVkernel-arch
p132
Vx86
p133
ss(Vdescription
p134
g125
NVamd64
p135
tp136
(dp137
Vhardware
p138
V64-bit PCs
p139
sVhardware-long
p140
VPCs with AMD64, Intel 64 or VIA Nano processors
p141
ss(Vbuild
p142
g125
tp143
(dp144
Vvdso
p145
I01
sVimage-file
p146
Varch/x86/boot/bzImage
p147
sVdebug-info
p148
I01
sVsigned-modules
p149
I00
ss(Vrelations
p150
g125
tp151
(dp152
Vheaders%gcc-5
p153
Vlinux-compiler-gcc-5-x86
p154
ss(Vimage
p155
g125
tp156
(dp157
Vbreaks
p158
Vxserver-xorg-input-vmmouse (<< 1:13.0.99)
p159
sVinstall-stem
p160
Vvmlinuz
p161
sVbootloaders
p162
(lp163
Vgrub-pc
p164
aVgrub-efi-amd64
p165
aVextlinux
p166
ass(Vbase
p167
g125
Vnone
p168
tp169
(dp170
Vflavours
p171
(lp172
Vamd64
p173
ass(Vdescription
p174
g125
g168
Vamd64
p175
tp176
(dp177
Vparts
p178
(lp179
Vxen
p180
ass(Vbase
p181
g125
Vrt
p182
tp183
(dp184
Vflavours
p185
(lp186
Vamd64
p187
ass(Vbase
p188
Varm64
p189
tp190
(dp191
Vfeaturesets
p192
(lp193
Vnone
p194
asVkernel-arch
p195
Varm64
p196
ss(Vdescription
p197
g189
NVarm64
p198
tp199
(dp200
Vhardware
p201
V64-bit ARMv8 machines
p202
ss(Vbuild
p203
g189
tp204
(dp205
Vvdso
p206
I01
sVimage-file
p207
Varch/arm64/boot/Image
p208
sVdebug-info
p209
I01
sVsigned-modules
p210
I00
ss(Vimage
p211
g189
NVarm64
p212
tp213
(dp214
s(Vimage
p215
g189
tp216
(dp217
Vbreaks
p218
Vlibmozjs185-1.0, libmozjs-24-0 (<< 24.2.0-5.1~)
p219
sVinstall-stem
p220
Vvmlinuz
p221
ss(Vbase
p222
g189
Vnone
p223
tp224
(dp225
Vflavours
p226
(lp227
Varm64
p228
ass(Vbase
p229
Varmel
p230
tp231
(dp232
g82
(lp233
g84
asVkernel-arch
p234
Varm
p235
ss(Vbuild
p236
g230
tp237
(dp238
Vsigned-modules
p239
I00
sVimage-file
p240
Varch/arm/boot/zImage
p241
ss(Vimage
p242
g230
NVmarvell
p243
tp244
(dp245
Vrecommends
p246
Vu-boot-tools
p247
sVbreaks
p248
Vflash-kernel (<< 3.57~)
p249
sVcheck-size-with-dtb
p250
I01
sVcheck-size
p251
L2097080L
ss(Vdescription
p252
g230
NVmarvell
p253
tp254
(dp255
Vhardware
p256
VMarvell Kirkwood/Orion
p257
sVhardware-long
p258
VMarvell Kirkwood based systems (SheevaPlug, QNAP TS-119/TS-219, etc)\u000aand Orion 5181, 5182 and 5281 based systems (QNAP TS-109/TS-209, etc)
p259
ss(Vrelations
p260
g230
tp261
(dp262
Vheaders%gcc-5
p263
Vlinux-compiler-gcc-5-arm
p264
ss(Vimage
p265
g230
tp266
(dp267
Vinstall-stem
p268
Vvmlinuz
p269
ss(g116
g230
g84
tp270
(dp271
g119
(lp272
Vmarvell
p273
asg123
I01
ss(Vbase
p274
Varmhf
p275
tp276
(dp277
g82
(lp278
g84
asVkernel-arch
p279
Varm
p280
ss(Vdescription
p281
g275
NVarmmp
p282
tp283
(dp284
Vhardware
p285
VARMv7 multiplatform compatible SoCs
p286
sVhardware-long
p287
VARMv7 multiplatform kernel. See\u000ahttps://wiki.debian.org/DebianKernel/ARMMP for details of supported\u000aplatforms
p288
ss(Vbuild
p289
g275
tp290
(dp291
Vvdso
p292
I01
sVimage-file
p293
Varch/arm/boot/zImage
p294
sVsigned-modules
p295
I00
ss(Vdescription
p296
g275
NVarmmp-lpae
p297
tp298
(dp299
Vhardware
p300
VARMv7 multiplatform compatible SoCs supporting LPAE
p301
sVhardware-long
p302
VARMv7 multiplatform kernel supporting LPAE. See\u000ahttps://wiki.debian.org/DebianKernel/ARMMP for details of supported\u000aplatforms.
p303
ss(Vrelations
p304
g275
tp305
(dp306
Vheaders%gcc-5
p307
Vlinux-compiler-gcc-5-arm
p308
ss(Vimage
p309
g275
tp310
(dp311
Vinstall-stem
p312
Vvmlinuz
p313
ss(g116
g275
g84
tp314
(dp315
g119
(lp316
Varmmp
p317
aVarmmp-lpae
p318
asg123
I01
ss(Vbase
p319
Vhppa
p320
tp321
(dp322
g82
(lp323
g84
asVkernel-arch
p324
Vparisc
p325
ss(Vbuild
p326
g320
tp327
(dp328
Vsigned-modules
p329
I00
sVimage-file
p330
Vvmlinux
p331
ss(Vdescription
p332
g320
NVparisc64-smp
p333
tp334
(dp335
Vhardware
p336
Vmultiprocessor 64-bit PA-RISC
p337
sVhardware-long
p338
VHP PA-RISC 64-bit SMP systems with support for more than 4 GB RAM
p339
ss(Vbase
p340
g320
NVparisc64-smp
p341
tp342
(dp343
Vcflags
p344
V-fno-cse-follow-jumps
p345
sVoverride-host-type
p346
Vhppa64-linux-gnu
p347
ss(Vrelations
p348
g320
tp349
(dp350
Vgcc-6
p351
Vgcc-6 <!stage1 !cross>, binutils-hppa64-linux-gnu <!stage1 !cross>, gcc-6-hppa64-linux-gnu <!stage1 !cross>, gcc-6-hppa-linux-gnu:native <!stage1 cross>, binutils-hppa64-linux-gnu:native <!stage1 cross>, gcc-6-hppa64-linux-gnu:native <!stage1 cross>
p352
ss(Vdescription
p353
g320
NVparisc
p354
tp355
(dp356
Vhardware
p357
V32-bit PA-RISC
p358
sVhardware-long
p359
VHP PA-RISC 32-bit systems with max 4 GB RAM
p360
ss(Vimage
p361
g320
tp362
(dp363
Vsuggests
p364
Vpalo
p365
sVinstall-stem
p366
Vvmlinux
p367
ss(g116
g320
g84
tp368
(dp369
g119
(lp370
Vparisc
p371
aVparisc64-smp
p372
asg123
I01
ss(Vbase
p373
Vi386
p374
tp375
(dp376
Vfeaturesets
p377
(lp378
Vnone
p379
aVrt
p380
asVkernel-arch
p381
Vx86
p382
ss(Vbuild
p383
g374
tp384
(dp385
Vvdso
p386
I01
sVimage-file
p387
Varch/x86/boot/bzImage
p388
sVsigned-modules
p389
I00
ss(Vdescription
p390
g374
NV686-pae
p391
tp392
(dp393
Vhardware
p394
Vmodern PCs
p395
sVhardware-long
p396
VPCs with one or more processors supporting PAE
p397
sVparts
p398
(lp399
Vpae
p400
ass(Vdescription
p401
g374
tp402
(dp403
Vpart-long-pae
p404
VThis kernel requires PAE (Physical Address Extension).\u000aThis feature is supported by the Intel Pentium Pro/II/III/4/4M/D, Xeon,\u000aCore and Atom; AMD Geode NX, Athlon (K7), Duron, Opteron, Sempron,\u000aTurion or Phenom; Transmeta Efficeon; VIA C7; and some other processors.
p405
ss(Vbuild
p406
g374
NV686-pae
p407
tp408
(dp409
Vdebug-info
p410
I01
ss(Vdescription
p411
g374
NV686
p412
tp413
(dp414
Vhardware
p415
Volder PCs
p416
sVhardware-long
p417
VPCs with one or more processors not supporting PAE
p418
ss(Vrelations
p419
g374
tp420
(dp421
Vheaders%gcc-5
p422
Vlinux-compiler-gcc-5-x86
p423
ss(Vimage
p424
g374
tp425
(dp426
Vbreaks
p427
Vxserver-xorg-input-vmmouse (<< 1:13.0.99)
p428
sVinstall-stem
p429
Vvmlinuz
p430
sVbootloaders
p431
(lp432
Vgrub-pc
p433
aVextlinux
p434
ass(Vbase
p435
g374
Vnone
p436
tp437
(dp438
Vflavours
p439
(lp440
V686
p441
aV686-pae
p442
ass(Vdescription
p443
g374
g436
V686-pae
p444
tp445
(dp446
Vparts
p447
(lp448
Vxen
p449
ass(Vbase
p450
g374
Vrt
p451
tp452
(dp453
Vflavours
p454
(lp455
V686-pae
p456
ass(Vbase
p457
Vm68k
p458
tp459
(dp460
Vcflags
p461
V-ffreestanding
p462
sg82
(lp463
g84
asVkernel-arch
p464
Vm68k
p465
ss(Vbuild
p466
g458
tp467
(dp468
Vsigned-modules
p469
I00
sVimage-file
p470
Vvmlinux.gz
p471
ss(Vdescription
p472
g458
NVm68k
p473
tp474
(dp475
Vhardware
p476
VMotorola MC68020+ family
p477
ss(Vimage
p478
g458
tp479
(dp480
Vsuggests
p481
Vvmelilo, fdutils
p482
sVinstall-stem
p483
Vvmlinuz
p484
ss(g116
g458
g84
tp485
(dp486
g119
(lp487
Vm68k
p488
asg123
I01
ss(Vbase
p489
Vmips
p490
tp491
(dp492
g82
(lp493
g84
asVkernel-arch
p494
Vmips
p495
ss(Vbuild
p496
g490
tp497
(dp498
Vsigned-modules
p499
I00
sVimage-file
p500
Vvmlinux
p501
ss(Vimage
p502
g490
NV4kc-malta
p503
tp504
(dp505
Vconfigs
p506
(lp507
Vkernelarch-mips/config.malta
p508
aVkernelarch-mips/config.mips32r2
p509
ass(Vimage
p510
g490
NV5kc-malta
p511
tp512
(dp513
Vconfigs
p514
(lp515
Vkernelarch-mips/config.malta
p516
aVkernelarch-mips/config.mips64r2
p517
ass(Vdescription
p518
g490
NVocteon
p519
tp520
(dp521
Vhardware
p522
VOcteon
p523
sVhardware-long
p524
VCavium Networks Octeon
p525
ss(Vimage
p526
g490
NVocteon
p527
tp528
(dp529
Vconfigs
p530
(lp531
Vkernelarch-mips/config.octeon
p532
ass(Vimage
p533
g490
tp534
(dp535
Vinstall-stem
p536
Vvmlinux
p537
ss(Vdescription
p538
g490
NV5kc-malta
p539
tp540
(dp541
Vhardware
p542
VMIPS Malta (64-bit)
p543
sVhardware-long
p544
VMIPS Malta boards (64-bit)
p545
ss(Vdescription
p546
g490
NV4kc-malta
p547
tp548
(dp549
Vhardware
p550
VMIPS Malta
p551
sVhardware-long
p552
VMIPS Malta boards
p553
ss(g116
g490
g84
tp554
(dp555
g119
(lp556
V4kc-malta
p557
aV5kc-malta
p558
aVocteon
p559
asg123
I01
ss(Vbase
p560
Vmipsel
p561
tp562
(dp563
g82
(lp564
g84
asVkernel-arch
p565
Vmips
p566
ss(Vimage
p567
g561
NVloongson-3
p568
tp569
(dp570
Vconfigs
p571
(lp572
Vkernelarch-mips/config.loongson-3
p573
ass(Vbuild
p574
g561
tp575
(dp576
Vsigned-modules
p577
I00
sVimage-file
p578
Vvmlinux
p579
ss(Vimage
p580
g561
NV4kc-malta
p581
tp582
(dp583
Vconfigs
p584
(lp585
Vkernelarch-mips/config.malta
p586
aVkernelarch-mips/config.mips32r2
p587
ass(Vimage
p588
g561
NV5kc-malta
p589
tp590
(dp591
Vconfigs
p592
(lp593
Vkernelarch-mips/config.malta
p594
aVkernelarch-mips/config.mips64r2
p595
ass(Vdescription
p596
g561
NVocteon
p597
tp598
(dp599
Vhardware
p600
VOcteon
p601
sVhardware-long
p602
VCavium Networks Octeon
p603
ss(Vdescription
p604
g561
NVloongson-3
p605
tp606
(dp607
Vhardware
p608
VLoongson 3A/3B
p609
sVhardware-long
p610
VLoongson 3A or 3B based systems (e.g. from Loongson or Lemote)
p611
ss(Vimage
p612
g561
NVocteon
p613
tp614
(dp615
Vconfigs
p616
(lp617
Vkernelarch-mips/config.octeon
p618
ass(Vimage
p619
g561
tp620
(dp621
Vinstall-stem
p622
Vvmlinux
p623
ss(Vdescription
p624
g561
NV5kc-malta
p625
tp626
(dp627
Vhardware
p628
VMIPS Malta (64-bit)
p629
sVhardware-long
p630
VMIPS Malta boards (64-bit)
p631
ss(Vdescription
p632
g561
NV4kc-malta
p633
tp634
(dp635
Vhardware
p636
VMIPS Malta
p637
sVhardware-long
p638
VMIPS Malta boards
p639
ss(g116
g561
g84
tp640
(dp641
g119
(lp642
V4kc-malta
p643
aV5kc-malta
p644
aVloongson-3
p645
aVocteon
p646
asg123
I01
ss(Vbase
p647
Vmipsn32
p648
tp649
(dp650
Vfeaturesets
p651
(lp652
sVkernel-arch
p653
Vmips
p654
ss(Vbase
p655
Vmipsn32el
p656
tp657
(dp658
Vfeaturesets
p659
(lp660
sVkernel-arch
p661
Vmips
p662
ss(Vbase
p663
Vmips64
p664
tp665
(dp666
g82
(lp667
g84
asVkernel-arch
p668
Vmips
p669
ss(Vbuild
p670
g664
tp671
(dp672
Vsigned-modules
p673
I00
sVimage-file
p674
Vvmlinux
p675
ss(Vimage
p676
g664
NV5kc-malta
p677
tp678
(dp679
Vconfigs
p680
(lp681
Vkernelarch-mips/config.malta
p682
aVkernelarch-mips/config.mips64r2
p683
ass(Vdescription
p684
g664
NVocteon
p685
tp686
(dp687
Vhardware
p688
VOcteon
p689
sVhardware-long
p690
VCavium Networks Octeon
p691
ss(Vimage
p692
g664
tp693
(dp694
Vinstall-stem
p695
Vvmlinux
p696
ss(Vdescription
p697
g664
NV5kc-malta
p698
tp699
(dp700
Vhardware
p701
VMIPS Malta
p702
sVhardware-long
p703
VMIPS Malta boards
p704
ss(Vimage
p705
g664
NVocteon
p706
tp707
(dp708
Vconfigs
p709
(lp710
Vkernelarch-mips/config.octeon
p711
ass(g116
g664
g84
tp712
(dp713
g119
(lp714
V5kc-malta
p715
aVocteon
p716
asg123
I01
ss(Vbase
p717
Vmips64el
p718
tp719
(dp720
g82
(lp721
g84
asVkernel-arch
p722
Vmips
p723
ss(Vimage
p724
g718
NVloongson-3
p725
tp726
(dp727
Vconfigs
p728
(lp729
Vkernelarch-mips/config.loongson-3
p730
ass(Vbuild
p731
g718
tp732
(dp733
Vsigned-modules
p734
I00
sVimage-file
p735
Vvmlinux
p736
ss(Vimage
p737
g718
NV5kc-malta
p738
tp739
(dp740
Vconfigs
p741
(lp742
Vkernelarch-mips/config.malta
p743
aVkernelarch-mips/config.mips64r2
p744
ass(Vdescription
p745
g718
NVocteon
p746
tp747
(dp748
Vhardware
p749
VOcteon
p750
sVhardware-long
p751
VCavium Networks Octeon
p752
ss(Vdescription
p753
g718
NVloongson-3
p754
tp755
(dp756
Vhardware
p757
VLoongson 3A/3B
p758
sVhardware-long
p759
VLoongson 3A or 3B based systems (e.g. from Loongson or Lemote)
p760
ss(Vimage
p761
g718
tp762
(dp763
Vinstall-stem
p764
Vvmlinux
p765
ss(Vdescription
p766
g718
NV5kc-malta
p767
tp768
(dp769
Vhardware
p770
VMIPS Malta
p771
sVhardware-long
p772
VMIPS Malta boards
p773
ss(Vimage
p774
g718
NVocteon
p775
tp776
(dp777
Vconfigs
p778
(lp779
Vkernelarch-mips/config.octeon
p780
ass(g116
g718
g84
tp781
(dp782
g119
(lp783
V5kc-malta
p784
aVloongson-3
p785
aVocteon
p786
asg123
I01
ss(Vbase
p787
Vor1k
p788
tp789
(dp790
Vfeaturesets
p791
(lp792
sVkernel-arch
p793
Vopenrisc
p794
ss(Vbase
p795
Vpowerpc
p796
tp797
(dp798
g82
(lp799
g84
asVkernel-arch
p800
Vpowerpc
p801
ss(Vdescription
p802
g796
NVpowerpc64
p803
tp804
(dp805
Vhardware
p806
V64-bit PowerPC
p807
ss(Vbuild
p808
g796
tp809
(dp810
Vvdso
p811
I01
sVimage-file
p812
Vvmlinux
p813
ss(Vimage
p814
g796
NVpowerpc-smp
p815
tp816
(dp817
Vconfigs
p818
(lp819
Vpowerpc/config.powerpc
p820
aVpowerpc/config.powerpc-smp
p821
ass(Vdescription
p822
g796
NVpowerpc
p823
tp824
(dp825
Vhardware
p826
Vuniprocessor 32-bit PowerPC
p827
ss(Vimage
p828
g796
NVpowerpc64
p829
tp830
(dp831
Vconfigs
p832
(lp833
Vkernelarch-powerpc/config-arch-64
p834
aVkernelarch-powerpc/config-arch-64-be
p835
ass(Vdescription
p836
g796
NVpowerpc-smp
p837
tp838
(dp839
Vhardware
p840
Vmultiprocessor 32-bit PowerPC
p841
ss(Vimage
p842
g796
tp843
(dp844
Vsuggests
p845
Vmkvmlinuz
p846
sVinstall-stem
p847
Vvmlinux
p848
sVconfigs
p849
(lp850
ss(g116
g796
g84
tp851
(dp852
g119
(lp853
Vpowerpc
p854
aVpowerpc-smp
p855
aVpowerpc64
p856
asg123
I01
ss(Vbase
p857
Vpowerpcspe
p858
tp859
(dp860
g82
(lp861
g84
asVkernel-arch
p862
Vpowerpc
p863
ss(Vbuild
p864
g858
tp865
(dp866
Vsigned-modules
p867
I00
sVimage-file
p868
Vvmlinux
p869
sVvdso
p870
I01
ss(Vimage
p871
g858
tp872
(dp873
Vsuggests
p874
Vmkvmlinuz
p875
sVinstall-stem
p876
Vvmlinux
p877
ss(Vdescription
p878
g858
tp879
(dp880
Vhardware
p881
V32-bit PowerPC with SPE (instead of AltiVec) with SMP support
p882
ss(g116
g858
g84
tp883
(dp884
g119
(lp885
Vpowerpcspe
p886
asg123
I01
ss(Vbase
p887
Vppc64
p888
tp889
(dp890
g82
(lp891
g84
asVkernel-arch
p892
Vpowerpc
p893
ss(Vdescription
p894
g888
NVpowerpc64
p895
tp896
(dp897
Vhardware
p898
V64-bit PowerPC
p899
ss(Vbuild
p900
g888
tp901
(dp902
Vsigned-modules
p903
I00
sVimage-file
p904
Vvmlinux
p905
sVvdso
p906
I01
ss(Vimage
p907
g888
NVpowerpc64
p908
tp909
(dp910
Vconfigs
p911
(lp912
Vkernelarch-powerpc/config-arch-64
p913
aVkernelarch-powerpc/config-arch-64-be
p914
ass(Vimage
p915
g888
tp916
(dp917
Vsuggests
p918
Vmkvmlinuz
p919
sVinstall-stem
p920
Vvmlinux
p921
sVconfigs
p922
(lp923
ss(g116
g888
g84
tp924
(dp925
g119
(lp926
Vpowerpc64
p927
asg123
I01
ss(Vbase
p928
Vppc64el
p929
tp930
(dp931
g82
(lp932
g84
asVkernel-arch
p933
Vpowerpc
p934
ss(Vdescription
p935
g929
NVpowerpc64le
p936
tp937
(dp938
Vhardware
p939
VLittle-endian 64-bit PowerPC
p940
ss(Vbuild
p941
g929
tp942
(dp943
Vvdso
p944
I01
sVimage-file
p945
Vvmlinux
p946
ss(Vimage
p947
g929
tp948
(dp949
Vsuggests
p950
Vmkvmlinuz
p951
sVinstall-stem
p952
Vvmlinux
p953
sVconfigs
p954
(lp955
ss(Vimage
p956
g929
NVpowerpc64le
p957
tp958
(dp959
Vconfigs
p960
(lp961
Vkernelarch-powerpc/config-arch-64
p962
aVkernelarch-powerpc/config-arch-64-le
p963
ass(g116
g929
g84
tp964
(dp965
g119
(lp966
Vpowerpc64le
p967
asg123
I01
ss(Vbase
p968
Vs390
p969
tp970
(dp971
Vfeaturesets
p972
(lp973
sVkernel-arch
p974
Vs390
p975
ss(Vbase
p976
Vs390x
p977
tp978
(dp979
g82
(lp980
g84
asVkernel-arch
p981
Vs390
p982
ss(Vdescription
p983
g977
NVs390x
p984
tp985
(dp986
Vhardware
p987
VIBM zSeries
p988
ss(Vbuild
p989
g977
tp990
(dp991
Vvdso
p992
I01
sVimage-file
p993
Varch/s390/boot/image
p994
ss(Vbuild
p995
g977
NVs390x
p996
tp997
(dp998
Vdebug-info
p999
I01
ss(Vrelations
p1000
g977
tp1001
(dp1002
Vheaders%gcc-5
p1003
Vlinux-compiler-gcc-5-s390
p1004
ss(Vimage
p1005
g977
tp1006
(dp1007
Vinstall-stem
p1008
Vvmlinuz
p1009
sVbootloaders
p1010
(lp1011
Vs390-tools
p1012
ass(g116
g977
g84
tp1013
(dp1014
g119
(lp1015
Vs390x
p1016
asg123
I01
ss(Vbase
p1017
Vsh3
p1018
tp1019
(dp1020
Vfeaturesets
p1021
(lp1022
sVkernel-arch
p1023
Vsh
p1024
ss(Vbase
p1025
Vsh4
p1026
tp1027
(dp1028
g82
(lp1029
g84
asVkernel-arch
p1030
Vsh
p1031
ss(Vbuild
p1032
g1026
tp1033
(dp1034
Vsigned-modules
p1035
I00
sVimage-file
p1036
Varch/sh/boot/zImage
p1037
ss(Vdescription
p1038
g1026
NVsh7751r
p1039
tp1040
(dp1041
Vhardware
p1042
Vsh7751r
p1043
sVhardware-long
p1044
VRenesas SH7751R R2D plus board
p1045
ss(Vdescription
p1046
g1026
NVsh7785lcr
p1047
tp1048
(dp1049
Vhardware
p1050
Vsh7785lcr
p1051
sVhardware-long
p1052
VRenesas SH7785 reference board
p1053
ss(Vimage
p1054
g1026
tp1055
(dp1056
Vinstall-stem
p1057
Vvmlinuz
p1058
ss(Vimage
p1059
g1026
NVsh7785lcr
p1060
tp1061
(dp1062
Vrecommends
p1063
Vu-boot-tools
p1064
sVcheck-size
p1065
L4194304L
ss(g116
g1026
g84
tp1066
(dp1067
g119
(lp1068
Vsh7751r
p1069
aVsh7785lcr
p1070
asg123
I01
ss(Vbase
p1071
Vsparc
p1072
tp1073
(dp1074
Vfeaturesets
p1075
(lp1076
sVkernel-arch
p1077
Vsparc
p1078
ss(Vbase
p1079
Vsparc64
p1080
tp1081
(dp1082
g82
(lp1083
g84
asVkernel-arch
p1084
Vsparc
p1085
ss(Vbuild
p1086
g1080
tp1087
(dp1088
Vsigned-modules
p1089
I00
sVimage-file
p1090
Varch/sparc/boot/zImage
p1091
ss(Vimage
p1092
g1080
NVsparc64
p1093
tp1094
(dp1095
Vconfigs
p1096
(lp1097
Vkernelarch-sparc/config-up
p1098
ass(Vimage
p1099
g1080
NVsparc64-smp
p1100
tp1101
(dp1102
Vconfigs
p1103
(lp1104
Vkernelarch-sparc/config-smp
p1105
ass(Vimage
p1106
g1080
tp1107
(dp1108
Vsuggests
p1109
Vsilo, fdutils
p1110
sVinstall-stem
p1111
Vvmlinuz
p1112
sVconfigs
p1113
(lp1114
ss(Vdescription
p1115
g1080
NVsparc64-smp
p1116
tp1117
(dp1118
Vhardware
p1119
Vmultiprocessor 64-bit UltraSPARC
p1120
ss(Vdescription
p1121
g1080
NVsparc64
p1122
tp1123
(dp1124
Vhardware
p1125
Vuniprocessor 64-bit UltraSPARC
p1126
ss(g116
g1080
g84
tp1127
(dp1128
g119
(lp1129
Vsparc64
p1130
aVsparc64-smp
p1131
asg123
I01
ss(Vbase
p1132
Vtilegx
p1133
tp1134
(dp1135
Vfeaturesets
p1136
(lp1137
sVkernel-arch
p1138
Vtile
p1139
ss(Vbase
p1140
Vx32
p1141
tp1142
(dp1143
Vfeaturesets
p1144
(lp1145
sVkernel-arch
p1146
Vx86
p1147
ss(Vdescription
p1148
NVrt
p1149
tp1150
(dp1151
Vparts
p1152
(lp1153
Vrt
p1154
asVpart-long-rt
p1155
VThis kernel includes the PREEMPT_RT realtime patch set.
p1156
sVpart-short-rt
p1157
VPREEMPT_RT
p1158
ss(Vabi
p1159
Ng1149
tp1160
(dp1161
Vignore-changes
p1162
(lp1163
V*
p1164
ass(Vversion
p1165
tp1166
(dp1167
Vupstream
p1168
V4.9
p1169
sVsource
p1170
V4.9.2-2kali1
p1171
sVabiname
p1172
V4.9.0-kali1
p1173
sVabiname_base
p1174
V4.9.0
p1175
ss.