ccopy_reg
_reconstructor
p0
(cdebian_linux.config
ConfigCore
p1
c__builtin__
dict
p2
(dp3
(S'description'
p4
S'sh4'
p5
NS'sh7785lcr'
p6
tp7
(dp8
S'hardware'
p9
S'sh7785lcr'
p10
sS'hardware-long'
p11
S'Renesas SH7785 reference board'
p12
ss(S'image'
p13
S'amd64'
p14
tp15
(dp16
S'install-stem'
p17
S'vmlinuz'
p18
sS'configs'
p19
(lp20
sS'bootloaders'
p21
(lp22
S'grub-pc'
p23
aS'grub-efi'
p24
aS'extlinux'
p25
ass(S'description'
p26
S'mipsel'
p27
NS'sb1-bcm91250a'
p28
tp29
(dp30
S'hardware'
p31
S'BCM91250A'
p32
sS'hardware-long'
p33
S'Broadcom BCM91250A systems (aka SWARM)'
p34
ss(S'base'
p35
g14
S'none'
p36
tp37
(dp38
S'flavours'
p39
(lp40
S'amd64'
p41
ass(S'description'
p42
S'mips'
p43
NS'r5k-ip32'
p44
tp45
(dp46
S'hardware'
p47
S'SGI IP32'
p48
sS'hardware-long'
p49
S'SGI IP32 systems (O2)'
p50
ss(S'image'
p51
S'sparc'
p52
NS'sparc64-smp'
p53
tp54
(dp55
S'configs'
p56
(lp57
S'kernelarch-sparc/config-smp'
p58
ass(S'description'
p59
S'i386'
p60
NS'686-pae'
p61
tp62
(dp63
S'hardware'
p64
S'modern PCs'
p65
sS'parts'
p66
(lp67
S'pae'
p68
asS'hardware-long'
p69
S'PCs with one or more processors supporting PAE'
p70
ss(S'build'
p71
S'mips64'
p72
tp73
(dp74
S'image-file'
p75
S'vmlinux'
p76
ss(S'version'
p77
tp78
(dp79
S'abiname'
p80
S'3.18.0-trunk'
p81
sS'source'
p82
V3.18.3-1~exp1
p83
sS'abiname_base'
p84
S'3.18.0'
p85
sS'upstream'
p86
S'3.18'
p87
ss(S'description'
p88
g14
g36
S'amd64'
p89
tp90
(dp91
S'parts'
p92
(lp93
S'xen'
p94
ass(S'description'
p95
g72
NS'5kc-malta'
p96
tp97
(dp98
S'hardware'
p99
S'MIPS Malta'
p100
sS'hardware-long'
p101
S'MIPS Malta boards'
p102
ss(S'base'
p103
S'ppc64'
p104
S'none'
p105
tp106
(dp107
S'implicit-flavour'
p108
I01
sS'flavours'
p109
(lp110
S'powerpc64'
p111
ass(S'description'
p112
g104
NS'powerpc64'
p113
tp114
(dp115
S'hardware'
p116
S'64-bit PowerPC'
p117
ss(S'image'
p118
S'mips64el'
p119
NS'octeon'
p120
tp121
(dp122
S'configs'
p123
(lp124
S'kernelarch-mips/config.octeon'
p125
ass(S'description'
p126
g43
NS'4kc-malta'
p127
tp128
(dp129
S'hardware'
p130
S'MIPS Malta'
p131
sS'hardware-long'
p132
S'MIPS Malta boards'
p133
ss(S'build'
p134
S'ia64'
p135
tp136
(dp137
S'image-file'
p138
S'vmlinux.gz'
p139
ss(g103
S'armhf'
p140
g105
tp141
(dp142
g108
I01
sg109
(lp143
S'armmp'
p144
aS'armmp-lpae'
p145
ass(S'image'
p146
S'armel'
p147
NS'orion5x'
p148
tp149
(dp150
S'check-size'
p151
I1572792
sS'check-size-with-dtb'
p152
I01
sS'configs'
p153
(lp154
S'armel/config-reduced'
p155
aS'armel/config.orion5x'
p156
asS'recommends'
p157
S'uboot-mkimage'
p158
ss(S'description'
p159
g119
NS'sb1-bcm91250a'
p160
tp161
(dp162
S'hardware'
p163
S'BCM91250A'
p164
sS'hardware-long'
p165
S'Broadcom BCM91250A systems (aka SWARM)'
p166
ss(S'base'
p167
g60
S'rt'
p168
tp169
(dp170
S'flavours'
p171
(lp172
S'686-pae'
p173
ass(S'image'
p174
S'ppc64el'
p175
NS'powerpc64le'
p176
tp177
(dp178
S'configs'
p179
(lp180
S'kernelarch-powerpc/config-arch-64'
p181
aS'kernelarch-powerpc/config-arch-64-le'
p182
ass(S'base'
p183
NS'rt'
p184
tp185
(dp186
S'enabled'
p187
I00
ss(S'image'
p188
g175
tp189
(dp190
S'suggests'
p191
S'mkvmlinuz'
p192
sS'configs'
p193
(lp194
sS'install-stem'
p195
S'vmlinux'
p196
ss(S'relations'
p197
g60
tp198
(dp199
S'headers%gcc-4.9'
p200
S'linux-compiler-gcc-4.9-x86'
p201
ss(S'description'
p202
S'sparc64'
p203
NS'sparc64'
p204
tp205
(dp206
S'hardware'
p207
S'uniprocessor 64-bit UltraSPARC'
p208
ss(S'image'
p209
g43
NS'r5k-ip32'
p210
tp211
(dp212
S'configs'
p213
(lp214
S'kernelarch-mips/config.r5k-ip32'
p215
ass(S'image'
p216
S'powerpc'
p217
tp218
(dp219
S'suggests'
p220
S'mkvmlinuz'
p221
sS'configs'
p222
(lp223
sS'install-stem'
p224
S'vmlinux'
p225
ss(S'description'
p226
S'arm64'
p227
NS'arm64'
p228
tp229
(dp230
S'hardware'
p231
S'64-bit ARMv8 machines'
p232
ss(S'base'
p233
g14
S'rt'
p234
tp235
(dp236
S'flavours'
p237
(lp238
S'amd64'
p239
ass(S'build'
p240
g175
tp241
(dp242
S'image-file'
p243
S'vmlinux'
p244
ss(S'build'
p245
g104
tp246
(dp247
S'image-file'
p248
S'vmlinux'
p249
ss(S'description'
p250
g60
S'none'
p251
S'amd64'
p252
tp253
(dp254
S'parts'
p255
(lp256
S'xen'
p257
ass(S'base'
p258
g227
tp259
(dp260
S'kernel-arch'
p261
S'arm64'
p262
sS'featuresets'
p263
(lp264
S'none'
p265
ass(S'description'
p266
S'alpha'
p267
NS'alpha-generic'
p268
tp269
(dp270
S'hardware'
p271
S'Alpha'
p272
sS'hardware-long'
p273
S'DEC Alpha systems with extended kernel start address (Wildfire, Titan, Marvel)'
p274
ss(S'base'
p275
g60
tp276
(dp277
S'kernel-arch'
p278
S'x86'
p279
sS'featuresets'
p280
(lp281
S'none'
p282
aS'rt'
p283
ass(S'base'
p284
g27
tp285
(dp286
S'kernel-arch'
p287
S'mips'
p288
sS'featuresets'
p289
(lp290
g105
ass(S'relations'
p291
g14
tp292
(dp293
S'headers%gcc-4.9'
p294
S'linux-compiler-gcc-4.9-x86'
p295
ss(S'image'
p296
g135
tp297
(dp298
S'suggests'
p299
S'fdutils'
p300
sS'bootloaders'
p301
(lp302
S'elilo'
p303
asS'install-stem'
p304
S'vmlinuz'
p305
ss(S'description'
p306
g119
NS'5kc-malta'
p307
tp308
(dp309
S'hardware'
p310
S'MIPS Malta'
p311
sS'hardware-long'
p312
S'MIPS Malta boards'
p313
ss(S'description'
p314
g147
NS'versatile'
p315
tp316
(dp317
S'hardware'
p318
S'Versatile'
p319
sS'hardware-long'
p320
S'Versatile systems (PB, AB, Qemu)'
p321
ss(S'relations'
p322
S's390'
p323
tp324
(dp325
S'headers%gcc-4.8'
p326
S'linux-compiler-gcc-4.8-s390'
p327
ss(S'image'
p328
g27
NS'loongson-2f'
p329
tp330
(dp331
S'configs'
p332
(lp333
S'kernelarch-mips/config.loongson-2f'
p334
asS'recommends'
p335
S'libc6-loongson2f'
p336
ss(g103
g27
g105
tp337
(dp338
g108
I01
sg109
(lp339
S'sb1-bcm91250a'
p340
aS'4kc-malta'
p341
aS'5kc-malta'
p342
aS'loongson-2e'
p343
aS'loongson-2f'
p344
aS'loongson-3'
p345
ass(S'description'
p346
g72
NS'octeon'
p347
tp348
(dp349
S'hardware'
p350
S'Octeon'
p351
sS'hardware-long'
p352
S'Cavium Networks Octeon'
p353
ss(S'description'
p354
S'powerpcspe'
p355
tp356
(dp357
S'hardware'
p358
S'32-bit PowerPC with SPE (instead of AltiVec) with SMP support'
p359
ss(S'relations'
p360
tp361
(dp362
S'gcc-4.9'
p363
S'gcc-4.9'
p364
sS'gcc-4.8'
p365
S'gcc-4.8'
p366
sS'initramfs-fallback'
p367
S'linux-initramfs-tool'
p368
sS'gcc-4.7'
p369
S'gcc-4.7'
p370
sS'gcc-4.6'
p371
S'gcc-4.6'
p372
sS'initramfs-tools'
p373
S'initramfs-tools (>= 0.110~)'
p374
ss(S'build'
p375
g267
tp376
(dp377
S'image-file'
p378
S'arch/alpha/boot/vmlinux.gz'
p379
ss(S'image'
p380
g43
NS'r4k-ip22'
p381
tp382
(dp383
S'configs'
p384
(lp385
S'kernelarch-mips/config.r4k-ip22'
p386
ass(S'image'
p387
g60
NS'686-pae'
p388
tp389
(dp390
S'configs'
p391
(lp392
S'kernelarch-x86/config-arch-32'
p393
aS'i386/config.686-pae'
p394
asS'recommends'
p395
S'libc6-i686'
p396
ss(S'description'
p397
g52
NS'sparc32'
p398
tp399
(dp400
S'hardware'
p401
S'uniprocessor sparc32 (sun4m)'
p402
ss(g103
g119
g105
tp403
(dp404
g108
I01
sg109
(lp405
S'sb1-bcm91250a'
p406
aS'5kc-malta'
p407
aS'loongson-3'
p408
aS'octeon'
p409
ass(S'build'
p410
g355
tp411
(dp412
S'image-file'
p413
S'vmlinux'
p414
ss(g103
g5
g105
tp415
(dp416
g108
I01
sg109
(lp417
S'sh7751r'
p418
aS'sh7785lcr'
p419
ass(S'build'
p420
S'hppa'
p421
tp422
(dp423
S'image-file'
p424
S'vmlinux'
p425
ss(S'image'
p426
g72
NS'octeon'
p427
tp428
(dp429
S'configs'
p430
(lp431
S'kernelarch-mips/config.octeon'
p432
ass(S'description'
p433
g119
NS'loongson-3'
p434
tp435
(dp436
S'hardware'
p437
S'Loongson 3A/3B'
p438
sS'hardware-long'
p439
S'Loongson 3A or 3B based systems (e.g. from Loongson or Lemote)'
p440
ss(S'image'
p441
g323
NS's390x'
p442
tp443
(dp444
S'configs'
p445
(lp446
S'kernelarch-s390/config-arch-64'
p447
ass(S'image'
p448
g217
NS'powerpc-smp'
p449
tp450
(dp451
S'configs'
p452
(lp453
S'powerpc/config.powerpc'
p454
aS'powerpc/config.powerpc-smp'
p455
ass(S'base'
p456
g147
tp457
(dp458
S'kernel-arch'
p459
S'arm'
p460
sg289
(lp461
g105
ass(S'image'
p462
g27
NS'5kc-malta'
p463
tp464
(dp465
S'configs'
p466
(lp467
S'kernelarch-mips/config.5kc-malta'
p468
ass(S'build'
p469
g227
tp470
(dp471
S'debug-info'
p472
I01
sS'image-file'
p473
S'arch/arm64/boot/Image'
p474
ss(S'base'
p475
g52
tp476
(dp477
S'kernel-arch'
p478
S'sparc'
p479
sg289
(lp480
g105
ass(S'description'
p481
g27
NS'5kc-malta'
p482
tp483
(dp484
S'hardware'
p485
S'MIPS Malta (64-bit)'
p486
sS'hardware-long'
p487
S'MIPS Malta boards (64-bit)'
p488
ss(S'description'
p489
g140
NS'armmp'
p490
tp491
(dp492
S'hardware'
p493
S'ARMv7 multiplatform compatible SoCs'
p494
sS'hardware-long'
p495
S'ARMv7 multiplatform kernel. See\nhttps://wiki.debian.org/DebianKernel/ARMMP for details of supported\nplatforms'
p496
ss(S'relations'
p497
g140
tp498
(dp499
S'headers%gcc-4.9'
p500
S'linux-compiler-gcc-4.9-arm'
p501
ss(g103
g323
g105
tp502
(dp503
g108
I01
sg109
(lp504
S's390x'
p505
ass(g103
S's390x'
p506
g105
tp507
(dp508
g108
I01
sg109
(lp509
S's390x'
p510
ass(S'base'
p511
g267
tp512
(dp513
S'kernel-arch'
p514
S'alpha'
p515
sg289
(lp516
g105
ass(S'build'
p517
g14
tp518
(dp519
S'debug-info'
p520
I01
sS'image-file'
p521
S'arch/x86/boot/bzImage'
p522
ss(S'image'
p523
g27
NS'sb1-bcm91250a'
p524
tp525
(dp526
S'configs'
p527
(lp528
S'kernelarch-mips/config.sb1-bcm91250a'
p529
ass(S'build'
p530
g52
tp531
(dp532
S'image-file'
p533
S'arch/sparc/boot/zImage'
p534
ss(S'image'
p535
g27
tp536
(dp537
S'install-stem'
p538
S'vmlinux'
p539
ss(S'build'
p540
g217
tp541
(dp542
S'image-file'
p543
S'vmlinux'
p544
ss(S'description'
p545
g43
NS'r4k-ip22'
p546
tp547
(dp548
S'hardware'
p549
S'SGI IP22'
p550
sS'hardware-long'
p551
S'SGI IP22 systems (Indy, Indigo2)'
p552
ss(S'build'
p553
g27
tp554
(dp555
S'image-file'
p556
S'vmlinux'
p557
ss(S'base'
p558
g72
tp559
(dp560
S'kernel-arch'
p561
S'mips'
p562
sg289
(lp563
g105
ass(S'base'
p564
g14
tp565
(dp566
S'kernel-arch'
p567
S'x86'
p568
sS'featuresets'
p569
(lp570
S'none'
p571
aS'rt'
p572
ass(S'base'
p573
g135
tp574
(dp575
S'kernel-arch'
p576
S'ia64'
p577
sg289
(lp578
g105
asS'compiler'
p579
S'gcc-4.6'
p580
ss(S'base'
p581
g43
tp582
(dp583
S'kernel-arch'
p584
S'mips'
p585
sg289
(lp586
g105
ass(S'description'
p587
g147
NS'kirkwood'
p588
tp589
(dp590
S'hardware'
p591
S'Marvell Kirkwood'
p592
sS'hardware-long'
p593
S'Marvell Kirkwood based systems (SheevaPlug, QNAP TS-119/TS-219, etc)'
p594
ss(g103
g147
g105
tp595
(dp596
g108
I01
sg109
(lp597
S'kirkwood'
p598
aS'orion5x'
p599
aS'versatile'
p600
ass(S'image'
p601
g203
NS'sparc64-smp'
p602
tp603
(dp604
S'configs'
p605
(lp606
S'kernelarch-sparc/config-smp'
p607
ass(S'image'
p608
g60
NS'586'
p609
tp610
(dp611
S'configs'
p612
(lp613
S'kernelarch-x86/config-arch-32'
p614
aS'i386/config.586'
p615
ass(S'image'
p616
g27
NS'4kc-malta'
p617
tp618
(dp619
S'configs'
p620
(lp621
S'kernelarch-mips/config.4kc-malta'
p622
ass(S'description'
p623
g60
tp624
(dp625
S'part-long-pae'
p626
S'This kernel requires PAE (Physical Address Extension).\nThis feature is supported by the Intel Pentium Pro/II/III/4/4M/D, Xeon,\nCore and Atom; AMD Geode NX, Athlon (K7), Duron, Opteron, Sempron,\nTurion or Phenom; Transmeta Efficeon; VIA C7; and some other processors.'
p627
ss(S'build'
p628
g119
tp629
(dp630
S'image-file'
p631
S'vmlinux'
p632
ss(S'xen'
p633
g14
g36
S'amd64'
p634
tp635
(dp636
S'flavours'
p637
(lp638
S'amd64'
p639
ass(S'description'
p640
g72
NS'sb1-bcm91250a'
p641
tp642
(dp643
S'hardware'
p644
S'BCM91250A'
p645
sS'hardware-long'
p646
S'Broadcom BCM91250A systems (aka SWARM)'
p647
ss(S'image'
p648
g147
tp649
(dp650
S'suggests'
p651
S'fdutils'
p652
sS'configs'
p653
(lp654
S'kernelarch-arm/config'
p655
aS'armel/config'
p656
asS'install-stem'
p657
S'vmlinuz'
p658
ss(S'image'
p659
g323
tp660
(dp661
S'install-stem'
p662
S'vmlinuz'
p663
sS'configs'
p664
(lp665
sS'bootloaders'
p666
(lp667
S's390-tools'
p668
ass(S'description'
p669
g135
NS'itanium'
p670
tp671
(dp672
S'hardware'
p673
S'Itanium'
p674
ss(S'relations'
p675
g147
tp676
(dp677
S'headers%gcc-4.9'
p678
S'linux-compiler-gcc-4.9-arm'
p679
ss(S'image'
p680
g421
tp681
(dp682
S'suggests'
p683
S'palo'
p684
sS'install-stem'
p685
S'vmlinux'
p686
ss(g103
g72
g105
tp687
(dp688
g108
I01
sg109
(lp689
S'sb1-bcm91250a'
p690
aS'5kc-malta'
p691
aS'octeon'
p692
ass(S'relations'
p693
g421
tp694
(dp695
S'gcc-4.9'
p696
S'gcc-4.9, binutils-hppa64, gcc-4.9-hppa64'
p697
ss(S'image'
p698
g52
NS'sparc64'
p699
tp700
(dp701
S'configs'
p702
(lp703
S'kernelarch-sparc/config-up'
p704
ass(S'build'
p705
g60
NS'686-pae'
p706
tp707
(dp708
S'debug-info'
p709
I01
ss(S'description'
p710
g140
NS'armmp-lpae'
p711
tp712
(dp713
S'hardware'
p714
S'ARMv7 multiplatform compatible SoCs supporting LPAE'
p715
sS'hardware-long'
p716
S'ARMv7 multiplatform kernel supporting LPAE. See\nhttps://wiki.debian.org/DebianKernel/ARMMP for details of supported\nplatforms.'
p717
ss(S'description'
p718
g135
NS'mckinley'
p719
tp720
(dp721
S'hardware'
p722
S'Itanium II'
p723
ss(S'description'
p724
g217
NS'powerpc64'
p725
tp726
(dp727
S'hardware'
p728
S'64-bit PowerPC'
p729
ss(S'description'
p730
g60
NS'amd64'
p731
tp732
(dp733
S'hardware'
p734
S'64-bit PCs'
p735
sS'parts'
p736
(lp737
S'xen'
p738
asS'hardware-long'
p739
S'PCs with AMD64, Intel 64 or VIA Nano processors'
p740
ss(S'image'
p741
g217
NS'powerpc64'
p742
tp743
(dp744
S'configs'
p745
(lp746
S'kernelarch-powerpc/config-arch-64'
p747
aS'kernelarch-powerpc/config-arch-64-be'
p748
ass(S'image'
p749
g140
NS'armmp-lpae'
p750
tp751
(dp752
S'configs'
p753
(lp754
S'armhf/config.armmp'
p755
aS'armhf/config.lpae'
p756
ass(S'image'
p757
g119
NS'sb1-bcm91250a'
p758
tp759
(dp760
S'configs'
p761
(lp762
S'kernelarch-mips/config.sb1-bcm91250a'
p763
ass(g103
g421
g105
tp764
(dp765
g108
I01
sg109
(lp766
S'parisc'
p767
aS'parisc64-smp'
p768
ass(S'image'
p769
g267
tp770
(dp771
S'suggests'
p772
S'aboot, fdutils'
p773
sS'install-stem'
p774
S'vmlinuz'
p775
ss(S'description'
p776
g421
NS'parisc64-smp'
p777
tp778
(dp779
S'hardware'
p780
S'multiprocessor 64-bit PA-RISC'
p781
sS'hardware-long'
p782
S'HP PA-RISC 64-bit SMP systems with support for more than 4 GB RAM'
p783
ss(S'base'
p784
g203
tp785
(dp786
S'kernel-arch'
p787
S'sparc'
p788
sg289
(lp789
g105
ass(S'description'
p790
g60
NS'586'
p791
tp792
(dp793
S'hardware'
p794
S'older PCs'
p795
sS'parts'
p796
(lp797
S'up'
p798
asS'hardware-long'
p799
S'PCs with a single processor not supporting PAE'
p800
ss(S'image'
p801
g227
NS'arm64'
p802
tp803
(dp804
s(S'base'
p805
S'or1k'
p806
tp807
(dp808
S'kernel-arch'
p809
S'openrisc'
p810
sS'featuresets'
p811
(lp812
ss(S'base'
p813
g506
tp814
(dp815
S'kernel-arch'
p816
S's390'
p817
sg289
(lp818
g105
asS'compiler'
p819
S'gcc-4.8'
p820
ss(S'base'
p821
g323
tp822
(dp823
S'kernel-arch'
p824
S's390'
p825
sg289
(lp826
g105
asS'compiler'
p827
S'gcc-4.8'
p828
ss(S'description'
p829
g267
NS'alpha-smp'
p830
tp831
(dp832
S'hardware'
p833
S'Alpha SMP'
p834
sS'hardware-long'
p835
S'DEC Alpha SMP systems with extended kernel start address (Wildfire, Titan, Marvel)'
p836
ss(S'image'
p837
g72
NS'5kc-malta'
p838
tp839
(dp840
S'configs'
p841
(lp842
S'kernelarch-mips/config.5kc-malta'
p843
ass(S'image'
p844
g104
tp845
(dp846
S'suggests'
p847
S'mkvmlinuz'
p848
sS'configs'
p849
(lp850
sS'install-stem'
p851
S'vmlinux'
p852
ss(S'image'
p853
g43
tp854
(dp855
S'install-stem'
p856
S'vmlinux'
p857
ss(S'image'
p858
g60
tp859
(dp860
S'install-stem'
p861
S'vmlinuz'
p862
sS'configs'
p863
(lp864
sS'bootloaders'
p865
(lp866
S'grub-pc'
p867
aS'extlinux'
p868
ass(g103
g52
g105
tp869
(dp870
g108
I01
sg109
(lp871
S'sparc64'
p872
aS'sparc64-smp'
p873
ass(S'base'
p874
g104
tp875
(dp876
S'kernel-arch'
p877
S'powerpc'
p878
sg289
(lp879
g105
ass(g103
g267
g105
tp880
(dp881
g108
I01
sg109
(lp882
S'alpha-generic'
p883
aS'alpha-smp'
p884
aS'alpha-legacy'
p885
ass(S'description'
p886
g60
g251
S'686-pae'
p887
tp888
(dp889
S'parts'
p890
(lp891
S'xen'
p892
ass(g103
g135
g105
tp893
(dp894
g108
I01
sg109
(lp895
S'itanium'
p896
aS'mckinley'
p897
ass(S'base'
p898
g227
S'none'
p899
tp900
(dp901
S'flavours'
p902
(lp903
S'arm64'
p904
ass(S'build'
p905
g506
tp906
(dp907
S'image-file'
p908
S'arch/s390/boot/image'
p909
ss(S'build'
p910
g506
NS's390x'
p911
tp912
(dp913
S'debug-info'
p914
I01
ss(g103
g43
g105
tp915
(dp916
g108
I01
sg109
(lp917
S'r4k-ip22'
p918
aS'r5k-ip32'
p919
aS'sb1-bcm91250a'
p920
aS'4kc-malta'
p921
aS'5kc-malta'
p922
aS'octeon'
p923
ass(S'build'
p924
g43
tp925
(dp926
S'image-file'
p927
S'vmlinux'
p928
ss(S'image'
p929
g72
tp930
(dp931
S'install-stem'
p932
S'vmlinux'
p933
ss(S'image'
p934
g506
NS's390x'
p935
tp936
(dp937
S'configs'
p938
(lp939
S'kernelarch-s390/config-arch-64'
p940
ass(S'image'
p941
g5
NS'sh7785lcr'
p942
tp943
(dp944
S'check-size'
p945
I4194304
sS'recommends'
p946
S'uboot-mkimage'
p947
ss(S'image'
p948
g52
NS'sparc32'
p949
tp950
(dp951
S'image-postproc'
p952
S'sparc32-image-postproc'
p953
ss(S'image'
p954
g60
NS'amd64'
p955
tp956
(dp957
S'configs'
p958
(lp959
S'kernelarch-x86/config-arch-64'
p960
asS'recommends'
p961
S'libc6-i686'
p962
ss(S'description'
p963
g27
NS'4kc-malta'
p964
tp965
(dp966
S'hardware'
p967
S'MIPS Malta'
p968
sS'hardware-long'
p969
S'MIPS Malta boards'
p970
ss(S'base'
p971
S'x32'
p972
tp973
(dp974
S'kernel-arch'
p975
S'x86'
p976
sS'featuresets'
p977
(lp978
ss(S'description'
p979
g323
NS's390x'
p980
tp981
(dp982
S'hardware'
p983
S'IBM zSeries'
p984
ss(S'image'
p985
S'm68k'
p986
tp987
(dp988
S'suggests'
p989
S'vmelilo, fdutils'
p990
sS'install-stem'
p991
S'vmlinuz'
p992
ss(S'description'
p993
g147
NS'orion5x'
p994
tp995
(dp996
S'hardware'
p997
S'Marvell Orion'
p998
sS'hardware-long'
p999
S'Marvell Orion 5181, 5182 and 5281 based systems (QNAP TS-109/TS-209, etc)'
p1000
ss(S'description'
p1001
g217
NS'powerpc'
p1002
tp1003
(dp1004
S'hardware'
p1005
S'uniprocessor 32-bit PowerPC'
p1006
ss(S'build'
p1007
g140
tp1008
(dp1009
S'image-file'
p1010
S'arch/arm/boot/zImage'
p1011
ss(S'image'
p1012
g119
NS'loongson-3'
p1013
tp1014
(dp1015
S'configs'
p1016
(lp1017
S'kernelarch-mips/config.loongson-3'
p1018
ass(S'description'
p1019
NS'rt'
p1020
tp1021
(dp1022
S'part-long-rt'
p1023
S'This kernel includes the PREEMPT_RT realtime patch set.'
p1024
sS'parts'
p1025
(lp1026
S'rt'
p1027
asS'part-short-rt'
p1028
S'PREEMPT_RT'
p1029
ss(S'description'
p1030
g27
NS'loongson-3'
p1031
tp1032
(dp1033
S'hardware'
p1034
S'Loongson 3A/3B'
p1035
sS'hardware-long'
p1036
S'Loongson 3A or 3B based systems (e.g. from Loongson or Lemote)'
p1037
ss(S'base'
p1038
g140
tp1039
(dp1040
S'kernel-arch'
p1041
S'arm'
p1042
sg289
(lp1043
g105
ass(S'image'
p1044
g27
NS'loongson-3'
p1045
tp1046
(dp1047
S'configs'
p1048
(lp1049
S'kernelarch-mips/config.loongson-3'
p1050
ass(S'image'
p1051
g5
tp1052
(dp1053
S'suggests'
p1054
S'fdutils'
p1055
sS'install-stem'
p1056
S'vmlinuz'
p1057
ss(S'base'
p1058
g421
tp1059
(dp1060
S'kernel-arch'
p1061
S'parisc'
p1062
sg289
(lp1063
g105
ass(S'description'
p1064
g43
NS'5kc-malta'
p1065
tp1066
(dp1067
S'hardware'
p1068
S'MIPS Malta (64-bit)'
p1069
sS'hardware-long'
p1070
S'MIPS Malta boards (64-bit)'
p1071
ss(S'base'
p1072
g5
tp1073
(dp1074
S'kernel-arch'
p1075
S'sh'
p1076
sg289
(lp1077
g105
ass(S'image'
p1078
g52
tp1079
(dp1080
S'suggests'
p1081
S'silo, fdutils'
p1082
sS'configs'
p1083
(lp1084
sS'install-stem'
p1085
S'vmlinuz'
p1086
ss(S'description'
p1087
g14
NS'amd64'
p1088
tp1089
(dp1090
S'hardware'
p1091
S'64-bit PCs'
p1092
sS'hardware-long'
p1093
S'PCs with AMD64, Intel 64 or VIA Nano processors'
p1094
ss(S'description'
p1095
tp1096
(dp1097
S'part-long-up'
p1098
S'This kernel is not suitable for SMP (multi-processor,\nmulti-core or hyper-threaded) systems.'
p1099
sS'part-long-xen'
p1100
S'This kernel also runs on a Xen hypervisor.\nIt supports both privileged (dom0) and unprivileged (domU) operation.'
p1101
ss(S'build'
p1102
g203
tp1103
(dp1104
S'image-file'
p1105
S'arch/sparc/boot/zImage'
p1106
ss(S'image'
p1107
g147
NS'kirkwood'
p1108
tp1109
(dp1110
S'check-size'
p1111
I2097080
sS'check-size-with-dtb'
p1112
I01
sS'breaks'
p1113
S'flash-kernel (<< 3.30~)'
p1114
sS'recommends'
p1115
S'uboot-mkimage'
p1116
sS'configs'
p1117
(lp1118
S'armel/config-reduced'
p1119
aS'armel/config.kirkwood'
p1120
ass(S'image'
p1121
g104
NS'powerpc64'
p1122
tp1123
(dp1124
S'configs'
p1125
(lp1126
S'kernelarch-powerpc/config-arch-64'
p1127
aS'kernelarch-powerpc/config-arch-64-be'
p1128
ass(S'description'
p1129
g986
NS'm68k'
p1130
tp1131
(dp1132
S'hardware'
p1133
S'Motorola MC68020+ family'
p1134
ss(S'image'
p1135
g119
tp1136
(dp1137
S'install-stem'
p1138
S'vmlinux'
p1139
ss(S'abi'
p1140
Ng1020
tp1141
(dp1142
S'ignore-changes'
p1143
(lp1144
S'*'
p1145
ass(S'image'
p1146
g119
NS'5kc-malta'
p1147
tp1148
(dp1149
S'configs'
p1150
(lp1151
S'kernelarch-mips/config.5kc-malta'
p1152
ass(S'image'
p1153
g203
tp1154
(dp1155
S'suggests'
p1156
S'silo, fdutils'
p1157
sS'configs'
p1158
(lp1159
sS'install-stem'
p1160
S'vmlinuz'
p1161
ss(S'relations'
p1162
g506
tp1163
(dp1164
S'headers%gcc-4.8'
p1165
S'linux-compiler-gcc-4.8-s390'
p1166
ss(S'description'
p1167
g506
NS's390x'
p1168
tp1169
(dp1170
S'hardware'
p1171
S'IBM zSeries'
p1172
ss(S'base'
p1173
g217
tp1174
(dp1175
S'kernel-arch'
p1176
S'powerpc'
p1177
sg289
(lp1178
g105
ass(S'description'
p1179
g217
NS'powerpc-smp'
p1180
tp1181
(dp1182
S'hardware'
p1183
S'multiprocessor 32-bit PowerPC'
p1184
ss(S'base'
p1185
g421
NS'parisc64-smp'
p1186
tp1187
(dp1188
S'override-host-type'
p1189
S'hppa64-linux-gnu'
p1190
sS'cflags'
p1191
S'-fno-cse-follow-jumps'
p1192
ss(S'image'
p1193
g27
NS'loongson-2e'
p1194
tp1195
(dp1196
S'configs'
p1197
(lp1198
S'kernelarch-mips/config.loongson-2e'
p1199
ass(S'build'
p1200
g323
NS's390x'
p1201
tp1202
(dp1203
S'debug-info'
p1204
I01
ss(S'image'
p1205
g43
NS'octeon'
p1206
tp1207
(dp1208
S'configs'
p1209
(lp1210
S'kernelarch-mips/config.octeon'
p1211
ass(S'description'
p1212
g5
NS'sh7751r'
p1213
tp1214
(dp1215
S'hardware'
p1216
S'sh7751r'
p1217
sS'hardware-long'
p1218
S'Renesas SH7751R R2D plus board'
p1219
ss(S'build'
p1220
g323
tp1221
(dp1222
S'image-file'
p1223
S'arch/s390/boot/image'
p1224
ss(S'image'
p1225
g355
tp1226
(dp1227
S'suggests'
p1228
S'mkvmlinuz'
p1229
sS'install-stem'
p1230
S'vmlinux'
p1231
ss(S'description'
p1232
g43
NS'sb1-bcm91250a'
p1233
tp1234
(dp1235
S'hardware'
p1236
S'BCM91250A'
p1237
sS'hardware-long'
p1238
S'Broadcom BCM91250A systems (aka SWARM)'
p1239
ss(S'image'
p1240
g140
tp1241
(dp1242
S'suggests'
p1243
S'fdutils'
p1244
sS'configs'
p1245
(lp1246
S'kernelarch-arm/config'
p1247
aS'armhf/config'
p1248
asS'install-stem'
p1249
S'vmlinuz'
p1250
ss(S'abi'
p1251
tp1252
(dp1253
S'abiname'
p1254
S'trunk'
p1255
ss(S'image'
p1256
g203
NS'sparc64'
p1257
tp1258
(dp1259
S'configs'
p1260
(lp1261
S'kernelarch-sparc/config-up'
p1262
ass(g103
g355
g105
tp1263
(dp1264
g108
I01
sg109
(lp1265
S'powerpcspe'
p1266
ass(g103
g986
g105
tp1267
(dp1268
g108
I01
sg109
(lp1269
S'm68k'
p1270
ass(S'base'
p1271
g60
g251
tp1272
(dp1273
S'flavours'
p1274
(lp1275
S'586'
p1276
aS'686-pae'
p1277
aS'amd64'
p1278
ass(S'base'
p1279
tp1280
(dp1281
S'arches'
p1282
(lp1283
S'alpha'
p1284
aS'amd64'
p1285
aS'arm64'
p1286
aS'armel'
p1287
aS'armhf'
p1288
aS'hppa'
p1289
aS'i386'
p1290
aS'ia64'
p1291
aS'm68k'
p1292
aS'mips'
p1293
aS'mipsel'
p1294
aS'mips64'
p1295
aS'mips64el'
p1296
aS'or1k'
p1297
aS'powerpc'
p1298
aS'powerpcspe'
p1299
aS'ppc64'
p1300
aS'ppc64el'
p1301
aS's390'
p1302
aS's390x'
p1303
aS'sh4'
p1304
aS'sparc'
p1305
aS'sparc64'
p1306
aS'x32'
p1307
asS'featuresets'
p1308
(lp1309
S'none'
p1310
aS'rt'
p1311
asS'compiler'
p1312
S'gcc-4.9'
p1313
ss(S'description'
p1314
g119
NS'octeon'
p1315
tp1316
(dp1317
S'hardware'
p1318
S'Octeon'
p1319
sS'hardware-long'
p1320
S'Cavium Networks Octeon'
p1321
ss(S'build'
p1322
g986
tp1323
(dp1324
S'image-file'
p1325
S'vmlinux.gz'
p1326
ss(S'build'
p1327
g147
tp1328
(dp1329
S'image-file'
p1330
S'arch/arm/boot/zImage'
p1331
ss(g103
g217
g105
tp1332
(dp1333
g108
I01
sg109
(lp1334
S'powerpc'
p1335
aS'powerpc-smp'
p1336
aS'powerpc64'
p1337
ass(S'description'
p1338
g52
NS'sparc64'
p1339
tp1340
(dp1341
S'hardware'
p1342
S'uniprocessor 64-bit UltraSPARC'
p1343
ss(S'base'
p1344
g175
tp1345
(dp1346
S'kernel-arch'
p1347
S'powerpc'
p1348
sg289
(lp1349
g105
ass(S'base'
p1350
g119
tp1351
(dp1352
S'kernel-arch'
p1353
S'mips'
p1354
sg289
(lp1355
g105
ass(S'base'
p1356
g986
tp1357
(dp1358
S'kernel-arch'
p1359
S'm68k'
p1360
sg289
(lp1361
g105
asS'cflags'
p1362
S'-ffreestanding'
p1363
sS'compiler'
p1364
S'gcc-4.8'
p1365
ss(S'image'
p1366
tp1367
(dp1368
S'initramfs-generators'
p1369
(lp1370
S'initramfs-tools'
p1371
aS'initramfs-fallback'
p1372
asS'type'
p1373
S'plain'
p1374
ss(S'description'
p1375
g27
NS'loongson-2e'
p1376
tp1377
(dp1378
S'hardware'
p1379
S'Loongson 2E'
p1380
sS'hardware-long'
p1381
S'Lemote Loongson 2E systems'
p1382
ss(S'description'
p1383
g43
NS'octeon'
p1384
tp1385
(dp1386
S'hardware'
p1387
S'Octeon'
p1388
sS'hardware-long'
p1389
S'Cavium Networks Octeon'
p1390
ss(S'base'
p1391
g355
tp1392
(dp1393
S'kernel-arch'
p1394
S'powerpc'
p1395
sg289
(lp1396
g105
ass(g103
g203
g105
tp1397
(dp1398
g108
I01
sg109
(lp1399
S'sparc64'
p1400
aS'sparc64-smp'
p1401
ass(S'image'
p1402
g14
NS'amd64'
p1403
tp1404
(dp1405
S'configs'
p1406
(lp1407
S'kernelarch-x86/config-arch-64'
p1408
ass(S'image'
p1409
g72
NS'sb1-bcm91250a'
p1410
tp1411
(dp1412
S'configs'
p1413
(lp1414
S'kernelarch-mips/config.sb1-bcm91250a'
p1415
ass(S'description'
p1416
g267
NS'alpha-legacy'
p1417
tp1418
(dp1419
S'hardware'
p1420
S'Alpha Legacy'
p1421
sS'hardware-long'
p1422
S'DEC Alpha systems with legacy kernel start address'
p1423
ss(S'description'
p1424
g203
NS'sparc64-smp'
p1425
tp1426
(dp1427
S'hardware'
p1428
S'multiprocessor 64-bit UltraSPARC'
p1429
ss(S'image'
p1430
g43
NS'4kc-malta'
p1431
tp1432
(dp1433
S'configs'
p1434
(lp1435
S'kernelarch-mips/config.4kc-malta'
p1436
ass(S'description'
p1437
g52
NS'sparc64-smp'
p1438
tp1439
(dp1440
S'hardware'
p1441
S'multiprocessor 64-bit UltraSPARC'
p1442
ss(S'image'
p1443
g43
NS'5kc-malta'
p1444
tp1445
(dp1446
S'configs'
p1447
(lp1448
S'kernelarch-mips/config.5kc-malta'
p1449
ass(S'build'
p1450
g5
tp1451
(dp1452
S'image-file'
p1453
S'arch/sh/boot/zImage'
p1454
ss(S'description'
p1455
g421
NS'parisc'
p1456
tp1457
(dp1458
S'hardware'
p1459
S'32-bit PA-RISC'
p1460
sS'hardware-long'
p1461
S'HP PA-RISC 32-bit systems with max 4 GB RAM'
p1462
ss(S'image'
p1463
g506
tp1464
(dp1465
S'install-stem'
p1466
S'vmlinuz'
p1467
sS'configs'
p1468
(lp1469
sS'bootloaders'
p1470
(lp1471
S's390-tools'
p1472
ass(S'description'
p1473
g27
NS'loongson-2f'
p1474
tp1475
(dp1476
S'hardware'
p1477
S'Loongson 2F'
p1478
sS'hardware-long'
p1479
S'Lemote Loongson 2F systems'
p1480
ss(S'image'
p1481
g227
tp1482
(dp1483
S'install-stem'
p1484
S'vmlinuz'
p1485
ss(S'description'
p1486
g175
NS'powerpc64le'
p1487
tp1488
(dp1489
S'hardware'
p1490
S'Little-endian 64-bit PowerPC'
p1491
ss(S'image'
p1492
g43
NS'sb1-bcm91250a'
p1493
tp1494
(dp1495
S'configs'
p1496
(lp1497
S'kernelarch-mips/config.sb1-bcm91250a'
p1498
ass(S'build'
p1499
g60
tp1500
(dp1501
S'image-file'
p1502
S'arch/x86/boot/bzImage'
p1503
ss(g103
g175
g105
tp1504
(dp1505
g108
I01
sg109
(lp1506
S'powerpc64le'
p1507
asstp1508
Rp1509
.