ccopy_reg
_reconstructor
p1
(cdebian_linux.config
ConfigCore
p2
c__builtin__
dict
p3
(dp4
(S'image'
S'amd64'
p5
tp6
(dp7
S'configs'
p8
(lp9
sS'bootloaders'
p10
(lp11
S'grub-pc'
p12
aS'extlinux'
p13
aS'lilo'
p14
ass(S'description'
S'armhf'
p15
NS'omap'
tp16
(dp17
S'hardware'
p18
S'TI OMAP3+'
p19
sS'hardware-long'
p20
S'Texas Instruments OMAP3 or OMAP4 based systems'
p21
ss(S'description'
S'hppa'
p22
NS'parisc-smp'
tp23
(dp24
S'hardware'
p25
S'multiprocessor 32-bit PA-RISC'
p26
ss(S'description'
S'armel'
p27
NS'versatile'
tp28
(dp29
S'hardware'
p30
S'Versatile'
p31
sS'hardware-long'
p32
S'Versatile systems (PB, AB, Qemu)'
p33
ss(S'base'
p34
g5
S'none'
p35
tp36
(dp37
S'implicit-flavour'
p38
I01
sS'flavours'
p39
(lp40
S'amd64'
p41
ass(S'base'
g5
S'rt'
p42
tp43
(dp44
S'flavours'
p45
(lp46
S'amd64'
p47
ass(S'image'
g27
NS'iop32x'
tp48
(dp49
S'check-size'
p50
S'1441784'
p51
ss(S'image'
S'ia64'
p52
tp53
(dp54
S'suggests'
p55
S'fdutils'
p56
sS'bootloaders'
p57
(lp58
S'elilo'
p59
ass(S'image'
S'mipsel'
p60
NS'5kc-malta'
tp61
(dp62
S'configs'
p63
(lp64
S'mips/config.5kc-malta'
p65
ass(S'image'
g27
NS'ixp4xx'
tp66
(dp67
S'check-size'
p68
S'1441760'
p69
ss(S'version'
p70
tp71
(dp72
S'abiname'
p73
S'3.7-trunk'
p74
sS'source'
p75
V3.7.2-0+kali5
p76
ss(S'description'
g22
NS'parisc64-smp'
tp77
(dp78
S'hardware'
p79
S'multiprocessor 64-bit PA-RISC'
p80
ss(S'description'
g60
NS'sb1-bcm91250a'
tp81
(dp82
S'hardware'
p83
S'BCM91250A'
p84
sS'hardware-long'
p85
S'Broadcom BCM91250A systems (aka SWARM)'
p86
ss(g34
S'ppc64'
p87
g35
tp88
(dp89
g38
I01
sg39
(lp90
S'powerpc64'
p91
ass(S'description'
S'm68k'
p92
NS'mvme147'
tp93
(dp94
S'hardware'
p95
S'Motorola MVME147'
p96
ss(S'description'
g27
NS'kirkwood'
tp97
(dp98
S'hardware'
p99
S'Marvell Kirkwood'
p100
sS'hardware-long'
p101
S'Marvell Kirkwood based systems (SheevaPlug, QNAP TS-119/TS-219, etc)'
p102
ss(S'description'
S'alpha'
p103
NS'alpha-generic'
tp104
(dp105
S'hardware'
p106
S'Alpha'
p107
sS'hardware-long'
p108
S'DEC Alpha systems with extended kernel start address (Wildfire, Titan, Marvel)'
p109
ss(S'base'
g103
tp110
(dp111
S'kernel-arch'
p112
S'alpha'
p113
sS'featuresets'
p114
(lp115
g35
ass(S'build'
g27
NS'ixp4xx'
tp116
(dp117
S'image-file'
p118
S'arch/arm/boot/zImage'
p119
ss(g34
g15
g35
tp120
(dp121
g38
I01
sg39
(lp122
S'mx5'
p123
aS'omap'
p124
aS'vexpress'
p125
ass(S'description'
g52
NS'mckinley'
tp126
(dp127
S'hardware'
p128
S'Itanium II'
p129
ss(S'base'
S'i386'
p130
S'rt'
p131
tp132
(dp133
S'flavours'
p134
(lp135
S'686-pae'
p136
ass(S'image'
S'sparc64'
p137
NS'sparc64-smp'
tp138
(dp139
S'configs'
p140
(lp141
S'sparc/config.sparc64-smp'
p142
ass(S'abi'
NS'rt'
p143
tp144
(dp145
S'ignore-changes'
p146
(lp147
S'*'
ass(g34
S'powerpc'
p148
g35
tp149
(dp150
g38
I01
sg39
(lp151
S'powerpc'
p152
aS'powerpc-smp'
p153
aS'powerpc64'
p154
ass(S'description'
g148
NS'powerpc'
tp155
(dp156
S'hardware'
p157
S'uniprocessor 32-bit PowerPC'
p158
ss(S'image'
g148
tp159
(dp160
S'suggests'
p161
S'mkvmlinuz'
p162
ss(S'build'
g27
NS'orion5x'
tp163
(dp164
S'image-file'
p165
S'arch/arm/boot/zImage'
p166
ss(S'description'
S'sparc'
p167
NS'sparc32'
tp168
(dp169
S'hardware'
p170
S'uniprocessor sparc32 (sun4m)'
p171
ss(S'description'
g52
NS'itanium'
tp172
(dp173
S'hardware'
p174
S'Itanium'
p175
ss(S'image'
g130
NS'686-pae'
tp176
(dp177
S'configs'
p178
(lp179
S'kernelarch-x86/config-arch-32'
p180
aS'i386/config.686-pae'
p181
asS'recommends'
p182
S'libc6-i686'
p183
ss(S'description'
S'mips'
p184
NS'4kc-malta'
tp185
(dp186
S'hardware'
p187
S'MIPS Malta'
p188
sS'hardware-long'
p189
S'MIPS Malta boards'
p190
ss(S'xen'
g130
NS'amd64'
tp191
(dp192
S'flavours'
p193
(lp194
S'amd64'
p195
ass(S'base'
g130
tp196
(dp197
S'kernel-arch'
p198
S'x86'
p199
sS'featuresets'
p200
(lp201
g35
ag131
ass(S'base'
g60
tp202
(dp203
S'kernel-arch'
p204
S'mips'
p205
sg114
(lp206
g35
ass(S'description'
g103
NS'alpha-legacy'
tp207
(dp208
S'hardware'
p209
S'Alpha Legacy'
p210
sS'hardware-long'
p211
S'DEC Alpha systems with legacy kernel start address'
p212
ss(S'image'
g27
NS'kirkwood'
tp213
(dp214
S'check-size'
p215
S'2097080'
p216
sS'recommends'
p217
S'uboot-mkimage'
p218
ss(g34
g60
g35
tp219
(dp220
g38
I01
sg39
(lp221
S'r5k-cobalt'
p222
aS'sb1-bcm91250a'
p223
aS'sb1a-bcm91480b'
p224
aS'4kc-malta'
p225
aS'5kc-malta'
p226
aS'loongson-2f'
p227
ass(S'image'
g148
NS'powerpc-smp'
tp228
(dp229
S'configs'
p230
(lp231
S'powerpc/config.powerpc'
p232
aS'powerpc/config.powerpc-smp'
p233
ass(S'relations'
tp234
(dp235
S'initramfs-fallback'
p236
S'linux-initramfs-tool'
p237
sS'gcc-4.7'
p238
S'gcc-4.7'
p239
sS'gcc-4.6'
p240
S'gcc-4.6'
p241
sS'initramfs-tools'
p242
S'initramfs-tools (>= 0.99~)'
p243
sS'gcc-4.4'
p244
S'gcc-4.4'
p245
ss(S'description'
g60
NS'r5k-cobalt'
tp246
(dp247
S'hardware'
p248
S'Cobalt'
p249
sS'hardware-long'
p250
S'Cobalt systems (Qube, RaQ, Qube2, RaQ2)'
p251
ss(S'description'
g92
NS'bvme6000'
tp252
(dp253
S'hardware'
p254
S'BVM BVME4000 and BVME6000'
p255
ss(S'base'
S'sh4'
p256
tp257
(dp258
S'kernel-arch'
p259
S'sh'
p260
sg114
(lp261
g35
ass(g34
g256
g35
tp262
(dp263
g38
I01
sg39
(lp264
S'sh7751r'
p265
aS'sh7785lcr'
p266
ass(S'description'
g27
NS'iop32x'
tp267
(dp268
S'hardware'
p269
S'IOP32x'
p270
sS'hardware-long'
p271
S'IOP32x based systems (Thecus N2100, etc)'
p272
ss(S'image'
g60
NS'sb1-bcm91250a'
tp273
(dp274
S'configs'
p275
(lp276
S'mips/config.sb1-bcm91250a'
p277
ass(S'build'
g15
NS'omap'
tp278
(dp279
S'image-file'
p280
S'arch/arm/boot/zImage'
p281
ss(S'image'
S's390x'
p282
NS's390x'
tp283
(dp284
S'configs'
p285
(lp286
S's390/config.s390x'
p287
ass(S'description'
g167
NS'sparc64'
tp288
(dp289
S'hardware'
p290
S'uniprocessor 64-bit UltraSPARC'
p291
ss(S'image'
g27
NS'orion5x'
tp292
(dp293
S'check-size'
p294
S'1572792'
p295
sS'recommends'
p296
S'uboot-mkimage'
p297
ss(S'description'
g130
NS'486'
tp298
(dp299
S'hardware'
p300
S'older PCs'
p301
sS'parts'
p302
(lp303
S'up'
p304
asS'hardware-long'
p305
S'PCs with a single processor not supporting PAE'
p306
ss(S'base'
g167
tp307
(dp308
S'kernel-arch'
p309
S'sparc'
p310
sg114
(lp311
g35
ass(S'description'
Ng143
tp312
(dp313
S'part-long-rt'
p314
S'This kernel includes the PREEMPT_RT realtime patch set.'
p315
sS'parts'
p316
(lp317
S'rt'
p318
asS'part-short-rt'
p319
S'PREEMPT_RT'
p320
ss(g34
S's390'
p321
g35
tp322
(dp323
g38
I01
sg39
(lp324
S's390x'
p325
ass(S'build'
g15
NS'vexpress'
tp326
(dp327
S'image-file'
p328
S'arch/arm/boot/zImage'
p329
ss(g34
g282
g35
tp330
(dp331
g38
I01
sg39
(lp332
S's390x'
p333
ass(S'base'
g184
tp334
(dp335
S'kernel-arch'
p336
S'mips'
p337
sg114
(lp338
g35
ass(S'build'
g5
tp339
(dp340
S'debug-info'
p341
I01
ss(S'description'
g27
NS'mv78xx0'
tp342
(dp343
S'hardware'
p344
S'Marvell 78xx0'
p345
sS'hardware-long'
p346
S'Marvell DB-78xx0-BP Development Board'
p347
ss(S'description'
g130
NS'686-pae'
tp348
(dp349
S'hardware'
p350
S'modern PCs'
p351
sS'parts'
p352
(lp353
S'pae'
p354
aS'xen'
p355
asS'hardware-long'
p356
S'PCs with one or more processors supporting PAE'
p357
ss(S'base'
g5
tp358
(dp359
S'kernel-arch'
p360
S'x86'
p361
sS'featuresets'
p362
(lp363
g35
ag42
ass(S'base'
g52
tp364
(dp365
S'kernel-arch'
p366
S'ia64'
p367
sg114
(lp368
g35
ass(S'base'
g321
tp369
(dp370
S'kernel-arch'
p371
S's390'
p372
sg114
(lp373
g35
ass(g34
g27
g35
tp374
(dp375
g38
I01
sg39
(lp376
S'iop32x'
p377
aS'ixp4xx'
p378
aS'kirkwood'
p379
aS'mv78xx0'
p380
aS'orion5x'
p381
aS'versatile'
p382
ass(S'description'
g137
NS'sparc64'
tp383
(dp384
S'hardware'
p385
S'uniprocessor 64-bit UltraSPARC'
p386
ss(S'description'
g184
NS'5kc-malta'
tp387
(dp388
S'hardware'
p389
S'MIPS Malta (64-bit)'
p390
sS'hardware-long'
p391
S'MIPS Malta boards (64-bit)'
p392
ss(S'description'
g103
NS'alpha-smp'
tp393
(dp394
S'hardware'
p395
S'Alpha SMP'
p396
sS'hardware-long'
p397
S'DEC Alpha SMP systems with extended kernel start address (Wildfire, Titan, Marvel)'
p398
ss(S'image'
g5
NS'amd64'
tp399
(dp400
S'configs'
p401
(lp402
S'kernelarch-x86/config-arch-64'
p403
ass(S'description'
g130
tp404
(dp405
S'part-long-pae'
p406
S'This kernel requires PAE (Physical Address Extension).\nThis feature is supported by the Intel Pentium Pro/II/III/4/4M/D, Xeon,\nCore and Atom; AMD Geode NX, Athlon (K7), Duron, Opteron, Sempron,\nTurion or Phenom; Transmeta Efficeon; VIA C7; and some other processors.'
p407
ss(S'image'
g15
tp408
(dp409
S'suggests'
p410
S'fdutils'
p411
sS'configs'
p412
(lp413
S'armel/config'
p414
aS'armhf/config'
p415
ass(S'description'
g60
NS'5kc-malta'
tp416
(dp417
S'hardware'
p418
S'MIPS Malta (64-bit)'
p419
sS'hardware-long'
p420
S'MIPS Malta boards (64-bit)'
p421
ss(S'image'
g27
tp422
(dp423
S'suggests'
p424
S'fdutils'
p425
ss(S'image'
g321
tp426
(dp427
S'bootloaders'
p428
(lp429
S's390-tools'
p430
ass(S'image'
g22
tp431
(dp432
S'suggests'
p433
S'palo'
p434
ss(S'build'
g256
NS'sh7751r'
tp435
(dp436
S'image-file'
p437
S'arch/sh/boot/zImage'
p438
ss(S'description'
g92
NS'mvme16x'
tp439
(dp440
S'hardware'
p441
S'Motorola MVME162/6/7, MVME172/7'
p442
ss(S'relations'
g22
tp443
(dp444
S'gcc-4.4'
p445
S'gcc-4.4, binutils-hppa64, gcc-4.4-hppa64'
p446
ss(S'description'
g184
NS'octeon'
tp447
(dp448
S'hardware'
p449
S'Octeon'
p450
sS'hardware-long'
p451
S'Cavium Networks Octeon'
p452
ss(S'description'
g184
NS'sb1a-bcm91480b'
tp453
(dp454
S'hardware'
p455
S'BCM91480B'
p456
sS'hardware-long'
p457
S'Broadcom BCM91480B systems (aka BigSur)'
p458
ss(S'description'
g92
NS'amiga'
tp459
(dp460
S'hardware'
p461
S'Amiga'
p462
ss(S'image'
g130
NS'amd64'
tp463
(dp464
S'configs'
p465
(lp466
S'kernelarch-x86/config-arch-64'
p467
asS'recommends'
p468
S'libc6-i686'
p469
ss(g34
g22
g35
tp470
(dp471
g38
I01
sg39
(lp472
S'parisc'
p473
aS'parisc-smp'
p474
aS'parisc64'
p475
aS'parisc64-smp'
p476
ass(S'image'
g103
tp477
(dp478
S'suggests'
p479
S'aboot, fdutils'
p480
ss(S'description'
g5
NS'amd64'
tp481
(dp482
S'hardware'
p483
S'64-bit PCs'
p484
sS'parts'
p485
(lp486
S'xen'
p487
asS'hardware-long'
p488
S'PCs with AMD64, Intel 64 or VIA Nano processors'
p489
ss(S'description'
g60
NS'sb1a-bcm91480b'
tp490
(dp491
S'hardware'
p492
S'BCM91480B'
p493
sS'hardware-long'
p494
S'Broadcom BCM91480B systems (aka BigSur)'
p495
ss(S'base'
g137
tp496
(dp497
S'kernel-arch'
p498
S'sparc'
p499
sg114
(lp500
g35
ass(S'base'
g282
tp501
(dp502
S'kernel-arch'
p503
S's390'
p504
sg114
(lp505
g35
ass(S'description'
g321
NS's390'
tp506
(dp507
S'hardware'
p508
S'IBM S/390'
p509
ss(S'description'
g27
NS'ixp4xx'
tp510
(dp511
S'hardware'
p512
S'IXP4xx'
p513
sS'hardware-long'
p514
S'IXP4xx based systems (Linksys NSLU2, etc)'
p515
ss(S'image'
g87
tp516
(dp517
S'suggests'
p518
S'mkvmlinuz'
p519
sS'configs'
p520
(lp521
S'powerpc/config'
p522
ass(S'image'
g184
tp523
(dp524
S'initramfs'
p525
I00
ss(S'image'
g130
tp526
(dp527
S'configs'
p528
(lp529
sS'bootloaders'
p530
(lp531
S'grub-pc'
p532
aS'extlinux'
p533
aS'lilo'
p534
ass(g34
g167
g35
tp535
(dp536
g38
I01
sg39
(lp537
S'sparc64'
p538
aS'sparc64-smp'
p539
ass(S'description'
g184
NS'r5k-ip32'
tp540
(dp541
S'hardware'
p542
S'SGI IP32'
p543
sS'hardware-long'
p544
S'SGI IP32 systems (O2)'
p545
ss(g34
g103
g35
tp546
(dp547
g38
I01
sg39
(lp548
S'alpha-generic'
p549
aS'alpha-smp'
p550
aS'alpha-legacy'
p551
ass(g34
g52
g35
tp552
(dp553
g38
I01
sg39
(lp554
S'itanium'
p555
aS'mckinley'
p556
ass(S'base'
g87
tp557
(dp558
S'kernel-arch'
p559
S'powerpc'
p560
sg114
(lp561
g35
ass(S'build'
g27
NS'kirkwood'
tp562
(dp563
S'image-file'
p564
S'arch/arm/boot/zImage'
p565
ss(S'build'
g321
NS's390x'
tp566
(dp567
S'debug-info'
p568
I01
ss(S'build'
g15
NS'mx5'
tp569
(dp570
S'image-file'
p571
S'arch/arm/boot/zImage'
p572
ss(g34
g184
g35
tp573
(dp574
g38
I01
sg39
(lp575
S'r4k-ip22'
p576
aS'r5k-ip32'
p577
aS'sb1-bcm91250a'
p578
aS'sb1a-bcm91480b'
p579
aS'4kc-malta'
p580
aS'5kc-malta'
p581
aS'octeon'
p582
ass(S'description'
g15
NS'vexpress'
tp583
(dp584
S'hardware'
p585
S'ARM Ltd. Versatile Express'
p586
sS'hardware-long'
p587
S'ARM Ltd. Versatile Express family of processors'
p588
ss(S'description'
g184
NS'r4k-ip22'
tp589
(dp590
S'hardware'
p591
S'SGI IP22'
p592
sS'hardware-long'
p593
S'SGI IP22 systems (Indy, Indigo2)'
p594
ss(S'description'
g137
NS'sparc64-smp'
tp595
(dp596
S'hardware'
p597
S'multiprocessor 64-bit UltraSPARC'
p598
ss(S'image'
g60
NS'4kc-malta'
tp599
(dp600
S'configs'
p601
(lp602
S'mips/config.4kc-malta'
p603
ass(S'base'
S'x32'
tp604
(dp605
S'kernel-arch'
p606
S'x86'
p607
sS'featuresets'
p608
(lp609
ss(S'description'
g282
NS's390x'
tp610
(dp611
S'hardware'
p612
S'IBM zSeries'
p613
ss(S'image'
g92
tp614
(dp615
S'suggests'
p616
S'vmelilo, fdutils'
p617
sS'initramfs'
p618
I00
ss(S'description'
g130
NS'amd64'
tp619
(dp620
S'hardware'
p621
S'64-bit PCs'
p622
sS'parts'
p623
(lp624
S'xen'
p625
asS'hardware-long'
p626
S'PCs with AMD64, Intel 64 or VIA Nano processors'
p627
ss(S'image'
g15
NS'omap'
tp628
(dp629
S'recommends'
p630
S'uboot-mkimage'
p631
ss(S'xen'
g130
NS'686-pae'
tp632
(dp633
S'flavours'
p634
(lp635
S'i386'
p636
aS'amd64'
p637
ass(S'base'
g15
tp638
(dp639
S'kernel-arch'
p640
S'arm'
p641
sg114
(lp642
g35
ass(S'description'
g27
NS'orion5x'
tp643
(dp644
S'hardware'
p645
S'Marvell Orion'
p646
sS'hardware-long'
p647
S'Marvell Orion 5181, 5182 and 5281 based systems (QNAP TS-109/TS-209, etc)'
p648
ss(S'image'
g256
tp649
(dp650
S'suggests'
p651
S'fdutils'
p652
ss(S'base'
g22
tp653
(dp654
S'kernel-arch'
p655
S'parisc'
p656
sg114
(lp657
g35
asS'compiler'
p658
S'gcc-4.4'
p659
ss(S'description'
g256
NS'sh7751r'
tp660
(dp661
S'hardware'
p662
S'sh7751r'
p663
sS'hardware-long'
p664
S'Renesas SH7751R R2D plus board'
p665
ss(S'image'
g167
tp666
(dp667
S'suggests'
p668
S'silo, fdutils'
p669
ss(S'description'
tp670
(dp671
S'part-long-up'
p672
S'This kernel is not suitable for SMP (multi-processor,\nmulti-core or hyper-threaded) systems.'
p673
sS'part-long-xen'
p674
S'This kernel also runs on a Xen hypervisor.\nIt supports both privileged (dom0) and unprivileged (domU) operation.'
p675
ss(S'description'
g92
NS'mac'
tp676
(dp677
S'hardware'
p678
S'Macintosh'
p679
ss(S'description'
g22
NS'parisc'
tp680
(dp681
S'hardware'
p682
S'32-bit PA-RISC'
p683
ss(S'image'
g87
NS'powerpc64'
tp684
(dp685
S'configs'
p686
(lp687
S'powerpc/config.powerpc64'
p688
ass(S'description'
g148
NS'powerpc-smp'
tp689
(dp690
S'hardware'
p691
S'multiprocessor 32-bit PowerPC'
p692
ss(S'description'
g92
NS'atari'
tp693
(dp694
S'hardware'
p695
S'Atari'
p696
ss(S'description'
g184
NS'sb1-bcm91250a'
tp697
(dp698
S'hardware'
p699
S'BCM91250A'
p700
sS'hardware-long'
p701
S'Broadcom BCM91250A systems (aka SWARM)'
p702
ss(S'build'
g256
NS'sh7785lcr'
tp703
(dp704
S'image-file'
p705
S'arch/sh/boot/zImage'
p706
ss(S'image'
g137
tp707
(dp708
S'suggests'
p709
S'silo, fdutils'
p710
sS'configs'
p711
(lp712
S'sparc/config'
p713
ass(S'image'
g256
NS'sh7785lcr'
tp714
(dp715
S'check-size'
p716
S'4194304'
p717
sS'recommends'
p718
S'uboot-mkimage'
p719
ss(S'description'
g321
NS's390x'
tp720
(dp721
S'hardware'
p722
S'IBM zSeries'
p723
ss(S'base'
g22
NS'parisc64'
tp724
(dp725
S'override-host-type'
p726
S'hppa64-linux-gnu'
p727
sS'cflags'
p728
S'-fno-cse-follow-jumps'
p729
ss(S'base'
g148
tp730
(dp731
S'kernel-arch'
p732
S'powerpc'
p733
sg114
(lp734
g35
ass(S'image'
g167
NS'sparc32'
tp735
(dp736
S'image-postproc'
p737
S'sparc32-image-postproc'
p738
ss(S'image'
g130
NS'486'
tp739
(dp740
S'configs'
p741
(lp742
S'kernelarch-x86/config-arch-32'
p743
aS'i386/config.486'
p744
ass(S'description'
g167
NS'sparc64-smp'
tp745
(dp746
S'hardware'
p747
S'multiprocessor 64-bit UltraSPARC'
p748
ss(S'description'
g148
NS'powerpc64'
tp749
(dp750
S'hardware'
p751
S'64-bit PowerPC'
p752
ss(S'description'
g60
NS'loongson-2f'
tp753
(dp754
S'hardware'
p755
S'Loongson 2F'
p756
sS'hardware-long'
p757
S'Lemote Loongson 2F systems'
p758
ss(S'build'
g27
NS'iop32x'
tp759
(dp760
S'image-file'
p761
S'arch/arm/boot/zImage'
p762
ss(S'description'
g15
NS'mx5'
tp763
(dp764
S'hardware'
p765
S'Freescale i.MX51'
p766
sS'hardware-long'
p767
S'Support for Freescale i.MX51 family of processors'
p768
ss(S'build'
g282
NS's390x'
tp769
(dp770
S'debug-info'
p771
I01
ss(S'base'
g27
tp772
(dp773
S'kernel-arch'
p774
S'arm'
p775
sg114
(lp776
g35
ass(S'build'
g27
NS'mv78xx0'
tp777
(dp778
S'image-file'
p779
S'arch/arm/boot/zImage'
p780
ss(S'abi'
tp781
(dp782
S'abiname'
p783
S'trunk'
p784
ss(S'description'
g87
NS'powerpc64'
tp785
(dp786
S'hardware'
p787
S'64-bit PowerPC'
p788
ss(g34
g92
g35
tp789
(dp790
g38
I01
sg39
(lp791
S'amiga'
p792
aS'atari'
p793
aS'bvme6000'
p794
aS'mac'
p795
aS'mvme147'
p796
aS'mvme16x'
p797
ass(g34
g130
g35
tp798
(dp799
g38
I01
sg39
(lp800
S'486'
p801
aS'686-pae'
p802
aS'amd64'
p803
ass(S'base'
tp804
(dp805
S'arches'
p806
(lp807
S'alpha'
p808
aS'amd64'
p809
aS'armel'
p810
aS'armhf'
p811
aS'hppa'
p812
aS'i386'
p813
aS'ia64'
p814
aS'm68k'
p815
aS'mips'
p816
aS'mipsel'
p817
aS'powerpc'
p818
aS'ppc64'
p819
aS's390'
p820
aS's390x'
p821
aS'sh4'
p822
aS'sparc'
p823
aS'sparc64'
p824
aS'x32'
p825
asS'featuresets'
p826
(lp827
S'none'
p828
aS'rt'
p829
asS'compiler'
p830
S'gcc-4.7'
p831
ss(S'description'
g60
NS'4kc-malta'
tp832
(dp833
S'hardware'
p834
S'MIPS Malta'
p835
sS'hardware-long'
p836
S'MIPS Malta boards'
p837
ss(S'image'
g60
NS'sb1a-bcm91480b'
tp838
(dp839
S'configs'
p840
(lp841
S'mips/config.sb1a-bcm91480b'
p842
ass(S'image'
g60
tp843
(dp844
S'initramfs'
p845
I00
ss(S'image'
g60
NS'loongson-2f'
tp846
(dp847
S'recommends'
p848
S'libc6-loongson2f'
p849
ss(S'base'
NS'rt'
tp850
(dp851
S'enabled'
p852
I00
ss(S'base'
g92
tp853
(dp854
S'kernel-arch'
p855
S'm68k'
p856
sg114
(lp857
g35
asS'cflags'
p858
S'-ffreestanding'
p859
sS'compiler'
p860
S'gcc-4.6'
p861
ss(S'image'
tp862
(dp863
S'initramfs-generators'
p864
(lp865
S'initramfs-tools'
p866
aS'initramfs-fallback'
p867
asS'type'
p868
S'plain'
p869
ss(S'description'
g22
NS'parisc64'
tp870
(dp871
S'hardware'
p872
S'64-bit PA-RISC'
p873
ss(g34
g137
g35
tp874
(dp875
g38
I01
sg39
(lp876
S'sparc64'
p877
aS'sparc64-smp'
p878
ass(S'build'
g130
NS'686-pae'
tp879
(dp880
S'debug-info'
p881
I01
ss(S'image'
g137
NS'sparc64'
tp882
(dp883
S'configs'
p884
(lp885
S'sparc/config.sparc64'
p886
ass(S'xen'
g5
NS'amd64'
tp887
(dp888
S'flavours'
p889
(lp890
S'amd64'
p891
ass(S'image'
g282
tp892
(dp893
S'configs'
p894
(lp895
S's390/config'
p896
asS'bootloaders'
p897
(lp898
S's390-tools'
p899
ass(S'description'
g256
NS'sh7785lcr'
tp900
(dp901
S'hardware'
p902
S'sh7785lcr'
p903
sS'hardware-long'
p904
S'Renesas SH7785 reference board'
p905
ss(S'base'
g22
NS'parisc64-smp'
tp906
(dp907
S'override-host-type'
p908
S'hppa64-linux-gnu'
p909
sS'cflags'
p910
S'-fno-cse-follow-jumps'
p911
sstRp912
.