cdebian_linux.config
ConfigCore
p0
(tRp1
(Vbase
p2
tp3
(dp4
Varches
p5
(lp6
Valpha
p7
aVamd64
p8
aVarm64
p9
aVarmel
p10
aVarmhf
p11
aVhppa
p12
aVi386
p13
aVm68k
p14
aVmips
p15
aVmipsel
p16
aVmipsn32
p17
aVmipsn32el
p18
aVmips64
p19
aVmips64el
p20
aVpowerpc
p21
aVpowerpcspe
p22
aVppc64
p23
aVppc64el
p24
aVs390
p25
aVs390x
p26
aVsh3
p27
aVsh4
p28
aVsparc
p29
aVsparc64
p30
aVtilegx
p31
aVx32
p32
asVfeaturesets
p33
(lp34
Vnone
p35
aVrt
p36
asVcompiler
p37
Vgcc-6
p38
ss(Vbuild
p39
tp40
(dp41
Vsigned-modules
p42
I01
sVdebug-info
p43
I01
ss(Vbase
p44
NVrt
p45
tp46
(dp47
Venabled
p48
I01
ss(Vdescription
p49
tp50
(dp51
Vpart-long-up
p52
VThis kernel is not suitable for SMP (multi-processor,\u000amulti-core or hyper-threaded) systems.
p53
sVpart-long-xen
p54
VThis kernel also runs on a Xen hypervisor.\u000aIt supports both privileged (dom0) and unprivileged (domU) operation.
p55
ss(Vrelations
p56
tp57
(dp58
Vinitramfs-tools
p59
Vinitramfs-tools (>= 0.120+deb8u2)
p60
sVgcc-6
p61
Vgcc-6 <!stage1 !cross>, gcc-6-@gnu-type-package@:native <!stage1 cross>
p62
sVinitramfs-fallback
p63
Vlinux-initramfs-tool
p64
ss(Vimage
p65
tp66
(dp67
Vinitramfs-generators
p68
(lp69
Vinitramfs-tools
p70
aVinitramfs-fallback
p71
ass(Vabi
p72
tp73
(dp74
Vabiname
p75
V2
p76
sVignore-changes
p77
(lp78
V__cpuhp_*
p79
aVmodule:drivers/hv/*
p80
aVmodule:drivers/iio/common/st_sensors/**
p81
aVmodule:drivers/net/wireless/**
p82
aVmodule:drivers/nvdimm/*
p83
aVmodule:drivers/power/supply/bq27xxx_battery
p84
aVmodule:drivers/scsi/qla2xxx/qla2xxx
p85
aVmodule:drivers/scsi/ufs/*
p86
aVmodule:drivers/target/**
p87
aVmodule:drivers/usb/host/**
p88
aVmodule:drivers/usb/musb/**
p89
aVmodule:net/ceph/libceph
p90
aVbtree_*
p91
aVvisitor*
p92
aVcan_rx_register
p93
aVip6_xmit
p94
aVmodule:net/rds/rds
p95
aVdevfreq_*
p96
aVdevm_devfreq_*
p97
aVupdate_devfreq
p98
aVmodule:drivers/infiniband/**
p99
aVacpi_ec_add_query_handler
p100
aVacpi_ec_remove_query_handler
p101
aVfirst_ec
p102
aVdebugfs_create_automount
p103
ass(Vbase
p104
Valpha
p105
tp106
(dp107
Vfeaturesets
p108
(lp109
Vnone
p110
asVkernel-arch
p111
Valpha
p112
ss(Vdescription
p113
g105
NValpha-smp
p114
tp115
(dp116
Vhardware
p117
VAlpha SMP
p118
sVhardware-long
p119
VDEC Alpha SMP systems with extended kernel start address (Wildfire, Titan, Marvel)
p120
ss(Vbuild
p121
g105
tp122
(dp123
Vsigned-modules
p124
I00
sVimage-file
p125
Varch/alpha/boot/vmlinux.gz
p126
ss(Vdescription
p127
g105
NValpha-generic
p128
tp129
(dp130
Vhardware
p131
VAlpha
p132
sVhardware-long
p133
VDEC Alpha systems with extended kernel start address (Wildfire, Titan, Marvel)
p134
ss(Vimage
p135
g105
tp136
(dp137
Vsuggests
p138
Vaboot, fdutils
p139
sVinstall-stem
p140
Vvmlinuz
p141
ss(Vbase
p142
g105
g110
tp143
(dp144
Vflavours
p145
(lp146
Valpha-generic
p147
aValpha-smp
p148
asVimplicit-flavour
p149
I01
ss(Vbase
p150
Vamd64
p151
tp152
(dp153
Vfeaturesets
p154
(lp155
Vnone
p156
aVrt
p157
asVkernel-arch
p158
Vx86
p159
ss(Vdescription
p160
g151
NVamd64
p161
tp162
(dp163
Vhardware
p164
V64-bit PCs
p165
sVhardware-long
p166
VPCs with AMD64, Intel 64 or VIA Nano processors
p167
ss(Vbuild
p168
g151
tp169
(dp170
Vvdso
p171
I01
sVimage-file
p172
Varch/x86/boot/bzImage
p173
sVdebug-info
p174
I01
ss(Vrelations
p175
g151
tp176
(dp177
Vheaders%gcc-6
p178
Vlinux-compiler-gcc-6-x86
p179
ss(Vimage
p180
g151
tp181
(dp182
Vbreaks
p183
Vxserver-xorg-input-vmmouse (<< 1:13.0.99)
p184
sVinstall-stem
p185
Vvmlinuz
p186
sVbootloaders
p187
(lp188
Vgrub-pc
p189
aVgrub-efi-amd64
p190
aVextlinux
p191
ass(Vbase
p192
g151
Vnone
p193
tp194
(dp195
Vflavours
p196
(lp197
Vamd64
p198
ass(Vdescription
p199
g151
g193
Vamd64
p200
tp201
(dp202
Vparts
p203
(lp204
Vxen
p205
ass(Vbase
p206
g151
Vrt
p207
tp208
(dp209
Vflavours
p210
(lp211
Vamd64
p212
ass(Vbase
p213
Varm64
p214
tp215
(dp216
Vfeaturesets
p217
(lp218
Vnone
p219
asVkernel-arch
p220
Varm64
p221
ss(Vdescription
p222
g214
NVarm64
p223
tp224
(dp225
Vhardware
p226
V64-bit ARMv8 machines
p227
ss(Vbuild
p228
g214
tp229
(dp230
Vvdso
p231
I01
sVimage-file
p232
Varch/arm64/boot/Image
p233
sVdebug-info
p234
I01
ss(Vimage
p235
g214
NVarm64
p236
tp237
(dp238
s(Vimage
p239
g214
tp240
(dp241
Vbreaks
p242
Vlibmozjs185-1.0, libmozjs-24-0 (<< 24.2.0-5.1~)
p243
sVinstall-stem
p244
Vvmlinuz
p245
ss(Vbase
p246
g214
Vnone
p247
tp248
(dp249
Vflavours
p250
(lp251
Varm64
p252
ass(Vbase
p253
Varmel
p254
tp255
(dp256
g108
(lp257
g110
asVkernel-arch
p258
Varm
p259
ss(Vbuild
p260
g254
tp261
(dp262
Vsigned-modules
p263
I00
sVimage-file
p264
Varch/arm/boot/zImage
p265
ss(Vimage
p266
g254
NVmarvell
p267
tp268
(dp269
Vrecommends
p270
Vu-boot-tools
p271
sVbreaks
p272
Vflash-kernel (<< 3.57~)
p273
sVcheck-size-with-dtb
p274
I01
sVcheck-size
p275
L2097080L
ss(Vdescription
p276
g254
NVmarvell
p277
tp278
(dp279
Vhardware
p280
VMarvell Kirkwood/Orion
p281
sVhardware-long
p282
VMarvell Kirkwood based systems (SheevaPlug, QNAP TS-119/TS-219, etc)\u000aand Orion 5181, 5182 and 5281 based systems (QNAP TS-109/TS-209, etc)
p283
ss(Vrelations
p284
g254
tp285
(dp286
Vheaders%gcc-6
p287
Vlinux-compiler-gcc-6-arm
p288
ss(Vimage
p289
g254
tp290
(dp291
Vinstall-stem
p292
Vvmlinuz
p293
ss(g142
g254
g110
tp294
(dp295
g145
(lp296
Vmarvell
p297
asg149
I01
ss(Vbase
p298
Varmhf
p299
tp300
(dp301
g108
(lp302
g110
asVkernel-arch
p303
Varm
p304
ss(Vdescription
p305
g299
NVarmmp
p306
tp307
(dp308
Vhardware
p309
VARMv7 multiplatform compatible SoCs
p310
sVhardware-long
p311
VARMv7 multiplatform kernel. See\u000ahttps://wiki.debian.org/DebianKernel/ARMMP for details of supported\u000aplatforms
p312
ss(Vbuild
p313
g299
tp314
(dp315
Vvdso
p316
I01
sVimage-file
p317
Varch/arm/boot/zImage
p318
ss(Vdescription
p319
g299
NVarmmp-lpae
p320
tp321
(dp322
Vhardware
p323
VARMv7 multiplatform compatible SoCs supporting LPAE
p324
sVhardware-long
p325
VARMv7 multiplatform kernel supporting LPAE. See\u000ahttps://wiki.debian.org/DebianKernel/ARMMP for details of supported\u000aplatforms.
p326
ss(Vrelations
p327
g299
tp328
(dp329
Vheaders%gcc-6
p330
Vlinux-compiler-gcc-6-arm
p331
ss(Vimage
p332
g299
tp333
(dp334
Vinstall-stem
p335
Vvmlinuz
p336
ss(g142
g299
g110
tp337
(dp338
g145
(lp339
Varmmp
p340
aVarmmp-lpae
p341
asg149
I01
ss(Vbase
p342
Vhppa
p343
tp344
(dp345
g108
(lp346
g110
asVkernel-arch
p347
Vparisc
p348
ss(Vbuild
p349
g343
tp350
(dp351
Vsigned-modules
p352
I00
sVimage-file
p353
Vvmlinux
p354
ss(Vdescription
p355
g343
NVparisc64-smp
p356
tp357
(dp358
Vhardware
p359
Vmultiprocessor 64-bit PA-RISC
p360
sVhardware-long
p361
VHP PA-RISC 64-bit SMP systems with support for more than 4 GB RAM
p362
ss(Vbase
p363
g343
NVparisc64-smp
p364
tp365
(dp366
Vcflags
p367
V-fno-cse-follow-jumps
p368
sVoverride-host-type
p369
Vhppa64-linux-gnu
p370
ss(Vrelations
p371
g343
tp372
(dp373
Vgcc-6
p374
Vgcc-6 <!stage1 !cross>, binutils-hppa64-linux-gnu <!stage1 !cross>, gcc-6-hppa64-linux-gnu <!stage1 !cross>, gcc-6-hppa-linux-gnu:native <!stage1 cross>, binutils-hppa64-linux-gnu:native <!stage1 cross>, gcc-6-hppa64-linux-gnu:native <!stage1 cross>
p375
ss(Vdescription
p376
g343
NVparisc
p377
tp378
(dp379
Vhardware
p380
V32-bit PA-RISC
p381
sVhardware-long
p382
VHP PA-RISC 32-bit systems with max 4 GB RAM
p383
ss(Vimage
p384
g343
tp385
(dp386
Vsuggests
p387
Vpalo
p388
sVinstall-stem
p389
Vvmlinux
p390
ss(g142
g343
g110
tp391
(dp392
g145
(lp393
Vparisc
p394
aVparisc64-smp
p395
asg149
I01
ss(Vbase
p396
Vi386
p397
tp398
(dp399
Vfeaturesets
p400
(lp401
Vnone
p402
aVrt
p403
asVkernel-arch
p404
Vx86
p405
ss(Vbuild
p406
g397
tp407
(dp408
Vvdso
p409
I01
sVimage-file
p410
Varch/x86/boot/bzImage
p411
ss(Vdescription
p412
g397
NV686-pae
p413
tp414
(dp415
Vhardware
p416
Vmodern PCs
p417
sVhardware-long
p418
VPCs with one or more processors supporting PAE
p419
sVparts
p420
(lp421
Vpae
p422
ass(Vdescription
p423
g397
tp424
(dp425
Vpart-long-pae
p426
VThis kernel requires PAE (Physical Address Extension).\u000aThis feature is supported by the Intel Pentium Pro/II/III/4/4M/D, Xeon,\u000aCore and Atom; AMD Geode NX, Athlon (K7), Duron, Opteron, Sempron,\u000aTurion or Phenom; Transmeta Efficeon; VIA C7; and some other processors.
p427
ss(Vbuild
p428
g397
NV686-pae
p429
tp430
(dp431
Vdebug-info
p432
I01
ss(Vdescription
p433
g397
NV686
p434
tp435
(dp436
Vhardware
p437
Volder PCs
p438
sVhardware-long
p439
VPCs with one or more processors not supporting PAE
p440
ss(Vrelations
p441
g397
tp442
(dp443
Vheaders%gcc-6
p444
Vlinux-compiler-gcc-6-x86
p445
ss(Vimage
p446
g397
tp447
(dp448
Vbreaks
p449
Vxserver-xorg-input-vmmouse (<< 1:13.0.99)
p450
sVinstall-stem
p451
Vvmlinuz
p452
sVbootloaders
p453
(lp454
Vgrub-pc
p455
aVextlinux
p456
ass(Vbase
p457
g397
Vnone
p458
tp459
(dp460
Vflavours
p461
(lp462
V686
p463
aV686-pae
p464
ass(Vdescription
p465
g397
g458
V686-pae
p466
tp467
(dp468
Vparts
p469
(lp470
Vxen
p471
ass(Vbase
p472
g397
Vrt
p473
tp474
(dp475
Vflavours
p476
(lp477
V686-pae
p478
ass(Vbase
p479
Vm68k
p480
tp481
(dp482
Vcflags
p483
V-ffreestanding
p484
sg108
(lp485
g110
asVkernel-arch
p486
Vm68k
p487
ss(Vbuild
p488
g480
tp489
(dp490
Vsigned-modules
p491
I00
sVimage-file
p492
Vvmlinux.gz
p493
ss(Vdescription
p494
g480
NVm68k
p495
tp496
(dp497
Vhardware
p498
VMotorola MC68020+ family
p499
ss(Vimage
p500
g480
tp501
(dp502
Vsuggests
p503
Vvmelilo, fdutils
p504
sVinstall-stem
p505
Vvmlinuz
p506
ss(g142
g480
g110
tp507
(dp508
g145
(lp509
Vm68k
p510
asg149
I01
ss(Vbase
p511
Vmips
p512
tp513
(dp514
g108
(lp515
g110
asVkernel-arch
p516
Vmips
p517
ss(Vbuild
p518
g512
tp519
(dp520
Vsigned-modules
p521
I00
sVimage-file
p522
Vvmlinux
p523
ss(Vimage
p524
g512
NV4kc-malta
p525
tp526
(dp527
Vconfigs
p528
(lp529
Vkernelarch-mips/config.malta
p530
aVkernelarch-mips/config.mips32r2
p531
ass(Vimage
p532
g512
NV5kc-malta
p533
tp534
(dp535
Vconfigs
p536
(lp537
Vkernelarch-mips/config.malta
p538
aVkernelarch-mips/config.mips64r2
p539
ass(Vdescription
p540
g512
NVocteon
p541
tp542
(dp543
Vhardware
p544
VOcteon
p545
sVhardware-long
p546
VCavium Networks Octeon
p547
ss(Vimage
p548
g512
NVocteon
p549
tp550
(dp551
Vconfigs
p552
(lp553
Vkernelarch-mips/config.octeon
p554
ass(Vimage
p555
g512
tp556
(dp557
Vinstall-stem
p558
Vvmlinux
p559
ss(Vdescription
p560
g512
NV5kc-malta
p561
tp562
(dp563
Vhardware
p564
VMIPS Malta (64-bit)
p565
sVhardware-long
p566
VMIPS Malta boards (64-bit)
p567
ss(Vdescription
p568
g512
NV4kc-malta
p569
tp570
(dp571
Vhardware
p572
VMIPS Malta
p573
sVhardware-long
p574
VMIPS Malta boards
p575
ss(g142
g512
g110
tp576
(dp577
g145
(lp578
V4kc-malta
p579
aV5kc-malta
p580
aVocteon
p581
asg149
I01
ss(Vbase
p582
Vmipsel
p583
tp584
(dp585
g108
(lp586
g110
asVkernel-arch
p587
Vmips
p588
ss(Vimage
p589
g583
NVloongson-3
p590
tp591
(dp592
Vconfigs
p593
(lp594
Vkernelarch-mips/config.loongson-3
p595
ass(Vbuild
p596
g583
tp597
(dp598
Vsigned-modules
p599
I00
sVimage-file
p600
Vvmlinux
p601
ss(Vimage
p602
g583
NV4kc-malta
p603
tp604
(dp605
Vconfigs
p606
(lp607
Vkernelarch-mips/config.malta
p608
aVkernelarch-mips/config.mips32r2
p609
ass(Vimage
p610
g583
NV5kc-malta
p611
tp612
(dp613
Vconfigs
p614
(lp615
Vkernelarch-mips/config.malta
p616
aVkernelarch-mips/config.mips64r2
p617
ass(Vdescription
p618
g583
NVocteon
p619
tp620
(dp621
Vhardware
p622
VOcteon
p623
sVhardware-long
p624
VCavium Networks Octeon
p625
ss(Vdescription
p626
g583
NVloongson-3
p627
tp628
(dp629
Vhardware
p630
VLoongson 3A/3B
p631
sVhardware-long
p632
VLoongson 3A or 3B based systems (e.g. from Loongson or Lemote)
p633
ss(Vimage
p634
g583
NVocteon
p635
tp636
(dp637
Vconfigs
p638
(lp639
Vkernelarch-mips/config.octeon
p640
ass(Vimage
p641
g583
tp642
(dp643
Vinstall-stem
p644
Vvmlinux
p645
ss(Vdescription
p646
g583
NV5kc-malta
p647
tp648
(dp649
Vhardware
p650
VMIPS Malta (64-bit)
p651
sVhardware-long
p652
VMIPS Malta boards (64-bit)
p653
ss(Vdescription
p654
g583
NV4kc-malta
p655
tp656
(dp657
Vhardware
p658
VMIPS Malta
p659
sVhardware-long
p660
VMIPS Malta boards
p661
ss(g142
g583
g110
tp662
(dp663
g145
(lp664
V4kc-malta
p665
aV5kc-malta
p666
aVloongson-3
p667
aVocteon
p668
asg149
I01
ss(Vbase
p669
Vmipsn32
p670
tp671
(dp672
Vfeaturesets
p673
(lp674
sVkernel-arch
p675
Vmips
p676
ss(Vbase
p677
Vmipsn32el
p678
tp679
(dp680
Vfeaturesets
p681
(lp682
sVkernel-arch
p683
Vmips
p684
ss(Vbase
p685
Vmips64
p686
tp687
(dp688
g108
(lp689
g110
asVkernel-arch
p690
Vmips
p691
ss(Vbuild
p692
g686
tp693
(dp694
Vsigned-modules
p695
I00
sVimage-file
p696
Vvmlinux
p697
ss(Vimage
p698
g686
NV5kc-malta
p699
tp700
(dp701
Vconfigs
p702
(lp703
Vkernelarch-mips/config.malta
p704
aVkernelarch-mips/config.mips64r2
p705
ass(Vdescription
p706
g686
NVocteon
p707
tp708
(dp709
Vhardware
p710
VOcteon
p711
sVhardware-long
p712
VCavium Networks Octeon
p713
ss(Vimage
p714
g686
tp715
(dp716
Vinstall-stem
p717
Vvmlinux
p718
ss(Vdescription
p719
g686
NV5kc-malta
p720
tp721
(dp722
Vhardware
p723
VMIPS Malta
p724
sVhardware-long
p725
VMIPS Malta boards
p726
ss(Vimage
p727
g686
NVocteon
p728
tp729
(dp730
Vconfigs
p731
(lp732
Vkernelarch-mips/config.octeon
p733
ass(g142
g686
g110
tp734
(dp735
g145
(lp736
V5kc-malta
p737
aVocteon
p738
asg149
I01
ss(Vbase
p739
Vmips64el
p740
tp741
(dp742
g108
(lp743
g110
asVkernel-arch
p744
Vmips
p745
ss(Vimage
p746
g740
NVloongson-3
p747
tp748
(dp749
Vconfigs
p750
(lp751
Vkernelarch-mips/config.loongson-3
p752
ass(Vbuild
p753
g740
tp754
(dp755
Vsigned-modules
p756
I00
sVimage-file
p757
Vvmlinux
p758
ss(Vimage
p759
g740
NV5kc-malta
p760
tp761
(dp762
Vconfigs
p763
(lp764
Vkernelarch-mips/config.malta
p765
aVkernelarch-mips/config.mips64r2
p766
ass(Vdescription
p767
g740
NVocteon
p768
tp769
(dp770
Vhardware
p771
VOcteon
p772
sVhardware-long
p773
VCavium Networks Octeon
p774
ss(Vdescription
p775
g740
NVloongson-3
p776
tp777
(dp778
Vhardware
p779
VLoongson 3A/3B
p780
sVhardware-long
p781
VLoongson 3A or 3B based systems (e.g. from Loongson or Lemote)
p782
ss(Vimage
p783
g740
tp784
(dp785
Vinstall-stem
p786
Vvmlinux
p787
ss(Vdescription
p788
g740
NV5kc-malta
p789
tp790
(dp791
Vhardware
p792
VMIPS Malta
p793
sVhardware-long
p794
VMIPS Malta boards
p795
ss(Vimage
p796
g740
NVocteon
p797
tp798
(dp799
Vconfigs
p800
(lp801
Vkernelarch-mips/config.octeon
p802
ass(g142
g740
g110
tp803
(dp804
g145
(lp805
V5kc-malta
p806
aVloongson-3
p807
aVocteon
p808
asg149
I01
ss(Vbase
p809
Vpowerpc
p810
tp811
(dp812
g108
(lp813
g110
asVkernel-arch
p814
Vpowerpc
p815
ss(Vdescription
p816
g810
NVpowerpc64
p817
tp818
(dp819
Vhardware
p820
V64-bit PowerPC
p821
ss(Vbuild
p822
g810
tp823
(dp824
Vvdso
p825
I01
sVimage-file
p826
Vvmlinux
p827
ss(Vimage
p828
g810
NVpowerpc-smp
p829
tp830
(dp831
Vconfigs
p832
(lp833
Vpowerpc/config.powerpc
p834
aVpowerpc/config.powerpc-smp
p835
ass(Vdescription
p836
g810
NVpowerpc
p837
tp838
(dp839
Vhardware
p840
Vuniprocessor 32-bit PowerPC
p841
ss(Vimage
p842
g810
NVpowerpc64
p843
tp844
(dp845
Vconfigs
p846
(lp847
Vkernelarch-powerpc/config-arch-64
p848
aVkernelarch-powerpc/config-arch-64-be
p849
ass(Vdescription
p850
g810
NVpowerpc-smp
p851
tp852
(dp853
Vhardware
p854
Vmultiprocessor 32-bit PowerPC
p855
ss(Vimage
p856
g810
tp857
(dp858
Vsuggests
p859
Vmkvmlinuz
p860
sVinstall-stem
p861
Vvmlinux
p862
sVconfigs
p863
(lp864
ss(g142
g810
g110
tp865
(dp866
g145
(lp867
Vpowerpc
p868
aVpowerpc-smp
p869
aVpowerpc64
p870
asg149
I01
ss(Vbase
p871
Vpowerpcspe
p872
tp873
(dp874
g108
(lp875
g110
asVkernel-arch
p876
Vpowerpc
p877
ss(Vbuild
p878
g872
tp879
(dp880
Vsigned-modules
p881
I00
sVimage-file
p882
Vvmlinux
p883
sVvdso
p884
I01
ss(Vimage
p885
g872
tp886
(dp887
Vsuggests
p888
Vmkvmlinuz
p889
sVinstall-stem
p890
Vvmlinux
p891
ss(Vdescription
p892
g872
tp893
(dp894
Vhardware
p895
V32-bit PowerPC with SPE (instead of AltiVec) with SMP support
p896
ss(g142
g872
g110
tp897
(dp898
g145
(lp899
Vpowerpcspe
p900
asg149
I01
ss(Vbase
p901
Vppc64
p902
tp903
(dp904
g108
(lp905
g110
asVkernel-arch
p906
Vpowerpc
p907
ss(Vdescription
p908
g902
NVpowerpc64
p909
tp910
(dp911
Vhardware
p912
V64-bit PowerPC
p913
ss(Vbuild
p914
g902
tp915
(dp916
Vsigned-modules
p917
I00
sVimage-file
p918
Vvmlinux
p919
sVvdso
p920
I01
ss(Vimage
p921
g902
NVpowerpc64
p922
tp923
(dp924
Vconfigs
p925
(lp926
Vkernelarch-powerpc/config-arch-64
p927
aVkernelarch-powerpc/config-arch-64-be
p928
ass(Vimage
p929
g902
tp930
(dp931
Vsuggests
p932
Vmkvmlinuz
p933
sVinstall-stem
p934
Vvmlinux
p935
sVconfigs
p936
(lp937
ss(g142
g902
g110
tp938
(dp939
g145
(lp940
Vpowerpc64
p941
asg149
I01
ss(Vbase
p942
Vppc64el
p943
tp944
(dp945
g108
(lp946
g110
asVkernel-arch
p947
Vpowerpc
p948
ss(Vdescription
p949
g943
NVpowerpc64le
p950
tp951
(dp952
Vhardware
p953
VLittle-endian 64-bit PowerPC
p954
ss(Vbuild
p955
g943
tp956
(dp957
Vvdso
p958
I01
sVimage-file
p959
Vvmlinux
p960
ss(Vimage
p961
g943
tp962
(dp963
Vsuggests
p964
Vmkvmlinuz
p965
sVinstall-stem
p966
Vvmlinux
p967
sVconfigs
p968
(lp969
ss(Vimage
p970
g943
NVpowerpc64le
p971
tp972
(dp973
Vconfigs
p974
(lp975
Vkernelarch-powerpc/config-arch-64
p976
aVkernelarch-powerpc/config-arch-64-le
p977
ass(g142
g943
g110
tp978
(dp979
g145
(lp980
Vpowerpc64le
p981
asg149
I01
ss(Vbase
p982
Vs390
p983
tp984
(dp985
Vfeaturesets
p986
(lp987
sVkernel-arch
p988
Vs390
p989
ss(Vbase
p990
Vs390x
p991
tp992
(dp993
g108
(lp994
g110
asVkernel-arch
p995
Vs390
p996
ss(Vdescription
p997
g991
NVs390x
p998
tp999
(dp1000
Vhardware
p1001
VIBM zSeries
p1002
ss(Vbuild
p1003
g991
tp1004
(dp1005
Vvdso
p1006
I01
sVimage-file
p1007
Varch/s390/boot/image
p1008
ss(Vbuild
p1009
g991
NVs390x
p1010
tp1011
(dp1012
Vdebug-info
p1013
I01
ss(Vrelations
p1014
g991
tp1015
(dp1016
Vheaders%gcc-6
p1017
Vlinux-compiler-gcc-6-s390
p1018
ss(Vimage
p1019
g991
tp1020
(dp1021
Vinstall-stem
p1022
Vvmlinuz
p1023
sVbootloaders
p1024
(lp1025
Vs390-tools
p1026
ass(g142
g991
g110
tp1027
(dp1028
g145
(lp1029
Vs390x
p1030
asg149
I01
ss(Vbase
p1031
Vsh3
p1032
tp1033
(dp1034
Vfeaturesets
p1035
(lp1036
sVkernel-arch
p1037
Vsh
p1038
ss(Vbase
p1039
Vsh4
p1040
tp1041
(dp1042
g108
(lp1043
g110
asVkernel-arch
p1044
Vsh
p1045
ss(Vbuild
p1046
g1040
tp1047
(dp1048
Vsigned-modules
p1049
I00
sVimage-file
p1050
Varch/sh/boot/zImage
p1051
ss(Vdescription
p1052
g1040
NVsh7751r
p1053
tp1054
(dp1055
Vhardware
p1056
Vsh7751r
p1057
sVhardware-long
p1058
VRenesas SH7751R R2D plus board
p1059
ss(Vdescription
p1060
g1040
NVsh7785lcr
p1061
tp1062
(dp1063
Vhardware
p1064
Vsh7785lcr
p1065
sVhardware-long
p1066
VRenesas SH7785 reference board
p1067
ss(Vimage
p1068
g1040
tp1069
(dp1070
Vinstall-stem
p1071
Vvmlinuz
p1072
ss(Vimage
p1073
g1040
NVsh7785lcr
p1074
tp1075
(dp1076
Vrecommends
p1077
Vu-boot-tools
p1078
sVcheck-size
p1079
L4194304L
ss(g142
g1040
g110
tp1080
(dp1081
g145
(lp1082
Vsh7751r
p1083
aVsh7785lcr
p1084
asg149
I01
ss(Vbase
p1085
Vsparc
p1086
tp1087
(dp1088
Vfeaturesets
p1089
(lp1090
sVkernel-arch
p1091
Vsparc
p1092
ss(Vbase
p1093
Vsparc64
p1094
tp1095
(dp1096
g108
(lp1097
g110
asVkernel-arch
p1098
Vsparc
p1099
ss(Vbuild
p1100
g1094
tp1101
(dp1102
Vsigned-modules
p1103
I00
sVimage-file
p1104
Varch/sparc/boot/zImage
p1105
ss(Vimage
p1106
g1094
NVsparc64
p1107
tp1108
(dp1109
Vconfigs
p1110
(lp1111
Vkernelarch-sparc/config-up
p1112
ass(Vimage
p1113
g1094
NVsparc64-smp
p1114
tp1115
(dp1116
Vconfigs
p1117
(lp1118
Vkernelarch-sparc/config-smp
p1119
ass(Vimage
p1120
g1094
tp1121
(dp1122
Vsuggests
p1123
Vsilo, fdutils
p1124
sVinstall-stem
p1125
Vvmlinuz
p1126
sVconfigs
p1127
(lp1128
ss(Vdescription
p1129
g1094
NVsparc64-smp
p1130
tp1131
(dp1132
Vhardware
p1133
Vmultiprocessor 64-bit UltraSPARC
p1134
ss(Vdescription
p1135
g1094
NVsparc64
p1136
tp1137
(dp1138
Vhardware
p1139
Vuniprocessor 64-bit UltraSPARC
p1140
ss(g142
g1094
g110
tp1141
(dp1142
g145
(lp1143
Vsparc64
p1144
aVsparc64-smp
p1145
asg149
I01
ss(Vbase
p1146
Vtilegx
p1147
tp1148
(dp1149
Vfeaturesets
p1150
(lp1151
sVkernel-arch
p1152
Vtile
p1153
ss(Vbase
p1154
Vx32
p1155
tp1156
(dp1157
Vfeaturesets
p1158
(lp1159
sVkernel-arch
p1160
Vx86
p1161
ss(Vdescription
p1162
NVrt
p1163
tp1164
(dp1165
Vparts
p1166
(lp1167
Vrt
p1168
asVpart-long-rt
p1169
VThis kernel includes the PREEMPT_RT realtime patch set.
p1170
sVpart-short-rt
p1171
VPREEMPT_RT
p1172
ss(Vabi
p1173
Ng1163
tp1174
(dp1175
Vignore-changes
p1176
(lp1177
V*
p1178
ass(Vversion
p1179
tp1180
(dp1181
Vupstream
p1182
V4.9
p1183
sVsource
p1184
V4.9.16-1
p1185
sVabiname
p1186
V4.9.0-2
p1187
sVabiname_base
p1188
V4.9.0
p1189
ss.