cdebian_linux.config
ConfigCore
p0
(tRp1
(Vabi
p2
tp3
(dp4
Vabiname
p5
Vkali2
p6
sVignore-changes
p7
(lp8
V__cpuhp_*
p9
aV__xive_vm_h_*
p10
aVbpf_analyzer
p11
aVcxl_*
p12
aVdax_flush
p13
aVieee80211_nullfunc_get
p14
aVinet_add_protocol
p15
aVinet_del_protocol
p16
aViommu_device_*
p17
aVkvm_async_pf_task_wait
p18
aVkvmppc_*
p19
aVmm_iommu_*
p20
aVmv_mbus_*
p21
aVperf_*
p22
aVregister_cxl_calls
p23
aVregister_key_type
p24
aVunregister_cxl_calls
p25
aV*_hw_breakpoint
p26
aVmodule:arch/x86/kvm/*
p27
aVmodule:drivers/crypto/ccp/*
p28
aVmodule:drivers/hv/*
p29
aVmodule:drivers/gpu/drm/sun4i/*
p30
aVmodule:drivers/iio/**
p31
aVmodule:drivers/misc/cxl/*
p32
aVmodule:drivers/mtd/nand/*
p33
aVmodule:drivers/net/ethernet/**
p34
aVmodule:drivers/net/wireless/**
p35
aVmodule:drivers/nvdimm/*
p36
aVmodule:drivers/power/supply/bq27xxx_battery
p37
aVmodule:drivers/scsi/cxgbi/*
p38
aVmodule:drivers/scsi/libiscs*
p39
aVmodule:drivers/scsi/qla2xxx/qla2xxx
p40
aVmodule:drivers/scsi/ufs/*
p41
aVmodule:drivers/target/**
p42
aVmodule:drivers/usb/chipidea/**
p43
aVmodule:drivers/usb/gadget/**
p44
aVmodule:drivers/usb/host/**
p45
aVmodule:drivers/usb/musb/**
p46
aVmodule:fs/nfs/**
p47
aVmodule:net/ceph/libceph
p48
aVmodule:net/l2tp/**
p49
aVmodule:net/rxrpc/rxrpc
p50
aVmodule:net/sctp/**
p51
aVmodule:sound/core/seq/**
p52
aVmodule:sound/firewire/snd-firewire-lib
p53
aVmodule:sound/pci/hda/*
p54
aVbtree_*
p55
aVvisitor*
p56
aVcan_rx_register
p57
aVip6_xmit
p58
aVmodule:net/dccp/dccp
p59
aVmodule:net/rds/rds
p60
aVdevfreq_*
p61
aVdevm_devfreq_*
p62
aVupdate_devfreq
p63
aVmodule:drivers/infiniband/**
p64
aVacpi_ec_add_query_handler
p65
aVacpi_ec_remove_query_handler
p66
aVfirst_ec
p67
aVdebugfs_create_automount
p68
aVmodule:drivers/iio/imu/inv_mpu6050/*
p69
aVdrm_crtc_accurate_vblank_count
p70
aVacpi_nfit_desc_init
p71
aVacpi_nfit_init
p72
aVloop_register_transfer
p73
aVxen_xlate_*
p74
aVnf_nat_masquerade_ipv4_register_notifier
p75
aVnf_nat_masquerade_ipv6_register_notifier
p76
aVmodule:drivers/scsi/hisi_sas/*
p77
ass(Vbase
p78
tp79
(dp80
Varches
p81
(lp82
Valpha
p83
aVamd64
p84
aVarm64
p85
aVarm64ilp32
p86
aVarmel
p87
aVarmhf
p88
aVhppa
p89
aVi386
p90
aVia64
p91
aVm68k
p92
aVmips
p93
aVmips64
p94
aVmips64el
p95
aVmips64r6
p96
aVmips64r6el
p97
aVmipsel
p98
aVmipsn32
p99
aVmipsn32el
p100
aVmipsn32r6
p101
aVmipsn32r6el
p102
aVmipsr6
p103
aVmipsr6el
p104
aVpowerpc
p105
aVpowerpcspe
p106
aVppc64
p107
aVppc64el
p108
aVriscv64
p109
aVs390
p110
aVs390x
p111
aVsh3
p112
aVsh4
p113
aVsparc
p114
aVsparc64
p115
aVx32
p116
asVcompiler
p117
Vgcc-8
p118
sVfeaturesets
p119
(lp120
Vnone
p121
aVrt
p122
ass(Vbuild
p123
tp124
(dp125
Vdebug-info
p126
I01
sVsigned-code
p127
I00
ss(Vbase
p128
NVrt
p129
tp130
(dp131
Venabled
p132
I01
ss(Vdescription
p133
tp134
(dp135
Vpart-long-up
p136
VThis kernel is not suitable for SMP (multi-processor,\u000amulti-core or hyper-threaded) systems.
p137
ss(Vimage
p138
tp139
(dp140
Vinitramfs-generators
p141
(lp142
Vinitramfs-tools
p143
aVinitramfs-fallback
p144
asVrecommends
p145
(lp146
Vapparmor
p147
ass(Vrelations
p148
tp149
(dp150
Vgcc-8
p151
Vgcc-8 <!stage1 !cross !pkg.linux.nokernel>, gcc-8-@gnu-type-package@ <!stage1 cross !pkg.linux.nokernel>
p152
sVinitramfs-fallback
p153
Vlinux-initramfs-tool
p154
sVinitramfs-tools
p155
Vinitramfs-tools (>= 0.120+deb8u2)
p156
ss(Vbase
p157
Valpha
p158
tp159
(dp160
Vkernel-arch
p161
Valpha
p162
sVfeaturesets
p163
(lp164
Vnone
p165
ass(Vbuild
p166
g158
tp167
(dp168
Vimage-file
p169
Varch/alpha/boot/vmlinux.gz
p170
ss(Vimage
p171
g158
tp172
(dp173
Vsuggests
p174
(lp175
Vaboot
p176
aVfdutils
p177
asVinstall-stem
p178
Vvmlinuz
p179
ss(Vdescription
p180
g158
NValpha-generic
p181
tp182
(dp183
Vhardware
p184
VAlpha
p185
sVhardware-long
p186
VDEC Alpha systems with extended kernel start address (Wildfire, Titan, Marvel)
p187
ss(Vdescription
p188
g158
NValpha-smp
p189
tp190
(dp191
Vhardware
p192
VAlpha SMP
p193
sVhardware-long
p194
VDEC Alpha SMP systems with extended kernel start address (Wildfire, Titan, Marvel)
p195
ss(Vbase
p196
g158
g165
tp197
(dp198
Vflavours
p199
(lp200
Valpha-generic
p201
aValpha-smp
p202
asVimplicit-flavour
p203
I01
ss(Vbase
p204
Vamd64
p205
tp206
(dp207
Vfeaturesets
p208
(lp209
Vnone
p210
aVrt
p211
asVkernel-arch
p212
Vx86
p213
ss(Vbuild
p214
g205
tp215
(dp216
Vdebug-info
p217
I01
sVimage-file
p218
Varch/x86/boot/bzImage
p219
sVsigned-code
p220
I00
sVvdso
p221
I01
ss(Vimage
p222
g205
tp223
(dp224
Vbootloaders
p225
(lp226
Vgrub-pc
p227
aVgrub-efi-amd64
p228
aVextlinux
p229
asVinstall-stem
p230
Vvmlinuz
p231
sVbreaks
p232
(lp233
Vxserver-xorg-input-vmmouse (<< 1:13.0.99)
p234
ass(Vrelations
p235
g205
tp236
(dp237
Vgcc-8
p238
Vgcc-8 (>= 8-20180123-1~) <!stage1 !cross !pkg.linux.nokernel>, gcc-8-x86-64-linux-gnu (>= 8-20180123-1~) <!stage1 cross !pkg.linux.nokernel>
p239
sVheaders%gcc-8
p240
Vlinux-compiler-gcc-8-x86
p241
ss(Vdescription
p242
g205
NVamd64
p243
tp244
(dp245
Vhardware
p246
V64-bit PCs
p247
sVhardware-long
p248
VPCs with AMD64, Intel 64 or VIA Nano processors
p249
ss(Vdescription
p250
g205
NVcloud-amd64
p251
tp252
(dp253
Vhardware
p254
Vx86-64 cloud
p255
sVhardware-long
p256
VAmazon EC2, Google Compute Engine and Microsoft Azure cloud platforms
p257
ss(Vbase
p258
g205
Vnone
p259
tp260
(dp261
Vflavours
p262
(lp263
Vamd64
p264
aVcloud-amd64
p265
ass(Vbase
p266
g205
Vrt
p267
tp268
(dp269
Vflavours
p270
(lp271
Vamd64
p272
ass(Vbase
p273
Varm64
p274
tp275
(dp276
Vkernel-arch
p277
Varm64
p278
sVfeaturesets
p279
(lp280
Vnone
p281
aVrt
p282
ass(Vbuild
p283
g274
tp284
(dp285
Vdebug-info
p286
I01
sVimage-file
p287
Varch/arm64/boot/Image
p288
sVsigned-code
p289
I00
sVvdso
p290
I01
ss(Vimage
p291
g274
tp292
(dp293
Vinstall-stem
p294
Vvmlinuz
p295
sVbreaks
p296
(lp297
Vlibmozjs185-1.0
p298
aVlibmozjs-24-0 (<< 24.2.0-5.1~)
p299
ass(Vdescription
p300
g274
NVarm64
p301
tp302
(dp303
Vhardware
p304
V64-bit ARMv8 machines
p305
ss(Vimage
p306
g274
NVarm64
p307
tp308
(dp309
s(Vbase
p310
g274
Vnone
p311
tp312
(dp313
Vflavours
p314
(lp315
Varm64
p316
ass(Vbase
p317
g274
Vrt
p318
tp319
(dp320
Vflavours
p321
(lp322
Varm64
p323
ass(Vbase
p324
Varm64ilp32
p325
tp326
(dp327
Vkernel-arch
p328
Varm64
p329
sVfeaturesets
p330
(lp331
ss(Vbase
p332
Varmel
p333
tp334
(dp335
Vkernel-arch
p336
Varm
p337
sg163
(lp338
g165
ass(Vbuild
p339
g333
tp340
(dp341
Vimage-file
p342
Varch/arm/boot/zImage
p343
sVuncompressed-image-file
p344
Varch/arm/boot/Image
p345
sVsigned-code
p346
I00
ss(Vimage
p347
g333
tp348
(dp349
Vinstall-stem
p350
Vvmlinuz
p351
ss(Vrelations
p352
g333
tp353
(dp354
Vheaders%gcc-8
p355
Vlinux-compiler-gcc-8-arm
p356
ss(Vdescription
p357
g333
NVmarvell
p358
tp359
(dp360
Vhardware
p361
VMarvell Kirkwood/Orion
p362
sVhardware-long
p363
VMarvell Kirkwood and Orion based systems (https://wiki.debian.org/ArmEabiPort#Supported_hardware)
p364
ss(Vdescription
p365
g333
NVrpi
p366
tp367
(dp368
Vhardware
p369
VRaspberry Pi and Pi Zero
p370
sVhardware-long
p371
VRaspberry Pi, Raspberry Pi Zero based systems
p372
ss(Vimage
p373
g333
NVmarvell
p374
tp375
(dp376
Vrecommends
p377
(lp378
Vu-boot-tools
p379
asVcheck-size
p380
I2729712
sVcheck-size-with-dtb
p381
I01
sVcheck-uncompressed-size
p382
I7340032
sVbreaks
p383
(lp384
Vflash-kernel (<< 3.57~)
p385
ass(g196
g333
g165
tp386
(dp387
g199
(lp388
Vmarvell
p389
aVrpi
p390
asg203
I01
ss(Vbase
p391
Varmhf
p392
tp393
(dp394
Vfeaturesets
p395
(lp396
Vnone
p397
aVrt
p398
asVkernel-arch
p399
Varm
p400
ss(Vbuild
p401
g392
tp402
(dp403
Vimage-file
p404
Varch/arm/boot/zImage
p405
sVvdso
p406
I01
sVsigned-code
p407
I00
ss(Vimage
p408
g392
tp409
(dp410
Vinstall-stem
p411
Vvmlinuz
p412
ss(Vrelations
p413
g392
tp414
(dp415
Vheaders%gcc-8
p416
Vlinux-compiler-gcc-8-arm
p417
ss(Vdescription
p418
g392
NVarmmp
p419
tp420
(dp421
Vhardware
p422
VARMv7 multiplatform compatible SoCs
p423
sVhardware-long
p424
VARMv7 multiplatform kernel. See\u000ahttps://wiki.debian.org/DebianKernel/ARMMP for details of supported\u000aplatforms
p425
ss(Vdescription
p426
g392
NVarmmp-lpae
p427
tp428
(dp429
Vhardware
p430
VARMv7 multiplatform compatible SoCs supporting LPAE
p431
sVhardware-long
p432
VARMv7 multiplatform kernel supporting LPAE. See\u000ahttps://wiki.debian.org/DebianKernel/ARMMP for details of supported\u000aplatforms.
p433
ss(Vbase
p434
g392
Vnone
p435
tp436
(dp437
Vflavours
p438
(lp439
Varmmp
p440
aVarmmp-lpae
p441
ass(Vbase
p442
g392
Vrt
p443
tp444
(dp445
Vflavours
p446
(lp447
Varmmp
p448
ass(Vbase
p449
Vhppa
p450
tp451
(dp452
Vkernel-arch
p453
Vparisc
p454
sg163
(lp455
g165
ass(Vbuild
p456
g450
tp457
(dp458
Vimage-file
p459
Varch/parisc/boot/bzImage
p460
sVdebug-info
p461
I00
ss(Vimage
p462
g450
tp463
(dp464
Vsuggests
p465
(lp466
Vpalo
p467
asVinstall-stem
p468
Vvmlinuz
p469
ss(Vdescription
p470
g450
NVparisc
p471
tp472
(dp473
Vhardware
p474
V32-bit PA-RISC
p475
sVhardware-long
p476
VHP PA-RISC 32-bit systems with max 4 GB RAM
p477
ss(Vbase
p478
g450
NVparisc64
p479
tp480
(dp481
Vcflags
p482
V-fno-cse-follow-jumps
p483
sVoverride-host-type
p484
Vhppa64-linux-gnu
p485
ss(Vdescription
p486
g450
NVparisc64
p487
tp488
(dp489
Vhardware
p490
V64-bit PA-RISC
p491
sVhardware-long
p492
VHP PA-RISC 64-bit systems with support for more than 4 GB RAM
p493
ss(Vrelations
p494
g450
tp495
(dp496
Vgcc-8
p497
Vgcc-8 <!stage1 !cross !pkg.linux.nokernel>, gcc-8-hppa-linux-gnu <!stage1 cross !pkg.linux.nokernel>, binutils-hppa64-linux-gnu <!stage1 !pkg.linux.nokernel>, gcc-8-hppa64-linux-gnu <!stage1 !pkg.linux.nokernel>
p498
ss(g196
g450
g165
tp499
(dp500
g199
(lp501
Vparisc
p502
aVparisc64
p503
asg203
I01
ss(Vbase
p504
Vi386
p505
tp506
(dp507
Vfeaturesets
p508
(lp509
Vnone
p510
aVrt
p511
asVkernel-arch
p512
Vx86
p513
ss(Vbuild
p514
g505
tp515
(dp516
Vimage-file
p517
Varch/x86/boot/bzImage
p518
sVsigned-code
p519
I00
sVvdso
p520
I01
ss(Vdescription
p521
g505
tp522
(dp523
Vpart-long-pae
p524
VThis kernel requires PAE (Physical Address Extension).\u000aThis feature is supported by the Intel Pentium Pro/II/III/4/4M/D, Xeon,\u000aCore and Atom; AMD Geode NX, Athlon (K7), Duron, Opteron, Sempron,\u000aTurion or Phenom; Transmeta Efficeon; VIA C7; and some other processors.
p525
ss(Vimage
p526
g505
tp527
(dp528
Vbootloaders
p529
(lp530
Vgrub-pc
p531
aVgrub-efi-ia32
p532
aVextlinux
p533
asVinstall-stem
p534
Vvmlinuz
p535
sVbreaks
p536
(lp537
Vxserver-xorg-input-vmmouse (<< 1:13.0.99)
p538
ass(Vrelations
p539
g505
tp540
(dp541
Vgcc-8
p542
Vgcc-8 (>= 8-20180123-1~) <!stage1 !cross !pkg.linux.nokernel>, gcc-8-i686-linux-gnu (>= 8-20180123-1~) <!stage1 cross !pkg.linux.nokernel>
p543
sVheaders%gcc-8
p544
Vlinux-compiler-gcc-8-x86
p545
ss(Vdescription
p546
g505
NV686
p547
tp548
(dp549
Vhardware
p550
Volder PCs
p551
sVhardware-long
p552
VPCs with one or more processors not supporting PAE
p553
ss(Vbuild
p554
g505
NV686-pae
p555
tp556
(dp557
Vdebug-info
p558
I01
ss(Vdescription
p559
g505
NV686-pae
p560
tp561
(dp562
Vhardware
p563
Vmodern PCs
p564
sVhardware-long
p565
VPCs with one or more processors supporting PAE
p566
sVparts
p567
(lp568
Vpae
p569
ass(Vbase
p570
g505
Vnone
p571
tp572
(dp573
Vflavours
p574
(lp575
V686
p576
aV686-pae
p577
ass(Vbase
p578
g505
Vrt
p579
tp580
(dp581
Vflavours
p582
(lp583
V686-pae
p584
ass(Vbase
p585
Via64
p586
tp587
(dp588
Vkernel-arch
p589
Via64
p590
sg163
(lp591
g165
ass(Vbuild
p592
g586
tp593
(dp594
Vimage-file
p595
Vvmlinux.gz
p596
ss(Vimage
p597
g586
tp598
(dp599
Vbootloaders
p600
(lp601
Vgrub-efi-ia64
p602
asVinstall-stem
p603
Vvmlinuz
p604
ss(Vdescription
p605
g586
NVitanium
p606
tp607
(dp608
Vhardware
p609
VItanium (Merced)
p610
sVhardware-long
p611
Vsystems with original Itanium (Merced) processors
p612
ss(Vdescription
p613
g586
NVmckinley
p614
tp615
(dp616
Vhardware
p617
VItanium 2+
p618
sVhardware-long
p619
Vsystems with Itanium 2 or 9300/9500/9700-series processors
p620
ss(g196
g586
g165
tp621
(dp622
g199
(lp623
Vitanium
p624
aVmckinley
p625
asg203
I01
ss(Vbase
p626
Vm68k
p627
tp628
(dp629
Vcflags
p630
V-ffreestanding
p631
sVkernel-arch
p632
Vm68k
p633
sg163
(lp634
g165
ass(Vbuild
p635
g627
tp636
(dp637
Vimage-file
p638
Vvmlinux
p639
ss(Vimage
p640
g627
tp641
(dp642
Vsuggests
p643
(lp644
Vvmelilo
p645
aVfdutils
p646
asVinstall-stem
p647
Vvmlinux
p648
ss(Vdescription
p649
g627
NVm68k
p650
tp651
(dp652
Vhardware
p653
VMotorola MC68020+ family
p654
ss(g196
g627
g165
tp655
(dp656
g199
(lp657
Vm68k
p658
asg203
I01
ss(Vbase
p659
Vmips
p660
tp661
(dp662
Vkernel-arch
p663
Vmips
p664
sg163
(lp665
g165
ass(Vbuild
p666
g660
tp667
(dp668
Vimage-file
p669
Vvmlinux
p670
ss(Vimage
p671
g660
tp672
(dp673
Vinstall-stem
p674
Vvmlinux
p675
ss(Vdescription
p676
g660
NV4kc-malta
p677
tp678
(dp679
Vhardware
p680
VMIPS Malta
p681
sVhardware-long
p682
VMIPS Malta boards
p683
ss(Vimage
p684
g660
NV4kc-malta
p685
tp686
(dp687
Vconfigs
p688
(lp689
Vkernelarch-mips/config.malta
p690
aVkernelarch-mips/config.mips32r2
p691
ass(Vdescription
p692
g660
NV5kc-malta
p693
tp694
(dp695
Vhardware
p696
VMIPS Malta (64-bit)
p697
sVhardware-long
p698
VMIPS Malta boards (64-bit)
p699
ss(Vimage
p700
g660
NV5kc-malta
p701
tp702
(dp703
Vconfigs
p704
(lp705
Vkernelarch-mips/config.malta
p706
aVkernelarch-mips/config.mips64r2
p707
ass(Vdescription
p708
g660
NVocteon
p709
tp710
(dp711
Vhardware
p712
VOcteon
p713
sVhardware-long
p714
VCavium Networks Octeon
p715
ss(Vimage
p716
g660
NVocteon
p717
tp718
(dp719
Vconfigs
p720
(lp721
Vkernelarch-mips/config.octeon
p722
ass(g196
g660
g165
tp723
(dp724
g199
(lp725
V4kc-malta
p726
aV5kc-malta
p727
aVocteon
p728
asg203
I01
ss(Vbase
p729
Vmips64
p730
tp731
(dp732
Vkernel-arch
p733
Vmips
p734
sg163
(lp735
g165
ass(Vbuild
p736
g730
tp737
(dp738
Vimage-file
p739
Vvmlinux
p740
ss(Vimage
p741
g730
tp742
(dp743
Vinstall-stem
p744
Vvmlinux
p745
ss(Vdescription
p746
g730
NV5kc-malta
p747
tp748
(dp749
Vhardware
p750
VMIPS Malta
p751
sVhardware-long
p752
VMIPS Malta boards
p753
ss(Vimage
p754
g730
NV5kc-malta
p755
tp756
(dp757
Vconfigs
p758
(lp759
Vkernelarch-mips/config.malta
p760
aVkernelarch-mips/config.mips64r2
p761
ass(Vdescription
p762
g730
NVocteon
p763
tp764
(dp765
Vhardware
p766
VOcteon
p767
sVhardware-long
p768
VCavium Networks Octeon
p769
ss(Vimage
p770
g730
NVocteon
p771
tp772
(dp773
Vconfigs
p774
(lp775
Vkernelarch-mips/config.octeon
p776
ass(g196
g730
g165
tp777
(dp778
g199
(lp779
V5kc-malta
p780
aVocteon
p781
asg203
I01
ss(Vbase
p782
Vmips64el
p783
tp784
(dp785
Vkernel-arch
p786
Vmips
p787
sg163
(lp788
g165
ass(Vbuild
p789
g783
tp790
(dp791
Vimage-file
p792
Vvmlinux
p793
ss(Vimage
p794
g783
tp795
(dp796
Vinstall-stem
p797
Vvmlinux
p798
ss(Vdescription
p799
g783
NV5kc-malta
p800
tp801
(dp802
Vhardware
p803
VMIPS Malta
p804
sVhardware-long
p805
VMIPS Malta boards
p806
ss(Vimage
p807
g783
NV5kc-malta
p808
tp809
(dp810
Vconfigs
p811
(lp812
Vkernelarch-mips/config.malta
p813
aVkernelarch-mips/config.mips64r2
p814
ass(Vdescription
p815
g783
NVloongson-3
p816
tp817
(dp818
Vhardware
p819
VLoongson 3A/3B
p820
sVhardware-long
p821
VLoongson 3A or 3B based systems (e.g. from Loongson or Lemote)
p822
ss(Vimage
p823
g783
NVloongson-3
p824
tp825
(dp826
Vconfigs
p827
(lp828
Vkernelarch-mips/config.loongson-3
p829
ass(Vdescription
p830
g783
NVocteon
p831
tp832
(dp833
Vhardware
p834
VOcteon
p835
sVhardware-long
p836
VCavium Networks Octeon
p837
ss(Vimage
p838
g783
NVocteon
p839
tp840
(dp841
Vconfigs
p842
(lp843
Vkernelarch-mips/config.octeon
p844
ass(g196
g783
g165
tp845
(dp846
g199
(lp847
V5kc-malta
p848
aVloongson-3
p849
aVocteon
p850
asg203
I01
ss(Vbase
p851
Vmips64r6
p852
tp853
(dp854
Vkernel-arch
p855
Vmips
p856
sg163
(lp857
g165
ass(Vbuild
p858
g852
tp859
(dp860
Vimage-file
p861
Vvmlinux
p862
ss(Vimage
p863
g852
tp864
(dp865
Vinstall-stem
p866
Vvmlinux
p867
ss(Vdescription
p868
g852
NVmips64r6
p869
tp870
(dp871
Vhardware
p872
VMIPS R6 (64 bit, big endian)
p873
sVhardware-long
p874
VMIPS R6 (64 bit, big endian)
p875
ss(Vimage
p876
g852
NVmips64r6
p877
tp878
(dp879
Vconfigs
p880
(lp881
Vkernelarch-mips/config.boston
p882
aVkernelarch-mips/config.mips64r6
p883
ass(g196
g852
g165
tp884
(dp885
g199
(lp886
Vmips64r6
p887
asg203
I01
ss(Vbase
p888
Vmips64r6el
p889
tp890
(dp891
Vkernel-arch
p892
Vmips
p893
sg163
(lp894
g165
ass(Vbuild
p895
g889
tp896
(dp897
Vimage-file
p898
Vvmlinux
p899
ss(Vimage
p900
g889
tp901
(dp902
Vinstall-stem
p903
Vvmlinux
p904
ss(Vdescription
p905
g889
NVmips64r6el
p906
tp907
(dp908
Vhardware
p909
VMIPS R6 (64 bit, little endian)
p910
sVhardware-long
p911
VMIPS R6 (64 bit, little endian)
p912
ss(Vimage
p913
g889
NVmips64r6el
p914
tp915
(dp916
Vconfigs
p917
(lp918
Vkernelarch-mips/config.boston
p919
aVkernelarch-mips/config.mips64r6
p920
ass(g196
g889
g165
tp921
(dp922
g199
(lp923
Vmips64r6el
p924
asg203
I01
ss(Vbase
p925
Vmipsel
p926
tp927
(dp928
Vkernel-arch
p929
Vmips
p930
sg163
(lp931
g165
ass(Vbuild
p932
g926
tp933
(dp934
Vimage-file
p935
Vvmlinux
p936
ss(Vimage
p937
g926
tp938
(dp939
Vinstall-stem
p940
Vvmlinux
p941
ss(Vdescription
p942
g926
NV4kc-malta
p943
tp944
(dp945
Vhardware
p946
VMIPS Malta
p947
sVhardware-long
p948
VMIPS Malta boards
p949
ss(Vimage
p950
g926
NV4kc-malta
p951
tp952
(dp953
Vconfigs
p954
(lp955
Vkernelarch-mips/config.malta
p956
aVkernelarch-mips/config.mips32r2
p957
ass(Vdescription
p958
g926
NV5kc-malta
p959
tp960
(dp961
Vhardware
p962
VMIPS Malta (64-bit)
p963
sVhardware-long
p964
VMIPS Malta boards (64-bit)
p965
ss(Vimage
p966
g926
NV5kc-malta
p967
tp968
(dp969
Vconfigs
p970
(lp971
Vkernelarch-mips/config.malta
p972
aVkernelarch-mips/config.mips64r2
p973
ass(Vdescription
p974
g926
NVloongson-3
p975
tp976
(dp977
Vhardware
p978
VLoongson 3A/3B
p979
sVhardware-long
p980
VLoongson 3A or 3B based systems (e.g. from Loongson or Lemote)
p981
ss(Vimage
p982
g926
NVloongson-3
p983
tp984
(dp985
Vconfigs
p986
(lp987
Vkernelarch-mips/config.loongson-3
p988
ass(Vdescription
p989
g926
NVocteon
p990
tp991
(dp992
Vhardware
p993
VOcteon
p994
sVhardware-long
p995
VCavium Networks Octeon
p996
ss(Vimage
p997
g926
NVocteon
p998
tp999
(dp1000
Vconfigs
p1001
(lp1002
Vkernelarch-mips/config.octeon
p1003
ass(g196
g926
g165
tp1004
(dp1005
g199
(lp1006
V4kc-malta
p1007
aV5kc-malta
p1008
aVloongson-3
p1009
aVocteon
p1010
asg203
I01
ss(Vbase
p1011
Vmipsn32
p1012
tp1013
(dp1014
Vkernel-arch
p1015
Vmips
p1016
sVfeaturesets
p1017
(lp1018
ss(Vbase
p1019
Vmipsn32el
p1020
tp1021
(dp1022
Vkernel-arch
p1023
Vmips
p1024
sVfeaturesets
p1025
(lp1026
ss(Vbase
p1027
Vmipsn32r6
p1028
tp1029
(dp1030
Vkernel-arch
p1031
Vmips
p1032
sVfeaturesets
p1033
(lp1034
ss(Vbase
p1035
Vmipsn32r6el
p1036
tp1037
(dp1038
Vkernel-arch
p1039
Vmips
p1040
sVfeaturesets
p1041
(lp1042
ss(Vbase
p1043
Vmipsr6
p1044
tp1045
(dp1046
Vkernel-arch
p1047
Vmips
p1048
sg163
(lp1049
g165
ass(Vbuild
p1050
g1044
tp1051
(dp1052
Vimage-file
p1053
Vvmlinux
p1054
ss(Vimage
p1055
g1044
tp1056
(dp1057
Vinstall-stem
p1058
Vvmlinux
p1059
ss(Vdescription
p1060
g1044
NVmips32r6
p1061
tp1062
(dp1063
Vhardware
p1064
VMIPS R6 (32 bit, big endian)
p1065
sVhardware-long
p1066
VMIPS R6 (32 bit, big endian)
p1067
ss(Vimage
p1068
g1044
NVmips32r6
p1069
tp1070
(dp1071
Vconfigs
p1072
(lp1073
Vkernelarch-mips/config.boston
p1074
aVkernelarch-mips/config.mips32r6
p1075
ass(Vdescription
p1076
g1044
NVmips64r6
p1077
tp1078
(dp1079
Vhardware
p1080
VMIPS R6 (64 bit, big endian)
p1081
sVhardware-long
p1082
VMIPS R6 (64 bit, big endian)
p1083
ss(Vimage
p1084
g1044
NVmips64r6
p1085
tp1086
(dp1087
Vconfigs
p1088
(lp1089
Vkernelarch-mips/config.boston
p1090
aVkernelarch-mips/config.mips64r6
p1091
ass(g196
g1044
g165
tp1092
(dp1093
g199
(lp1094
Vmips32r6
p1095
aVmips64r6
p1096
asg203
I01
ss(Vbase
p1097
Vmipsr6el
p1098
tp1099
(dp1100
Vkernel-arch
p1101
Vmips
p1102
sg163
(lp1103
g165
ass(Vbuild
p1104
g1098
tp1105
(dp1106
Vimage-file
p1107
Vvmlinux
p1108
ss(Vimage
p1109
g1098
tp1110
(dp1111
Vinstall-stem
p1112
Vvmlinux
p1113
ss(Vdescription
p1114
g1098
NVmips32r6el
p1115
tp1116
(dp1117
Vhardware
p1118
VMIPS R6 (32 bit, little endian)
p1119
sVhardware-long
p1120
VMIPS R6 (32 bit, little endian)
p1121
ss(Vimage
p1122
g1098
NVmips32r6el
p1123
tp1124
(dp1125
Vconfigs
p1126
(lp1127
Vkernelarch-mips/config.boston
p1128
aVkernelarch-mips/config.mips32r6
p1129
ass(Vdescription
p1130
g1098
NVmips64r6el
p1131
tp1132
(dp1133
Vhardware
p1134
VMIPS R6 (64 bit, little endian)
p1135
sVhardware-long
p1136
VMIPS R6 (64 bit, little endian)
p1137
ss(Vimage
p1138
g1098
NVmips64r6el
p1139
tp1140
(dp1141
Vconfigs
p1142
(lp1143
Vkernelarch-mips/config.boston
p1144
aVkernelarch-mips/config.mips64r6
p1145
ass(g196
g1098
g165
tp1146
(dp1147
g199
(lp1148
Vmips32r6el
p1149
aVmips64r6el
p1150
asg203
I01
ss(Vbase
p1151
Vpowerpc
p1152
tp1153
(dp1154
Vkernel-arch
p1155
Vpowerpc
p1156
sg163
(lp1157
g165
ass(Vbuild
p1158
g1152
tp1159
(dp1160
Vimage-file
p1161
Vvmlinux
p1162
sVvdso
p1163
I01
ss(Vimage
p1164
g1152
tp1165
(dp1166
Vconfigs
p1167
(lp1168
sVbootloaders
p1169
(lp1170
Vgrub-ieee1275
p1171
asVsuggests
p1172
(lp1173
Vmkvmlinuz
p1174
asVinstall-stem
p1175
Vvmlinux
p1176
ss(Vdescription
p1177
g1152
NVpowerpc
p1178
tp1179
(dp1180
Vhardware
p1181
Vuniprocessor 32-bit PowerPC
p1182
ss(Vdescription
p1183
g1152
NVpowerpc-smp
p1184
tp1185
(dp1186
Vhardware
p1187
Vmultiprocessor 32-bit PowerPC
p1188
ss(Vimage
p1189
g1152
NVpowerpc-smp
p1190
tp1191
(dp1192
Vconfigs
p1193
(lp1194
Vpowerpc/config.powerpc
p1195
aVpowerpc/config.powerpc-smp
p1196
ass(Vdescription
p1197
g1152
NVpowerpc64
p1198
tp1199
(dp1200
Vhardware
p1201
V64-bit PowerPC
p1202
ss(Vimage
p1203
g1152
NVpowerpc64
p1204
tp1205
(dp1206
Vconfigs
p1207
(lp1208
Vkernelarch-powerpc/config-arch-64
p1209
aVkernelarch-powerpc/config-arch-64-be
p1210
ass(g196
g1152
g165
tp1211
(dp1212
g199
(lp1213
Vpowerpc
p1214
aVpowerpc-smp
p1215
aVpowerpc64
p1216
asg203
I01
ss(Vbase
p1217
Vpowerpcspe
p1218
tp1219
(dp1220
Vkernel-arch
p1221
Vpowerpc
p1222
sg163
(lp1223
g165
ass(Vbuild
p1224
g1218
tp1225
(dp1226
Vimage-file
p1227
Vvmlinux
p1228
sVvdso
p1229
I01
ss(Vimage
p1230
g1218
tp1231
(dp1232
Vsuggests
p1233
(lp1234
Vmkvmlinuz
p1235
asVinstall-stem
p1236
Vvmlinux
p1237
ss(Vdescription
p1238
g1218
tp1239
(dp1240
Vhardware
p1241
V32-bit PowerPC with SPE (instead of AltiVec) with SMP support
p1242
ss(g196
g1218
g165
tp1243
(dp1244
g199
(lp1245
Vpowerpcspe
p1246
asg203
I01
ss(Vbase
p1247
Vppc64
p1248
tp1249
(dp1250
Vkernel-arch
p1251
Vpowerpc
p1252
sg163
(lp1253
g165
ass(Vbuild
p1254
g1248
tp1255
(dp1256
Vimage-file
p1257
Vvmlinux
p1258
sVvdso
p1259
I01
ss(Vimage
p1260
g1248
tp1261
(dp1262
Vconfigs
p1263
(lp1264
sVbootloaders
p1265
(lp1266
Vgrub-ieee1275
p1267
asVsuggests
p1268
(lp1269
Vmkvmlinuz
p1270
asVinstall-stem
p1271
Vvmlinux
p1272
ss(Vdescription
p1273
g1248
NVpowerpc64
p1274
tp1275
(dp1276
Vhardware
p1277
V64-bit PowerPC
p1278
ss(Vimage
p1279
g1248
NVpowerpc64
p1280
tp1281
(dp1282
Vconfigs
p1283
(lp1284
Vkernelarch-powerpc/config-arch-64
p1285
aVkernelarch-powerpc/config-arch-64-be
p1286
ass(g196
g1248
g165
tp1287
(dp1288
g199
(lp1289
Vpowerpc64
p1290
asg203
I01
ss(Vbase
p1291
Vppc64el
p1292
tp1293
(dp1294
Vkernel-arch
p1295
Vpowerpc
p1296
sg163
(lp1297
g165
ass(Vbuild
p1298
g1292
tp1299
(dp1300
Vimage-file
p1301
Vvmlinux
p1302
sVvdso
p1303
I01
ss(Vimage
p1304
g1292
tp1305
(dp1306
Vconfigs
p1307
(lp1308
sVbootloaders
p1309
(lp1310
Vgrub-ieee1275
p1311
asVsuggests
p1312
(lp1313
Vmkvmlinuz
p1314
asVinstall-stem
p1315
Vvmlinux
p1316
ss(Vdescription
p1317
g1292
NVpowerpc64le
p1318
tp1319
(dp1320
Vhardware
p1321
VLittle-endian 64-bit PowerPC
p1322
ss(Vimage
p1323
g1292
NVpowerpc64le
p1324
tp1325
(dp1326
Vconfigs
p1327
(lp1328
Vkernelarch-powerpc/config-arch-64
p1329
aVkernelarch-powerpc/config-arch-64-le
p1330
ass(g196
g1292
g165
tp1331
(dp1332
g199
(lp1333
Vpowerpc64le
p1334
asg203
I01
ss(Vbase
p1335
Vriscv64
p1336
tp1337
(dp1338
Vkernel-arch
p1339
Vriscv
p1340
sVfeaturesets
p1341
(lp1342
Vnone
p1343
ass(Vbuild
p1344
g1336
tp1345
(dp1346
Vimage-file
p1347
Varch/riscv/boot/Image
p1348
sVvdso
p1349
I01
ss(Vimage
p1350
g1336
tp1351
(dp1352
Vinstall-stem
p1353
Vvmlinux
p1354
ss(Vdescription
p1355
g1336
NVriscv64
p1356
tp1357
(dp1358
Vhardware
p1359
V64-bit RISC-V platforms
p1360
sVhardware-long
p1361
V64-bit RISC-V platforms
p1362
ss(Vbase
p1363
g1336
Vnone
p1364
tp1365
(dp1366
Vflavours
p1367
(lp1368
Vriscv64
p1369
ass(Vbase
p1370
Vs390
p1371
tp1372
(dp1373
Vkernel-arch
p1374
Vs390
p1375
sVfeaturesets
p1376
(lp1377
ss(Vbase
p1378
Vs390x
p1379
tp1380
(dp1381
Vkernel-arch
p1382
Vs390
p1383
sg163
(lp1384
g165
ass(Vbuild
p1385
g1379
tp1386
(dp1387
Vimage-file
p1388
Varch/s390/boot/bzImage
p1389
sVvdso
p1390
I01
ss(Vimage
p1391
g1379
tp1392
(dp1393
Vbootloaders
p1394
(lp1395
Vs390-tools
p1396
asVinstall-stem
p1397
Vvmlinuz
p1398
ss(Vrelations
p1399
g1379
tp1400
(dp1401
Vheaders%gcc-8
p1402
Vlinux-compiler-gcc-8-s390
p1403
ss(Vbuild
p1404
g1379
NVs390x
p1405
tp1406
(dp1407
Vdebug-info
p1408
I01
ss(Vdescription
p1409
g1379
NVs390x
p1410
tp1411
(dp1412
Vhardware
p1413
VIBM zSeries
p1414
ss(g196
g1379
g165
tp1415
(dp1416
g199
(lp1417
Vs390x
p1418
asg203
I01
ss(Vbase
p1419
Vsh3
p1420
tp1421
(dp1422
Vkernel-arch
p1423
Vsh
p1424
sVfeaturesets
p1425
(lp1426
ss(Vbase
p1427
Vsh4
p1428
tp1429
(dp1430
Vkernel-arch
p1431
Vsh
p1432
sg163
(lp1433
g165
ass(Vbuild
p1434
g1428
tp1435
(dp1436
Vimage-file
p1437
Varch/sh/boot/zImage
p1438
ss(Vimage
p1439
g1428
tp1440
(dp1441
Vinstall-stem
p1442
Vvmlinuz
p1443
ss(Vdescription
p1444
g1428
NVsh7751r
p1445
tp1446
(dp1447
Vhardware
p1448
Vsh7751r
p1449
sVhardware-long
p1450
VRenesas SH7751R R2D plus board
p1451
ss(Vdescription
p1452
g1428
NVsh7785lcr
p1453
tp1454
(dp1455
Vhardware
p1456
Vsh7785lcr
p1457
sVhardware-long
p1458
VRenesas SH7785 reference board
p1459
ss(Vimage
p1460
g1428
NVsh7785lcr
p1461
tp1462
(dp1463
Vrecommends
p1464
(lp1465
Vu-boot-tools
p1466
asVcheck-size
p1467
I4194304
ss(g196
g1428
g165
tp1468
(dp1469
g199
(lp1470
Vsh7751r
p1471
aVsh7785lcr
p1472
asg203
I01
ss(Vbase
p1473
Vsparc
p1474
tp1475
(dp1476
Vkernel-arch
p1477
Vsparc
p1478
sVfeaturesets
p1479
(lp1480
ss(Vbase
p1481
Vsparc64
p1482
tp1483
(dp1484
Vkernel-arch
p1485
Vsparc
p1486
sg163
(lp1487
g165
ass(Vbuild
p1488
g1482
tp1489
(dp1490
Vimage-file
p1491
Vvmlinux
p1492
ss(Vimage
p1493
g1482
tp1494
(dp1495
Vconfigs
p1496
(lp1497
sVbootloaders
p1498
(lp1499
Vgrub-ieee1275
p1500
asVsuggests
p1501
(lp1502
Vfdutils
p1503
asVinstall-stem
p1504
Vvmlinux
p1505
ss(Vdescription
p1506
g1482
NVsparc64
p1507
tp1508
(dp1509
Vhardware
p1510
Vuniprocessor 64-bit UltraSPARC
p1511
ss(Vimage
p1512
g1482
NVsparc64
p1513
tp1514
(dp1515
Vconfigs
p1516
(lp1517
Vkernelarch-sparc/config-up
p1518
ass(Vdescription
p1519
g1482
NVsparc64-smp
p1520
tp1521
(dp1522
Vhardware
p1523
Vmultiprocessor 64-bit UltraSPARC
p1524
ss(Vimage
p1525
g1482
NVsparc64-smp
p1526
tp1527
(dp1528
Vconfigs
p1529
(lp1530
Vkernelarch-sparc/config-smp
p1531
ass(g196
g1482
g165
tp1532
(dp1533
g199
(lp1534
Vsparc64
p1535
aVsparc64-smp
p1536
asg203
I01
ss(Vbase
p1537
Vx32
p1538
tp1539
(dp1540
Vkernel-arch
p1541
Vx86
p1542
sVfeaturesets
p1543
(lp1544
ss(Vabi
p1545
NVrt
p1546
tp1547
(dp1548
Vignore-changes
p1549
(lp1550
V*
p1551
ass(Vdescription
p1552
Ng1546
tp1553
(dp1554
Vpart-long-rt
p1555
VThis kernel includes the PREEMPT_RT realtime patch set.
p1556
sVpart-short-rt
p1557
VPREEMPT_RT
p1558
sVparts
p1559
(lp1560
Vrt
p1561
ass(Vversion
p1562
tp1563
(dp1564
Vsource
p1565
V5.2.9-2kali1
p1566
sVupstream
p1567
V5.2
p1568
sVabiname_base
p1569
V5.2.0
p1570
sVabiname
p1571
V5.2.0-kali2
p1572
ss.