ccopy_reg
_reconstructor
p0
(cdebian_linux.config
ConfigCore
p1
c__builtin__
dict
p2
(dp3
(S'description'
p4
S'hppa'
p5
NS'parisc64-smp'
p6
tp7
(dp8
S'hardware'
p9
S'multiprocessor 64-bit PA-RISC'
p10
ss(S'image'
p11
S'amd64'
p12
tp13
(dp14
S'configs'
p15
(lp16
sS'bootloaders'
p17
(lp18
S'grub-pc'
p19
aS'extlinux'
p20
aS'lilo'
p21
ass(S'build'
p22
S's390x'
p23
NS's390x'
p24
tp25
(dp26
S'debug-info'
p27
I01
ss(S'description'
p28
g5
NS'parisc'
p29
tp30
(dp31
S'hardware'
p32
S'32-bit PA-RISC'
p33
ss(S'description'
p34
S'powerpc'
p35
NS'powerpc64'
p36
tp37
(dp38
S'hardware'
p39
S'64-bit PowerPC'
p40
ss(S'base'
p41
g12
S'none'
p42
tp43
(dp44
S'flavours'
p45
(lp46
S'amd64'
p47
ass(S'description'
p48
S'mips'
p49
NS'4kc-malta'
p50
tp51
(dp52
S'hardware'
p53
S'MIPS Malta'
p54
sS'hardware-long'
p55
S'MIPS Malta boards'
p56
ss(S'image'
p57
S'ia64'
p58
tp59
(dp60
S'suggests'
p61
S'fdutils'
p62
sS'bootloaders'
p63
(lp64
S'elilo'
p65
ass(S'description'
p66
S'mipsel'
p67
NS'sb1a-bcm91480b'
p68
tp69
(dp70
S'hardware'
p71
S'BCM91480B'
p72
sS'hardware-long'
p73
S'Broadcom BCM91480B systems (aka BigSur)'
p74
ss(S'description'
p75
g5
NS'parisc64'
p76
tp77
(dp78
S'hardware'
p79
S'64-bit PA-RISC'
p80
ss(S'version'
p81
tp82
(dp83
S'abiname'
p84
S'3.12-trunk'
p85
sS'source'
p86
V3.12.3-1~kali1
p87
sS'upstream'
p88
S'3.12'
p89
ss(S'build'
p90
S'armhf'
p91
NS'armmp'
p92
tp93
(dp94
S'image-file'
p95
S'arch/arm/boot/zImage'
p96
ss(S'description'
p97
g12
g42
S'amd64'
p98
tp99
(dp100
S'parts'
p101
(lp102
S'xen'
p103
ass(S'base'
p104
g5
NS'parisc64'
p105
tp106
(dp107
S'override-host-type'
p108
S'hppa64-linux-gnu'
p109
sS'cflags'
p110
S'-fno-cse-follow-jumps'
p111
ss(S'description'
p112
S's390'
p113
NS's390x'
p114
tp115
(dp116
S'hardware'
p117
S'IBM zSeries'
p118
ss(S'base'
p119
S'ppc64'
p120
S'none'
p121
tp122
(dp123
S'implicit-flavour'
p124
I01
sS'flavours'
p125
(lp126
S'powerpc64'
p127
ass(S'description'
p128
g58
NS'itanium'
p129
tp130
(dp131
S'hardware'
p132
S'Itanium'
p133
ss(S'description'
p134
g12
NS'amd64'
p135
tp136
(dp137
S'hardware'
p138
S'64-bit PCs'
p139
sS'hardware-long'
p140
S'PCs with AMD64, Intel 64 or VIA Nano processors'
p141
ss(S'description'
p142
g67
NS'loongson-2f'
p143
tp144
(dp145
S'hardware'
p146
S'Loongson 2F'
p147
sS'hardware-long'
p148
S'Lemote Loongson 2F systems'
p149
ss(S'build'
p150
S'armel'
p151
NS'kirkwood'
p152
tp153
(dp154
S'image-file'
p155
S'arch/arm/boot/zImage'
p156
ss(S'build'
p157
g151
NS'mv78xx0'
p158
tp159
(dp160
S'image-file'
p161
S'arch/arm/boot/zImage'
p162
ss(S'description'
p163
S'alpha'
p164
NS'alpha-generic'
p165
tp166
(dp167
S'hardware'
p168
S'Alpha'
p169
sS'hardware-long'
p170
S'DEC Alpha systems with extended kernel start address (Wildfire, Titan, Marvel)'
p171
ss(S'base'
p172
g164
tp173
(dp174
S'kernel-arch'
p175
S'alpha'
p176
sS'featuresets'
p177
(lp178
g121
ass(S'description'
p179
S'i386'
p180
NS'686-pae'
p181
tp182
(dp183
S'hardware'
p184
S'modern PCs'
p185
sS'parts'
p186
(lp187
S'pae'
p188
asS'hardware-long'
p189
S'PCs with one or more processors supporting PAE'
p190
ss(g119
g91
g121
tp191
(dp192
g124
I01
sg125
(lp193
S'armmp'
p194
aS'armmp-lpae'
p195
ass(S'image'
p196
g151
NS'kirkwood'
p197
tp198
(dp199
S'check-size'
p200
S'2097080'
p201
sS'recommends'
p202
S'uboot-mkimage'
p203
ss(S'base'
p204
g180
S'rt'
p205
tp206
(dp207
S'flavours'
p208
(lp209
S'686-pae'
p210
ass(S'relations'
p211
g180
tp212
(dp213
S'headers%gcc-4.8'
p214
S'linux-compiler-gcc-4.8-x86'
p215
ss(S'description'
p216
S'sparc'
p217
NS'sparc64'
p218
tp219
(dp220
S'hardware'
p221
S'uniprocessor 64-bit UltraSPARC'
p222
ss(S'image'
p223
g180
NS'amd64'
p224
tp225
(dp226
S'configs'
p227
(lp228
S'kernelarch-x86/config-arch-64'
p229
asS'recommends'
p230
S'libc6-i686'
p231
ss(S'image'
p232
g35
tp233
(dp234
S'suggests'
p235
S'mkvmlinuz'
p236
ss(S'base'
p237
g12
S'rt'
p238
tp239
(dp240
S'flavours'
p241
(lp242
S'amd64'
p243
ass(S'description'
p244
g49
NS'r5k-ip32'
p245
tp246
(dp247
S'hardware'
p248
S'SGI IP32'
p249
sS'hardware-long'
p250
S'SGI IP32 systems (O2)'
p251
ss(S'description'
p252
g67
NS'4kc-malta'
p253
tp254
(dp255
S'hardware'
p256
S'MIPS Malta'
p257
sS'hardware-long'
p258
S'MIPS Malta boards'
p259
ss(S'description'
p260
g180
S'none'
p261
S'amd64'
p262
tp263
(dp264
S'parts'
p265
(lp266
S'xen'
p267
ass(S'base'
p268
S'arm64'
p269
tp270
(dp271
S'kernel-arch'
p272
S'arm64'
p273
sS'featuresets'
p274
(lp275
ss(S'base'
p276
g180
tp277
(dp278
S'kernel-arch'
p279
S'x86'
p280
sS'featuresets'
p281
(lp282
S'none'
p283
aS'rt'
p284
ass(S'base'
p285
g67
tp286
(dp287
S'kernel-arch'
p288
S'mips'
p289
sg177
(lp290
g121
ass(S'base'
p291
g5
NS'parisc64-smp'
p292
tp293
(dp294
S'override-host-type'
p295
S'hppa64-linux-gnu'
p296
sS'cflags'
p297
S'-fno-cse-follow-jumps'
p298
ss(S'relations'
p299
g12
tp300
(dp301
S'headers%gcc-4.8'
p302
S'linux-compiler-gcc-4.8-x86'
p303
ss(S'description'
p304
g49
NS'sb1a-bcm91480b'
p305
tp306
(dp307
S'hardware'
p308
S'BCM91480B'
p309
sS'hardware-long'
p310
S'Broadcom BCM91480B systems (aka BigSur)'
p311
ss(S'description'
p312
S'm68k'
p313
NS'm68k'
p314
tp315
(dp316
S'hardware'
p317
S'Motorola MC68020+ family'
p318
ss(S'build'
p319
S'sh4'
p320
NS'sh7751r'
p321
tp322
(dp323
S'image-file'
p324
S'arch/sh/boot/zImage'
p325
ss(S'description'
p326
g164
NS'alpha-legacy'
p327
tp328
(dp329
S'hardware'
p330
S'Alpha Legacy'
p331
sS'hardware-long'
p332
S'DEC Alpha systems with legacy kernel start address'
p333
ss(S'relations'
p334
g113
tp335
(dp336
S'headers%gcc-4.8'
p337
S'linux-compiler-gcc-4.8-s390'
p338
ss(g119
g67
g121
tp339
(dp340
g124
I01
sg125
(lp341
S'r5k-cobalt'
p342
aS'sb1-bcm91250a'
p343
aS'sb1a-bcm91480b'
p344
aS'4kc-malta'
p345
aS'5kc-malta'
p346
aS'loongson-2e'
p347
aS'loongson-2f'
p348
ass(S'description'
p349
S'powerpcspe'
p350
tp351
(dp352
S'hardware'
p353
S'32-bit PowerPC with SPE (instead of AltiVec) with SMP support'
p354
ss(S'build'
p355
g91
NS'armmp-lpae'
p356
tp357
(dp358
S'image-file'
p359
S'arch/arm/boot/zImage'
p360
ss(S'relations'
p361
tp362
(dp363
S'gcc-4.8'
p364
S'gcc-4.8'
p365
sS'initramfs-fallback'
p366
S'linux-initramfs-tool'
p367
sS'gcc-4.7'
p368
S'gcc-4.7'
p369
sS'gcc-4.6'
p370
S'gcc-4.6'
p371
sS'gcc-4.4'
p372
S'gcc-4.4'
p373
sS'initramfs-tools'
p374
S'initramfs-tools (>= 0.110~)'
p375
ss(S'build'
p376
g151
NS'ixp4xx'
p377
tp378
(dp379
S'image-file'
p380
S'arch/arm/boot/zImage'
p381
ss(S'description'
p382
g49
NS'r4k-ip22'
p383
tp384
(dp385
S'hardware'
p386
S'SGI IP22'
p387
sS'hardware-long'
p388
S'SGI IP22 systems (Indy, Indigo2)'
p389
ss(S'image'
p390
g35
NS'powerpc-smp'
p391
tp392
(dp393
S'configs'
p394
(lp395
S'powerpc/config.powerpc'
p396
aS'powerpc/config.powerpc-smp'
p397
ass(S'description'
p398
g49
NS'5kc-malta'
p399
tp400
(dp401
S'hardware'
p402
S'MIPS Malta (64-bit)'
p403
sS'hardware-long'
p404
S'MIPS Malta boards (64-bit)'
p405
ss(g119
g320
g121
tp406
(dp407
g124
I01
sg125
(lp408
S'sh7751r'
p409
aS'sh7785lcr'
p410
ass(S'base'
p411
g91
tp412
(dp413
S'kernel-arch'
p414
S'arm'
p415
sg177
(lp416
g121
ass(S'description'
p417
g151
NS'kirkwood'
p418
tp419
(dp420
S'hardware'
p421
S'Marvell Kirkwood'
p422
sS'hardware-long'
p423
S'Marvell Kirkwood based systems (SheevaPlug, QNAP TS-119/TS-219, etc)'
p424
ss(S'base'
p425
g151
tp426
(dp427
S'kernel-arch'
p428
S'arm'
p429
sg177
(lp430
g121
ass(S'base'
p431
g217
tp432
(dp433
S'kernel-arch'
p434
S'sparc'
p435
sg177
(lp436
g121
ass(S'description'
p437
g217
NS'sparc64-smp'
p438
tp439
(dp440
S'hardware'
p441
S'multiprocessor 64-bit UltraSPARC'
p442
ss(S'base'
p443
g350
tp444
(dp445
S'kernel-arch'
p446
S'powerpc'
p447
sg177
(lp448
g121
ass(g119
g113
g121
tp449
(dp450
g124
I01
sg125
(lp451
S's390x'
p452
ass(S'build'
p453
g180
NS'686-pae'
p454
tp455
(dp456
S'debug-info'
p457
I01
ss(g119
g23
g121
tp458
(dp459
g124
I01
sg125
(lp460
S's390x'
p461
ass(S'base'
p462
g49
tp463
(dp464
S'kernel-arch'
p465
S'mips'
p466
sg177
(lp467
g121
ass(S'description'
p468
g23
NS's390x'
p469
tp470
(dp471
S'hardware'
p472
S'IBM zSeries'
p473
ss(S'build'
p474
g12
tp475
(dp476
S'debug-info'
p477
I01
ss(S'abi'
p478
NS'rt'
p479
tp480
(dp481
S'ignore-changes'
p482
(lp483
S'*'
p484
ass(S'image'
p485
g67
tp486
(dp487
S'initramfs'
p488
I00
ss(S'description'
p489
g164
NS'alpha-smp'
p490
tp491
(dp492
S'hardware'
p493
S'Alpha SMP'
p494
sS'hardware-long'
p495
S'DEC Alpha SMP systems with extended kernel start address (Wildfire, Titan, Marvel)'
p496
ss(S'description'
p497
S'sparc64'
p498
NS'sparc64-smp'
p499
tp500
(dp501
S'hardware'
p502
S'multiprocessor 64-bit UltraSPARC'
p503
ss(S'base'
p504
g12
tp505
(dp506
S'kernel-arch'
p507
S'x86'
p508
sS'featuresets'
p509
(lp510
S'none'
p511
aS'rt'
p512
ass(S'base'
p513
g58
tp514
(dp515
S'kernel-arch'
p516
S'ia64'
p517
sg177
(lp518
g121
asS'compiler'
p519
S'gcc-4.6'
p520
ss(S'image'
p521
g67
NS'sb1-bcm91250a'
p522
tp523
(dp524
S'configs'
p525
(lp526
S'mips/config.sb1-bcm91250a'
p527
ass(S'description'
p528
g67
NS'loongson-2e'
p529
tp530
(dp531
S'hardware'
p532
S'Loongson 2E'
p533
sS'hardware-long'
p534
S'Lemote Loongson 2E systems'
p535
ss(S'build'
p536
g113
NS's390x'
p537
tp538
(dp539
S'debug-info'
p540
I01
ss(S'image'
p541
g320
NS'sh7785lcr'
p542
tp543
(dp544
S'check-size'
p545
S'4194304'
p546
sS'recommends'
p547
S'uboot-mkimage'
p548
ss(S'base'
p549
g113
tp550
(dp551
S'kernel-arch'
p552
S's390'
p553
sg177
(lp554
g121
ass(g119
g151
g121
tp555
(dp556
g124
I01
sg125
(lp557
S'iop32x'
p558
aS'ixp4xx'
p559
aS'kirkwood'
p560
aS'mv78xx0'
p561
aS'orion5x'
p562
aS'versatile'
p563
ass(S'image'
p564
g91
NS'armmp-lpae'
p565
tp566
(dp567
S'configs'
p568
(lp569
S'armhf/config.armmp'
p570
aS'armhf/config.lpae'
p571
ass(S'description'
p572
g180
NS'amd64'
p573
tp574
(dp575
S'hardware'
p576
S'64-bit PCs'
p577
sS'parts'
p578
(lp579
S'xen'
p580
asS'hardware-long'
p581
S'PCs with AMD64, Intel 64 or VIA Nano processors'
p582
ss(S'description'
p583
g180
tp584
(dp585
S'part-long-pae'
p586
S'This kernel requires PAE (Physical Address Extension).\nThis feature is supported by the Intel Pentium Pro/II/III/4/4M/D, Xeon,\nCore and Atom; AMD Geode NX, Athlon (K7), Duron, Opteron, Sempron,\nTurion or Phenom; Transmeta Efficeon; VIA C7; and some other processors.'
p587
ss(S'image'
p588
g12
NS'amd64'
p589
tp590
(dp591
S'configs'
p592
(lp593
S'kernelarch-x86/config-arch-64'
p594
ass(S'description'
p595
g151
NS'ixp4xx'
p596
tp597
(dp598
S'hardware'
p599
S'IXP4xx'
p600
sS'hardware-long'
p601
S'IXP4xx based systems (Linksys NSLU2, etc)'
p602
ss(S'base'
p603
g180
g261
tp604
(dp605
S'flavours'
p606
(lp607
S'486'
p608
aS'686-pae'
p609
aS'amd64'
p610
ass(S'xen'
p611
g12
g42
S'amd64'
p612
tp613
(dp614
S'flavours'
p615
(lp616
S'amd64'
p617
ass(S'image'
p618
g151
tp619
(dp620
S'suggests'
p621
S'fdutils'
p622
ss(S'image'
p623
g113
tp624
(dp625
S'configs'
p626
(lp627
S's390x/config'
p628
asS'bootloaders'
p629
(lp630
S's390-tools'
p631
ass(S'relations'
p632
g151
tp633
(dp634
S'headers%gcc-4.8'
p635
S'linux-compiler-gcc-4.8-arm'
p636
ss(S'image'
p637
g180
NS'486'
p638
tp639
(dp640
S'configs'
p641
(lp642
S'kernelarch-x86/config-arch-32'
p643
aS'i386/config.486'
p644
ass(S'image'
p645
g67
NS'sb1a-bcm91480b'
p646
tp647
(dp648
S'configs'
p649
(lp650
S'mips/config.sb1a-bcm91480b'
p651
ass(S'description'
p652
g58
NS'mckinley'
p653
tp654
(dp655
S'hardware'
p656
S'Itanium II'
p657
ss(S'image'
p658
g350
tp659
(dp660
S'suggests'
p661
S'mkvmlinuz'
p662
sS'configs'
p663
(lp664
S'powerpc/config'
p665
aS'powerpcspe/config.powerpcspe'
p666
ass(S'relations'
p667
g5
tp668
(dp669
S'gcc-4.4'
p670
S'gcc-4.4, binutils-hppa64, gcc-4.4-hppa64'
p671
ss(S'description'
p672
g35
NS'powerpc'
p673
tp674
(dp675
S'hardware'
p676
S'uniprocessor 32-bit PowerPC'
p677
ss(S'description'
p678
g91
NS'armmp'
p679
tp680
(dp681
S'hardware'
p682
S'ARMv7 multiplatform compatible SoCs'
p683
sS'hardware-long'
p684
S'ARMv7 multiplatform kernel for Marvell Armada 370/xp, Freescale iMX5x/iMX6'
p685
ss(S'image'
p686
g67
NS'4kc-malta'
p687
tp688
(dp689
S'configs'
p690
(lp691
S'mips/config.4kc-malta'
p692
ass(g119
g5
g121
tp693
(dp694
g124
I01
sg125
(lp695
S'parisc'
p696
aS'parisc-smp'
p697
aS'parisc64'
p698
aS'parisc64-smp'
p699
ass(S'image'
p700
g164
tp701
(dp702
S'suggests'
p703
S'aboot, fdutils'
p704
ss(S'description'
p705
g151
NS'orion5x'
p706
tp707
(dp708
S'hardware'
p709
S'Marvell Orion'
p710
sS'hardware-long'
p711
S'Marvell Orion 5181, 5182 and 5281 based systems (QNAP TS-109/TS-209, etc)'
p712
ss(S'base'
p713
g498
tp714
(dp715
S'kernel-arch'
p716
S'sparc'
p717
sg177
(lp718
g121
ass(S'build'
p719
g151
NS'iop32x'
p720
tp721
(dp722
S'image-file'
p723
S'arch/arm/boot/zImage'
p724
ss(S'base'
p725
NS'rt'
p726
tp727
(dp728
S'enabled'
p729
I01
ss(S'base'
p730
g23
tp731
(dp732
S'kernel-arch'
p733
S's390'
p734
sg177
(lp735
g121
ass(S'description'
p736
g67
NS'r5k-cobalt'
p737
tp738
(dp739
S'hardware'
p740
S'Cobalt'
p741
sS'hardware-long'
p742
S'Cobalt systems (Qube, RaQ, Qube2, RaQ2)'
p743
ss(S'image'
p744
g67
NS'loongson-2f'
p745
tp746
(dp747
S'recommends'
p748
S'libc6-loongson2f'
p749
ss(S'build'
p750
g151
NS'orion5x'
p751
tp752
(dp753
S'image-file'
p754
S'arch/arm/boot/zImage'
p755
ss(S'image'
p756
g120
tp757
(dp758
S'suggests'
p759
S'mkvmlinuz'
p760
sS'configs'
p761
(lp762
S'powerpc/config'
p763
ass(S'image'
p764
g49
tp765
(dp766
S'initramfs'
p767
I00
ss(S'image'
p768
g180
tp769
(dp770
S'configs'
p771
(lp772
sS'bootloaders'
p773
(lp774
S'grub-pc'
p775
aS'extlinux'
p776
aS'lilo'
p777
ass(g119
g217
g121
tp778
(dp779
g124
I01
sg125
(lp780
S'sparc64'
p781
aS'sparc64-smp'
p782
ass(S'base'
p783
g120
tp784
(dp785
S'kernel-arch'
p786
S'powerpc'
p787
sg177
(lp788
g121
ass(g119
g164
g121
tp789
(dp790
g124
I01
sg125
(lp791
S'alpha-generic'
p792
aS'alpha-smp'
p793
aS'alpha-legacy'
p794
ass(S'description'
p795
g180
g261
S'686-pae'
p796
tp797
(dp798
S'parts'
p799
(lp800
S'xen'
p801
ass(g119
g58
g121
tp802
(dp803
g124
I01
sg125
(lp804
S'itanium'
p805
aS'mckinley'
p806
ass(g119
g49
g121
tp807
(dp808
g124
I01
sg125
(lp809
S'r4k-ip22'
p810
aS'r5k-ip32'
p811
aS'sb1-bcm91250a'
p812
aS'sb1a-bcm91480b'
p813
aS'4kc-malta'
p814
aS'5kc-malta'
p815
aS'octeon'
p816
ass(S'description'
p817
g151
NS'iop32x'
p818
tp819
(dp820
S'hardware'
p821
S'IOP32x'
p822
sS'hardware-long'
p823
S'IOP32x based systems (Thecus N2100, etc)'
p824
ss(S'image'
p825
g498
NS'sparc64-smp'
p826
tp827
(dp828
S'configs'
p829
(lp830
S'sparc/config.sparc64-smp'
p831
ass(S'description'
p832
g120
NS'powerpc64'
p833
tp834
(dp835
S'hardware'
p836
S'64-bit PowerPC'
p837
ss(S'base'
p838
S'x32'
p839
tp840
(dp841
S'kernel-arch'
p842
S'x86'
p843
sS'featuresets'
p844
(lp845
ss(S'image'
p846
g313
tp847
(dp848
S'suggests'
p849
S'vmelilo, fdutils'
p850
ss(S'description'
p851
g320
NS'sh7751r'
p852
tp853
(dp854
S'hardware'
p855
S'sh7751r'
p856
sS'hardware-long'
p857
S'Renesas SH7751R R2D plus board'
p858
ss(S'description'
p859
g49
NS'sb1-bcm91250a'
p860
tp861
(dp862
S'hardware'
p863
S'BCM91250A'
p864
sS'hardware-long'
p865
S'Broadcom BCM91250A systems (aka SWARM)'
p866
ss(S'image'
p867
g113
NS's390x'
p868
tp869
(dp870
S'configs'
p871
(lp872
S's390x/config.s390x'
p873
ass(S'description'
p874
g49
NS'octeon'
p875
tp876
(dp877
S'hardware'
p878
S'Octeon'
p879
sS'hardware-long'
p880
S'Cavium Networks Octeon'
p881
ss(S'description'
p882
Ng479
tp883
(dp884
S'part-long-rt'
p885
S'This kernel includes the PREEMPT_RT realtime patch set.'
p886
sS'parts'
p887
(lp888
S'rt'
p889
asS'part-short-rt'
p890
S'PREEMPT_RT'
p891
ss(S'image'
p892
g151
NS'ixp4xx'
p893
tp894
(dp895
S'check-size'
p896
S'1441760'
p897
sS'configs'
p898
(lp899
S'armel/config-reduced'
p900
aS'armel/config-tiny'
p901
aS'armel/config.ixp4xx'
p902
ass(S'image'
p903
g320
tp904
(dp905
S'suggests'
p906
S'fdutils'
p907
ss(S'base'
p908
g5
tp909
(dp910
S'kernel-arch'
p911
S'parisc'
p912
sg177
(lp913
g121
asS'compiler'
p914
S'gcc-4.4'
p915
ss(S'description'
p916
g91
NS'armmp-lpae'
p917
tp918
(dp919
S'hardware'
p920
S'ARMv7 multiplatform compatible SoCs supporting LPAE'
p921
sS'hardware-long'
p922
S'ARMv7 multiplatform kernel supporting LPAE'
p923
ss(S'base'
p924
g320
tp925
(dp926
S'kernel-arch'
p927
S'sh'
p928
sg177
(lp929
g121
asS'compiler'
p930
S'gcc-4.7'
p931
ss(S'image'
p932
g217
tp933
(dp934
S'suggests'
p935
S'silo, fdutils'
p936
ss(S'description'
p937
tp938
(dp939
S'part-long-up'
p940
S'This kernel is not suitable for SMP (multi-processor,\nmulti-core or hyper-threaded) systems.'
p941
sS'part-long-xen'
p942
S'This kernel also runs on a Xen hypervisor.\nIt supports both privileged (dom0) and unprivileged (domU) operation.'
p943
ss(S'relations'
p944
g91
tp945
(dp946
S'headers%gcc-4.8'
p947
S'linux-compiler-gcc-4.8--arm'
p948
ss(S'image'
p949
g498
NS'sparc64'
p950
tp951
(dp952
S'configs'
p953
(lp954
S'sparc/config.sparc64'
p955
ass(S'description'
p956
g67
NS'sb1-bcm91250a'
p957
tp958
(dp959
S'hardware'
p960
S'BCM91250A'
p961
sS'hardware-long'
p962
S'Broadcom BCM91250A systems (aka SWARM)'
p963
ss(S'image'
p964
g498
tp965
(dp966
S'suggests'
p967
S'silo, fdutils'
p968
sS'configs'
p969
(lp970
S'sparc/config'
p971
ass(S'relations'
p972
g23
tp973
(dp974
S'headers%gcc-4.8'
p975
S'linux-compiler-gcc-4.8-s390'
p976
ss(S'image'
p977
g217
NS'sparc32'
p978
tp979
(dp980
S'image-postproc'
p981
S'sparc32-image-postproc'
p982
ss(S'description'
p983
g35
NS'powerpc-smp'
p984
tp985
(dp986
S'hardware'
p987
S'multiprocessor 32-bit PowerPC'
p988
ss(S'base'
p989
g35
tp990
(dp991
S'kernel-arch'
p992
S'powerpc'
p993
sg177
(lp994
g121
ass(S'image'
p995
g120
NS'powerpc64'
p996
tp997
(dp998
S'configs'
p999
(lp1000
S'powerpc/config.powerpc64'
p1001
ass(S'image'
p1002
g91
tp1003
(dp1004
S'suggests'
p1005
S'fdutils'
p1006
sS'configs'
p1007
(lp1008
S'armel/config'
p1009
aS'armhf/config'
p1010
ass(S'abi'
p1011
tp1012
(dp1013
S'abiname'
p1014
S'trunk'
p1015
ss(g119
g350
g121
tp1016
(dp1017
g124
I01
sg125
(lp1018
S'powerpcspe'
p1019
ass(g119
g313
g121
tp1020
(dp1021
g124
I01
sg125
(lp1022
S'm68k'
p1023
ass(S'description'
p1024
g180
NS'486'
p1025
tp1026
(dp1027
S'hardware'
p1028
S'older PCs'
p1029
sS'parts'
p1030
(lp1031
S'up'
p1032
asS'hardware-long'
p1033
S'PCs with a single processor not supporting PAE'
p1034
ss(S'description'
p1035
g151
NS'mv78xx0'
p1036
tp1037
(dp1038
S'hardware'
p1039
S'Marvell 78xx0'
p1040
sS'hardware-long'
p1041
S'Marvell DB-78xx0-BP Development Board'
p1042
ss(S'base'
p1043
tp1044
(dp1045
S'arches'
p1046
(lp1047
S'alpha'
p1048
aS'amd64'
p1049
aS'arm64'
p1050
aS'armel'
p1051
aS'armhf'
p1052
aS'hppa'
p1053
aS'i386'
p1054
aS'ia64'
p1055
aS'm68k'
p1056
aS'mips'
p1057
aS'mipsel'
p1058
aS'powerpc'
p1059
aS'powerpcspe'
p1060
aS'ppc64'
p1061
aS's390'
p1062
aS's390x'
p1063
aS'sh4'
p1064
aS'sparc'
p1065
aS'sparc64'
p1066
aS'x32'
p1067
asS'featuresets'
p1068
(lp1069
S'none'
p1070
aS'rt'
p1071
asS'compiler'
p1072
S'gcc-4.7'
p1073
ss(S'description'
p1074
g151
NS'versatile'
p1075
tp1076
(dp1077
S'hardware'
p1078
S'Versatile'
p1079
sS'hardware-long'
p1080
S'Versatile systems (PB, AB, Qemu)'
p1081
ss(g119
g35
g121
tp1082
(dp1083
g124
I01
sg125
(lp1084
S'powerpc'
p1085
aS'powerpc-smp'
p1086
aS'powerpc64'
p1087
ass(S'description'
p1088
g5
NS'parisc-smp'
p1089
tp1090
(dp1091
S'hardware'
p1092
S'multiprocessor 32-bit PA-RISC'
p1093
ss(S'base'
p1094
g313
tp1095
(dp1096
S'kernel-arch'
p1097
S'm68k'
p1098
sg177
(lp1099
g121
asS'cflags'
p1100
S'-ffreestanding'
p1101
sS'compiler'
p1102
S'gcc-4.8'
p1103
ss(S'description'
p1104
g320
NS'sh7785lcr'
p1105
tp1106
(dp1107
S'hardware'
p1108
S'sh7785lcr'
p1109
sS'hardware-long'
p1110
S'Renesas SH7785 reference board'
p1111
ss(S'image'
p1112
tp1113
(dp1114
S'initramfs-generators'
p1115
(lp1116
S'initramfs-tools'
p1117
aS'initramfs-fallback'
p1118
asS'type'
p1119
S'plain'
p1120
ss(S'image'
p1121
g151
NS'orion5x'
p1122
tp1123
(dp1124
S'check-size'
p1125
S'1572792'
p1126
sS'configs'
p1127
(lp1128
S'armel/config-reduced'
p1129
aS'armel/config.orion5x'
p1130
asS'recommends'
p1131
S'uboot-mkimage'
p1132
ss(S'image'
p1133
g180
NS'686-pae'
p1134
tp1135
(dp1136
S'configs'
p1137
(lp1138
S'kernelarch-x86/config-arch-32'
p1139
aS'i386/config.686-pae'
p1140
asS'recommends'
p1141
S'libc6-i686'
p1142
ss(S'image'
p1143
g67
NS'5kc-malta'
p1144
tp1145
(dp1146
S'configs'
p1147
(lp1148
S'mips/config.5kc-malta'
p1149
ass(g119
g498
g121
tp1150
(dp1151
g124
I01
sg125
(lp1152
S'sparc64'
p1153
aS'sparc64-smp'
p1154
ass(S'image'
p1155
g5
tp1156
(dp1157
S'suggests'
p1158
S'palo'
p1159
ss(S'build'
p1160
g320
NS'sh7785lcr'
p1161
tp1162
(dp1163
S'image-file'
p1164
S'arch/sh/boot/zImage'
p1165
ss(S'description'
p1166
g498
NS'sparc64'
p1167
tp1168
(dp1169
S'hardware'
p1170
S'uniprocessor 64-bit UltraSPARC'
p1171
ss(S'image'
p1172
g23
tp1173
(dp1174
S'bootloaders'
p1175
(lp1176
S's390-tools'
p1177
ass(S'description'
p1178
g67
NS'5kc-malta'
p1179
tp1180
(dp1181
S'hardware'
p1182
S'MIPS Malta (64-bit)'
p1183
sS'hardware-long'
p1184
S'MIPS Malta boards (64-bit)'
p1185
ss(S'description'
p1186
g217
NS'sparc32'
p1187
tp1188
(dp1189
S'hardware'
p1190
S'uniprocessor sparc32 (sun4m)'
p1191
ss(S'image'
p1192
g151
NS'iop32x'
p1193
tp1194
(dp1195
S'check-size'
p1196
S'1441784'
p1197
sS'configs'
p1198
(lp1199
S'armel/config-reduced'
p1200
aS'armel/config-tiny'
p1201
aS'armel/config.iop32x'
p1202
asstp1203
Rp1204
.