ccopy_reg
_reconstructor
p0
(cdebian_linux.config
ConfigCore
p1
c__builtin__
dict
p2
(dp3
(Vrelations
p4
Varmel
p5
tp6
(dp7
Vheaders%gcc-4.9
p8
Vlinux-compiler-gcc-4.9-arm
p9
ss(Vbase
p10
Vppc64el
p11
tp12
(dp13
Vkernel-arch
p14
Vpowerpc
p15
sVfeaturesets
p16
(lp17
Vnone
p18
ass(Vbase
p19
Vmips64
p20
g18
tp21
(dp22
Vflavours
p23
(lp24
V5kc-malta
p25
aVocteon
p26
asVimplicit-flavour
p27
I01
ss(Vbuild
p28
Vsh4
p29
tp30
(dp31
Vimage-file
p32
Varch/sh/boot/zImage
p33
ss(Vdescription
p34
Vi386
p35
Vnone
p36
V686-pae
p37
tp38
(dp39
Vparts
p40
(lp41
Vxen
p42
ass(Vdescription
p43
g29
NVsh7751r
p44
tp45
(dp46
Vhardware
p47
Vsh7751r
p48
sVhardware-long
p49
VRenesas SH7751R R2D plus board
p50
ss(Vimage
p51
Varm64
p52
tp53
(dp54
Vinstall-stem
p55
Vvmlinuz
p56
ss(Vimage
p57
Vsparc64
p58
NVsparc64-smp
p59
tp60
(dp61
Vconfigs
p62
(lp63
Vkernelarch-sparc/config-smp
p64
ass(Vbuild
p65
Vamd64
p66
tp67
(dp68
Vvdso
p69
I01
sVimage-file
p70
Varch/x86/boot/bzImage
p71
sVdebug-info
p72
I01
ss(Vbuild
p73
g5
tp74
(dp75
Vimage-file
p76
Varch/arm/boot/zImage
p77
ss(Vbase
p78
Vm68k
p79
tp80
(dp81
Vcflags
p82
V-ffreestanding
p83
sVkernel-arch
p84
Vm68k
p85
sVcompiler
p86
Vgcc-4.8
p87
sg16
(lp88
g18
ass(Vdescription
p89
Vhppa
p90
NVparisc
p91
tp92
(dp93
Vhardware
p94
V32-bit PA-RISC
p95
sVhardware-long
p96
VHP PA-RISC 32-bit systems with max 4 GB RAM
p97
ss(Vdescription
p98
tp99
(dp100
Vpart-long-xen
p101
VThis kernel also runs on a Xen hypervisor.\u000aIt supports both privileged (dom0) and unprivileged (domU) operation.
p102
sVpart-long-up
p103
VThis kernel is not suitable for SMP (multi-processor,\u000amulti-core or hyper-threaded) systems.
p104
ss(Vimage
p105
g90
tp106
(dp107
Vsuggests
p108
Vpalo
p109
sVinstall-stem
p110
Vvmlinux
p111
ss(Vdescription
p112
g58
NVsparc64
p113
tp114
(dp115
Vhardware
p116
Vuniprocessor 64-bit UltraSPARC
p117
ss(Vimage
p118
Vs390x
p119
NVs390x
p120
tp121
(dp122
Vconfigs
p123
(lp124
Vkernelarch-s390/config-arch-64
p125
ass(Vimage
p126
Vmips
p127
NV5kc-malta
p128
tp129
(dp130
Vconfigs
p131
(lp132
Vkernelarch-mips/config.5kc-malta
p133
ass(Vbuild
p134
Vpowerpcspe
p135
tp136
(dp137
Vvdso
p138
I01
sVimage-file
p139
Vvmlinux
p140
ss(Vdescription
p141
g66
NVamd64
p142
tp143
(dp144
Vhardware
p145
V64-bit PCs
p146
sVhardware-long
p147
VPCs with AMD64, Intel 64 or VIA Nano processors
p148
ss(Vdescription
p149
g5
NVversatile
p150
tp151
(dp152
Vhardware
p153
VVersatile
p154
sVhardware-long
p155
VVersatile systems (PB, AB, Qemu)
p156
ss(g19
Vmipsel
p157
g18
tp158
(dp159
g23
(lp160
V4kc-malta
p161
aV5kc-malta
p162
aVloongson-2e
p163
aVloongson-2f
p164
aVloongson-3
p165
asg27
I01
ss(Vimage
p166
g157
NVloongson-2f
p167
tp168
(dp169
Vrecommends
p170
Vlibc6-loongson2f
p171
sVconfigs
p172
(lp173
Vkernelarch-mips/config.loongson-2f
p174
ass(Vbase
p175
g52
tp176
(dp177
Vkernel-arch
p178
Varm64
p179
sVfeaturesets
p180
(lp181
Vnone
p182
ass(Vimage
p183
tp184
(dp185
Vinitramfs-generators
p186
(lp187
Vinitramfs-tools
p188
aVinitramfs-fallback
p189
ass(Vdescription
p190
Valpha
p191
NValpha-generic
p192
tp193
(dp194
Vhardware
p195
VAlpha
p196
sVhardware-long
p197
VDEC Alpha systems with extended kernel start address (Wildfire, Titan, Marvel)
p198
ss(Vbase
p199
Vx32
p200
tp201
(dp202
Vkernel-arch
p203
Vx86
p204
sVfeaturesets
p205
(lp206
ss(Vbuild
p207
g127
tp208
(dp209
Vimage-file
p210
Vvmlinux
p211
ss(Vimage
p212
g119
tp213
(dp214
Vbootloaders
p215
(lp216
Vs390-tools
p217
asVconfigs
p218
(lp219
sVinstall-stem
p220
Vvmlinuz
p221
ss(Vdescription
p222
Vpowerpc
p223
NVpowerpc-smp
p224
tp225
(dp226
Vhardware
p227
Vmultiprocessor 32-bit PowerPC
p228
ss(Vdescription
p229
g127
NV5kc-malta
p230
tp231
(dp232
Vhardware
p233
VMIPS Malta (64-bit)
p234
sVhardware-long
p235
VMIPS Malta boards (64-bit)
p236
ss(Vbase
p237
g20
tp238
(dp239
Vkernel-arch
p240
Vmips
p241
sg16
(lp242
g18
ass(Vbuild
p243
g90
tp244
(dp245
Vimage-file
p246
Vvmlinux
p247
ss(Vbuild
p248
g191
tp249
(dp250
Vimage-file
p251
Varch/alpha/boot/vmlinux.gz
p252
ss(Vimage
p253
g157
tp254
(dp255
Vinstall-stem
p256
Vvmlinux
p257
ss(Vabi
p258
tp259
(dp260
Vabiname
p261
V1
p262
ss(Vrelations
p263
g90
tp264
(dp265
Vgcc-4.9
p266
Vgcc-4.9 <!stage1>, binutils-hppa64 <!stage1>, gcc-4.9-hppa64 <!stage1>
p267
ss(Vdescription
p268
g135
tp269
(dp270
Vhardware
p271
V32-bit PowerPC with SPE (instead of AltiVec) with SMP support
p272
ss(Vbuild
p273
g119
tp274
(dp275
Vvdso
p276
I01
sVimage-file
p277
Varch/s390/boot/image
p278
ss(g19
g29
g18
tp279
(dp280
g23
(lp281
Vsh7751r
p282
aVsh7785lcr
p283
asg27
I01
ss(Vimage
p284
g223
tp285
(dp286
Vsuggests
p287
Vmkvmlinuz
p288
sVconfigs
p289
(lp290
sVinstall-stem
p291
Vvmlinux
p292
ss(Vimage
p293
g5
tp294
(dp295
Vsuggests
p296
Vfdutils
p297
sVconfigs
p298
(lp299
Vkernelarch-arm/config
p300
aVarmel/config
p301
asVinstall-stem
p302
Vvmlinuz
p303
ss(Vbuild
p304
Vppc64
p305
tp306
(dp307
Vvdso
p308
I01
sVimage-file
p309
Vvmlinux
p310
ss(Vbuild
p311
g11
tp312
(dp313
Vvdso
p314
I01
sVimage-file
p315
Vvmlinux
p316
ss(Vimage
p317
Vmips64el
p318
NV5kc-malta
p319
tp320
(dp321
Vconfigs
p322
(lp323
Vkernelarch-mips/config.5kc-malta
p324
ass(Vimage
p325
g157
NVloongson-3
p326
tp327
(dp328
Vconfigs
p329
(lp330
Vkernelarch-mips/config.loongson-3
p331
ass(Vimage
p332
g29
NVsh7785lcr
p333
tp334
(dp335
Vcheck-size
p336
L4194304L
sVrecommends
p337
Vu-boot-tools
p338
ss(Vdescription
p339
Varmhf
p340
NVarmmp
p341
tp342
(dp343
Vhardware
p344
VARMv7 multiplatform compatible SoCs
p345
sVhardware-long
p346
VARMv7 multiplatform kernel. See\u000ahttps://wiki.debian.org/DebianKernel/ARMMP for details of supported\u000aplatforms
p347
ss(Vimage
p348
g79
tp349
(dp350
Vsuggests
p351
Vvmelilo, fdutils
p352
sVinstall-stem
p353
Vvmlinuz
p354
ss(Vimage
p355
g318
tp356
(dp357
Vinstall-stem
p358
Vvmlinux
p359
ss(Vbuild
p360
g340
tp361
(dp362
Vvdso
p363
I01
sVimage-file
p364
Varch/arm/boot/zImage
p365
ss(Vbuild
p366
g20
tp367
(dp368
Vimage-file
p369
Vvmlinux
p370
ss(Vrelations
p371
g340
tp372
(dp373
Vheaders%gcc-4.9
p374
Vlinux-compiler-gcc-4.9-arm
p375
ss(Vdescription
p376
g90
NVparisc64-smp
p377
tp378
(dp379
Vhardware
p380
Vmultiprocessor 64-bit PA-RISC
p381
sVhardware-long
p382
VHP PA-RISC 64-bit SMP systems with support for more than 4 GB RAM
p383
ss(Vdescription
p384
g58
NVsparc64-smp
p385
tp386
(dp387
Vhardware
p388
Vmultiprocessor 64-bit UltraSPARC
p389
ss(Vimage
p390
g35
tp391
(dp392
Vbootloaders
p393
(lp394
Vgrub-pc
p395
aVextlinux
p396
asVconfigs
p397
(lp398
sVbreaks
p399
Vxserver-xorg-input-vmmouse (<< 1:13.0.99)
p400
sVinstall-stem
p401
Vvmlinuz
p402
ss(Vbase
p403
g135
tp404
(dp405
Vkernel-arch
p406
Vpowerpc
p407
sg16
(lp408
g18
ass(g19
g119
g18
tp409
(dp410
g23
(lp411
Vs390x
p412
asg27
I01
ss(Vbase
p413
g35
tp414
(dp415
Vkernel-arch
p416
Vx86
p417
sVcompiler
p418
Vgcc-5
p419
sVfeaturesets
p420
(lp421
Vnone
p422
aVrt
p423
ass(Vbase
p424
tp425
(dp426
Varches
p427
(lp428
Valpha
p429
aVamd64
p430
aVarm64
p431
aVarmel
p432
aVarmhf
p433
aVhppa
p434
aVi386
p435
aVm68k
p436
aVmips
p437
aVmipsel
p438
aVmips64
p439
aVmips64el
p440
aVor1k
p441
aVpowerpc
p442
aVpowerpcspe
p443
aVppc64
p444
aVppc64el
p445
aVs390
p446
aVs390x
p447
aVsh4
p448
aVsparc
p449
aVsparc64
p450
aVx32
p451
asVcompiler
p452
Vgcc-4.9
p453
sVfeaturesets
p454
(lp455
Vnone
p456
aVrt
p457
ass(Vbase
p458
g35
Vrt
p459
tp460
(dp461
Vflavours
p462
(lp463
V686-pae
p464
ass(Vbase
p465
g58
tp466
(dp467
Vkernel-arch
p468
Vsparc
p469
sg16
(lp470
g18
ass(g19
g5
g18
tp471
(dp472
g23
(lp473
Vmarvell
p474
aVversatile
p475
asg27
I01
ss(Vbase
p476
Vs390
p477
tp478
(dp479
Vkernel-arch
p480
Vs390
p481
sVfeaturesets
p482
(lp483
ss(Vdescription
p484
g340
NVarmmp-lpae
p485
tp486
(dp487
Vhardware
p488
VARMv7 multiplatform compatible SoCs supporting LPAE
p489
sVhardware-long
p490
VARMv7 multiplatform kernel supporting LPAE. See\u000ahttps://wiki.debian.org/DebianKernel/ARMMP for details of supported\u000aplatforms.
p491
ss(Vbase
p492
g66
Vrt
p493
tp494
(dp495
Vflavours
p496
(lp497
Vamd64
p498
ass(Vimage
p499
g127
NVocteon
p500
tp501
(dp502
Vconfigs
p503
(lp504
Vkernelarch-mips/config.octeon
p505
ass(Vbase
p506
g127
tp507
(dp508
Vkernel-arch
p509
Vmips
p510
sg16
(lp511
g18
ass(Vimage
p512
g135
tp513
(dp514
Vsuggests
p515
Vmkvmlinuz
p516
sVinstall-stem
p517
Vvmlinux
p518
ss(Vrelations
p519
tp520
(dp521
Vinitramfs-fallback
p522
Vlinux-initramfs-tool
p523
sVgcc-4.8
p524
Vgcc-4.8 <!stage1>
p525
sVinitramfs-tools
p526
Vinitramfs-tools (>= 0.110~)
p527
sVgcc-4.9
p528
Vgcc-4.9 <!stage1>
p529
sVgcc-5
p530
Vgcc-5 <!stage1>
p531
ss(Vdescription
p532
g318
NVloongson-3
p533
tp534
(dp535
Vhardware
p536
VLoongson 3A/3B
p537
sVhardware-long
p538
VLoongson 3A or 3B based systems (e.g. from Loongson or Lemote)
p539
ss(Vdescription
p540
g66
Vnone
p541
Vamd64
p542
tp543
(dp544
Vparts
p545
(lp546
Vxen
p547
ass(Vdescription
p548
g11
NVpowerpc64le
p549
tp550
(dp551
Vhardware
p552
VLittle-endian 64-bit PowerPC
p553
ss(Vbase
p554
g340
tp555
(dp556
Vkernel-arch
p557
Varm
p558
sg16
(lp559
g18
ass(Vimage
p560
g127
tp561
(dp562
Vinstall-stem
p563
Vvmlinux
p564
ss(Vimage
p565
g318
NVloongson-3
p566
tp567
(dp568
Vconfigs
p569
(lp570
Vkernelarch-mips/config.loongson-3
p571
ass(Vbase
p572
Vor1k
p573
tp574
(dp575
Vkernel-arch
p576
Vopenrisc
p577
sVfeaturesets
p578
(lp579
ss(Vimage
p580
g29
tp581
(dp582
Vsuggests
p583
Vfdutils
p584
sVinstall-stem
p585
Vvmlinuz
p586
ss(Vdescription
p587
g127
NV4kc-malta
p588
tp589
(dp590
Vhardware
p591
VMIPS Malta
p592
sVhardware-long
p593
VMIPS Malta boards
p594
ss(Vimage
p595
g223
NVpowerpc64
p596
tp597
(dp598
Vconfigs
p599
(lp600
Vkernelarch-powerpc/config-arch-64
p601
aVkernelarch-powerpc/config-arch-64-be
p602
ass(Vbase
p603
g157
tp604
(dp605
Vkernel-arch
p606
Vmips
p607
sg16
(lp608
g18
ass(Vbuild
p609
g35
tp610
(dp611
Vvdso
p612
I01
sVimage-file
p613
Varch/x86/boot/bzImage
p614
ss(g19
g191
g18
tp615
(dp616
g23
(lp617
Valpha-generic
p618
aValpha-smp
p619
asg27
I01
ss(Vbase
p620
g223
tp621
(dp622
Vkernel-arch
p623
Vpowerpc
p624
sg16
(lp625
g18
ass(Vdescription
p626
NVrt
p627
tp628
(dp629
Vpart-long-rt
p630
VThis kernel includes the PREEMPT_RT realtime patch set.
p631
sVpart-short-rt
p632
VPREEMPT_RT
p633
sVparts
p634
(lp635
Vrt
p636
ass(Vimage
p637
g58
tp638
(dp639
Vsuggests
p640
Vsilo, fdutils
p641
sVconfigs
p642
(lp643
sVinstall-stem
p644
Vvmlinuz
p645
ss(Vbuild
p646
g52
tp647
(dp648
Vvdso
p649
I01
sVimage-file
p650
Varch/arm64/boot/Image
p651
sVdebug-info
p652
I01
ss(g19
g318
g18
tp653
(dp654
g23
(lp655
V5kc-malta
p656
aVloongson-3
p657
aVocteon
p658
asg27
I01
ss(Vimage
p659
g20
NVocteon
p660
tp661
(dp662
Vconfigs
p663
(lp664
Vkernelarch-mips/config.octeon
p665
ass(Vdescription
p666
g35
NV686
p667
tp668
(dp669
Vhardware
p670
Volder PCs
p671
sVhardware-long
p672
VPCs with one or more processors not supporting PAE
p673
ss(Vimage
p674
g52
NVarm64
p675
tp676
(dp677
s(Vbase
p678
g52
Vnone
p679
tp680
(dp681
Vflavours
p682
(lp683
Varm64
p684
ass(Vdescription
p685
g157
NVloongson-2e
p686
tp687
(dp688
Vhardware
p689
VLoongson 2E
p690
sVhardware-long
p691
VLemote Loongson 2E systems
p692
ss(Vimage
p693
g340
tp694
(dp695
Vsuggests
p696
Vfdutils
p697
sVconfigs
p698
(lp699
Vkernelarch-arm/config
p700
asVinstall-stem
p701
Vvmlinuz
p702
ss(Vbase
p703
g318
tp704
(dp705
Vkernel-arch
p706
Vmips
p707
sg16
(lp708
g18
ass(Vimage
p709
g66
NVamd64
p710
tp711
(dp712
Vconfigs
p713
(lp714
Vkernelarch-x86/config-arch-64
p715
ass(Vrelations
p716
g66
tp717
(dp718
Vheaders%gcc-5
p719
Vlinux-compiler-gcc-5-x86
p720
ss(Vdescription
p721
g52
NVarm64
p722
tp723
(dp724
Vhardware
p725
V64-bit ARMv8 machines
p726
ss(Vbase
p727
NVrt
p728
tp729
(dp730
Venabled
p731
I01
ss(Vdescription
p732
g318
NV5kc-malta
p733
tp734
(dp735
Vhardware
p736
VMIPS Malta
p737
sVhardware-long
p738
VMIPS Malta boards
p739
ss(Vimage
p740
g305
tp741
(dp742
Vsuggests
p743
Vmkvmlinuz
p744
sVconfigs
p745
(lp746
sVinstall-stem
p747
Vvmlinux
p748
ss(Vimage
p749
g157
NV4kc-malta
p750
tp751
(dp752
Vconfigs
p753
(lp754
Vkernelarch-mips/config.4kc-malta
p755
ass(Vdescription
p756
g29
NVsh7785lcr
p757
tp758
(dp759
Vhardware
p760
Vsh7785lcr
p761
sVhardware-long
p762
VRenesas SH7785 reference board
p763
ss(Vbuild
p764
g58
tp765
(dp766
Vimage-file
p767
Varch/sparc/boot/zImage
p768
ss(Vimage
p769
g20
NV5kc-malta
p770
tp771
(dp772
Vconfigs
p773
(lp774
Vkernelarch-mips/config.5kc-malta
p775
ass(g19
g135
g18
tp776
(dp777
g23
(lp778
Vpowerpcspe
p779
asg27
I01
ss(Vbuild
p780
g79
tp781
(dp782
Vimage-file
p783
Vvmlinux.gz
p784
ss(Vimage
p785
g305
NVpowerpc64
p786
tp787
(dp788
Vconfigs
p789
(lp790
Vkernelarch-powerpc/config-arch-64
p791
aVkernelarch-powerpc/config-arch-64-be
p792
ass(Vdescription
p793
g35
NV686-pae
p794
tp795
(dp796
Vhardware
p797
Vmodern PCs
p798
sVhardware-long
p799
VPCs with one or more processors supporting PAE
p800
sVparts
p801
(lp802
Vpae
p803
ass(Vdescription
p804
g119
NVs390x
p805
tp806
(dp807
Vhardware
p808
VIBM zSeries
p809
ss(Vbuild
p810
g318
tp811
(dp812
Vimage-file
p813
Vvmlinux
p814
ss(Vdescription
p815
g127
NVocteon
p816
tp817
(dp818
Vhardware
p819
VOcteon
p820
sVhardware-long
p821
VCavium Networks Octeon
p822
ss(Vbuild
p823
g223
tp824
(dp825
Vvdso
p826
I01
sVimage-file
p827
Vvmlinux
p828
ss(Vdescription
p829
g223
NVpowerpc
p830
tp831
(dp832
Vhardware
p833
Vuniprocessor 32-bit PowerPC
p834
ss(g19
g58
g18
tp835
(dp836
g23
(lp837
Vsparc64
p838
aVsparc64-smp
p839
asg27
I01
ss(Vimage
p840
g35
NV686-pae
p841
tp842
(dp843
Vrecommends
p844
Vlibc6-i686
p845
sVconfigs
p846
(lp847
Vkernelarch-x86/config-arch-32
p848
aVi386/config.686-pae
p849
ass(Vdescription
p850
g305
NVpowerpc64
p851
tp852
(dp853
Vhardware
p854
V64-bit PowerPC
p855
ss(Vbuild
p856
g157
tp857
(dp858
Vimage-file
p859
Vvmlinux
p860
ss(Vimage
p861
g157
NV5kc-malta
p862
tp863
(dp864
Vconfigs
p865
(lp866
Vkernelarch-mips/config.5kc-malta
p867
ass(Vabi
p868
Ng627
tp869
(dp870
Vignore-changes
p871
(lp872
V*
p873
ass(Vimage
p874
g340
NVarmmp-lpae
p875
tp876
(dp877
Vconfigs
p878
(lp879
Varmhf/config.armmp
p880
aVarmhf/config.lpae
p881
ass(g19
g223
g18
tp882
(dp883
g23
(lp884
Vpowerpc
p885
aVpowerpc-smp
p886
aVpowerpc64
p887
asg27
I01
ss(Vbase
p888
g5
tp889
(dp890
Vkernel-arch
p891
Varm
p892
sg16
(lp893
g18
ass(Vbase
p894
g29
tp895
(dp896
Vkernel-arch
p897
Vsh
p898
sg16
(lp899
g18
ass(Vbuild
p900
g35
NV686-pae
p901
tp902
(dp903
Vdebug-info
p904
I01
ss(Vbuild
p905
g119
NVs390x
p906
tp907
(dp908
Vdebug-info
p909
I01
ss(Vxen
p910
g66
g541
Vamd64
p911
tp912
(dp913
Vflavours
p914
(lp915
Vamd64
p916
ass(g19
g127
g18
tp917
(dp918
g23
(lp919
V4kc-malta
p920
aV5kc-malta
p921
aVocteon
p922
asg27
I01
ss(Vbase
p923
Vsparc
p924
tp925
(dp926
Vkernel-arch
p927
Vsparc
p928
sVfeaturesets
p929
(lp930
ss(Vimage
p931
g20
tp932
(dp933
Vinstall-stem
p934
Vvmlinux
p935
ss(Vbase
p936
g35
g36
tp937
(dp938
Vflavours
p939
(lp940
V686
p941
aV686-pae
p942
ass(Vdescription
p943
g157
NVloongson-2f
p944
tp945
(dp946
Vhardware
p947
VLoongson 2F
p948
sVhardware-long
p949
VLemote Loongson 2F systems
p950
ss(Vbase
p951
g66
tp952
(dp953
Vkernel-arch
p954
Vx86
p955
sVcompiler
p956
Vgcc-5
p957
sVfeaturesets
p958
(lp959
Vnone
p960
aVrt
p961
ass(Vdescription
p962
g20
NVocteon
p963
tp964
(dp965
Vhardware
p966
VOcteon
p967
sVhardware-long
p968
VCavium Networks Octeon
p969
ss(Vimage
p970
g35
NV686
p971
tp972
(dp973
Vrecommends
p974
Vlibc6-i686
p975
sVconfigs
p976
(lp977
Vkernelarch-x86/config-arch-32
p978
aVi386/config.686
p979
ass(Vimage
p980
g11
NVpowerpc64le
p981
tp982
(dp983
Vconfigs
p984
(lp985
Vkernelarch-powerpc/config-arch-64
p986
aVkernelarch-powerpc/config-arch-64-le
p987
ass(Vdescription
p988
g157
NV4kc-malta
p989
tp990
(dp991
Vhardware
p992
VMIPS Malta
p993
sVhardware-long
p994
VMIPS Malta boards
p995
ss(Vdescription
p996
g318
NVocteon
p997
tp998
(dp999
Vhardware
p1000
VOcteon
p1001
sVhardware-long
p1002
VCavium Networks Octeon
p1003
ss(Vbase
p1004
g191
tp1005
(dp1006
Vkernel-arch
p1007
Valpha
p1008
sg16
(lp1009
g18
ass(Vimage
p1010
g58
NVsparc64
p1011
tp1012
(dp1013
Vconfigs
p1014
(lp1015
Vkernelarch-sparc/config-up
p1016
ass(g19
g340
g18
tp1017
(dp1018
g23
(lp1019
Varmmp
p1020
aVarmmp-lpae
p1021
asg27
I01
ss(Vbase
p1022
g119
tp1023
(dp1024
Vkernel-arch
p1025
Vs390
p1026
sg16
(lp1027
g18
ass(Vdescription
p1028
g223
NVpowerpc64
p1029
tp1030
(dp1031
Vhardware
p1032
V64-bit PowerPC
p1033
ss(Vimage
p1034
g223
NVpowerpc-smp
p1035
tp1036
(dp1037
Vconfigs
p1038
(lp1039
Vpowerpc/config.powerpc
p1040
aVpowerpc/config.powerpc-smp
p1041
ass(Vbase
p1042
g305
tp1043
(dp1044
Vkernel-arch
p1045
Vpowerpc
p1046
sg16
(lp1047
g18
ass(Vimage
p1048
g191
tp1049
(dp1050
Vsuggests
p1051
Vaboot, fdutils
p1052
sVinstall-stem
p1053
Vvmlinuz
p1054
ss(Vimage
p1055
g5
NVmarvell
p1056
tp1057
(dp1058
Vcheck-size
p1059
L2097080L
sVrecommends
p1060
Vu-boot-tools
p1061
sVbreaks
p1062
Vflash-kernel (<< 3.57~)
p1063
sVcheck-size-with-dtb
p1064
I01
ss(Vversion
p1065
tp1066
(dp1067
Vabiname_base
p1068
V4.4.0
p1069
sVupstream
p1070
V4.4
p1071
sVabiname
p1072
V4.4.0-1
p1073
sVsource
p1074
V4.4.2-1
p1075
ss(g19
g305
g18
tp1076
(dp1077
g23
(lp1078
Vpowerpc64
p1079
asg27
I01
ss(Vdescription
p1080
g191
NValpha-smp
p1081
tp1082
(dp1083
Vhardware
p1084
VAlpha SMP
p1085
sVhardware-long
p1086
VDEC Alpha SMP systems with extended kernel start address (Wildfire, Titan, Marvel)
p1087
ss(Vbase
p1088
g66
g541
tp1089
(dp1090
Vflavours
p1091
(lp1092
Vamd64
p1093
ass(Vimage
p1094
g127
NV4kc-malta
p1095
tp1096
(dp1097
Vconfigs
p1098
(lp1099
Vkernelarch-mips/config.4kc-malta
p1100
ass(Vdescription
p1101
g5
NVmarvell
p1102
tp1103
(dp1104
Vhardware
p1105
VMarvell Kirkwood/Orion
p1106
sVhardware-long
p1107
VMarvell Kirkwood based systems (SheevaPlug, QNAP TS-119/TS-219, etc)\u000aand Orion 5181, 5182 and 5281 based systems (QNAP TS-109/TS-209, etc)
p1108
ss(g19
g79
g18
tp1109
(dp1110
g23
(lp1111
Vm68k
p1112
asg27
I01
ss(Vbase
p1113
g90
NVparisc64-smp
p1114
tp1115
(dp1116
Vcflags
p1117
V-fno-cse-follow-jumps
p1118
sVoverride-host-type
p1119
Vhppa64-linux-gnu
p1120
ss(Vdescription
p1121
g35
tp1122
(dp1123
Vpart-long-pae
p1124
VThis kernel requires PAE (Physical Address Extension).\u000aThis feature is supported by the Intel Pentium Pro/II/III/4/4M/D, Xeon,\u000aCore and Atom; AMD Geode NX, Athlon (K7), Duron, Opteron, Sempron,\u000aTurion or Phenom; Transmeta Efficeon; VIA C7; and some other processors.
p1125
ss(Vimage
p1126
g11
tp1127
(dp1128
Vsuggests
p1129
Vmkvmlinuz
p1130
sVconfigs
p1131
(lp1132
sVinstall-stem
p1133
Vvmlinux
p1134
ss(Vimage
p1135
g157
NVloongson-2e
p1136
tp1137
(dp1138
Vconfigs
p1139
(lp1140
Vkernelarch-mips/config.loongson-2e
p1141
ass(g19
g11
g18
tp1142
(dp1143
g23
(lp1144
Vpowerpc64le
p1145
asg27
I01
ss(Vbase
p1146
g90
tp1147
(dp1148
Vkernel-arch
p1149
Vparisc
p1150
sg16
(lp1151
g18
ass(Vdescription
p1152
g157
NV5kc-malta
p1153
tp1154
(dp1155
Vhardware
p1156
VMIPS Malta (64-bit)
p1157
sVhardware-long
p1158
VMIPS Malta boards (64-bit)
p1159
ss(Vrelations
p1160
g35
tp1161
(dp1162
Vheaders%gcc-5
p1163
Vlinux-compiler-gcc-5-x86
p1164
ss(Vdescription
p1165
g79
NVm68k
p1166
tp1167
(dp1168
Vhardware
p1169
VMotorola MC68020+ family
p1170
ss(g19
g90
g18
tp1171
(dp1172
g23
(lp1173
Vparisc
p1174
aVparisc64-smp
p1175
asg27
I01
ss(Vdescription
p1176
g157
NVloongson-3
p1177
tp1178
(dp1179
Vhardware
p1180
VLoongson 3A/3B
p1181
sVhardware-long
p1182
VLoongson 3A or 3B based systems (e.g. from Loongson or Lemote)
p1183
ss(Vrelations
p1184
g119
tp1185
(dp1186
Vheaders%gcc-4.9
p1187
Vlinux-compiler-gcc-4.9-s390
p1188
ss(Vdescription
p1189
g20
NV5kc-malta
p1190
tp1191
(dp1192
Vhardware
p1193
VMIPS Malta
p1194
sVhardware-long
p1195
VMIPS Malta boards
p1196
ss(Vimage
p1197
g318
NVocteon
p1198
tp1199
(dp1200
Vconfigs
p1201
(lp1202
Vkernelarch-mips/config.octeon
p1203
ass(Vimage
p1204
g66
tp1205
(dp1206
Vbootloaders
p1207
(lp1208
Vgrub-pc
p1209
aVgrub-efi
p1210
aVextlinux
p1211
asVconfigs
p1212
(lp1213
sVbreaks
p1214
Vxserver-xorg-input-vmmouse (<< 1:13.0.99)
p1215
sVinstall-stem
p1216
Vvmlinuz
p1217
sstp1218
Rp1219
.