ccopy_reg
_reconstructor
p0
(cdebian_linux.config
ConfigCore
p1
c__builtin__
dict
p2
(dp3
(S'description'
p4
S'armel'
p5
NS'mv78xx0'
p6
tp7
(dp8
S'hardware'
p9
S'Marvell 78xx0'
p10
sS'hardware-long'
p11
S'Marvell DB-78xx0-BP Development Board'
p12
ss(S'image'
p13
S'amd64'
p14
tp15
(dp16
S'configs'
p17
(lp18
sS'bootloaders'
p19
(lp20
S'grub-pc'
p21
aS'extlinux'
p22
aS'lilo'
p23
ass(S'base'
p24
g14
S'none'
p25
tp26
(dp27
S'flavours'
p28
(lp29
S'amd64'
p30
ass(S'image'
p31
S'ia64'
p32
tp33
(dp34
S'suggests'
p35
S'fdutils'
p36
sS'bootloaders'
p37
(lp38
S'elilo'
p39
ass(S'description'
p40
S'mipsel'
p41
NS'5kc-malta'
p42
tp43
(dp44
S'hardware'
p45
S'MIPS Malta (64-bit)'
p46
sS'hardware-long'
p47
S'MIPS Malta boards (64-bit)'
p48
ss(S'description'
p49
S'i386'
p50
NS'686-pae'
p51
tp52
(dp53
S'hardware'
p54
S'modern PCs'
p55
sS'parts'
p56
(lp57
S'pae'
p58
asS'hardware-long'
p59
S'PCs with one or more processors supporting PAE'
p60
ss(S'version'
p61
tp62
(dp63
S'abiname'
p64
S'3.12-kali1'
p65
sS'source'
p66
V3.12.6-2kali1
p67
sS'upstream'
p68
S'3.12'
p69
ss(S'description'
p70
g14
g25
S'amd64'
p71
tp72
(dp73
S'parts'
p74
(lp75
S'xen'
p76
ass(S'image'
p77
g41
NS'sb1-bcm91250a'
p78
tp79
(dp80
S'configs'
p81
(lp82
S'mips/config.sb1-bcm91250a'
p83
ass(S'base'
p84
S'ppc64'
p85
S'none'
p86
tp87
(dp88
S'implicit-flavour'
p89
I01
sS'flavours'
p90
(lp91
S'powerpc64'
p92
ass(S'description'
p93
S'powerpc'
p94
NS'powerpc64'
p95
tp96
(dp97
S'hardware'
p98
S'64-bit PowerPC'
p99
ss(S'description'
p100
g32
NS'itanium'
p101
tp102
(dp103
S'hardware'
p104
S'Itanium'
p105
ss(S'description'
p106
g5
NS'kirkwood'
p107
tp108
(dp109
S'hardware'
p110
S'Marvell Kirkwood'
p111
sS'hardware-long'
p112
S'Marvell Kirkwood based systems (SheevaPlug, QNAP TS-119/TS-219, etc)'
p113
ss(S'base'
p114
S'alpha'
p115
tp116
(dp117
S'kernel-arch'
p118
S'alpha'
p119
sS'featuresets'
p120
(lp121
g86
ass(S'description'
p122
S'mips'
p123
NS'octeon'
p124
tp125
(dp126
S'hardware'
p127
S'Octeon'
p128
sS'hardware-long'
p129
S'Cavium Networks Octeon'
p130
ss(S'description'
p131
g123
NS'sb1-bcm91250a'
p132
tp133
(dp134
S'hardware'
p135
S'BCM91250A'
p136
sS'hardware-long'
p137
S'Broadcom BCM91250A systems (aka SWARM)'
p138
ss(g84
S'armhf'
p139
g86
tp140
(dp141
g89
I01
sg90
(lp142
S'armmp'
p143
aS'armmp-lpae'
p144
ass(S'description'
p145
g85
NS'powerpc64'
p146
tp147
(dp148
S'hardware'
p149
S'64-bit PowerPC'
p150
ss(S'description'
p151
NS'rt'
p152
tp153
(dp154
S'part-long-rt'
p155
S'This kernel includes the PREEMPT_RT realtime patch set.'
p156
sS'parts'
p157
(lp158
S'rt'
p159
asS'part-short-rt'
p160
S'PREEMPT_RT'
p161
ss(S'base'
p162
g50
S'rt'
p163
tp164
(dp165
S'flavours'
p166
(lp167
S'686-pae'
p168
ass(S'relations'
p169
g50
tp170
(dp171
S'headers%gcc-4.8'
p172
S'linux-compiler-gcc-4.8-x86'
p173
ss(S'build'
p174
g5
NS'orion5x'
p175
tp176
(dp177
S'image-file'
p178
S'arch/arm/boot/zImage'
p179
ss(S'image'
p180
S'sparc64'
p181
NS'sparc64-smp'
p182
tp183
(dp184
S'configs'
p185
(lp186
S'sparc/config.sparc64-smp'
p187
ass(S'build'
p188
S's390'
p189
NS's390x'
p190
tp191
(dp192
S'debug-info'
p193
I01
ss(S'image'
p194
g94
tp195
(dp196
S'suggests'
p197
S'mkvmlinuz'
p198
ss(S'description'
p199
S'sparc'
p200
NS'sparc32'
p201
tp202
(dp203
S'hardware'
p204
S'uniprocessor sparc32 (sun4m)'
p205
ss(S'description'
p206
g94
NS'powerpc'
p207
tp208
(dp209
S'hardware'
p210
S'uniprocessor 32-bit PowerPC'
p211
ss(S'image'
p212
g14
NS'amd64'
p213
tp214
(dp215
S'configs'
p216
(lp217
S'kernelarch-x86/config-arch-64'
p218
ass(S'base'
p219
g14
S'rt'
p220
tp221
(dp222
S'flavours'
p223
(lp224
S'amd64'
p225
ass(S'description'
p226
g50
S'none'
p227
S'amd64'
p228
tp229
(dp230
S'parts'
p231
(lp232
S'xen'
p233
ass(S'base'
p234
S'arm64'
p235
tp236
(dp237
S'kernel-arch'
p238
S'arm64'
p239
sS'featuresets'
p240
(lp241
ss(S'base'
p242
g50
tp243
(dp244
S'kernel-arch'
p245
S'x86'
p246
sS'featuresets'
p247
(lp248
S'none'
p249
aS'rt'
p250
ass(S'base'
p251
g41
tp252
(dp253
S'kernel-arch'
p254
S'mips'
p255
sg120
(lp256
g86
ass(S'relations'
p257
g14
tp258
(dp259
S'headers%gcc-4.8'
p260
S'linux-compiler-gcc-4.8-x86'
p261
ss(S'base'
p262
tp263
(dp264
S'arches'
p265
(lp266
S'alpha'
p267
aS'amd64'
p268
aS'arm64'
p269
aS'armel'
p270
aS'armhf'
p271
aS'hppa'
p272
aS'i386'
p273
aS'ia64'
p274
aS'm68k'
p275
aS'mips'
p276
aS'mipsel'
p277
aS'powerpc'
p278
aS'powerpcspe'
p279
aS'ppc64'
p280
aS's390'
p281
aS's390x'
p282
aS'sh4'
p283
aS'sparc'
p284
aS'sparc64'
p285
aS'x32'
p286
asS'featuresets'
p287
(lp288
S'none'
p289
aS'rt'
p290
asS'compiler'
p291
S'gcc-4.7'
p292
ss(S'description'
p293
g115
NS'alpha-legacy'
p294
tp295
(dp296
S'hardware'
p297
S'Alpha Legacy'
p298
sS'hardware-long'
p299
S'DEC Alpha systems with legacy kernel start address'
p300
ss(S'image'
p301
g5
NS'ixp4xx'
p302
tp303
(dp304
S'check-size'
p305
S'1441760'
p306
sS'configs'
p307
(lp308
S'armel/config-reduced'
p309
aS'armel/config-tiny'
p310
aS'armel/config.ixp4xx'
p311
ass(S'image'
p312
g5
NS'kirkwood'
p313
tp314
(dp315
S'check-size'
p316
S'2097080'
p317
sS'recommends'
p318
S'uboot-mkimage'
p319
ss(S'relations'
p320
g189
tp321
(dp322
S'headers%gcc-4.8'
p323
S'linux-compiler-gcc-4.8-s390'
p324
ss(g84
g41
g86
tp325
(dp326
g89
I01
sg90
(lp327
S'r5k-cobalt'
p328
aS'sb1-bcm91250a'
p329
aS'sb1a-bcm91480b'
p330
aS'4kc-malta'
p331
aS'5kc-malta'
p332
aS'loongson-2e'
p333
aS'loongson-2f'
p334
ass(S'image'
p335
g139
NS'armmp-lpae'
p336
tp337
(dp338
S'configs'
p339
(lp340
S'armhf/config.armmp'
p341
aS'armhf/config.lpae'
p342
ass(S'build'
p343
g139
NS'armmp-lpae'
p344
tp345
(dp346
S'image-file'
p347
S'arch/arm/boot/zImage'
p348
ss(S'description'
p349
S'powerpcspe'
p350
tp351
(dp352
S'hardware'
p353
S'32-bit PowerPC with SPE (instead of AltiVec) with SMP support'
p354
ss(S'relations'
p355
tp356
(dp357
S'gcc-4.8'
p358
S'gcc-4.8'
p359
sS'initramfs-fallback'
p360
S'linux-initramfs-tool'
p361
sS'gcc-4.7'
p362
S'gcc-4.7'
p363
sS'gcc-4.6'
p364
S'gcc-4.6'
p365
sS'gcc-4.4'
p366
S'gcc-4.4'
p367
sS'initramfs-tools'
p368
S'initramfs-tools (>= 0.110~)'
p369
ss(S'description'
p370
g123
NS'r5k-ip32'
p371
tp372
(dp373
S'hardware'
p374
S'SGI IP32'
p375
sS'hardware-long'
p376
S'SGI IP32 systems (O2)'
p377
ss(S'description'
p378
S'sh4'
p379
NS'sh7785lcr'
p380
tp381
(dp382
S'hardware'
p383
S'sh7785lcr'
p384
sS'hardware-long'
p385
S'Renesas SH7785 reference board'
p386
ss(g84
g379
g86
tp387
(dp388
g89
I01
sg90
(lp389
S'sh7751r'
p390
aS'sh7785lcr'
p391
ass(S'description'
p392
g41
NS'sb1-bcm91250a'
p393
tp394
(dp395
S'hardware'
p396
S'BCM91250A'
p397
sS'hardware-long'
p398
S'Broadcom BCM91250A systems (aka SWARM)'
p399
ss(S'image'
p400
g115
tp401
(dp402
S'suggests'
p403
S'aboot, fdutils'
p404
ss(S'description'
p405
S'm68k'
p406
NS'm68k'
p407
tp408
(dp409
S'hardware'
p410
S'Motorola MC68020+ family'
p411
ss(S'base'
p412
g5
tp413
(dp414
S'kernel-arch'
p415
S'arm'
p416
sg120
(lp417
g86
ass(S'description'
p418
g200
NS'sparc64'
p419
tp420
(dp421
S'hardware'
p422
S'uniprocessor 64-bit UltraSPARC'
p423
ss(S'image'
p424
g5
NS'orion5x'
p425
tp426
(dp427
S'check-size'
p428
S'1572792'
p429
sS'configs'
p430
(lp431
S'armel/config-reduced'
p432
aS'armel/config.orion5x'
p433
asS'recommends'
p434
S'uboot-mkimage'
p435
ss(S'base'
p436
g200
tp437
(dp438
S'kernel-arch'
p439
S'sparc'
p440
sg120
(lp441
g86
ass(S'build'
p442
g379
NS'sh7785lcr'
p443
tp444
(dp445
S'image-file'
p446
S'arch/sh/boot/zImage'
p447
ss(S'description'
p448
S'hppa'
p449
NS'parisc'
p450
tp451
(dp452
S'hardware'
p453
S'32-bit PA-RISC'
p454
sS'hardware-long'
p455
S'HP PA-RISC 32-bit systems with max 4 GB RAM'
p456
ss(g84
g189
g86
tp457
(dp458
g89
I01
sg90
(lp459
S's390x'
p460
ass(g84
S's390x'
p461
g86
tp462
(dp463
g89
I01
sg90
(lp464
S's390x'
p465
ass(S'base'
p466
g123
tp467
(dp468
S'kernel-arch'
p469
S'mips'
p470
sg120
(lp471
g86
ass(S'build'
p472
g14
tp473
(dp474
S'debug-info'
p475
I01
ss(S'image'
p476
g41
tp477
(dp478
S'initramfs'
p479
I00
ss(S'description'
p480
g139
NS'armmp'
p481
tp482
(dp483
S'hardware'
p484
S'ARMv7 multiplatform compatible SoCs'
p485
sS'hardware-long'
p486
S'ARMv7 multiplatform kernel for Marvell Armada 370/xp, Freescale iMX5x/iMX6'
p487
ss(S'image'
p488
g5
NS'iop32x'
p489
tp490
(dp491
S'check-size'
p492
S'1441784'
p493
sS'configs'
p494
(lp495
S'armel/config-reduced'
p496
aS'armel/config-tiny'
p497
aS'armel/config.iop32x'
p498
ass(S'base'
p499
g14
tp500
(dp501
S'kernel-arch'
p502
S'x86'
p503
sS'featuresets'
p504
(lp505
S'none'
p506
aS'rt'
p507
ass(S'base'
p508
g32
tp509
(dp510
S'kernel-arch'
p511
S'ia64'
p512
sg120
(lp513
g86
asS'compiler'
p514
S'gcc-4.6'
p515
ss(S'base'
p516
g189
tp517
(dp518
S'kernel-arch'
p519
S's390'
p520
sg120
(lp521
g86
ass(g84
g5
g86
tp522
(dp523
g89
I01
sg90
(lp524
S'iop32x'
p525
aS'ixp4xx'
p526
aS'kirkwood'
p527
aS'mv78xx0'
p528
aS'orion5x'
p529
aS'versatile'
p530
ass(S'description'
p531
g123
NS'5kc-malta'
p532
tp533
(dp534
S'hardware'
p535
S'MIPS Malta (64-bit)'
p536
sS'hardware-long'
p537
S'MIPS Malta boards (64-bit)'
p538
ss(S'image'
p539
g50
NS'486'
p540
tp541
(dp542
S'configs'
p543
(lp544
S'kernelarch-x86/config-arch-32'
p545
aS'i386/config.486'
p546
ass(S'description'
p547
g181
NS'sparc64'
p548
tp549
(dp550
S'hardware'
p551
S'uniprocessor 64-bit UltraSPARC'
p552
ss(S'build'
p553
g5
NS'ixp4xx'
p554
tp555
(dp556
S'image-file'
p557
S'arch/arm/boot/zImage'
p558
ss(S'description'
p559
g50
tp560
(dp561
S'part-long-pae'
p562
S'This kernel requires PAE (Physical Address Extension).\nThis feature is supported by the Intel Pentium Pro/II/III/4/4M/D, Xeon,\nCore and Atom; AMD Geode NX, Athlon (K7), Duron, Opteron, Sempron,\nTurion or Phenom; Transmeta Efficeon; VIA C7; and some other processors.'
p563
ss(S'build'
p564
g5
NS'mv78xx0'
p565
tp566
(dp567
S'image-file'
p568
S'arch/arm/boot/zImage'
p569
ss(S'image'
p570
g85
NS'powerpc64'
p571
tp572
(dp573
S'configs'
p574
(lp575
S'powerpc/config.powerpc64'
p576
ass(S'base'
p577
g50
g227
tp578
(dp579
S'flavours'
p580
(lp581
S'486'
p582
aS'686-pae'
p583
aS'amd64'
p584
ass(S'xen'
p585
g14
g25
S'amd64'
p586
tp587
(dp588
S'flavours'
p589
(lp590
S'amd64'
p591
ass(S'image'
p592
g41
NS'5kc-malta'
p593
tp594
(dp595
S'configs'
p596
(lp597
S'mips/config.5kc-malta'
p598
ass(S'image'
p599
g5
tp600
(dp601
S'suggests'
p602
S'fdutils'
p603
ss(S'image'
p604
g189
tp605
(dp606
S'configs'
p607
(lp608
S's390x/config'
p609
asS'bootloaders'
p610
(lp611
S's390-tools'
p612
ass(S'relations'
p613
g5
tp614
(dp615
S'headers%gcc-4.8'
p616
S'linux-compiler-gcc-4.8-arm'
p617
ss(S'image'
p618
g449
tp619
(dp620
S'suggests'
p621
S'palo'
p622
ss(S'image'
p623
g350
tp624
(dp625
S'suggests'
p626
S'mkvmlinuz'
p627
sS'configs'
p628
(lp629
S'powerpc/config'
p630
aS'powerpcspe/config.powerpcspe'
p631
ass(S'relations'
p632
g449
tp633
(dp634
S'gcc-4.8'
p635
S'gcc-4.8, binutils-hppa64, gcc-4.8-hppa64'
p636
ss(S'build'
p637
g379
NS'sh7751r'
p638
tp639
(dp640
S'image-file'
p641
S'arch/sh/boot/zImage'
p642
ss(S'image'
p643
g94
NS'powerpc-smp'
p644
tp645
(dp646
S'configs'
p647
(lp648
S'powerpc/config.powerpc'
p649
aS'powerpc/config.powerpc-smp'
p650
ass(S'image'
p651
g50
NS'686-pae'
p652
tp653
(dp654
S'configs'
p655
(lp656
S'kernelarch-x86/config-arch-32'
p657
aS'i386/config.686-pae'
p658
asS'recommends'
p659
S'libc6-i686'
p660
ss(S'description'
p661
g32
NS'mckinley'
p662
tp663
(dp664
S'hardware'
p665
S'Itanium II'
p666
ss(g84
g449
g86
tp667
(dp668
g89
I01
sg90
(lp669
S'parisc'
p670
aS'parisc64-smp'
p671
ass(S'image'
p672
g50
NS'amd64'
p673
tp674
(dp675
S'configs'
p676
(lp677
S'kernelarch-x86/config-arch-64'
p678
asS'recommends'
p679
S'libc6-i686'
p680
ss(S'image'
p681
g41
NS'sb1a-bcm91480b'
p682
tp683
(dp684
S'configs'
p685
(lp686
S'mips/config.sb1a-bcm91480b'
p687
ass(S'description'
p688
g41
NS'loongson-2e'
p689
tp690
(dp691
S'hardware'
p692
S'Loongson 2E'
p693
sS'hardware-long'
p694
S'Lemote Loongson 2E systems'
p695
ss(S'base'
p696
g181
tp697
(dp698
S'kernel-arch'
p699
S'sparc'
p700
sg120
(lp701
g86
ass(S'description'
p702
g5
NS'ixp4xx'
p703
tp704
(dp705
S'hardware'
p706
S'IXP4xx'
p707
sS'hardware-long'
p708
S'IXP4xx based systems (Linksys NSLU2, etc)'
p709
ss(S'base'
p710
g461
tp711
(dp712
S'kernel-arch'
p713
S's390'
p714
sg120
(lp715
g86
ass(S'build'
p716
g50
NS'686-pae'
p717
tp718
(dp719
S'debug-info'
p720
I01
ss(S'image'
p721
g85
tp722
(dp723
S'suggests'
p724
S'mkvmlinuz'
p725
sS'configs'
p726
(lp727
S'powerpc/config'
p728
ass(S'image'
p729
g123
tp730
(dp731
S'initramfs'
p732
I00
ss(S'image'
p733
g50
tp734
(dp735
S'configs'
p736
(lp737
sS'bootloaders'
p738
(lp739
S'grub-pc'
p740
aS'extlinux'
p741
aS'lilo'
p742
ass(g84
g200
g86
tp743
(dp744
g89
I01
sg90
(lp745
S'sparc64'
p746
aS'sparc64-smp'
p747
ass(S'description'
p748
g41
NS'r5k-cobalt'
p749
tp750
(dp751
S'hardware'
p752
S'Cobalt'
p753
sS'hardware-long'
p754
S'Cobalt systems (Qube, RaQ, Qube2, RaQ2)'
p755
ss(S'base'
p756
g85
tp757
(dp758
S'kernel-arch'
p759
S'powerpc'
p760
sg120
(lp761
g86
ass(g84
g115
g86
tp762
(dp763
g89
I01
sg90
(lp764
S'alpha-generic'
p765
aS'alpha-smp'
p766
aS'alpha-legacy'
p767
ass(S'description'
p768
g50
g227
S'686-pae'
p769
tp770
(dp771
S'parts'
p772
(lp773
S'xen'
p774
ass(S'base'
p775
S'x32'
p776
tp777
(dp778
S'kernel-arch'
p779
S'x86'
p780
sS'featuresets'
p781
(lp782
ss(g84
g123
g86
tp783
(dp784
g89
I01
sg90
(lp785
S'r4k-ip22'
p786
aS'r5k-ip32'
p787
aS'sb1-bcm91250a'
p788
aS'sb1a-bcm91480b'
p789
aS'4kc-malta'
p790
aS'5kc-malta'
p791
aS'octeon'
p792
ass(S'build'
p793
g5
NS'iop32x'
p794
tp795
(dp796
S'image-file'
p797
S'arch/arm/boot/zImage'
p798
ss(S'base'
p799
NS'rt'
p800
tp801
(dp802
S'enabled'
p803
I01
ss(S'description'
p804
g181
NS'sparc64-smp'
p805
tp806
(dp807
S'hardware'
p808
S'multiprocessor 64-bit UltraSPARC'
p809
ss(S'image'
p810
g189
NS's390x'
p811
tp812
(dp813
S'configs'
p814
(lp815
S's390x/config.s390x'
p816
ass(S'build'
p817
g139
NS'armmp'
p818
tp819
(dp820
S'image-file'
p821
S'arch/arm/boot/zImage'
p822
ss(S'description'
p823
g123
NS'r4k-ip22'
p824
tp825
(dp826
S'hardware'
p827
S'SGI IP22'
p828
sS'hardware-long'
p829
S'SGI IP22 systems (Indy, Indigo2)'
p830
ss(S'description'
p831
g50
NS'amd64'
p832
tp833
(dp834
S'hardware'
p835
S'64-bit PCs'
p836
sS'parts'
p837
(lp838
S'xen'
p839
asS'hardware-long'
p840
S'PCs with AMD64, Intel 64 or VIA Nano processors'
p841
ss(g84
g32
g86
tp842
(dp843
g89
I01
sg90
(lp844
S'itanium'
p845
aS'mckinley'
p846
ass(S'image'
p847
g406
tp848
(dp849
S'suggests'
p850
S'vmelilo, fdutils'
p851
ss(S'description'
p852
g50
NS'486'
p853
tp854
(dp855
S'hardware'
p856
S'older PCs'
p857
sS'parts'
p858
(lp859
S'up'
p860
asS'hardware-long'
p861
S'PCs with a single processor not supporting PAE'
p862
ss(S'description'
p863
g5
NS'versatile'
p864
tp865
(dp866
S'hardware'
p867
S'Versatile'
p868
sS'hardware-long'
p869
S'Versatile systems (PB, AB, Qemu)'
p870
ss(S'description'
p871
g461
NS's390x'
p872
tp873
(dp874
S'hardware'
p875
S'IBM zSeries'
p876
ss(S'description'
p877
g5
NS'orion5x'
p878
tp879
(dp880
S'hardware'
p881
S'Marvell Orion'
p882
sS'hardware-long'
p883
S'Marvell Orion 5181, 5182 and 5281 based systems (QNAP TS-109/TS-209, etc)'
p884
ss(S'base'
p885
g139
tp886
(dp887
S'kernel-arch'
p888
S'arm'
p889
sg120
(lp890
g86
ass(S'image'
p891
g379
tp892
(dp893
S'suggests'
p894
S'fdutils'
p895
ss(S'base'
p896
g449
tp897
(dp898
S'kernel-arch'
p899
S'parisc'
p900
sg120
(lp901
g86
ass(S'base'
p902
g379
tp903
(dp904
S'kernel-arch'
p905
S'sh'
p906
sg120
(lp907
g86
asS'compiler'
p908
S'gcc-4.7'
p909
ss(S'image'
p910
g200
tp911
(dp912
S'suggests'
p913
S'silo, fdutils'
p914
ss(S'description'
p915
g379
NS'sh7751r'
p916
tp917
(dp918
S'hardware'
p919
S'sh7751r'
p920
sS'hardware-long'
p921
S'Renesas SH7751R R2D plus board'
p922
ss(S'description'
p923
tp924
(dp925
S'part-long-up'
p926
S'This kernel is not suitable for SMP (multi-processor,\nmulti-core or hyper-threaded) systems.'
p927
sS'part-long-xen'
p928
S'This kernel also runs on a Xen hypervisor.\nIt supports both privileged (dom0) and unprivileged (domU) operation.'
p929
ss(S'relations'
p930
g139
tp931
(dp932
S'headers%gcc-4.8'
p933
S'linux-compiler-gcc-4.8-arm'
p934
ss(S'description'
p935
g115
NS'alpha-generic'
p936
tp937
(dp938
S'hardware'
p939
S'Alpha'
p940
sS'hardware-long'
p941
S'DEC Alpha systems with extended kernel start address (Wildfire, Titan, Marvel)'
p942
ss(S'description'
p943
g94
NS'powerpc-smp'
p944
tp945
(dp946
S'hardware'
p947
S'multiprocessor 32-bit PowerPC'
p948
ss(S'build'
p949
g5
NS'kirkwood'
p950
tp951
(dp952
S'image-file'
p953
S'arch/arm/boot/zImage'
p954
ss(S'description'
p955
g189
NS's390x'
p956
tp957
(dp958
S'hardware'
p959
S'IBM zSeries'
p960
ss(S'relations'
p961
g461
tp962
(dp963
S'headers%gcc-4.8'
p964
S'linux-compiler-gcc-4.8-s390'
p965
ss(S'description'
p966
g200
NS'sparc64-smp'
p967
tp968
(dp969
S'hardware'
p970
S'multiprocessor 64-bit UltraSPARC'
p971
ss(S'base'
p972
g94
tp973
(dp974
S'kernel-arch'
p975
S'powerpc'
p976
sg120
(lp977
g86
ass(S'description'
p978
g449
NS'parisc64-smp'
p979
tp980
(dp981
S'hardware'
p982
S'multiprocessor 64-bit PA-RISC'
p983
sS'hardware-long'
p984
S'HP PA-RISC 64-bit SMP systems with support for more than 4 GB RAM'
p985
ss(S'image'
p986
g200
NS'sparc32'
p987
tp988
(dp989
S'image-postproc'
p990
S'sparc32-image-postproc'
p991
ss(S'image'
p992
g41
NS'loongson-2f'
p993
tp994
(dp995
S'recommends'
p996
S'libc6-loongson2f'
p997
ss(S'description'
p998
g115
NS'alpha-smp'
p999
tp1000
(dp1001
S'hardware'
p1002
S'Alpha SMP'
p1003
sS'hardware-long'
p1004
S'DEC Alpha SMP systems with extended kernel start address (Wildfire, Titan, Marvel)'
p1005
ss(S'build'
p1006
g461
NS's390x'
p1007
tp1008
(dp1009
S'debug-info'
p1010
I01
ss(S'description'
p1011
g123
NS'4kc-malta'
p1012
tp1013
(dp1014
S'hardware'
p1015
S'MIPS Malta'
p1016
sS'hardware-long'
p1017
S'MIPS Malta boards'
p1018
ss(S'description'
p1019
g14
NS'amd64'
p1020
tp1021
(dp1022
S'hardware'
p1023
S'64-bit PCs'
p1024
sS'hardware-long'
p1025
S'PCs with AMD64, Intel 64 or VIA Nano processors'
p1026
ss(S'image'
p1027
g139
tp1028
(dp1029
S'suggests'
p1030
S'fdutils'
p1031
sS'configs'
p1032
(lp1033
S'armel/config'
p1034
aS'armhf/config'
p1035
ass(S'abi'
p1036
tp1037
(dp1038
S'abiname'
p1039
S'kali1'
p1040
ss(g84
g350
g86
tp1041
(dp1042
g89
I01
sg90
(lp1043
S'powerpcspe'
p1044
ass(g84
g406
g86
tp1045
(dp1046
g89
I01
sg90
(lp1047
S'm68k'
p1048
ass(S'description'
p1049
g123
NS'sb1a-bcm91480b'
p1050
tp1051
(dp1052
S'hardware'
p1053
S'BCM91480B'
p1054
sS'hardware-long'
p1055
S'Broadcom BCM91480B systems (aka BigSur)'
p1056
ss(S'image'
p1057
g41
NS'4kc-malta'
p1058
tp1059
(dp1060
S'configs'
p1061
(lp1062
S'mips/config.4kc-malta'
p1063
ass(S'description'
p1064
g41
NS'sb1a-bcm91480b'
p1065
tp1066
(dp1067
S'hardware'
p1068
S'BCM91480B'
p1069
sS'hardware-long'
p1070
S'Broadcom BCM91480B systems (aka BigSur)'
p1071
ss(S'description'
p1072
g41
NS'loongson-2f'
p1073
tp1074
(dp1075
S'hardware'
p1076
S'Loongson 2F'
p1077
sS'hardware-long'
p1078
S'Lemote Loongson 2F systems'
p1079
ss(g84
g94
g86
tp1080
(dp1081
g89
I01
sg90
(lp1082
S'powerpc'
p1083
aS'powerpc-smp'
p1084
aS'powerpc64'
p1085
ass(S'image'
p1086
g181
tp1087
(dp1088
S'suggests'
p1089
S'silo, fdutils'
p1090
sS'configs'
p1091
(lp1092
S'sparc/config'
p1093
ass(S'image'
p1094
g379
NS'sh7785lcr'
p1095
tp1096
(dp1097
S'check-size'
p1098
S'4194304'
p1099
sS'recommends'
p1100
S'uboot-mkimage'
p1101
ss(S'base'
p1102
g406
tp1103
(dp1104
S'kernel-arch'
p1105
S'm68k'
p1106
sg120
(lp1107
g86
asS'cflags'
p1108
S'-ffreestanding'
p1109
sS'compiler'
p1110
S'gcc-4.8'
p1111
ss(S'description'
p1112
g5
NS'iop32x'
p1113
tp1114
(dp1115
S'hardware'
p1116
S'IOP32x'
p1117
sS'hardware-long'
p1118
S'IOP32x based systems (Thecus N2100, etc)'
p1119
ss(S'image'
p1120
tp1121
(dp1122
S'initramfs-generators'
p1123
(lp1124
S'initramfs-tools'
p1125
aS'initramfs-fallback'
p1126
asS'type'
p1127
S'plain'
p1128
ss(S'base'
p1129
g350
tp1130
(dp1131
S'kernel-arch'
p1132
S'powerpc'
p1133
sg120
(lp1134
g86
ass(g84
g181
g86
tp1135
(dp1136
g89
I01
sg90
(lp1137
S'sparc64'
p1138
aS'sparc64-smp'
p1139
ass(S'description'
p1140
g41
NS'4kc-malta'
p1141
tp1142
(dp1143
S'hardware'
p1144
S'MIPS Malta'
p1145
sS'hardware-long'
p1146
S'MIPS Malta boards'
p1147
ss(S'image'
p1148
g181
NS'sparc64'
p1149
tp1150
(dp1151
S'configs'
p1152
(lp1153
S'sparc/config.sparc64'
p1154
ass(S'abi'
p1155
Ng152
tp1156
(dp1157
S'ignore-changes'
p1158
(lp1159
S'*'
p1160
ass(S'description'
p1161
g139
NS'armmp-lpae'
p1162
tp1163
(dp1164
S'hardware'
p1165
S'ARMv7 multiplatform compatible SoCs supporting LPAE'
p1166
sS'hardware-long'
p1167
S'ARMv7 multiplatform kernel supporting LPAE'
p1168
ss(S'image'
p1169
g461
tp1170
(dp1171
S'bootloaders'
p1172
(lp1173
S's390-tools'
p1174
ass(S'base'
p1175
g449
NS'parisc64-smp'
p1176
tp1177
(dp1178
S'override-host-type'
p1179
S'hppa64-linux-gnu'
p1180
sS'cflags'
p1181
S'-fno-cse-follow-jumps'
p1182
sstp1183
Rp1184
.