ccopy_reg
_reconstructor
p0
(cdebian_linux.config
ConfigCore
p1
c__builtin__
dict
p2
(dp3
(S'image'
p4
S'amd64'
p5
tp6
(dp7
S'configs'
p8
(lp9
sS'bootloaders'
p10
(lp11
S'grub-pc'
p12
aS'extlinux'
p13
aS'lilo'
p14
ass(S'description'
p15
S'powerpc'
p16
NS'powerpc-smp'
p17
tp18
(dp19
S'hardware'
p20
S'multiprocessor 32-bit PowerPC'
p21
ss(S'base'
p22
g5
S'none'
p23
tp24
(dp25
S'flavours'
p26
(lp27
S'amd64'
p28
ass(S'description'
p29
S'mipsel'
p30
NS'sb1-bcm91250a'
p31
tp32
(dp33
S'hardware'
p34
S'BCM91250A'
p35
sS'hardware-long'
p36
S'Broadcom BCM91250A systems (aka SWARM)'
p37
ss(S'image'
p38
S'ia64'
p39
tp40
(dp41
S'suggests'
p42
S'fdutils'
p43
sS'bootloaders'
p44
(lp45
S'elilo'
p46
ass(S'description'
p47
g5
NS'amd64'
p48
tp49
(dp50
S'hardware'
p51
S'64-bit PCs'
p52
sS'hardware-long'
p53
S'PCs with AMD64, Intel 64 or VIA Nano processors'
p54
ss(S'description'
p55
S'alpha'
p56
NS'alpha-generic'
p57
tp58
(dp59
S'hardware'
p60
S'Alpha'
p61
sS'hardware-long'
p62
S'DEC Alpha systems with extended kernel start address (Wildfire, Titan, Marvel)'
p63
ss(S'description'
p64
g5
g23
S'amd64'
p65
tp66
(dp67
S'parts'
p68
(lp69
S'xen'
p70
ass(S'base'
p71
S'ppc64'
p72
S'none'
p73
tp74
(dp75
S'implicit-flavour'
p76
I01
sS'flavours'
p77
(lp78
S'powerpc64'
p79
ass(S'image'
p80
S'i386'
p81
NS'486'
p82
tp83
(dp84
S'configs'
p85
(lp86
S'kernelarch-x86/config-arch-32'
p87
aS'i386/config.486'
p88
ass(S'description'
p89
g81
S'none'
p90
S'amd64'
p91
tp92
(dp93
S'parts'
p94
(lp95
S'xen'
p96
ass(S'build'
p97
S'armhf'
p98
NS'armmp'
p99
tp100
(dp101
S'image-file'
p102
S'arch/arm/boot/zImage'
p103
ss(S'description'
p104
g81
NS'486'
p105
tp106
(dp107
S'hardware'
p108
S'older PCs'
p109
sS'parts'
p110
(lp111
S'up'
p112
asS'hardware-long'
p113
S'PCs with a single processor not supporting PAE'
p114
ss(g71
g98
g73
tp115
(dp116
g76
I01
sg77
(lp117
S'armmp'
p118
aS'armmp-lpae'
p119
ass(S'build'
p120
S'armel'
p121
NS'kirkwood'
p122
tp123
(dp124
S'image-file'
p125
S'arch/arm/boot/zImage'
p126
ss(S'build'
p127
g5
tp128
(dp129
S'debug-info'
p130
I01
ss(S'base'
p131
g81
S'rt'
p132
tp133
(dp134
S'flavours'
p135
(lp136
S'686-pae'
p137
ass(S'description'
p138
S'mips'
p139
NS'r5k-ip32'
p140
tp141
(dp142
S'hardware'
p143
S'SGI IP32'
p144
sS'hardware-long'
p145
S'SGI IP32 systems (O2)'
p146
ss(S'image'
p147
g81
NS'686-pae'
p148
tp149
(dp150
S'configs'
p151
(lp152
S'kernelarch-x86/config-arch-32'
p153
aS'i386/config.686-pae'
p154
asS'recommends'
p155
S'libc6-i686'
p156
ss(S'relations'
p157
g81
tp158
(dp159
S'headers%gcc-4.8'
p160
S'linux-compiler-gcc-4.8-x86'
p161
ss(S'image'
p162
g16
tp163
(dp164
S'suggests'
p165
S'mkvmlinuz'
p166
ss(S'description'
p167
g139
NS'r4k-ip22'
p168
tp169
(dp170
S'hardware'
p171
S'SGI IP22'
p172
sS'hardware-long'
p173
S'SGI IP22 systems (Indy, Indigo2)'
p174
ss(S'image'
p175
g121
NS'iop32x'
p176
tp177
(dp178
S'check-size'
p179
S'1441784'
p180
sS'configs'
p181
(lp182
S'armel/config-reduced'
p183
aS'armel/config-tiny'
p184
aS'armel/config.iop32x'
p185
ass(S'base'
p186
g5
S'rt'
p187
tp188
(dp189
S'flavours'
p190
(lp191
S'amd64'
p192
ass(S'description'
p193
g56
NS'alpha-legacy'
p194
tp195
(dp196
S'hardware'
p197
S'Alpha Legacy'
p198
sS'hardware-long'
p199
S'DEC Alpha systems with legacy kernel start address'
p200
ss(S'base'
p201
S'arm64'
p202
tp203
(dp204
S'kernel-arch'
p205
S'arm64'
p206
sS'featuresets'
p207
(lp208
ss(S'base'
p209
g81
tp210
(dp211
S'kernel-arch'
p212
S'x86'
p213
sS'featuresets'
p214
(lp215
S'none'
p216
aS'rt'
p217
ass(S'base'
p218
g30
tp219
(dp220
S'kernel-arch'
p221
S'mips'
p222
sS'featuresets'
p223
(lp224
g73
ass(S'relations'
p225
g5
tp226
(dp227
S'headers%gcc-4.8'
p228
S'linux-compiler-gcc-4.8-x86'
p229
ss(S'description'
p230
g81
NS'amd64'
p231
tp232
(dp233
S'hardware'
p234
S'64-bit PCs'
p235
sS'parts'
p236
(lp237
S'xen'
p238
asS'hardware-long'
p239
S'PCs with AMD64, Intel 64 or VIA Nano processors'
p240
ss(S'base'
p241
tp242
(dp243
S'arches'
p244
(lp245
S'alpha'
p246
aS'amd64'
p247
aS'arm64'
p248
aS'armel'
p249
aS'armhf'
p250
aS'hppa'
p251
aS'i386'
p252
aS'ia64'
p253
aS'm68k'
p254
aS'mips'
p255
aS'mipsel'
p256
aS'powerpc'
p257
aS'powerpcspe'
p258
aS'ppc64'
p259
aS's390'
p260
aS's390x'
p261
aS'sh4'
p262
aS'sparc'
p263
aS'sparc64'
p264
aS'x32'
p265
asS'featuresets'
p266
(lp267
S'none'
p268
aS'rt'
p269
asS'compiler'
p270
S'gcc-4.8'
p271
ss(S'description'
p272
g30
NS'r5k-cobalt'
p273
tp274
(dp275
S'hardware'
p276
S'Cobalt'
p277
sS'hardware-long'
p278
S'Cobalt systems (Qube, RaQ, Qube2, RaQ2)'
p279
ss(S'description'
p280
g121
NS'kirkwood'
p281
tp282
(dp283
S'hardware'
p284
S'Marvell Kirkwood'
p285
sS'hardware-long'
p286
S'Marvell Kirkwood based systems (SheevaPlug, QNAP TS-119/TS-219, etc)'
p287
ss(S'image'
p288
g98
NS'armmp-lpae'
p289
tp290
(dp291
S'configs'
p292
(lp293
S'armhf/config.armmp'
p294
aS'armhf/config.lpae'
p295
ass(S'relations'
p296
S's390'
p297
tp298
(dp299
S'headers%gcc-4.8'
p300
S'linux-compiler-gcc-4.8-s390'
p301
ss(g71
g30
g73
tp302
(dp303
g76
I01
sg77
(lp304
S'r5k-cobalt'
p305
aS'sb1-bcm91250a'
p306
aS'sb1a-bcm91480b'
p307
aS'4kc-malta'
p308
aS'5kc-malta'
p309
aS'loongson-2e'
p310
aS'loongson-2f'
p311
ass(S'description'
p312
g139
NS'5kc-malta'
p313
tp314
(dp315
S'hardware'
p316
S'MIPS Malta (64-bit)'
p317
sS'hardware-long'
p318
S'MIPS Malta boards (64-bit)'
p319
ss(S'description'
p320
S'powerpcspe'
p321
tp322
(dp323
S'hardware'
p324
S'32-bit PowerPC with SPE (instead of AltiVec) with SMP support'
p325
ss(S'description'
p326
S'hppa'
p327
NS'parisc'
p328
tp329
(dp330
S'hardware'
p331
S'32-bit PA-RISC'
p332
sS'hardware-long'
p333
S'HP PA-RISC 32-bit systems with max 4 GB RAM'
p334
ss(S'relations'
p335
tp336
(dp337
S'gcc-4.8'
p338
S'gcc-4.8'
p339
sS'initramfs-fallback'
p340
S'linux-initramfs-tool'
p341
sS'gcc-4.7'
p342
S'gcc-4.7'
p343
sS'gcc-4.6'
p344
S'gcc-4.6'
p345
sS'gcc-4.4'
p346
S'gcc-4.4'
p347
sS'initramfs-tools'
p348
S'initramfs-tools (>= 0.110~)'
p349
ss(S'image'
p350
S'sparc'
p351
NS'sparc32'
p352
tp353
(dp354
S'image-postproc'
p355
S'sparc32-image-postproc'
p356
ss(S'build'
p357
S'sh4'
p358
NS'sh7785lcr'
p359
tp360
(dp361
S'image-file'
p362
S'arch/sh/boot/zImage'
p363
ss(S'image'
p364
S'sparc64'
p365
NS'sparc64'
p366
tp367
(dp368
S'configs'
p369
(lp370
S'sparc/config.sparc64'
p371
ass(S'description'
p372
g30
NS'5kc-malta'
p373
tp374
(dp375
S'hardware'
p376
S'MIPS Malta (64-bit)'
p377
sS'hardware-long'
p378
S'MIPS Malta boards (64-bit)'
p379
ss(S'description'
p380
g39
NS'mckinley'
p381
tp382
(dp383
S'hardware'
p384
S'Itanium II'
p385
ss(S'image'
p386
g297
NS's390x'
p387
tp388
(dp389
S'configs'
p390
(lp391
S's390x/config.s390x'
p392
ass(S'description'
p393
g327
NS'parisc64-smp'
p394
tp395
(dp396
S'hardware'
p397
S'multiprocessor 64-bit PA-RISC'
p398
sS'hardware-long'
p399
S'HP PA-RISC 64-bit SMP systems with support for more than 4 GB RAM'
p400
ss(S'description'
p401
g365
NS'sparc64-smp'
p402
tp403
(dp404
S'hardware'
p405
S'multiprocessor 64-bit UltraSPARC'
p406
ss(S'build'
p407
S's390x'
p408
NS's390x'
p409
tp410
(dp411
S'debug-info'
p412
I01
ss(S'description'
p413
g139
NS'octeon'
p414
tp415
(dp416
S'hardware'
p417
S'Octeon'
p418
sS'hardware-long'
p419
S'Cavium Networks Octeon'
p420
ss(S'build'
p421
g121
NS'ixp4xx'
p422
tp423
(dp424
S'image-file'
p425
S'arch/arm/boot/zImage'
p426
ss(S'base'
p427
g121
tp428
(dp429
S'kernel-arch'
p430
S'arm'
p431
sg223
(lp432
g73
ass(S'description'
p433
g121
NS'mv78xx0'
p434
tp435
(dp436
S'hardware'
p437
S'Marvell 78xx0'
p438
sS'hardware-long'
p439
S'Marvell DB-78xx0-BP Development Board'
p440
ss(S'base'
p441
g351
tp442
(dp443
S'kernel-arch'
p444
S'sparc'
p445
sg223
(lp446
g73
ass(S'base'
p447
g321
tp448
(dp449
S'kernel-arch'
p450
S'powerpc'
p451
sg223
(lp452
g73
ass(S'description'
p453
g351
NS'sparc64-smp'
p454
tp455
(dp456
S'hardware'
p457
S'multiprocessor 64-bit UltraSPARC'
p458
ss(S'version'
p459
tp460
(dp461
S'abiname'
p462
S'3.12-1'
p463
sS'source'
p464
V3.12.6-2
p465
sS'upstream'
p466
S'3.12'
p467
ss(g71
g297
g73
tp468
(dp469
g76
I01
sg77
(lp470
S's390x'
p471
ass(S'image'
p472
g30
NS'loongson-2f'
p473
tp474
(dp475
S'recommends'
p476
S'libc6-loongson2f'
p477
ss(g71
g408
g73
tp478
(dp479
g76
I01
sg77
(lp480
S's390x'
p481
ass(S'base'
p482
g56
tp483
(dp484
S'kernel-arch'
p485
S'alpha'
p486
sg223
(lp487
g73
ass(S'image'
p488
g121
NS'kirkwood'
p489
tp490
(dp491
S'check-size'
p492
S'2097080'
p493
sS'recommends'
p494
S'uboot-mkimage'
p495
ss(S'description'
p496
g98
NS'armmp-lpae'
p497
tp498
(dp499
S'hardware'
p500
S'ARMv7 multiplatform compatible SoCs supporting LPAE'
p501
sS'hardware-long'
p502
S'ARMv7 multiplatform kernel supporting LPAE'
p503
ss(S'image'
p504
g30
tp505
(dp506
S'initramfs'
p507
I00
ss(S'description'
p508
g121
NS'ixp4xx'
p509
tp510
(dp511
S'hardware'
p512
S'IXP4xx'
p513
sS'hardware-long'
p514
S'IXP4xx based systems (Linksys NSLU2, etc)'
p515
ss(S'image'
p516
g358
NS'sh7785lcr'
p517
tp518
(dp519
S'check-size'
p520
S'4194304'
p521
sS'recommends'
p522
S'uboot-mkimage'
p523
ss(S'build'
p524
g81
NS'686-pae'
p525
tp526
(dp527
S'debug-info'
p528
I01
ss(S'image'
p529
g81
NS'amd64'
p530
tp531
(dp532
S'configs'
p533
(lp534
S'kernelarch-x86/config-arch-64'
p535
asS'recommends'
p536
S'libc6-i686'
p537
ss(S'image'
p538
g72
NS'powerpc64'
p539
tp540
(dp541
S'configs'
p542
(lp543
S'powerpc/config.powerpc64'
p544
ass(S'description'
p545
g121
NS'iop32x'
p546
tp547
(dp548
S'hardware'
p549
S'IOP32x'
p550
sS'hardware-long'
p551
S'IOP32x based systems (Thecus N2100, etc)'
p552
ss(S'base'
p553
g39
tp554
(dp555
S'kernel-arch'
p556
S'ia64'
p557
sg223
(lp558
g73
asS'compiler'
p559
S'gcc-4.6'
p560
ss(S'base'
p561
g139
tp562
(dp563
S'kernel-arch'
p564
S'mips'
p565
sg223
(lp566
g73
ass(S'base'
p567
g5
tp568
(dp569
S'kernel-arch'
p570
S'x86'
p571
sS'featuresets'
p572
(lp573
S'none'
p574
aS'rt'
p575
ass(g71
g121
g73
tp576
(dp577
g76
I01
sg77
(lp578
S'iop32x'
p579
aS'ixp4xx'
p580
aS'kirkwood'
p581
aS'mv78xx0'
p582
aS'orion5x'
p583
aS'versatile'
p584
ass(S'description'
p585
g30
NS'loongson-2f'
p586
tp587
(dp588
S'hardware'
p589
S'Loongson 2F'
p590
sS'hardware-long'
p591
S'Lemote Loongson 2F systems'
p592
ss(S'image'
p593
g30
NS'4kc-malta'
p594
tp595
(dp596
S'configs'
p597
(lp598
S'mips/config.4kc-malta'
p599
ass(S'description'
p600
g81
tp601
(dp602
S'part-long-pae'
p603
S'This kernel requires PAE (Physical Address Extension).\nThis feature is supported by the Intel Pentium Pro/II/III/4/4M/D, Xeon,\nCore and Atom; AMD Geode NX, Athlon (K7), Duron, Opteron, Sempron,\nTurion or Phenom; Transmeta Efficeon; VIA C7; and some other processors.'
p604
ss(S'image'
p605
g30
NS'sb1-bcm91250a'
p606
tp607
(dp608
S'configs'
p609
(lp610
S'mips/config.sb1-bcm91250a'
p611
ass(S'base'
p612
g81
g90
tp613
(dp614
S'flavours'
p615
(lp616
S'486'
p617
aS'686-pae'
p618
aS'amd64'
p619
ass(S'xen'
p620
g5
g23
S'amd64'
p621
tp622
(dp623
S'flavours'
p624
(lp625
S'amd64'
p626
ass(S'image'
p627
g121
tp628
(dp629
S'suggests'
p630
S'fdutils'
p631
ss(S'image'
p632
g297
tp633
(dp634
S'configs'
p635
(lp636
S's390x/config'
p637
asS'bootloaders'
p638
(lp639
S's390-tools'
p640
ass(S'relations'
p641
g121
tp642
(dp643
S'headers%gcc-4.8'
p644
S'linux-compiler-gcc-4.8-arm'
p645
ss(S'image'
p646
g327
tp647
(dp648
S'suggests'
p649
S'palo'
p650
ss(S'image'
p651
g321
tp652
(dp653
S'suggests'
p654
S'mkvmlinuz'
p655
sS'configs'
p656
(lp657
S'powerpc/config'
p658
aS'powerpcspe/config.powerpcspe'
p659
ass(S'relations'
p660
g327
tp661
(dp662
S'gcc-4.8'
p663
S'gcc-4.8, binutils-hppa64, gcc-4.8-hppa64'
p664
ss(S'description'
p665
g72
NS'powerpc64'
p666
tp667
(dp668
S'hardware'
p669
S'64-bit PowerPC'
p670
ss(S'description'
p671
g351
NS'sparc64'
p672
tp673
(dp674
S'hardware'
p675
S'uniprocessor 64-bit UltraSPARC'
p676
ss(g71
g327
g73
tp677
(dp678
g76
I01
sg77
(lp679
S'parisc'
p680
aS'parisc64-smp'
p681
ass(S'image'
p682
g56
tp683
(dp684
S'suggests'
p685
S'aboot, fdutils'
p686
ss(S'base'
p687
g365
tp688
(dp689
S'kernel-arch'
p690
S'sparc'
p691
sg223
(lp692
g73
ass(S'base'
p693
g327
NS'parisc64-smp'
p694
tp695
(dp696
S'override-host-type'
p697
S'hppa64-linux-gnu'
p698
sS'cflags'
p699
S'-fno-cse-follow-jumps'
p700
ss(S'base'
p701
g408
tp702
(dp703
S'kernel-arch'
p704
S's390'
p705
sg223
(lp706
g73
ass(S'base'
p707
g297
tp708
(dp709
S'kernel-arch'
p710
S's390'
p711
sg223
(lp712
g73
ass(S'description'
p713
S'm68k'
p714
NS'm68k'
p715
tp716
(dp717
S'hardware'
p718
S'Motorola MC68020+ family'
p719
ss(S'image'
p720
g30
NS'sb1a-bcm91480b'
p721
tp722
(dp723
S'configs'
p724
(lp725
S'mips/config.sb1a-bcm91480b'
p726
ass(S'description'
p727
g16
NS'powerpc'
p728
tp729
(dp730
S'hardware'
p731
S'uniprocessor 32-bit PowerPC'
p732
ss(S'image'
p733
g72
tp734
(dp735
S'suggests'
p736
S'mkvmlinuz'
p737
sS'configs'
p738
(lp739
S'powerpc/config'
p740
ass(S'image'
p741
g139
tp742
(dp743
S'initramfs'
p744
I00
ss(S'image'
p745
g81
tp746
(dp747
S'configs'
p748
(lp749
sS'bootloaders'
p750
(lp751
S'grub-pc'
p752
aS'extlinux'
p753
aS'lilo'
p754
ass(g71
g351
g73
tp755
(dp756
g76
I01
sg77
(lp757
S'sparc64'
p758
aS'sparc64-smp'
p759
ass(S'base'
p760
g72
tp761
(dp762
S'kernel-arch'
p763
S'powerpc'
p764
sg223
(lp765
g73
ass(g71
g56
g73
tp766
(dp767
g76
I01
sg77
(lp768
S'alpha-generic'
p769
aS'alpha-smp'
p770
aS'alpha-legacy'
p771
ass(S'description'
p772
g81
g90
S'686-pae'
p773
tp774
(dp775
S'parts'
p776
(lp777
S'xen'
p778
ass(g71
g39
g73
tp779
(dp780
g76
I01
sg77
(lp781
S'itanium'
p782
aS'mckinley'
p783
ass(S'description'
p784
g358
NS'sh7785lcr'
p785
tp786
(dp787
S'hardware'
p788
S'sh7785lcr'
p789
sS'hardware-long'
p790
S'Renesas SH7785 reference board'
p791
ss(g71
g139
g73
tp792
(dp793
g76
I01
sg77
(lp794
S'r4k-ip22'
p795
aS'r5k-ip32'
p796
aS'sb1-bcm91250a'
p797
aS'sb1a-bcm91480b'
p798
aS'4kc-malta'
p799
aS'5kc-malta'
p800
aS'octeon'
p801
ass(S'abi'
p802
NS'rt'
p803
tp804
(dp805
S'ignore-changes'
p806
(lp807
S'*'
p808
ass(S'description'
p809
g121
NS'orion5x'
p810
tp811
(dp812
S'hardware'
p813
S'Marvell Orion'
p814
sS'hardware-long'
p815
S'Marvell Orion 5181, 5182 and 5281 based systems (QNAP TS-109/TS-209, etc)'
p816
ss(S'description'
p817
g351
NS'sparc32'
p818
tp819
(dp820
S'hardware'
p821
S'uniprocessor sparc32 (sun4m)'
p822
ss(S'build'
p823
g98
NS'armmp-lpae'
p824
tp825
(dp826
S'image-file'
p827
S'arch/arm/boot/zImage'
p828
ss(g71
g358
g73
tp829
(dp830
g76
I01
sg77
(lp831
S'sh7751r'
p832
aS'sh7785lcr'
p833
ass(S'description'
p834
g121
NS'versatile'
p835
tp836
(dp837
S'hardware'
p838
S'Versatile'
p839
sS'hardware-long'
p840
S'Versatile systems (PB, AB, Qemu)'
p841
ss(S'description'
p842
g358
NS'sh7751r'
p843
tp844
(dp845
S'hardware'
p846
S'sh7751r'
p847
sS'hardware-long'
p848
S'Renesas SH7751R R2D plus board'
p849
ss(S'description'
p850
g30
NS'4kc-malta'
p851
tp852
(dp853
S'hardware'
p854
S'MIPS Malta'
p855
sS'hardware-long'
p856
S'MIPS Malta boards'
p857
ss(S'base'
p858
S'x32'
p859
tp860
(dp861
S'kernel-arch'
p862
S'x86'
p863
sS'featuresets'
p864
(lp865
ss(S'image'
p866
g714
tp867
(dp868
S'suggests'
p869
S'vmelilo, fdutils'
p870
ss(S'base'
p871
g98
tp872
(dp873
S'kernel-arch'
p874
S'arm'
p875
sg223
(lp876
g73
ass(S'base'
p877
NS'rt'
p878
tp879
(dp880
S'enabled'
p881
I01
ss(S'image'
p882
g358
tp883
(dp884
S'suggests'
p885
S'fdutils'
p886
ss(S'base'
p887
g327
tp888
(dp889
S'kernel-arch'
p890
S'parisc'
p891
sg223
(lp892
g73
ass(S'base'
p893
g358
tp894
(dp895
S'kernel-arch'
p896
S'sh'
p897
sg223
(lp898
g73
asS'compiler'
p899
S'gcc-4.7'
p900
ss(S'image'
p901
g351
tp902
(dp903
S'suggests'
p904
S'silo, fdutils'
p905
ss(S'description'
p906
g139
NS'sb1-bcm91250a'
p907
tp908
(dp909
S'hardware'
p910
S'BCM91250A'
p911
sS'hardware-long'
p912
S'Broadcom BCM91250A systems (aka SWARM)'
p913
ss(S'description'
p914
tp915
(dp916
S'part-long-up'
p917
S'This kernel is not suitable for SMP (multi-processor,\nmulti-core or hyper-threaded) systems.'
p918
sS'part-long-xen'
p919
S'This kernel also runs on a Xen hypervisor.\nIt supports both privileged (dom0) and unprivileged (domU) operation.'
p920
ss(S'build'
p921
g121
NS'orion5x'
p922
tp923
(dp924
S'image-file'
p925
S'arch/arm/boot/zImage'
p926
ss(S'relations'
p927
g98
tp928
(dp929
S'headers%gcc-4.8'
p930
S'linux-compiler-gcc-4.8-arm'
p931
ss(S'build'
p932
g297
NS's390x'
p933
tp934
(dp935
S'debug-info'
p936
I01
ss(S'image'
p937
g121
NS'orion5x'
p938
tp939
(dp940
S'check-size'
p941
S'1572792'
p942
sS'configs'
p943
(lp944
S'armel/config-reduced'
p945
aS'armel/config.orion5x'
p946
asS'recommends'
p947
S'uboot-mkimage'
p948
ss(S'description'
p949
g365
NS'sparc64'
p950
tp951
(dp952
S'hardware'
p953
S'uniprocessor 64-bit UltraSPARC'
p954
ss(S'description'
p955
g408
NS's390x'
p956
tp957
(dp958
S'hardware'
p959
S'IBM zSeries'
p960
ss(S'description'
p961
g30
NS'loongson-2e'
p962
tp963
(dp964
S'hardware'
p965
S'Loongson 2E'
p966
sS'hardware-long'
p967
S'Lemote Loongson 2E systems'
p968
ss(S'image'
p969
g365
tp970
(dp971
S'suggests'
p972
S'silo, fdutils'
p973
sS'configs'
p974
(lp975
S'sparc/config'
p976
ass(S'image'
p977
g365
NS'sparc64-smp'
p978
tp979
(dp980
S'configs'
p981
(lp982
S'sparc/config.sparc64-smp'
p983
ass(S'relations'
p984
g408
tp985
(dp986
S'headers%gcc-4.8'
p987
S'linux-compiler-gcc-4.8-s390'
p988
ss(S'base'
p989
g16
tp990
(dp991
S'kernel-arch'
p992
S'powerpc'
p993
sg223
(lp994
g73
ass(S'description'
p995
g16
NS'powerpc64'
p996
tp997
(dp998
S'hardware'
p999
S'64-bit PowerPC'
p1000
ss(S'description'
p1001
g139
NS'sb1a-bcm91480b'
p1002
tp1003
(dp1004
S'hardware'
p1005
S'BCM91480B'
p1006
sS'hardware-long'
p1007
S'Broadcom BCM91480B systems (aka BigSur)'
p1008
ss(S'build'
p1009
g358
NS'sh7751r'
p1010
tp1011
(dp1012
S'image-file'
p1013
S'arch/sh/boot/zImage'
p1014
ss(S'description'
p1015
Ng803
tp1016
(dp1017
S'part-long-rt'
p1018
S'This kernel includes the PREEMPT_RT realtime patch set.'
p1019
sS'parts'
p1020
(lp1021
S'rt'
p1022
asS'part-short-rt'
p1023
S'PREEMPT_RT'
p1024
ss(S'description'
p1025
g30
NS'sb1a-bcm91480b'
p1026
tp1027
(dp1028
S'hardware'
p1029
S'BCM91480B'
p1030
sS'hardware-long'
p1031
S'Broadcom BCM91480B systems (aka BigSur)'
p1032
ss(S'image'
p1033
g30
NS'5kc-malta'
p1034
tp1035
(dp1036
S'configs'
p1037
(lp1038
S'mips/config.5kc-malta'
p1039
ass(S'image'
p1040
g98
tp1041
(dp1042
S'suggests'
p1043
S'fdutils'
p1044
sS'configs'
p1045
(lp1046
S'armel/config'
p1047
aS'armhf/config'
p1048
ass(S'abi'
p1049
tp1050
(dp1051
S'abiname'
p1052
S'1'
p1053
ss(g71
g321
g73
tp1054
(dp1055
g76
I01
sg77
(lp1056
S'powerpcspe'
p1057
ass(g71
g714
g73
tp1058
(dp1059
g76
I01
sg77
(lp1060
S'm68k'
p1061
ass(S'image'
p1062
g121
NS'ixp4xx'
p1063
tp1064
(dp1065
S'check-size'
p1066
S'1441760'
p1067
sS'configs'
p1068
(lp1069
S'armel/config-reduced'
p1070
aS'armel/config-tiny'
p1071
aS'armel/config.ixp4xx'
p1072
ass(S'build'
p1073
g121
NS'iop32x'
p1074
tp1075
(dp1076
S'image-file'
p1077
S'arch/arm/boot/zImage'
p1078
ss(S'description'
p1079
g81
NS'686-pae'
p1080
tp1081
(dp1082
S'hardware'
p1083
S'modern PCs'
p1084
sS'parts'
p1085
(lp1086
S'pae'
p1087
asS'hardware-long'
p1088
S'PCs with one or more processors supporting PAE'
p1089
ss(g71
g16
g73
tp1090
(dp1091
g76
I01
sg77
(lp1092
S'powerpc'
p1093
aS'powerpc-smp'
p1094
aS'powerpc64'
p1095
ass(S'base'
p1096
g714
tp1097
(dp1098
S'kernel-arch'
p1099
S'm68k'
p1100
sg223
(lp1101
g73
asS'cflags'
p1102
S'-ffreestanding'
p1103
sS'compiler'
p1104
S'gcc-4.8'
p1105
ss(S'description'
p1106
g297
NS's390x'
p1107
tp1108
(dp1109
S'hardware'
p1110
S'IBM zSeries'
p1111
ss(S'image'
p1112
tp1113
(dp1114
S'initramfs-generators'
p1115
(lp1116
S'initramfs-tools'
p1117
aS'initramfs-fallback'
p1118
asS'type'
p1119
S'plain'
p1120
ss(g71
g365
g73
tp1121
(dp1122
g76
I01
sg77
(lp1123
S'sparc64'
p1124
aS'sparc64-smp'
p1125
ass(S'build'
p1126
g121
NS'mv78xx0'
p1127
tp1128
(dp1129
S'image-file'
p1130
S'arch/arm/boot/zImage'
p1131
ss(S'description'
p1132
g98
NS'armmp'
p1133
tp1134
(dp1135
S'hardware'
p1136
S'ARMv7 multiplatform compatible SoCs'
p1137
sS'hardware-long'
p1138
S'ARMv7 multiplatform kernel for Marvell Armada 370/xp, Freescale iMX5x/iMX6'
p1139
ss(S'image'
p1140
g5
NS'amd64'
p1141
tp1142
(dp1143
S'configs'
p1144
(lp1145
S'kernelarch-x86/config-arch-64'
p1146
ass(S'description'
p1147
g139
NS'4kc-malta'
p1148
tp1149
(dp1150
S'hardware'
p1151
S'MIPS Malta'
p1152
sS'hardware-long'
p1153
S'MIPS Malta boards'
p1154
ss(S'image'
p1155
g408
tp1156
(dp1157
S'bootloaders'
p1158
(lp1159
S's390-tools'
p1160
ass(S'image'
p1161
g16
NS'powerpc-smp'
p1162
tp1163
(dp1164
S'configs'
p1165
(lp1166
S'powerpc/config.powerpc'
p1167
aS'powerpc/config.powerpc-smp'
p1168
ass(S'description'
p1169
g56
NS'alpha-smp'
p1170
tp1171
(dp1172
S'hardware'
p1173
S'Alpha SMP'
p1174
sS'hardware-long'
p1175
S'DEC Alpha SMP systems with extended kernel start address (Wildfire, Titan, Marvel)'
p1176
ss(S'description'
p1177
g39
NS'itanium'
p1178
tp1179
(dp1180
S'hardware'
p1181
S'Itanium'
p1182
sstp1183
Rp1184
.