ccopy_reg
_reconstructor
p0
(cdebian_linux.config
ConfigCore
p1
c__builtin__
dict
p2
(dp3
(Vbase
p4
NVrt
p5
tp6
(dp7
Venabled
p8
I00
ss(Vdescription
p9
Vhppa
p10
NVparisc64-smp
p11
tp12
(dp13
Vhardware
p14
Vmultiprocessor 64-bit PA-RISC
p15
sVhardware-long
p16
VHP PA-RISC 64-bit SMP systems with support for more than 4 GB RAM
p17
ss(Vbase
p18
Vppc64el
p19
Vnone
p20
tp21
(dp22
Vflavours
p23
(lp24
Vpowerpc64le
p25
asVimplicit-flavour
p26
I01
ss(Vbase
p27
g10
NVparisc64-smp
p28
tp29
(dp30
Vcflags
p31
V-fno-cse-follow-jumps
p32
sVoverride-host-type
p33
Vhppa64-linux-gnu
p34
ss(Vdescription
p35
Valpha
p36
NValpha-smp
p37
tp38
(dp39
Vhardware
p40
VAlpha SMP
p41
sVhardware-long
p42
VDEC Alpha SMP systems with extended kernel start address (Wildfire, Titan, Marvel)
p43
ss(Vimage
p44
Vmips64el
p45
tp46
(dp47
Vinstall-stem
p48
Vvmlinux
p49
ss(Vdescription
p50
g45
NV5kc-malta
p51
tp52
(dp53
Vhardware
p54
VMIPS Malta
p55
sVhardware-long
p56
VMIPS Malta boards
p57
ss(Vdescription
p58
Vamd64
p59
NVamd64
p60
tp61
(dp62
Vhardware
p63
V64-bit PCs
p64
sVhardware-long
p65
VPCs with AMD64, Intel 64 or VIA Nano processors
p66
ss(Vimage
p67
Vmipsel
p68
NVloongson-2e
p69
tp70
(dp71
Vconfigs
p72
(lp73
Vkernelarch-mips/config.loongson-2e
p74
ass(Vrelations
p75
g59
tp76
(dp77
Vheaders%gcc-5
p78
Vlinux-compiler-gcc-5-x86
p79
ss(Vimage
p80
Vsh4
p81
tp82
(dp83
Vsuggests
p84
Vfdutils
p85
sVinstall-stem
p86
Vvmlinuz
p87
ss(Vdescription
p88
g68
NV5kc-malta
p89
tp90
(dp91
Vhardware
p92
VMIPS Malta (64-bit)
p93
sVhardware-long
p94
VMIPS Malta boards (64-bit)
p95
ss(Vbase
p96
g81
tp97
(dp98
Vfeaturesets
p99
(lp100
g20
asVkernel-arch
p101
Vsh
p102
ss(Vdescription
p103
Vi386
p104
NV686-pae
p105
tp106
(dp107
Vhardware
p108
Vmodern PCs
p109
sVhardware-long
p110
VPCs with one or more processors supporting PAE
p111
sVparts
p112
(lp113
Vpae
p114
ass(Vbase
p115
Varm64
p116
Vnone
p117
tp118
(dp119
Vflavours
p120
(lp121
Varm64
p122
ass(Vbase
p123
g10
tp124
(dp125
g99
(lp126
g20
asVkernel-arch
p127
Vparisc
p128
ss(Vdescription
p129
Vmips64
p130
NVocteon
p131
tp132
(dp133
Vhardware
p134
VOcteon
p135
sVhardware-long
p136
VCavium Networks Octeon
p137
ss(Vimage
p138
g10
tp139
(dp140
Vsuggests
p141
Vpalo
p142
sVinstall-stem
p143
Vvmlinux
p144
ss(Vbuild
p145
Vsparc64
p146
tp147
(dp148
Vimage-file
p149
Varch/sparc/boot/zImage
p150
ss(Vdescription
p151
g104
Vnone
p152
V686-pae
p153
tp154
(dp155
Vparts
p156
(lp157
Vxen
p158
ass(Vdescription
p159
g45
NVloongson-3
p160
tp161
(dp162
Vhardware
p163
VLoongson 3A/3B
p164
sVhardware-long
p165
VLoongson 3A or 3B based systems (e.g. from Loongson or Lemote)
p166
ss(Vdescription
p167
Vmips
p168
NVocteon
p169
tp170
(dp171
Vhardware
p172
VOcteon
p173
sVhardware-long
p174
VCavium Networks Octeon
p175
ss(Vbase
p176
g19
tp177
(dp178
g99
(lp179
g20
asVkernel-arch
p180
Vpowerpc
p181
ss(Vdescription
p182
Varmhf
p183
NVarmmp-lpae
p184
tp185
(dp186
Vhardware
p187
VARMv7 multiplatform compatible SoCs supporting LPAE
p188
sVhardware-long
p189
VARMv7 multiplatform kernel supporting LPAE. See\u000ahttps://wiki.debian.org/DebianKernel/ARMMP for details of supported\u000aplatforms.
p190
ss(Vimage
p191
g19
tp192
(dp193
Vconfigs
p194
(lp195
sVsuggests
p196
Vmkvmlinuz
p197
sVinstall-stem
p198
Vvmlinux
p199
ss(Vimage
p200
g168
NVocteon
p201
tp202
(dp203
Vconfigs
p204
(lp205
Vkernelarch-mips/config.octeon
p206
ass(g18
Vppc64
p207
g20
tp208
(dp209
g23
(lp210
Vpowerpc64
p211
asg26
I01
ss(Vbase
p212
g45
tp213
(dp214
g99
(lp215
g20
asVkernel-arch
p216
Vmips
p217
ss(Vxen
p218
g59
Vnone
p219
Vamd64
p220
tp221
(dp222
Vflavours
p223
(lp224
Vamd64
p225
ass(g18
g130
g20
tp226
(dp227
g23
(lp228
V5kc-malta
p229
aVocteon
p230
asg26
I01
ss(Vversion
p231
tp232
(dp233
Vsource
p234
V4.4.4-2kali2
p235
sVabiname_base
p236
V4.4.0
p237
sVabiname
p238
V4.4.0-kali1
p239
sVupstream
p240
V4.4
p241
ss(Vbase
p242
Vs390
p243
tp244
(dp245
Vfeaturesets
p246
(lp247
sVkernel-arch
p248
Vs390
p249
ss(Vbuild
p250
Vpowerpc
p251
tp252
(dp253
Vimage-file
p254
Vvmlinux
p255
sVvdso
p256
I01
ss(g18
Vm68k
p257
g20
tp258
(dp259
g23
(lp260
Vm68k
p261
asg26
I01
ss(Vdescription
p262
g146
NVsparc64
p263
tp264
(dp265
Vhardware
p266
Vuniprocessor 64-bit UltraSPARC
p267
ss(Vimage
p268
g251
NVpowerpc-smp
p269
tp270
(dp271
Vconfigs
p272
(lp273
Vpowerpc/config.powerpc
p274
aVpowerpc/config.powerpc-smp
p275
ass(Vimage
p276
g104
tp277
(dp278
Vbreaks
p279
Vxserver-xorg-input-vmmouse (<< 1:13.0.99)
p280
sVconfigs
p281
(lp282
sVbootloaders
p283
(lp284
Vgrub-pc
p285
aVextlinux
p286
asVinstall-stem
p287
Vvmlinuz
p288
ss(Vbase
p289
Vx32
p290
tp291
(dp292
Vfeaturesets
p293
(lp294
sVkernel-arch
p295
Vx86
p296
ss(Vbase
p297
g104
tp298
(dp299
Vcompiler
p300
Vgcc-5
p301
sVfeaturesets
p302
(lp303
Vnone
p304
aVrt
p305
asVkernel-arch
p306
Vx86
p307
ss(Vimage
p308
g104
NV686
p309
tp310
(dp311
Vconfigs
p312
(lp313
Vkernelarch-x86/config-arch-32
p314
aVi386/config.686
p315
asVrecommends
p316
Vlibc6-i686
p317
ss(Vbuild
p318
g81
tp319
(dp320
Vimage-file
p321
Varch/sh/boot/zImage
p322
ss(Vbase
p323
g183
tp324
(dp325
g99
(lp326
g20
asVkernel-arch
p327
Varm
p328
ss(Vbuild
p329
g207
tp330
(dp331
Vimage-file
p332
Vvmlinux
p333
sVvdso
p334
I01
ss(Vbase
p335
Vor1k
p336
tp337
(dp338
Vfeaturesets
p339
(lp340
sVkernel-arch
p341
Vopenrisc
p342
ss(Vimage
p343
g68
NVloongson-3
p344
tp345
(dp346
Vconfigs
p347
(lp348
Vkernelarch-mips/config.loongson-3
p349
ass(Vbase
p350
g251
tp351
(dp352
g99
(lp353
g20
asVkernel-arch
p354
Vpowerpc
p355
ss(Vimage
p356
g168
tp357
(dp358
Vinstall-stem
p359
Vvmlinux
p360
ss(g18
Vpowerpcspe
p361
g20
tp362
(dp363
g23
(lp364
Vpowerpcspe
p365
asg26
I01
ss(Vimage
p366
g251
tp367
(dp368
Vconfigs
p369
(lp370
sVsuggests
p371
Vmkvmlinuz
p372
sVinstall-stem
p373
Vvmlinux
p374
ss(Vdescription
p375
g251
NVpowerpc-smp
p376
tp377
(dp378
Vhardware
p379
Vmultiprocessor 32-bit PowerPC
p380
ss(Vdescription
p381
Vs390x
p382
NVs390x
p383
tp384
(dp385
Vhardware
p386
VIBM zSeries
p387
ss(g18
g251
g20
tp388
(dp389
g23
(lp390
Vpowerpc
p391
aVpowerpc-smp
p392
aVpowerpc64
p393
asg26
I01
ss(Vdescription
p394
tp395
(dp396
Vpart-long-xen
p397
VThis kernel also runs on a Xen hypervisor.\u000aIt supports both privileged (dom0) and unprivileged (domU) operation.
p398
sVpart-long-up
p399
VThis kernel is not suitable for SMP (multi-processor,\u000amulti-core or hyper-threaded) systems.
p400
ss(Vbuild
p401
Varmel
p402
tp403
(dp404
Vimage-file
p405
Varch/arm/boot/zImage
p406
ss(Vimage
p407
g146
NVsparc64-smp
p408
tp409
(dp410
Vconfigs
p411
(lp412
Vkernelarch-sparc/config-smp
p413
ass(Vimage
p414
g130
NVocteon
p415
tp416
(dp417
Vconfigs
p418
(lp419
Vkernelarch-mips/config.octeon
p420
ass(Vrelations
p421
g10
tp422
(dp423
Vgcc-4.9
p424
Vgcc-4.9 <!stage1>, binutils-hppa64 <!stage1>, gcc-4.9-hppa64 <!stage1>
p425
ss(g18
g168
g20
tp426
(dp427
g23
(lp428
V4kc-malta
p429
aV5kc-malta
p430
aVocteon
p431
asg26
I01
ss(Vabi
p432
g10
tp433
(dp434
Vignore-changes
p435
(lp436
Vdrm_dp_*
p437
ass(Vdescription
p438
NVrt
p439
tp440
(dp441
Vpart-long-rt
p442
VThis kernel includes the PREEMPT_RT realtime patch set.
p443
sVpart-short-rt
p444
VPREEMPT_RT
p445
sVparts
p446
(lp447
Vrt
p448
ass(Vimage
p449
g183
NVarmmp-lpae
p450
tp451
(dp452
Vconfigs
p453
(lp454
Varmhf/config.armmp
p455
aVarmhf/config.lpae
p456
ass(Vimage
p457
g19
NVpowerpc64le
p458
tp459
(dp460
Vconfigs
p461
(lp462
Vkernelarch-powerpc/config-arch-64
p463
aVkernelarch-powerpc/config-arch-64-le
p464
ass(Vimage
p465
g68
NVloongson-2f
p466
tp467
(dp468
Vconfigs
p469
(lp470
Vkernelarch-mips/config.loongson-2f
p471
asVrecommends
p472
Vlibc6-loongson2f
p473
ss(Vbuild
p474
g361
tp475
(dp476
Vimage-file
p477
Vvmlinux
p478
sVvdso
p479
I01
ss(g18
g402
g20
tp480
(dp481
g23
(lp482
Vmarvell
p483
aVversatile
p484
asg26
I01
ss(Vbase
p485
g207
tp486
(dp487
g99
(lp488
g20
asVkernel-arch
p489
Vpowerpc
p490
ss(Vdescription
p491
g168
NV5kc-malta
p492
tp493
(dp494
Vhardware
p495
VMIPS Malta (64-bit)
p496
sVhardware-long
p497
VMIPS Malta boards (64-bit)
p498
ss(Vdescription
p499
g104
NV686
p500
tp501
(dp502
Vhardware
p503
Volder PCs
p504
sVhardware-long
p505
VPCs with one or more processors not supporting PAE
p506
ss(Vbuild
p507
g382
NVs390x
p508
tp509
(dp510
Vdebug-info
p511
I01
ss(Vimage
p512
g45
NVocteon
p513
tp514
(dp515
Vconfigs
p516
(lp517
Vkernelarch-mips/config.octeon
p518
ass(Vrelations
p519
tp520
(dp521
Vgcc-5
p522
Vgcc-5 <!stage1>
p523
sVinitramfs-tools
p524
Vinitramfs-tools (>= 0.110~)
p525
sVgcc-4.9
p526
Vgcc-4.9 <!stage1>
p527
sVinitramfs-fallback
p528
Vlinux-initramfs-tool
p529
sVgcc-4.8
p530
Vgcc-4.8 <!stage1>
p531
ss(g18
g10
g20
tp532
(dp533
g23
(lp534
Vparisc
p535
aVparisc64-smp
p536
asg26
I01
ss(Vdescription
p537
g130
NV5kc-malta
p538
tp539
(dp540
Vhardware
p541
VMIPS Malta
p542
sVhardware-long
p543
VMIPS Malta boards
p544
ss(Vdescription
p545
g36
NValpha-generic
p546
tp547
(dp548
Vhardware
p549
VAlpha
p550
sVhardware-long
p551
VDEC Alpha systems with extended kernel start address (Wildfire, Titan, Marvel)
p552
ss(Vbuild
p553
g257
tp554
(dp555
Vimage-file
p556
Vvmlinux.gz
p557
ss(Vbuild
p558
g130
tp559
(dp560
Vimage-file
p561
Vvmlinux
p562
ss(Vdescription
p563
g361
tp564
(dp565
Vhardware
p566
V32-bit PowerPC with SPE (instead of AltiVec) with SMP support
p567
ss(Vdescription
p568
g45
NVocteon
p569
tp570
(dp571
Vhardware
p572
VOcteon
p573
sVhardware-long
p574
VCavium Networks Octeon
p575
ss(Vimage
p576
g59
tp577
(dp578
Vbreaks
p579
Vxserver-xorg-input-vmmouse (<< 1:13.0.99)
p580
sVconfigs
p581
(lp582
sVbootloaders
p583
(lp584
Vgrub-pc
p585
aVgrub-efi
p586
aVextlinux
p587
asVinstall-stem
p588
Vvmlinuz
p589
ss(Vrelations
p590
g183
tp591
(dp592
Vheaders%gcc-4.9
p593
Vlinux-compiler-gcc-4.9-arm
p594
ss(Vimage
p595
g183
tp596
(dp597
Vconfigs
p598
(lp599
Vkernelarch-arm/config
p600
asVsuggests
p601
Vfdutils
p602
sVinstall-stem
p603
Vvmlinuz
p604
ss(g18
g81
g20
tp605
(dp606
g23
(lp607
Vsh7751r
p608
aVsh7785lcr
p609
asg26
I01
ss(Vabi
p610
Ng439
tp611
(dp612
Vignore-changes
p613
(lp614
V*
p615
ass(Vbase
p616
g59
g219
tp617
(dp618
Vflavours
p619
(lp620
Vamd64
p621
ass(Vimage
p622
g382
NVs390x
p623
tp624
(dp625
Vconfigs
p626
(lp627
Vkernelarch-s390/config-arch-64
p628
ass(Vbuild
p629
g10
tp630
(dp631
Vimage-file
p632
Vvmlinux
p633
ss(Vbase
p634
g130
tp635
(dp636
g99
(lp637
g20
asVkernel-arch
p638
Vmips
p639
ss(Vbase
p640
Vsparc
p641
tp642
(dp643
Vfeaturesets
p644
(lp645
sVkernel-arch
p646
Vsparc
p647
ss(Vdescription
p648
g68
NVloongson-3
p649
tp650
(dp651
Vhardware
p652
VLoongson 3A/3B
p653
sVhardware-long
p654
VLoongson 3A or 3B based systems (e.g. from Loongson or Lemote)
p655
ss(Vimage
p656
g104
NV686-pae
p657
tp658
(dp659
Vconfigs
p660
(lp661
Vkernelarch-x86/config-arch-32
p662
aVi386/config.686-pae
p663
asVrecommends
p664
Vlibc6-i686
p665
ss(Vdescription
p666
g402
NVversatile
p667
tp668
(dp669
Vhardware
p670
VVersatile
p671
sVhardware-long
p672
VVersatile systems (PB, AB, Qemu)
p673
ss(Vimage
p674
g130
NV5kc-malta
p675
tp676
(dp677
Vconfigs
p678
(lp679
Vkernelarch-mips/config.5kc-malta
p680
ass(Vbuild
p681
g59
tp682
(dp683
Vimage-file
p684
Varch/x86/boot/bzImage
p685
sVvdso
p686
I01
sVdebug-info
p687
I01
ss(Vdescription
p688
g257
NVm68k
p689
tp690
(dp691
Vhardware
p692
VMotorola MC68020+ family
p693
ss(Vimage
p694
g361
tp695
(dp696
Vsuggests
p697
Vmkvmlinuz
p698
sVinstall-stem
p699
Vvmlinux
p700
ss(Vbuild
p701
g36
tp702
(dp703
Vimage-file
p704
Varch/alpha/boot/vmlinux.gz
p705
ss(Vdescription
p706
g402
NVmarvell
p707
tp708
(dp709
Vhardware
p710
VMarvell Kirkwood/Orion
p711
sVhardware-long
p712
VMarvell Kirkwood based systems (SheevaPlug, QNAP TS-119/TS-219, etc)\u000aand Orion 5181, 5182 and 5281 based systems (QNAP TS-109/TS-209, etc)
p713
ss(Vbuild
p714
g116
tp715
(dp716
Vimage-file
p717
Varch/arm64/boot/Image
p718
sVvdso
p719
I01
sVdebug-info
p720
I01
ss(Vdescription
p721
g104
tp722
(dp723
Vpart-long-pae
p724
VThis kernel requires PAE (Physical Address Extension).\u000aThis feature is supported by the Intel Pentium Pro/II/III/4/4M/D, Xeon,\u000aCore and Atom; AMD Geode NX, Athlon (K7), Duron, Opteron, Sempron,\u000aTurion or Phenom; Transmeta Efficeon; VIA C7; and some other processors.
p725
ss(Vimage
p726
g81
NVsh7785lcr
p727
tp728
(dp729
Vrecommends
p730
Vu-boot-tools
p731
sVcheck-size
p732
L4194304L
ss(Vimage
p733
g68
NV4kc-malta
p734
tp735
(dp736
Vconfigs
p737
(lp738
Vkernelarch-mips/config.4kc-malta
p739
ass(g18
g36
g20
tp740
(dp741
g23
(lp742
Valpha-generic
p743
aValpha-smp
p744
asg26
I01
ss(Vbase
p745
g104
Vrt
p746
tp747
(dp748
Vflavours
p749
(lp750
V686-pae
p751
ass(Vbuild
p752
g104
NV686-pae
p753
tp754
(dp755
Vdebug-info
p756
I01
ss(g18
g45
g20
tp757
(dp758
g23
(lp759
V5kc-malta
p760
aVloongson-3
p761
aVocteon
p762
asg26
I01
ss(Vimage
p763
g168
NV4kc-malta
p764
tp765
(dp766
Vconfigs
p767
(lp768
Vkernelarch-mips/config.4kc-malta
p769
ass(Vbase
p770
g168
tp771
(dp772
g99
(lp773
g20
asVkernel-arch
p774
Vmips
p775
ss(Vimage
p776
g257
tp777
(dp778
Vsuggests
p779
Vvmelilo, fdutils
p780
sVinstall-stem
p781
Vvmlinuz
p782
ss(Vdescription
p783
g59
g219
Vamd64
p784
tp785
(dp786
Vparts
p787
(lp788
Vxen
p789
ass(Vbase
p790
g116
tp791
(dp792
Vfeaturesets
p793
(lp794
Vnone
p795
asVkernel-arch
p796
Varm64
p797
ss(Vdescription
p798
g81
NVsh7751r
p799
tp800
(dp801
Vhardware
p802
Vsh7751r
p803
sVhardware-long
p804
VRenesas SH7751R R2D plus board
p805
ss(g18
g68
g20
tp806
(dp807
g23
(lp808
V4kc-malta
p809
aV5kc-malta
p810
aVloongson-2e
p811
aVloongson-2f
p812
aVloongson-3
p813
asg26
I01
ss(Vdescription
p814
g68
NV4kc-malta
p815
tp816
(dp817
Vhardware
p818
VMIPS Malta
p819
sVhardware-long
p820
VMIPS Malta boards
p821
ss(Vimage
p822
g116
tp823
(dp824
Vinstall-stem
p825
Vvmlinuz
p826
ss(Vdescription
p827
g68
NVloongson-2e
p828
tp829
(dp830
Vhardware
p831
VLoongson 2E
p832
sVhardware-long
p833
VLemote Loongson 2E systems
p834
ss(Vdescription
p835
g10
NVparisc
p836
tp837
(dp838
Vhardware
p839
V32-bit PA-RISC
p840
sVhardware-long
p841
VHP PA-RISC 32-bit systems with max 4 GB RAM
p842
ss(Vimage
p843
g402
tp844
(dp845
Vconfigs
p846
(lp847
Vkernelarch-arm/config
p848
aVarmel/config
p849
asVsuggests
p850
Vfdutils
p851
sVinstall-stem
p852
Vvmlinuz
p853
ss(Vbuild
p854
g183
tp855
(dp856
Vimage-file
p857
Varch/arm/boot/zImage
p858
sVvdso
p859
I01
ss(Vdescription
p860
g146
NVsparc64-smp
p861
tp862
(dp863
Vhardware
p864
Vmultiprocessor 64-bit UltraSPARC
p865
ss(Vimage
p866
g116
NVarm64
p867
tp868
(dp869
s(Vimage
p870
g168
NV5kc-malta
p871
tp872
(dp873
Vconfigs
p874
(lp875
Vkernelarch-mips/config.5kc-malta
p876
ass(Vimage
p877
g207
tp878
(dp879
Vconfigs
p880
(lp881
sVsuggests
p882
Vmkvmlinuz
p883
sVinstall-stem
p884
Vvmlinux
p885
ss(Vbase
p886
g402
tp887
(dp888
g99
(lp889
g20
asVkernel-arch
p890
Varm
p891
ss(Vimage
p892
g59
NVamd64
p893
tp894
(dp895
Vconfigs
p896
(lp897
Vkernelarch-x86/config-arch-64
p898
ass(Vbase
p899
g36
tp900
(dp901
g99
(lp902
g20
asVkernel-arch
p903
Valpha
p904
ss(Vdescription
p905
g168
NV4kc-malta
p906
tp907
(dp908
Vhardware
p909
VMIPS Malta
p910
sVhardware-long
p911
VMIPS Malta boards
p912
ss(Vimage
p913
g251
NVpowerpc64
p914
tp915
(dp916
Vconfigs
p917
(lp918
Vkernelarch-powerpc/config-arch-64
p919
aVkernelarch-powerpc/config-arch-64-be
p920
ass(Vbuild
p921
g45
tp922
(dp923
Vimage-file
p924
Vvmlinux
p925
ss(Vdescription
p926
g251
NVpowerpc
p927
tp928
(dp929
Vhardware
p930
Vuniprocessor 32-bit PowerPC
p931
ss(Vimage
p932
g68
NV5kc-malta
p933
tp934
(dp935
Vconfigs
p936
(lp937
Vkernelarch-mips/config.5kc-malta
p938
ass(Vimage
p939
g146
tp940
(dp941
Vconfigs
p942
(lp943
sVsuggests
p944
Vsilo, fdutils
p945
sVinstall-stem
p946
Vvmlinuz
p947
ss(Vimage
p948
g130
tp949
(dp950
Vinstall-stem
p951
Vvmlinux
p952
ss(Vimage
p953
g207
NVpowerpc64
p954
tp955
(dp956
Vconfigs
p957
(lp958
Vkernelarch-powerpc/config-arch-64
p959
aVkernelarch-powerpc/config-arch-64-be
p960
ass(Vrelations
p961
g104
tp962
(dp963
Vheaders%gcc-5
p964
Vlinux-compiler-gcc-5-x86
p965
ss(g18
g183
g20
tp966
(dp967
g23
(lp968
Varmmp
p969
aVarmmp-lpae
p970
asg26
I01
ss(Vdescription
p971
g251
NVpowerpc64
p972
tp973
(dp974
Vhardware
p975
V64-bit PowerPC
p976
ss(Vdescription
p977
g183
NVarmmp
p978
tp979
(dp980
Vhardware
p981
VARMv7 multiplatform compatible SoCs
p982
sVhardware-long
p983
VARMv7 multiplatform kernel. See\u000ahttps://wiki.debian.org/DebianKernel/ARMMP for details of supported\u000aplatforms
p984
ss(Vimage
p985
g45
NV5kc-malta
p986
tp987
(dp988
Vconfigs
p989
(lp990
Vkernelarch-mips/config.5kc-malta
p991
ass(Vbase
p992
g361
tp993
(dp994
g99
(lp995
g20
asVkernel-arch
p996
Vpowerpc
p997
ss(g18
g146
g20
tp998
(dp999
g23
(lp1000
Vsparc64
p1001
aVsparc64-smp
p1002
asg26
I01
ss(Vbase
p1003
g104
g152
tp1004
(dp1005
Vflavours
p1006
(lp1007
V686
p1008
aV686-pae
p1009
ass(Vabi
p1010
g382
tp1011
(dp1012
Vignore-changes
p1013
(lp1014
Vmodule:arch/s390/kvm/kvm
p1015
ass(Vdescription
p1016
g68
NVloongson-2f
p1017
tp1018
(dp1019
Vhardware
p1020
VLoongson 2F
p1021
sVhardware-long
p1022
VLemote Loongson 2F systems
p1023
ss(Vbuild
p1024
g104
tp1025
(dp1026
Vimage-file
p1027
Varch/x86/boot/bzImage
p1028
sVvdso
p1029
I01
ss(Vrelations
p1030
g402
tp1031
(dp1032
Vheaders%gcc-4.9
p1033
Vlinux-compiler-gcc-4.9-arm
p1034
ss(Vbase
p1035
tp1036
(dp1037
Vcompiler
p1038
Vgcc-4.9
p1039
sVfeaturesets
p1040
(lp1041
Vnone
p1042
aVrt
p1043
asVarches
p1044
(lp1045
Valpha
p1046
aVamd64
p1047
aVarm64
p1048
aVarmel
p1049
aVarmhf
p1050
aVhppa
p1051
aVi386
p1052
aVm68k
p1053
aVmips
p1054
aVmipsel
p1055
aVmips64
p1056
aVmips64el
p1057
aVor1k
p1058
aVpowerpc
p1059
aVpowerpcspe
p1060
aVppc64
p1061
aVppc64el
p1062
aVs390
p1063
aVs390x
p1064
aVsh4
p1065
aVsparc
p1066
aVsparc64
p1067
aVx32
p1068
ass(Vimage
p1069
g68
tp1070
(dp1071
Vinstall-stem
p1072
Vvmlinux
p1073
ss(Vbase
p1074
g257
tp1075
(dp1076
Vcompiler
p1077
Vgcc-4.8
p1078
sVcflags
p1079
V-ffreestanding
p1080
sVkernel-arch
p1081
Vm68k
p1082
sg99
(lp1083
g20
ass(Vrelations
p1084
g382
tp1085
(dp1086
Vheaders%gcc-4.9
p1087
Vlinux-compiler-gcc-4.9-s390
p1088
ss(Vimage
p1089
g45
NVloongson-3
p1090
tp1091
(dp1092
Vconfigs
p1093
(lp1094
Vkernelarch-mips/config.loongson-3
p1095
ass(Vimage
p1096
g382
tp1097
(dp1098
Vconfigs
p1099
(lp1100
sVbootloaders
p1101
(lp1102
Vs390-tools
p1103
asVinstall-stem
p1104
Vvmlinuz
p1105
ss(Vbase
p1106
g68
tp1107
(dp1108
g99
(lp1109
g20
asVkernel-arch
p1110
Vmips
p1111
ss(Vbase
p1112
g382
tp1113
(dp1114
g99
(lp1115
g20
asVkernel-arch
p1116
Vs390
p1117
ss(Vbase
p1118
g59
tp1119
(dp1120
Vcompiler
p1121
Vgcc-5
p1122
sVfeaturesets
p1123
(lp1124
Vnone
p1125
aVrt
p1126
asVkernel-arch
p1127
Vx86
p1128
ss(Vdescription
p1129
g207
NVpowerpc64
p1130
tp1131
(dp1132
Vhardware
p1133
V64-bit PowerPC
p1134
ss(Vbuild
p1135
g19
tp1136
(dp1137
Vimage-file
p1138
Vvmlinux
p1139
sVvdso
p1140
I01
ss(g18
g382
g20
tp1141
(dp1142
g23
(lp1143
Vs390x
p1144
asg26
I01
ss(Vabi
p1145
tp1146
(dp1147
Vignore-changes
p1148
(lp1149
V__scm_destroy
p1150
aV__scm_send
p1151
aVscm_detach_fds
p1152
aVscm_fp_dup
p1153
aVefivar_validate
p1154
aVget_thermal_instance
p1155
aVinet_csk_reqsk_queue_add
p1156
aVtcp_req_err
p1157
aVmodule:drivers/gpu/drm/drm_kms_helper
p1158
aVmodule:drivers/hv/hv_vmbus
p1159
aVmodule:drivers/md/dm-snapshot
p1160
aVmodule:drivers/mmc/host/sdhci
p1161
aVmodule:drivers/mmc/host/sdhci*
p1162
aVmodule:net/ceph/libceph
p1163
asVabiname
p1164
Vkali1
p1165
ss(Vbuild
p1166
g68
tp1167
(dp1168
Vimage-file
p1169
Vvmlinux
p1170
ss(Vdescription
p1171
g116
NVarm64
p1172
tp1173
(dp1174
Vhardware
p1175
V64-bit ARMv8 machines
p1176
ss(Vimage
p1177
g402
NVmarvell
p1178
tp1179
(dp1180
Vbreaks
p1181
Vflash-kernel (<< 3.57~)
p1182
sVrecommends
p1183
Vu-boot-tools
p1184
sVcheck-size
p1185
L2097080L
sVcheck-size-with-dtb
p1186
I01
ss(Vdescription
p1187
g19
NVpowerpc64le
p1188
tp1189
(dp1190
Vhardware
p1191
VLittle-endian 64-bit PowerPC
p1192
ss(Vimage
p1193
g36
tp1194
(dp1195
Vsuggests
p1196
Vaboot, fdutils
p1197
sVinstall-stem
p1198
Vvmlinuz
p1199
ss(Vbase
p1200
g59
Vrt
p1201
tp1202
(dp1203
Vflavours
p1204
(lp1205
Vamd64
p1206
ass(Vimage
p1207
g146
NVsparc64
p1208
tp1209
(dp1210
Vconfigs
p1211
(lp1212
Vkernelarch-sparc/config-up
p1213
ass(Vimage
p1214
tp1215
(dp1216
Vinitramfs-generators
p1217
(lp1218
Vinitramfs-tools
p1219
aVinitramfs-fallback
p1220
ass(Vdescription
p1221
g81
NVsh7785lcr
p1222
tp1223
(dp1224
Vhardware
p1225
Vsh7785lcr
p1226
sVhardware-long
p1227
VRenesas SH7785 reference board
p1228
ss(Vbase
p1229
g146
tp1230
(dp1231
g99
(lp1232
g20
asVkernel-arch
p1233
Vsparc
p1234
ss(Vbuild
p1235
g168
tp1236
(dp1237
Vimage-file
p1238
Vvmlinux
p1239
ss(Vbuild
p1240
g382
tp1241
(dp1242
Vimage-file
p1243
Varch/s390/boot/image
p1244
sVvdso
p1245
I01
sstp1246
Rp1247
.