cdebian_linux.config
ConfigCore
p0
(tRp1
(Vabi
p2
tp3
(dp4
Vabiname
p5
Vkali3
p6
sVignore-changes
p7
(lp8
V__cpuhp_*
p9
aV__xive_vm_h_*
p10
aVbpf_analyzer
p11
aVcxl_*
p12
aVdax_flush
p13
aVieee80211_nullfunc_get
p14
aVinet_add_protocol
p15
aVinet_del_protocol
p16
aViommu_device_*
p17
aVkvm_async_pf_task_wait
p18
aVkvmppc_*
p19
aVmm_iommu_*
p20
aVmv_mbus_*
p21
aVperf_*
p22
aVregister_cxl_calls
p23
aVregister_key_type
p24
aVunregister_cxl_calls
p25
aV*_hw_breakpoint
p26
aVmodule:arch/x86/kvm/*
p27
aVmodule:drivers/crypto/ccp/*
p28
aVmodule:drivers/hv/*
p29
aVmodule:drivers/iio/common/hid-sensors/*
p30
aVmodule:drivers/iio/common/st_sensors/**
p31
aVmodule:drivers/mtd/nand/*
p32
aVmodule:drivers/net/wireless/**
p33
aVmodule:drivers/nvdimm/*
p34
aVmodule:drivers/power/supply/bq27xxx_battery
p35
aVmodule:drivers/scsi/cxgbi/*
p36
aVmodule:drivers/scsi/libiscs*
p37
aVmodule:drivers/scsi/qla2xxx/qla2xxx
p38
aVmodule:drivers/scsi/ufs/*
p39
aVmodule:drivers/target/**
p40
aVmodule:drivers/usb/chipidea/**
p41
aVmodule:drivers/usb/gadget/**
p42
aVmodule:drivers/usb/host/**
p43
aVmodule:drivers/usb/musb/**
p44
aVmodule:fs/nfs/**
p45
aVmodule:net/ceph/libceph
p46
aVmodule:net/l2tp/**
p47
aVmodule:net/rxrpc/rxrpc
p48
aVmodule:sound/core/seq/**
p49
aVmodule:sound/firewire/snd-firewire-lib
p50
aVbtree_*
p51
aVvisitor*
p52
aVcan_rx_register
p53
aVip6_xmit
p54
aVmodule:net/dccp/dccp
p55
aVmodule:net/rds/rds
p56
aVdevfreq_*
p57
aVdevm_devfreq_*
p58
aVupdate_devfreq
p59
aVmodule:drivers/infiniband/**
p60
aVacpi_ec_add_query_handler
p61
aVacpi_ec_remove_query_handler
p62
aVfirst_ec
p63
aVdebugfs_create_automount
p64
aVmodule:drivers/iio/imu/inv_mpu6050/*
p65
ass(Vbase
p66
tp67
(dp68
Varches
p69
(lp70
Valpha
p71
aVamd64
p72
aVarm64
p73
aVarm64ilp32
p74
aVarmel
p75
aVarmhf
p76
aVhppa
p77
aVi386
p78
aVm68k
p79
aVmips
p80
aVmips64
p81
aVmips64el
p82
aVmips64r6
p83
aVmips64r6el
p84
aVmipsel
p85
aVmipsn32
p86
aVmipsn32el
p87
aVmipsn32r6
p88
aVmipsn32r6el
p89
aVmipsr6
p90
aVmipsr6el
p91
aVpowerpc
p92
aVpowerpcspe
p93
aVppc64
p94
aVppc64el
p95
aVs390
p96
aVs390x
p97
aVsh3
p98
aVsh4
p99
aVsparc
p100
aVsparc64
p101
aVtilegx
p102
aVx32
p103
asVcompiler
p104
Vgcc-7
p105
sVfeaturesets
p106
(lp107
Vnone
p108
aVrt
p109
ass(Vbuild
p110
tp111
(dp112
Vdebug-info
p113
I01
sVsigned-modules
p114
I00
ss(Vbase
p115
NVrt
p116
tp117
(dp118
Venabled
p119
I00
ss(Vdescription
p120
tp121
(dp122
Vpart-long-up
p123
VThis kernel is not suitable for SMP (multi-processor,\u000amulti-core or hyper-threaded) systems.
p124
ss(Vimage
p125
tp126
(dp127
Vinitramfs-generators
p128
(lp129
Vinitramfs-tools
p130
aVinitramfs-fallback
p131
asVrecommends
p132
Vapparmor
p133
ss(Vrelations
p134
tp135
(dp136
Vgcc-7
p137
Vgcc-7 <!stage1 !cross>, gcc-7-@gnu-type-package@ <!stage1 cross>
p138
sVinitramfs-fallback
p139
Vlinux-initramfs-tool
p140
sVinitramfs-tools
p141
Vinitramfs-tools (>= 0.120+deb8u2)
p142
ss(Vbase
p143
Valpha
p144
tp145
(dp146
Vkernel-arch
p147
Valpha
p148
sVfeaturesets
p149
(lp150
Vnone
p151
ass(Vbuild
p152
g144
tp153
(dp154
Vimage-file
p155
Varch/alpha/boot/vmlinux.gz
p156
sVsigned-modules
p157
I00
ss(Vimage
p158
g144
tp159
(dp160
Vsuggests
p161
Vaboot, fdutils
p162
sVinstall-stem
p163
Vvmlinuz
p164
ss(Vdescription
p165
g144
NValpha-generic
p166
tp167
(dp168
Vhardware
p169
VAlpha
p170
sVhardware-long
p171
VDEC Alpha systems with extended kernel start address (Wildfire, Titan, Marvel)
p172
ss(Vdescription
p173
g144
NValpha-smp
p174
tp175
(dp176
Vhardware
p177
VAlpha SMP
p178
sVhardware-long
p179
VDEC Alpha SMP systems with extended kernel start address (Wildfire, Titan, Marvel)
p180
ss(Vbase
p181
g144
g151
tp182
(dp183
Vflavours
p184
(lp185
Valpha-generic
p186
aValpha-smp
p187
asVimplicit-flavour
p188
I01
ss(Vbase
p189
Vamd64
p190
tp191
(dp192
Vfeaturesets
p193
(lp194
Vnone
p195
aVrt
p196
asVkernel-arch
p197
Vx86
p198
ss(Vbuild
p199
g190
tp200
(dp201
Vdebug-info
p202
I01
sVimage-file
p203
Varch/x86/boot/bzImage
p204
sVvdso
p205
I01
sVsigned-modules
p206
I00
ss(Vimage
p207
g190
tp208
(dp209
Vbootloaders
p210
(lp211
Vgrub-pc
p212
aVgrub-efi-amd64
p213
aVextlinux
p214
asVinstall-stem
p215
Vvmlinuz
p216
sVbreaks
p217
Vxserver-xorg-input-vmmouse (<< 1:13.0.99)
p218
ss(Vrelations
p219
g190
tp220
(dp221
Vgcc-7
p222
Vgcc-7 (>= 7.2.0-20~) <!stage1 !cross>, gcc-7-x86-64-linux-gnu (>= 7.2.0-20~) <!stage1 cross>
p223
sVheaders%gcc-7
p224
Vlinux-compiler-gcc-7-x86 (>= 4.14.17-1~)
p225
ss(Vdescription
p226
g190
NVamd64
p227
tp228
(dp229
Vhardware
p230
V64-bit PCs
p231
sVhardware-long
p232
VPCs with AMD64, Intel 64 or VIA Nano processors
p233
ss(Vdescription
p234
g190
NVcloud-amd64
p235
tp236
(dp237
Vhardware
p238
Vx86-64 cloud
p239
sVhardware-long
p240
VAmazon EC2, Google Compute Engine and Microsoft Azure cloud platforms
p241
ss(Vbase
p242
g190
Vnone
p243
tp244
(dp245
Vflavours
p246
(lp247
Vamd64
p248
aVcloud-amd64
p249
ass(Vbase
p250
g190
Vrt
p251
tp252
(dp253
Vflavours
p254
(lp255
Vamd64
p256
ass(Vbase
p257
Varm64
p258
tp259
(dp260
Vkernel-arch
p261
Varm64
p262
sVfeaturesets
p263
(lp264
Vnone
p265
ass(Vbuild
p266
g258
tp267
(dp268
Vdebug-info
p269
I01
sVimage-file
p270
Varch/arm64/boot/Image
p271
sVvdso
p272
I01
sVsigned-modules
p273
I00
ss(Vimage
p274
g258
tp275
(dp276
Vinstall-stem
p277
Vvmlinuz
p278
sVbreaks
p279
Vlibmozjs185-1.0, libmozjs-24-0 (<< 24.2.0-5.1~)
p280
ss(Vdescription
p281
g258
NVarm64
p282
tp283
(dp284
Vhardware
p285
V64-bit ARMv8 machines
p286
ss(Vimage
p287
g258
NVarm64
p288
tp289
(dp290
s(Vbase
p291
g258
Vnone
p292
tp293
(dp294
Vflavours
p295
(lp296
Varm64
p297
ass(Vbase
p298
Varm64ilp32
p299
tp300
(dp301
Vkernel-arch
p302
Varm64
p303
sVfeaturesets
p304
(lp305
ss(Vbase
p306
Varmel
p307
tp308
(dp309
Vkernel-arch
p310
Varm
p311
sg149
(lp312
g151
ass(Vbuild
p313
g307
tp314
(dp315
Vimage-file
p316
Varch/arm/boot/zImage
p317
sVsigned-modules
p318
I00
sVuncompressed-image-file
p319
Varch/arm/boot/Image
p320
ss(Vimage
p321
g307
tp322
(dp323
Vinstall-stem
p324
Vvmlinuz
p325
ss(Vrelations
p326
g307
tp327
(dp328
Vheaders%gcc-7
p329
Vlinux-compiler-gcc-7-arm
p330
ss(Vdescription
p331
g307
NVmarvell
p332
tp333
(dp334
Vhardware
p335
VMarvell Kirkwood/Orion
p336
sVhardware-long
p337
VMarvell Kirkwood and Orion based systems (https://wiki.debian.org/ArmEabiPort#Supported_hardware)
p338
ss(Vimage
p339
g307
NVmarvell
p340
tp341
(dp342
Vrecommends
p343
Vu-boot-tools
p344
sVcheck-size
p345
L2097080L
sVcheck-size-with-dtb
p346
I01
sVcheck-uncompressed-size
p347
L7340032L
sVbreaks
p348
Vflash-kernel (<< 3.57~)
p349
ss(g181
g307
g151
tp350
(dp351
g184
(lp352
Vmarvell
p353
asg188
I01
ss(Vbase
p354
Varmhf
p355
tp356
(dp357
Vkernel-arch
p358
Varm
p359
sg149
(lp360
g151
ass(Vbuild
p361
g355
tp362
(dp363
Vimage-file
p364
Varch/arm/boot/zImage
p365
sVvdso
p366
I01
sVsigned-modules
p367
I00
ss(Vimage
p368
g355
tp369
(dp370
Vinstall-stem
p371
Vvmlinuz
p372
ss(Vrelations
p373
g355
tp374
(dp375
Vheaders%gcc-7
p376
Vlinux-compiler-gcc-7-arm
p377
ss(Vdescription
p378
g355
NVarmmp
p379
tp380
(dp381
Vhardware
p382
VARMv7 multiplatform compatible SoCs
p383
sVhardware-long
p384
VARMv7 multiplatform kernel. See\u000ahttps://wiki.debian.org/DebianKernel/ARMMP for details of supported\u000aplatforms
p385
ss(Vdescription
p386
g355
NVarmmp-lpae
p387
tp388
(dp389
Vhardware
p390
VARMv7 multiplatform compatible SoCs supporting LPAE
p391
sVhardware-long
p392
VARMv7 multiplatform kernel supporting LPAE. See\u000ahttps://wiki.debian.org/DebianKernel/ARMMP for details of supported\u000aplatforms.
p393
ss(g181
g355
g151
tp394
(dp395
g184
(lp396
Varmmp
p397
aVarmmp-lpae
p398
asg188
I01
ss(Vbase
p399
Vhppa
p400
tp401
(dp402
Vkernel-arch
p403
Vparisc
p404
sg149
(lp405
g151
ass(Vbuild
p406
g400
tp407
(dp408
Vimage-file
p409
Vvmlinux
p410
sVsigned-modules
p411
I00
ss(Vimage
p412
g400
tp413
(dp414
Vsuggests
p415
Vpalo
p416
sVinstall-stem
p417
Vvmlinux
p418
ss(Vdescription
p419
g400
NVparisc
p420
tp421
(dp422
Vhardware
p423
V32-bit PA-RISC
p424
sVhardware-long
p425
VHP PA-RISC 32-bit systems with max 4 GB RAM
p426
ss(Vbase
p427
g400
NVparisc64-smp
p428
tp429
(dp430
Vcflags
p431
V-fno-cse-follow-jumps
p432
sVoverride-host-type
p433
Vhppa64-linux-gnu
p434
ss(Vdescription
p435
g400
NVparisc64-smp
p436
tp437
(dp438
Vhardware
p439
Vmultiprocessor 64-bit PA-RISC
p440
sVhardware-long
p441
VHP PA-RISC 64-bit SMP systems with support for more than 4 GB RAM
p442
ss(Vrelations
p443
g400
tp444
(dp445
Vgcc-7
p446
Vgcc-7 <!stage1 !cross>, binutils-hppa64-linux-gnu <!stage1 !cross>, gcc-7-hppa64-linux-gnu <!stage1 !cross>, gcc-7-hppa-linux-gnu <!stage1 cross>, binutils-hppa64-linux-gnu <!stage1 cross>, gcc-7-hppa64-linux-gnu <!stage1 cross>
p447
ss(g181
g400
g151
tp448
(dp449
g184
(lp450
Vparisc
p451
aVparisc64-smp
p452
asg188
I01
ss(Vbase
p453
Vi386
p454
tp455
(dp456
Vfeaturesets
p457
(lp458
Vnone
p459
aVrt
p460
asVkernel-arch
p461
Vx86
p462
ss(Vbuild
p463
g454
tp464
(dp465
Vimage-file
p466
Varch/x86/boot/bzImage
p467
sVvdso
p468
I01
sVsigned-modules
p469
I00
ss(Vdescription
p470
g454
tp471
(dp472
Vpart-long-pae
p473
VThis kernel requires PAE (Physical Address Extension).\u000aThis feature is supported by the Intel Pentium Pro/II/III/4/4M/D, Xeon,\u000aCore and Atom; AMD Geode NX, Athlon (K7), Duron, Opteron, Sempron,\u000aTurion or Phenom; Transmeta Efficeon; VIA C7; and some other processors.
p474
ss(Vimage
p475
g454
tp476
(dp477
Vbootloaders
p478
(lp479
Vgrub-pc
p480
aVextlinux
p481
asVinstall-stem
p482
Vvmlinuz
p483
sVbreaks
p484
Vxserver-xorg-input-vmmouse (<< 1:13.0.99)
p485
ss(Vrelations
p486
g454
tp487
(dp488
Vgcc-7
p489
Vgcc-7 (>= 7.2.0-20~) <!stage1 !cross>, gcc-7-i686-linux-gnu (>= 7.2.0-20~) <!stage1 cross>
p490
sVheaders%gcc-7
p491
Vlinux-compiler-gcc-7-x86 (>= 4.14.17-1~)
p492
ss(Vdescription
p493
g454
NV686
p494
tp495
(dp496
Vhardware
p497
Volder PCs
p498
sVhardware-long
p499
VPCs with one or more processors not supporting PAE
p500
ss(Vbuild
p501
g454
NV686-pae
p502
tp503
(dp504
Vdebug-info
p505
I01
ss(Vdescription
p506
g454
NV686-pae
p507
tp508
(dp509
Vhardware
p510
Vmodern PCs
p511
sVhardware-long
p512
VPCs with one or more processors supporting PAE
p513
sVparts
p514
(lp515
Vpae
p516
ass(Vbase
p517
g454
Vnone
p518
tp519
(dp520
Vflavours
p521
(lp522
V686
p523
aV686-pae
p524
ass(Vbase
p525
g454
Vrt
p526
tp527
(dp528
Vflavours
p529
(lp530
V686-pae
p531
ass(Vbase
p532
Vm68k
p533
tp534
(dp535
Vcflags
p536
V-ffreestanding
p537
sVkernel-arch
p538
Vm68k
p539
sg149
(lp540
g151
ass(Vbuild
p541
g533
tp542
(dp543
Vimage-file
p544
Vvmlinux
p545
sVsigned-modules
p546
I00
ss(Vimage
p547
g533
tp548
(dp549
Vsuggests
p550
Vvmelilo, fdutils
p551
sVinstall-stem
p552
Vvmlinux
p553
ss(Vdescription
p554
g533
NVm68k
p555
tp556
(dp557
Vhardware
p558
VMotorola MC68020+ family
p559
ss(g181
g533
g151
tp560
(dp561
g184
(lp562
Vm68k
p563
asg188
I01
ss(Vbase
p564
Vmips
p565
tp566
(dp567
Vkernel-arch
p568
Vmips
p569
sg149
(lp570
g151
ass(Vbuild
p571
g565
tp572
(dp573
Vimage-file
p574
Vvmlinux
p575
sVsigned-modules
p576
I00
ss(Vimage
p577
g565
tp578
(dp579
Vinstall-stem
p580
Vvmlinux
p581
ss(Vdescription
p582
g565
NV4kc-malta
p583
tp584
(dp585
Vhardware
p586
VMIPS Malta
p587
sVhardware-long
p588
VMIPS Malta boards
p589
ss(Vimage
p590
g565
NV4kc-malta
p591
tp592
(dp593
Vconfigs
p594
(lp595
Vkernelarch-mips/config.malta
p596
aVkernelarch-mips/config.mips32r2
p597
ass(Vdescription
p598
g565
NV5kc-malta
p599
tp600
(dp601
Vhardware
p602
VMIPS Malta (64-bit)
p603
sVhardware-long
p604
VMIPS Malta boards (64-bit)
p605
ss(Vimage
p606
g565
NV5kc-malta
p607
tp608
(dp609
Vconfigs
p610
(lp611
Vkernelarch-mips/config.malta
p612
aVkernelarch-mips/config.mips64r2
p613
ass(Vdescription
p614
g565
NVocteon
p615
tp616
(dp617
Vhardware
p618
VOcteon
p619
sVhardware-long
p620
VCavium Networks Octeon
p621
ss(Vimage
p622
g565
NVocteon
p623
tp624
(dp625
Vconfigs
p626
(lp627
Vkernelarch-mips/config.octeon
p628
ass(g181
g565
g151
tp629
(dp630
g184
(lp631
V4kc-malta
p632
aV5kc-malta
p633
aVocteon
p634
asg188
I01
ss(Vbase
p635
Vmips64
p636
tp637
(dp638
Vkernel-arch
p639
Vmips
p640
sg149
(lp641
g151
ass(Vbuild
p642
g636
tp643
(dp644
Vimage-file
p645
Vvmlinux
p646
sVsigned-modules
p647
I00
ss(Vimage
p648
g636
tp649
(dp650
Vinstall-stem
p651
Vvmlinux
p652
ss(Vdescription
p653
g636
NV5kc-malta
p654
tp655
(dp656
Vhardware
p657
VMIPS Malta
p658
sVhardware-long
p659
VMIPS Malta boards
p660
ss(Vimage
p661
g636
NV5kc-malta
p662
tp663
(dp664
Vconfigs
p665
(lp666
Vkernelarch-mips/config.malta
p667
aVkernelarch-mips/config.mips64r2
p668
ass(Vdescription
p669
g636
NVocteon
p670
tp671
(dp672
Vhardware
p673
VOcteon
p674
sVhardware-long
p675
VCavium Networks Octeon
p676
ss(Vimage
p677
g636
NVocteon
p678
tp679
(dp680
Vconfigs
p681
(lp682
Vkernelarch-mips/config.octeon
p683
ass(g181
g636
g151
tp684
(dp685
g184
(lp686
V5kc-malta
p687
aVocteon
p688
asg188
I01
ss(Vbase
p689
Vmips64el
p690
tp691
(dp692
Vkernel-arch
p693
Vmips
p694
sg149
(lp695
g151
ass(Vbuild
p696
g690
tp697
(dp698
Vimage-file
p699
Vvmlinux
p700
sVsigned-modules
p701
I00
ss(Vimage
p702
g690
tp703
(dp704
Vinstall-stem
p705
Vvmlinux
p706
ss(Vdescription
p707
g690
NV5kc-malta
p708
tp709
(dp710
Vhardware
p711
VMIPS Malta
p712
sVhardware-long
p713
VMIPS Malta boards
p714
ss(Vimage
p715
g690
NV5kc-malta
p716
tp717
(dp718
Vconfigs
p719
(lp720
Vkernelarch-mips/config.malta
p721
aVkernelarch-mips/config.mips64r2
p722
ass(Vdescription
p723
g690
NVloongson-3
p724
tp725
(dp726
Vhardware
p727
VLoongson 3A/3B
p728
sVhardware-long
p729
VLoongson 3A or 3B based systems (e.g. from Loongson or Lemote)
p730
ss(Vimage
p731
g690
NVloongson-3
p732
tp733
(dp734
Vconfigs
p735
(lp736
Vkernelarch-mips/config.loongson-3
p737
ass(Vdescription
p738
g690
NVocteon
p739
tp740
(dp741
Vhardware
p742
VOcteon
p743
sVhardware-long
p744
VCavium Networks Octeon
p745
ss(Vimage
p746
g690
NVocteon
p747
tp748
(dp749
Vconfigs
p750
(lp751
Vkernelarch-mips/config.octeon
p752
ass(g181
g690
g151
tp753
(dp754
g184
(lp755
V5kc-malta
p756
aVloongson-3
p757
aVocteon
p758
asg188
I01
ss(Vbase
p759
Vmips64r6
p760
tp761
(dp762
Vkernel-arch
p763
Vmips
p764
sg149
(lp765
g151
ass(Vbuild
p766
g760
tp767
(dp768
Vimage-file
p769
Vvmlinux
p770
sVsigned-modules
p771
I00
ss(Vimage
p772
g760
tp773
(dp774
Vinstall-stem
p775
Vvmlinux
p776
ss(Vdescription
p777
g760
NVmips64r6
p778
tp779
(dp780
Vhardware
p781
VMIPS R6 (64 bit, big endian)
p782
sVhardware-long
p783
VMIPS R6 (64 bit, big endian)
p784
ss(Vimage
p785
g760
NVmips64r6
p786
tp787
(dp788
Vconfigs
p789
(lp790
Vkernelarch-mips/config.malta
p791
aVkernelarch-mips/config.mips64r6
p792
ass(g181
g760
g151
tp793
(dp794
g184
(lp795
Vmips64r6
p796
asg188
I01
ss(Vbase
p797
Vmips64r6el
p798
tp799
(dp800
Vkernel-arch
p801
Vmips
p802
sg149
(lp803
g151
ass(Vbuild
p804
g798
tp805
(dp806
Vimage-file
p807
Vvmlinux
p808
sVsigned-modules
p809
I00
ss(Vimage
p810
g798
tp811
(dp812
Vinstall-stem
p813
Vvmlinux
p814
ss(Vdescription
p815
g798
NVmips64r6el
p816
tp817
(dp818
Vhardware
p819
VMIPS R6 (64 bit, little endian)
p820
sVhardware-long
p821
VMIPS R6 (64 bit, little endian)
p822
ss(Vimage
p823
g798
NVmips64r6el
p824
tp825
(dp826
Vconfigs
p827
(lp828
Vkernelarch-mips/config.malta
p829
aVkernelarch-mips/config.mips64r6
p830
ass(g181
g798
g151
tp831
(dp832
g184
(lp833
Vmips64r6el
p834
asg188
I01
ss(Vbase
p835
Vmipsel
p836
tp837
(dp838
Vkernel-arch
p839
Vmips
p840
sg149
(lp841
g151
ass(Vbuild
p842
g836
tp843
(dp844
Vimage-file
p845
Vvmlinux
p846
sVsigned-modules
p847
I00
ss(Vimage
p848
g836
tp849
(dp850
Vinstall-stem
p851
Vvmlinux
p852
ss(Vdescription
p853
g836
NV4kc-malta
p854
tp855
(dp856
Vhardware
p857
VMIPS Malta
p858
sVhardware-long
p859
VMIPS Malta boards
p860
ss(Vimage
p861
g836
NV4kc-malta
p862
tp863
(dp864
Vconfigs
p865
(lp866
Vkernelarch-mips/config.malta
p867
aVkernelarch-mips/config.mips32r2
p868
ass(Vdescription
p869
g836
NV5kc-malta
p870
tp871
(dp872
Vhardware
p873
VMIPS Malta (64-bit)
p874
sVhardware-long
p875
VMIPS Malta boards (64-bit)
p876
ss(Vimage
p877
g836
NV5kc-malta
p878
tp879
(dp880
Vconfigs
p881
(lp882
Vkernelarch-mips/config.malta
p883
aVkernelarch-mips/config.mips64r2
p884
ass(Vdescription
p885
g836
NVloongson-3
p886
tp887
(dp888
Vhardware
p889
VLoongson 3A/3B
p890
sVhardware-long
p891
VLoongson 3A or 3B based systems (e.g. from Loongson or Lemote)
p892
ss(Vimage
p893
g836
NVloongson-3
p894
tp895
(dp896
Vconfigs
p897
(lp898
Vkernelarch-mips/config.loongson-3
p899
ass(Vdescription
p900
g836
NVocteon
p901
tp902
(dp903
Vhardware
p904
VOcteon
p905
sVhardware-long
p906
VCavium Networks Octeon
p907
ss(Vimage
p908
g836
NVocteon
p909
tp910
(dp911
Vconfigs
p912
(lp913
Vkernelarch-mips/config.octeon
p914
ass(g181
g836
g151
tp915
(dp916
g184
(lp917
V4kc-malta
p918
aV5kc-malta
p919
aVloongson-3
p920
aVocteon
p921
asg188
I01
ss(Vbase
p922
Vmipsn32
p923
tp924
(dp925
Vkernel-arch
p926
Vmips
p927
sVfeaturesets
p928
(lp929
ss(Vbase
p930
Vmipsn32el
p931
tp932
(dp933
Vkernel-arch
p934
Vmips
p935
sVfeaturesets
p936
(lp937
ss(Vbase
p938
Vmipsn32r6
p939
tp940
(dp941
Vkernel-arch
p942
Vmips
p943
sVfeaturesets
p944
(lp945
ss(Vbase
p946
Vmipsn32r6el
p947
tp948
(dp949
Vkernel-arch
p950
Vmips
p951
sVfeaturesets
p952
(lp953
ss(Vbase
p954
Vmipsr6
p955
tp956
(dp957
Vkernel-arch
p958
Vmips
p959
sg149
(lp960
g151
ass(Vbuild
p961
g955
tp962
(dp963
Vimage-file
p964
Vvmlinux
p965
sVsigned-modules
p966
I00
ss(Vimage
p967
g955
tp968
(dp969
Vinstall-stem
p970
Vvmlinux
p971
ss(Vdescription
p972
g955
NVmips32r6
p973
tp974
(dp975
Vhardware
p976
VMIPS R6 (32 bit, big endian)
p977
sVhardware-long
p978
VMIPS R6 (32 bit, big endian)
p979
ss(Vimage
p980
g955
NVmips32r6
p981
tp982
(dp983
Vconfigs
p984
(lp985
Vkernelarch-mips/config.malta
p986
aVkernelarch-mips/config.mips32r6
p987
ass(Vdescription
p988
g955
NVmips64r6
p989
tp990
(dp991
Vhardware
p992
VMIPS R6 (64 bit, big endian)
p993
sVhardware-long
p994
VMIPS R6 (64 bit, big endian)
p995
ss(Vimage
p996
g955
NVmips64r6
p997
tp998
(dp999
Vconfigs
p1000
(lp1001
Vkernelarch-mips/config.malta
p1002
aVkernelarch-mips/config.mips64r6
p1003
ass(g181
g955
g151
tp1004
(dp1005
g184
(lp1006
Vmips32r6
p1007
aVmips64r6
p1008
asg188
I01
ss(Vbase
p1009
Vmipsr6el
p1010
tp1011
(dp1012
Vkernel-arch
p1013
Vmips
p1014
sg149
(lp1015
g151
ass(Vbuild
p1016
g1010
tp1017
(dp1018
Vimage-file
p1019
Vvmlinux
p1020
sVsigned-modules
p1021
I00
ss(Vimage
p1022
g1010
tp1023
(dp1024
Vinstall-stem
p1025
Vvmlinux
p1026
ss(Vdescription
p1027
g1010
NVmips32r6el
p1028
tp1029
(dp1030
Vhardware
p1031
VMIPS R6 (32 bit, little endian)
p1032
sVhardware-long
p1033
VMIPS R6 (32 bit, little endian)
p1034
ss(Vimage
p1035
g1010
NVmips32r6el
p1036
tp1037
(dp1038
Vconfigs
p1039
(lp1040
Vkernelarch-mips/config.malta
p1041
aVkernelarch-mips/config.mips32r6
p1042
ass(Vdescription
p1043
g1010
NVmips64r6el
p1044
tp1045
(dp1046
Vhardware
p1047
VMIPS R6 (64 bit, little endian)
p1048
sVhardware-long
p1049
VMIPS R6 (64 bit, little endian)
p1050
ss(Vimage
p1051
g1010
NVmips64r6el
p1052
tp1053
(dp1054
Vconfigs
p1055
(lp1056
Vkernelarch-mips/config.malta
p1057
aVkernelarch-mips/config.mips64r6
p1058
ass(g181
g1010
g151
tp1059
(dp1060
g184
(lp1061
Vmips32r6el
p1062
aVmips64r6el
p1063
asg188
I01
ss(Vbase
p1064
Vpowerpc
p1065
tp1066
(dp1067
Vkernel-arch
p1068
Vpowerpc
p1069
sg149
(lp1070
g151
ass(Vbuild
p1071
g1065
tp1072
(dp1073
Vimage-file
p1074
Vvmlinux
p1075
sVvdso
p1076
I01
ss(Vimage
p1077
g1065
tp1078
(dp1079
Vconfigs
p1080
(lp1081
sVsuggests
p1082
Vmkvmlinuz
p1083
sVinstall-stem
p1084
Vvmlinux
p1085
ss(Vdescription
p1086
g1065
NVpowerpc
p1087
tp1088
(dp1089
Vhardware
p1090
Vuniprocessor 32-bit PowerPC
p1091
ss(Vdescription
p1092
g1065
NVpowerpc-smp
p1093
tp1094
(dp1095
Vhardware
p1096
Vmultiprocessor 32-bit PowerPC
p1097
ss(Vimage
p1098
g1065
NVpowerpc-smp
p1099
tp1100
(dp1101
Vconfigs
p1102
(lp1103
Vpowerpc/config.powerpc
p1104
aVpowerpc/config.powerpc-smp
p1105
ass(Vdescription
p1106
g1065
NVpowerpc64
p1107
tp1108
(dp1109
Vhardware
p1110
V64-bit PowerPC
p1111
ss(Vimage
p1112
g1065
NVpowerpc64
p1113
tp1114
(dp1115
Vconfigs
p1116
(lp1117
Vkernelarch-powerpc/config-arch-64
p1118
aVkernelarch-powerpc/config-arch-64-be
p1119
ass(g181
g1065
g151
tp1120
(dp1121
g184
(lp1122
Vpowerpc
p1123
aVpowerpc-smp
p1124
aVpowerpc64
p1125
asg188
I01
ss(Vbase
p1126
Vpowerpcspe
p1127
tp1128
(dp1129
Vkernel-arch
p1130
Vpowerpc
p1131
sg149
(lp1132
g151
ass(Vbuild
p1133
g1127
tp1134
(dp1135
Vimage-file
p1136
Vvmlinux
p1137
sVsigned-modules
p1138
I00
sVvdso
p1139
I01
ss(Vimage
p1140
g1127
tp1141
(dp1142
Vsuggests
p1143
Vmkvmlinuz
p1144
sVinstall-stem
p1145
Vvmlinux
p1146
ss(Vdescription
p1147
g1127
tp1148
(dp1149
Vhardware
p1150
V32-bit PowerPC with SPE (instead of AltiVec) with SMP support
p1151
ss(g181
g1127
g151
tp1152
(dp1153
g184
(lp1154
Vpowerpcspe
p1155
asg188
I01
ss(Vbase
p1156
Vppc64
p1157
tp1158
(dp1159
Vkernel-arch
p1160
Vpowerpc
p1161
sg149
(lp1162
g151
ass(Vbuild
p1163
g1157
tp1164
(dp1165
Vimage-file
p1166
Vvmlinux
p1167
sVsigned-modules
p1168
I00
sVvdso
p1169
I01
ss(Vimage
p1170
g1157
tp1171
(dp1172
Vconfigs
p1173
(lp1174
sVsuggests
p1175
Vmkvmlinuz
p1176
sVinstall-stem
p1177
Vvmlinux
p1178
ss(Vdescription
p1179
g1157
NVpowerpc64
p1180
tp1181
(dp1182
Vhardware
p1183
V64-bit PowerPC
p1184
ss(Vimage
p1185
g1157
NVpowerpc64
p1186
tp1187
(dp1188
Vconfigs
p1189
(lp1190
Vkernelarch-powerpc/config-arch-64
p1191
aVkernelarch-powerpc/config-arch-64-be
p1192
ass(g181
g1157
g151
tp1193
(dp1194
g184
(lp1195
Vpowerpc64
p1196
asg188
I01
ss(Vbase
p1197
Vppc64el
p1198
tp1199
(dp1200
Vkernel-arch
p1201
Vpowerpc
p1202
sg149
(lp1203
g151
ass(Vbuild
p1204
g1198
tp1205
(dp1206
Vimage-file
p1207
Vvmlinux
p1208
sVvdso
p1209
I01
ss(Vimage
p1210
g1198
tp1211
(dp1212
Vconfigs
p1213
(lp1214
sVsuggests
p1215
Vmkvmlinuz
p1216
sVinstall-stem
p1217
Vvmlinux
p1218
ss(Vdescription
p1219
g1198
NVpowerpc64le
p1220
tp1221
(dp1222
Vhardware
p1223
VLittle-endian 64-bit PowerPC
p1224
ss(Vimage
p1225
g1198
NVpowerpc64le
p1226
tp1227
(dp1228
Vconfigs
p1229
(lp1230
Vkernelarch-powerpc/config-arch-64
p1231
aVkernelarch-powerpc/config-arch-64-le
p1232
ass(g181
g1198
g151
tp1233
(dp1234
g184
(lp1235
Vpowerpc64le
p1236
asg188
I01
ss(Vbase
p1237
Vs390
p1238
tp1239
(dp1240
Vkernel-arch
p1241
Vs390
p1242
sVfeaturesets
p1243
(lp1244
ss(Vbase
p1245
Vs390x
p1246
tp1247
(dp1248
Vkernel-arch
p1249
Vs390
p1250
sg149
(lp1251
g151
ass(Vbuild
p1252
g1246
tp1253
(dp1254
Vimage-file
p1255
Varch/s390/boot/image
p1256
sVvdso
p1257
I01
ss(Vimage
p1258
g1246
tp1259
(dp1260
Vbootloaders
p1261
(lp1262
Vs390-tools
p1263
asVinstall-stem
p1264
Vvmlinuz
p1265
ss(Vrelations
p1266
g1246
tp1267
(dp1268
Vheaders%gcc-7
p1269
Vlinux-compiler-gcc-7-s390
p1270
ss(Vbuild
p1271
g1246
NVs390x
p1272
tp1273
(dp1274
Vdebug-info
p1275
I01
ss(Vdescription
p1276
g1246
NVs390x
p1277
tp1278
(dp1279
Vhardware
p1280
VIBM zSeries
p1281
ss(g181
g1246
g151
tp1282
(dp1283
g184
(lp1284
Vs390x
p1285
asg188
I01
ss(Vbase
p1286
Vsh3
p1287
tp1288
(dp1289
Vkernel-arch
p1290
Vsh
p1291
sVfeaturesets
p1292
(lp1293
ss(Vbase
p1294
Vsh4
p1295
tp1296
(dp1297
Vkernel-arch
p1298
Vsh
p1299
sg149
(lp1300
g151
ass(Vbuild
p1301
g1295
tp1302
(dp1303
Vimage-file
p1304
Varch/sh/boot/zImage
p1305
sVsigned-modules
p1306
I00
ss(Vimage
p1307
g1295
tp1308
(dp1309
Vinstall-stem
p1310
Vvmlinuz
p1311
ss(Vdescription
p1312
g1295
NVsh7751r
p1313
tp1314
(dp1315
Vhardware
p1316
Vsh7751r
p1317
sVhardware-long
p1318
VRenesas SH7751R R2D plus board
p1319
ss(Vdescription
p1320
g1295
NVsh7785lcr
p1321
tp1322
(dp1323
Vhardware
p1324
Vsh7785lcr
p1325
sVhardware-long
p1326
VRenesas SH7785 reference board
p1327
ss(Vimage
p1328
g1295
NVsh7785lcr
p1329
tp1330
(dp1331
Vrecommends
p1332
Vu-boot-tools
p1333
sVcheck-size
p1334
L4194304L
ss(g181
g1295
g151
tp1335
(dp1336
g184
(lp1337
Vsh7751r
p1338
aVsh7785lcr
p1339
asg188
I01
ss(Vbase
p1340
Vsparc
p1341
tp1342
(dp1343
Vkernel-arch
p1344
Vsparc
p1345
sVfeaturesets
p1346
(lp1347
ss(Vbase
p1348
Vsparc64
p1349
tp1350
(dp1351
Vkernel-arch
p1352
Vsparc
p1353
sg149
(lp1354
g151
ass(Vbuild
p1355
g1349
tp1356
(dp1357
Vimage-file
p1358
Varch/sparc/boot/zImage
p1359
sVsigned-modules
p1360
I00
ss(Vimage
p1361
g1349
tp1362
(dp1363
Vconfigs
p1364
(lp1365
sVsuggests
p1366
Vsilo, fdutils
p1367
sVinstall-stem
p1368
Vvmlinuz
p1369
ss(Vdescription
p1370
g1349
NVsparc64
p1371
tp1372
(dp1373
Vhardware
p1374
Vuniprocessor 64-bit UltraSPARC
p1375
ss(Vimage
p1376
g1349
NVsparc64
p1377
tp1378
(dp1379
Vconfigs
p1380
(lp1381
Vkernelarch-sparc/config-up
p1382
ass(Vdescription
p1383
g1349
NVsparc64-smp
p1384
tp1385
(dp1386
Vhardware
p1387
Vmultiprocessor 64-bit UltraSPARC
p1388
ss(Vimage
p1389
g1349
NVsparc64-smp
p1390
tp1391
(dp1392
Vconfigs
p1393
(lp1394
Vkernelarch-sparc/config-smp
p1395
ass(g181
g1349
g151
tp1396
(dp1397
g184
(lp1398
Vsparc64
p1399
aVsparc64-smp
p1400
asg188
I01
ss(Vbase
p1401
Vtilegx
p1402
tp1403
(dp1404
Vkernel-arch
p1405
Vtile
p1406
sVfeaturesets
p1407
(lp1408
ss(Vbase
p1409
Vx32
p1410
tp1411
(dp1412
Vkernel-arch
p1413
Vx86
p1414
sVfeaturesets
p1415
(lp1416
ss(Vabi
p1417
NVrt
p1418
tp1419
(dp1420
Vignore-changes
p1421
(lp1422
V*
p1423
ass(Vdescription
p1424
Ng1418
tp1425
(dp1426
Vpart-long-rt
p1427
VThis kernel includes the PREEMPT_RT realtime patch set.
p1428
sVpart-short-rt
p1429
VPREEMPT_RT
p1430
sVparts
p1431
(lp1432
Vrt
p1433
ass(Vversion
p1434
tp1435
(dp1436
Vsource
p1437
V4.15.17-1kali1
p1438
sVupstream
p1439
V4.15
p1440
sVabiname_base
p1441
V4.15.0
p1442
sVabiname
p1443
V4.15.0-kali3
p1444
ss.