ccopy_reg
_reconstructor
p0
(cdebian_linux.config
ConfigCore
p1
c__builtin__
dict
p2
(dp3
(Vbase
p4
Vppc64el
p5
tp6
(dp7
Vfeaturesets
p8
(lp9
Vnone
p10
asVkernel-arch
p11
Vpowerpc
p12
ss(Vimage
p13
Vpowerpcspe
p14
tp15
(dp16
Vinstall-stem
p17
Vvmlinux
p18
sVsuggests
p19
Vmkvmlinuz
p20
ss(Vbase
p21
Vmips
p22
g10
tp23
(dp24
Vimplicit-flavour
p25
I01
sVflavours
p26
(lp27
V4kc-malta
p28
aV5kc-malta
p29
aVocteon
p30
ass(Vbase
p31
Vmipsel
p32
tp33
(dp34
g8
(lp35
g10
asVkernel-arch
p36
Vmips
p37
ss(Vdescription
p38
Vsh4
p39
NVsh7751r
p40
tp41
(dp42
Vhardware-long
p43
VRenesas SH7751R R2D plus board
p44
sVhardware
p45
Vsh7751r
p46
ss(Vbase
p47
tp48
(dp49
Vcompiler
p50
Vgcc-4.9
p51
sVarches
p52
(lp53
Valpha
p54
aVamd64
p55
aVarm64
p56
aVarmel
p57
aVarmhf
p58
aVhppa
p59
aVi386
p60
aVm68k
p61
aVmips
p62
aVmipsel
p63
aVmips64
p64
aVmips64el
p65
aVor1k
p66
aVpowerpc
p67
aVpowerpcspe
p68
aVppc64
p69
aVppc64el
p70
aVs390
p71
aVs390x
p72
aVsh4
p73
aVsparc
p74
aVsparc64
p75
aVx32
p76
asVfeaturesets
p77
(lp78
Vnone
p79
aVrt
p80
ass(Vdescription
p81
Varmhf
p82
NVarmmp
p83
tp84
(dp85
Vhardware-long
p86
VARMv7 multiplatform kernel. See\u000ahttps://wiki.debian.org/DebianKernel/ARMMP for details of supported\u000aplatforms
p87
sVhardware
p88
VARMv7 multiplatform compatible SoCs
p89
ss(Vimage
p90
Vamd64
p91
NVamd64
p92
tp93
(dp94
Vconfigs
p95
(lp96
Vkernelarch-x86/config-arch-64
p97
ass(Vimage
p98
Vi386
p99
tp100
(dp101
Vinstall-stem
p102
Vvmlinuz
p103
sVbootloaders
p104
(lp105
Vgrub-pc
p106
aVextlinux
p107
asVconfigs
p108
(lp109
ss(g21
Vpowerpc
p110
g10
tp111
(dp112
g25
I01
sg26
(lp113
Vpowerpc
p114
aVpowerpc-smp
p115
aVpowerpc64
p116
ass(Vbase
p117
Vs390x
p118
tp119
(dp120
g8
(lp121
g10
asVkernel-arch
p122
Vs390
p123
ss(Vimage
p124
Vmips64el
p125
NV5kc-malta
p126
tp127
(dp128
Vconfigs
p129
(lp130
Vkernelarch-mips/config.5kc-malta
p131
ass(Vimage
p132
g82
NVarmmp-lpae
p133
tp134
(dp135
Vconfigs
p136
(lp137
Varmhf/config.armmp
p138
aVarmhf/config.lpae
p139
ass(Vimage
p140
g5
NVpowerpc64le
p141
tp142
(dp143
Vconfigs
p144
(lp145
Vkernelarch-powerpc/config-arch-64
p146
aVkernelarch-powerpc/config-arch-64-le
p147
ass(Vdescription
p148
g99
Vnone
p149
V686-pae
p150
tp151
(dp152
Vparts
p153
(lp154
Vxen
p155
ass(Vbase
p156
Varmel
p157
tp158
(dp159
g8
(lp160
g10
asVkernel-arch
p161
Varm
p162
ss(Vimage
p163
g118
tp164
(dp165
Vinstall-stem
p166
Vvmlinuz
p167
sVbootloaders
p168
(lp169
Vs390-tools
p170
asVconfigs
p171
(lp172
ss(Vbase
p173
Vor1k
p174
tp175
(dp176
Vfeaturesets
p177
(lp178
sVkernel-arch
p179
Vopenrisc
p180
ss(Vdescription
p181
g32
NVloongson-3
p182
tp183
(dp184
Vhardware-long
p185
VLoongson 3A or 3B based systems (e.g. from Loongson or Lemote)
p186
sVhardware
p187
VLoongson 3A/3B
p188
ss(Vbuild
p189
Valpha
p190
tp191
(dp192
Vimage-file
p193
Varch/alpha/boot/vmlinux.gz
p194
ss(Vdescription
p195
Vppc64
p196
NVpowerpc64
p197
tp198
(dp199
Vhardware
p200
V64-bit PowerPC
p201
ss(Vimage
p202
Vsparc64
p203
NVsparc64-smp
p204
tp205
(dp206
Vconfigs
p207
(lp208
Vkernelarch-sparc/config-smp
p209
ass(Vdescription
p210
g82
NVarmmp-lpae
p211
tp212
(dp213
Vhardware-long
p214
VARMv7 multiplatform kernel supporting LPAE. See\u000ahttps://wiki.debian.org/DebianKernel/ARMMP for details of supported\u000aplatforms.
p215
sVhardware
p216
VARMv7 multiplatform compatible SoCs supporting LPAE
p217
ss(Vbase
p218
g110
tp219
(dp220
g8
(lp221
g10
asVkernel-arch
p222
Vpowerpc
p223
ss(Vdescription
p224
g190
NValpha-smp
p225
tp226
(dp227
Vhardware-long
p228
VDEC Alpha SMP systems with extended kernel start address (Wildfire, Titan, Marvel)
p229
sVhardware
p230
VAlpha SMP
p231
ss(Vdescription
p232
Varm64
p233
NVarm64
p234
tp235
(dp236
Vhardware
p237
V64-bit ARMv8 machines
p238
ss(Vimage
p239
g196
tp240
(dp241
Vinstall-stem
p242
Vvmlinux
p243
sVsuggests
p244
Vmkvmlinuz
p245
sVconfigs
p246
(lp247
ss(g21
Vhppa
p248
g10
tp249
(dp250
g25
I01
sg26
(lp251
Vparisc
p252
aVparisc64-smp
p253
ass(Vimage
p254
g39
NVsh7785lcr
p255
tp256
(dp257
Vrecommends
p258
Vu-boot-tools
p259
sVcheck-size
p260
L4194304L
ss(Vimage
p261
g22
tp262
(dp263
Vinstall-stem
p264
Vvmlinux
p265
ss(Vimage
p266
g118
NVs390x
p267
tp268
(dp269
Vconfigs
p270
(lp271
Vkernelarch-s390/config-arch-64
p272
ass(Vimage
p273
g125
NVloongson-3
p274
tp275
(dp276
Vconfigs
p277
(lp278
Vkernelarch-mips/config.loongson-3
p279
ass(Vimage
p280
g32
tp281
(dp282
Vinstall-stem
p283
Vvmlinux
p284
ss(g21
g118
g10
tp285
(dp286
g25
I01
sg26
(lp287
Vs390x
p288
ass(Vbuild
p289
g157
tp290
(dp291
Vimage-file
p292
Varch/arm/boot/zImage
p293
ss(Vbase
p294
g233
tp295
(dp296
Vfeaturesets
p297
(lp298
Vnone
p299
asVkernel-arch
p300
Varm64
p301
ss(Vdescription
p302
g5
NVpowerpc64le
p303
tp304
(dp305
Vhardware
p306
VLittle-endian 64-bit PowerPC
p307
ss(Vdescription
p308
g125
NVloongson-3
p309
tp310
(dp311
Vhardware-long
p312
VLoongson 3A or 3B based systems (e.g. from Loongson or Lemote)
p313
sVhardware
p314
VLoongson 3A/3B
p315
ss(Vimage
p316
g110
NVpowerpc64
p317
tp318
(dp319
Vconfigs
p320
(lp321
Vkernelarch-powerpc/config-arch-64
p322
aVkernelarch-powerpc/config-arch-64-be
p323
ass(Vdescription
p324
g91
NVamd64
p325
tp326
(dp327
Vhardware-long
p328
VPCs with AMD64, Intel 64 or VIA Nano processors
p329
sVhardware
p330
V64-bit PCs
p331
ss(Vrelations
p332
tp333
(dp334
Vgcc-4.7
p335
Vgcc-4.7
p336
sVgcc-4.9
p337
Vgcc-4.9
p338
sVinitramfs-tools
p339
Vinitramfs-tools (>= 0.110~)
p340
sVinitramfs-fallback
p341
Vlinux-initramfs-tool
p342
sVgcc-4.6
p343
Vgcc-4.6
p344
sVgcc-4.8
p345
Vgcc-4.8
p346
ss(Vdescription
p347
g110
NVpowerpc-smp
p348
tp349
(dp350
Vhardware
p351
Vmultiprocessor 32-bit PowerPC
p352
ss(Vbuild
p353
g233
tp354
(dp355
Vimage-file
p356
Varch/arm64/boot/Image
p357
sVdebug-info
p358
I01
ss(Vbase
p359
g91
Vrt
p360
tp361
(dp362
Vflavours
p363
(lp364
Vamd64
p365
ass(Vimage
p366
Vm68k
p367
tp368
(dp369
Vinstall-stem
p370
Vvmlinuz
p371
sVsuggests
p372
Vvmelilo, fdutils
p373
ss(Vdescription
p374
g203
NVsparc64-smp
p375
tp376
(dp377
Vhardware
p378
Vmultiprocessor 64-bit UltraSPARC
p379
ss(Vbuild
p380
g14
tp381
(dp382
Vimage-file
p383
Vvmlinux
p384
ss(Vbase
p385
g190
tp386
(dp387
g8
(lp388
g10
asVkernel-arch
p389
Valpha
p390
ss(Vimage
p391
g22
NVocteon
p392
tp393
(dp394
Vconfigs
p395
(lp396
Vkernelarch-mips/config.octeon
p397
ass(Vbuild
p398
g110
tp399
(dp400
Vimage-file
p401
Vvmlinux
p402
ss(Vdescription
p403
g99
tp404
(dp405
Vpart-long-pae
p406
VThis kernel requires PAE (Physical Address Extension).\u000aThis feature is supported by the Intel Pentium Pro/II/III/4/4M/D, Xeon,\u000aCore and Atom; AMD Geode NX, Athlon (K7), Duron, Opteron, Sempron,\u000aTurion or Phenom; Transmeta Efficeon; VIA C7; and some other processors.
p407
ss(Vxen
p408
g91
Vnone
p409
Vamd64
p410
tp411
(dp412
Vflavours
p413
(lp414
Vamd64
p415
ass(g21
g196
g10
tp416
(dp417
g25
I01
sg26
(lp418
Vpowerpc64
p419
ass(Vbase
p420
g22
tp421
(dp422
g8
(lp423
g10
asVkernel-arch
p424
Vmips
p425
ss(Vdescription
p426
g157
NVversatile
p427
tp428
(dp429
Vhardware-long
p430
VVersatile systems (PB, AB, Qemu)
p431
sVhardware
p432
VVersatile
p433
ss(Vbase
p434
g233
Vnone
p435
tp436
(dp437
Vflavours
p438
(lp439
Varm64
p440
ass(Vdescription
p441
g32
NVloongson-2e
p442
tp443
(dp444
Vhardware-long
p445
VLemote Loongson 2E systems
p446
sVhardware
p447
VLoongson 2E
p448
ss(Vbase
p449
g125
tp450
(dp451
g8
(lp452
g10
asVkernel-arch
p453
Vmips
p454
ss(Vimage
p455
g99
NV686-pae
p456
tp457
(dp458
Vrecommends
p459
Vlibc6-i686
p460
sVconfigs
p461
(lp462
Vkernelarch-x86/config-arch-32
p463
aVi386/config.686-pae
p464
ass(Vimage
p465
g125
tp466
(dp467
Vinstall-stem
p468
Vvmlinux
p469
ss(Vabi
p470
tp471
(dp472
Vignore-changes
p473
(lp474
Vmodule:drivers/mmc/host/*
p475
aVmodule:drivers/net/wireless/*
p476
aVsdhci_pci_o2_*
p477
asVabiname
p478
Vkali1
p479
ss(Vbuild
p480
g118
NVs390x
p481
tp482
(dp483
Vdebug-info
p484
I01
ss(Vdescription
p485
g32
NV4kc-malta
p486
tp487
(dp488
Vhardware-long
p489
VMIPS Malta boards
p490
sVhardware
p491
VMIPS Malta
p492
ss(Vdescription
p493
g22
NV5kc-malta
p494
tp495
(dp496
Vhardware-long
p497
VMIPS Malta boards (64-bit)
p498
sVhardware
p499
VMIPS Malta (64-bit)
p500
ss(Vbuild
p501
g32
tp502
(dp503
Vimage-file
p504
Vvmlinux
p505
ss(Vimage
p506
g233
NVarm64
p507
tp508
(dp509
s(Vbase
p510
Vsparc
p511
tp512
(dp513
Vfeaturesets
p514
(lp515
sVkernel-arch
p516
Vsparc
p517
ss(Vimage
p518
g22
NV4kc-malta
p519
tp520
(dp521
Vconfigs
p522
(lp523
Vkernelarch-mips/config.4kc-malta
p524
ass(g21
g367
g10
tp525
(dp526
g25
I01
sg26
(lp527
Vm68k
p528
ass(Vimage
p529
g5
tp530
(dp531
Vinstall-stem
p532
Vvmlinux
p533
sVsuggests
p534
Vmkvmlinuz
p535
sVconfigs
p536
(lp537
ss(Vbase
p538
g99
tp539
(dp540
Vfeaturesets
p541
(lp542
Vnone
p543
aVrt
p544
asVkernel-arch
p545
Vx86
p546
ss(Vdescription
p547
tp548
(dp549
Vpart-long-xen
p550
VThis kernel also runs on a Xen hypervisor.\u000aIt supports both privileged (dom0) and unprivileged (domU) operation.
p551
sVpart-long-up
p552
VThis kernel is not suitable for SMP (multi-processor,\u000amulti-core or hyper-threaded) systems.
p553
ss(Vdescription
p554
g110
NVpowerpc64
p555
tp556
(dp557
Vhardware
p558
V64-bit PowerPC
p559
ss(Vbase
p560
g248
tp561
(dp562
g8
(lp563
g10
asVkernel-arch
p564
Vparisc
p565
ss(Vdescription
p566
g22
NVocteon
p567
tp568
(dp569
Vhardware-long
p570
VCavium Networks Octeon
p571
sVhardware
p572
VOcteon
p573
ss(Vdescription
p574
g125
NV5kc-malta
p575
tp576
(dp577
Vhardware-long
p578
VMIPS Malta boards
p579
sVhardware
p580
VMIPS Malta
p581
ss(Vimage
p582
g110
tp583
(dp584
Vinstall-stem
p585
Vvmlinux
p586
sVsuggests
p587
Vmkvmlinuz
p588
sVconfigs
p589
(lp590
ss(g21
g39
g10
tp591
(dp592
g25
I01
sg26
(lp593
Vsh7751r
p594
aVsh7785lcr
p595
ass(Vdescription
p596
g22
NV4kc-malta
p597
tp598
(dp599
Vhardware-long
p600
VMIPS Malta boards
p601
sVhardware
p602
VMIPS Malta
p603
ss(Vbase
p604
g91
tp605
(dp606
Vfeaturesets
p607
(lp608
Vnone
p609
aVrt
p610
asVkernel-arch
p611
Vx86
p612
ss(Vrelations
p613
g118
tp614
(dp615
Vheaders%gcc-4.8
p616
Vlinux-compiler-gcc-4.8-s390
p617
ss(Vdescription
p618
g157
NVorion5x
p619
tp620
(dp621
Vhardware-long
p622
VMarvell Orion 5181, 5182 and 5281 based systems (QNAP TS-109/TS-209, etc)
p623
sVhardware
p624
VMarvell Orion
p625
ss(Vbuild
p626
g91
tp627
(dp628
Vimage-file
p629
Varch/x86/boot/bzImage
p630
sVdebug-info
p631
I01
ss(Vbuild
p632
g22
tp633
(dp634
Vimage-file
p635
Vvmlinux
p636
ss(Vimage
p637
g157
NVkirkwood
p638
tp639
(dp640
Vcheck-size-with-dtb
p641
I01
sVrecommends
p642
Vu-boot-tools
p643
sVcheck-size
p644
L2097080L
sVconfigs
p645
(lp646
Varmel/config-reduced
p647
aVarmel/config.kirkwood
p648
asVbreaks
p649
Vflash-kernel (<< 3.37~)
p650
ss(Vimage
p651
g157
tp652
(dp653
Vinstall-stem
p654
Vvmlinuz
p655
sVsuggests
p656
Vfdutils
p657
sVconfigs
p658
(lp659
Vkernelarch-arm/config
p660
aVarmel/config
p661
ass(Vimage
p662
g32
NVloongson-3
p663
tp664
(dp665
Vconfigs
p666
(lp667
Vkernelarch-mips/config.loongson-3
p668
ass(Vimage
p669
g32
NVloongson-2f
p670
tp671
(dp672
Vrecommends
p673
Vlibc6-loongson2f
p674
sVconfigs
p675
(lp676
Vkernelarch-mips/config.loongson-2f
p677
ass(Vbase
p678
g14
tp679
(dp680
g8
(lp681
g10
asVkernel-arch
p682
Vpowerpc
p683
ss(Vrelations
p684
g157
tp685
(dp686
Vheaders%gcc-4.9
p687
Vlinux-compiler-gcc-4.9-arm
p688
ss(Vimage
p689
g22
NV5kc-malta
p690
tp691
(dp692
Vconfigs
p693
(lp694
Vkernelarch-mips/config.5kc-malta
p695
ass(Vdescription
p696
g14
tp697
(dp698
Vhardware
p699
V32-bit PowerPC with SPE (instead of AltiVec) with SMP support
p700
ss(Vdescription
p701
g99
NV686-pae
p702
tp703
(dp704
Vparts
p705
(lp706
Vpae
p707
asVhardware-long
p708
VPCs with one or more processors supporting PAE
p709
sVhardware
p710
Vmodern PCs
p711
ss(Vbase
p712
g203
tp713
(dp714
g8
(lp715
g10
asVkernel-arch
p716
Vsparc
p717
ss(g21
g5
g10
tp718
(dp719
g25
I01
sg26
(lp720
Vpowerpc64le
p721
ass(g21
g190
g10
tp722
(dp723
g25
I01
sg26
(lp724
Valpha-generic
p725
aValpha-smp
p726
ass(Vdescription
p727
g32
NV5kc-malta
p728
tp729
(dp730
Vhardware-long
p731
VMIPS Malta boards (64-bit)
p732
sVhardware
p733
VMIPS Malta (64-bit)
p734
ss(Vbase
p735
g99
Vrt
p736
tp737
(dp738
Vflavours
p739
(lp740
V686-pae
p741
ass(Vimage
p742
Vmips64
p743
NVocteon
p744
tp745
(dp746
Vconfigs
p747
(lp748
Vkernelarch-mips/config.octeon
p749
ass(Vbase
p750
g367
tp751
(dp752
Vcompiler
p753
Vgcc-4.8
p754
sVcflags
p755
V-ffreestanding
p756
sg8
(lp757
g10
asVkernel-arch
p758
Vm68k
p759
ss(Vbuild
p760
g118
tp761
(dp762
Vimage-file
p763
Varch/s390/boot/image
p764
ss(g21
g82
g10
tp765
(dp766
g25
I01
sg26
(lp767
Varmmp
p768
aVarmmp-lpae
p769
ass(Vimage
p770
g99
NV586
p771
tp772
(dp773
Vconfigs
p774
(lp775
Vkernelarch-x86/config-arch-32
p776
aVi386/config.586
p777
ass(Vimage
p778
g91
tp779
(dp780
Vinstall-stem
p781
Vvmlinuz
p782
sVbootloaders
p783
(lp784
Vgrub-pc
p785
aVgrub-efi
p786
aVextlinux
p787
asVconfigs
p788
(lp789
ss(Vbuild
p790
g99
tp791
(dp792
Vimage-file
p793
Varch/x86/boot/bzImage
p794
ss(Vbase
p795
g196
tp796
(dp797
g8
(lp798
g10
asVkernel-arch
p799
Vpowerpc
p800
ss(Vimage
p801
g82
tp802
(dp803
Vinstall-stem
p804
Vvmlinuz
p805
sVsuggests
p806
Vfdutils
p807
sVconfigs
p808
(lp809
Vkernelarch-arm/config
p810
ass(Vbuild
p811
g743
tp812
(dp813
Vimage-file
p814
Vvmlinux
p815
ss(Vrelations
p816
g91
tp817
(dp818
Vheaders%gcc-4.9
p819
Vlinux-compiler-gcc-4.9-x86
p820
ss(Vdescription
p821
g248
NVparisc64-smp
p822
tp823
(dp824
Vhardware-long
p825
VHP PA-RISC 64-bit SMP systems with support for more than 4 GB RAM
p826
sVhardware
p827
Vmultiprocessor 64-bit PA-RISC
p828
ss(Vimage
p829
g190
tp830
(dp831
Vinstall-stem
p832
Vvmlinuz
p833
sVsuggests
p834
Vaboot, fdutils
p835
ss(Vbuild
p836
g82
tp837
(dp838
Vimage-file
p839
Varch/arm/boot/zImage
p840
ss(Vdescription
p841
g743
NVocteon
p842
tp843
(dp844
Vhardware-long
p845
VCavium Networks Octeon
p846
sVhardware
p847
VOcteon
p848
ss(Vdescription
p849
g91
g409
Vamd64
p850
tp851
(dp852
Vparts
p853
(lp854
Vxen
p855
ass(Vimage
p856
g32
NV5kc-malta
p857
tp858
(dp859
Vconfigs
p860
(lp861
Vkernelarch-mips/config.5kc-malta
p862
ass(Vdescription
p863
g110
NVpowerpc
p864
tp865
(dp866
Vhardware
p867
Vuniprocessor 32-bit PowerPC
p868
ss(Vdescription
p869
g248
NVparisc
p870
tp871
(dp872
Vhardware-long
p873
VHP PA-RISC 32-bit systems with max 4 GB RAM
p874
sVhardware
p875
V32-bit PA-RISC
p876
ss(Vimage
p877
g32
NV4kc-malta
p878
tp879
(dp880
Vconfigs
p881
(lp882
Vkernelarch-mips/config.4kc-malta
p883
ass(Vdescription
p884
g367
NVm68k
p885
tp886
(dp887
Vhardware
p888
VMotorola MC68020+ family
p889
ss(g21
g157
g10
tp890
(dp891
g25
I01
sg26
(lp892
Vkirkwood
p893
aVorion5x
p894
aVversatile
p895
ass(g21
g32
g10
tp896
(dp897
g25
I01
sg26
(lp898
V4kc-malta
p899
aV5kc-malta
p900
aVloongson-2e
p901
aVloongson-2f
p902
aVloongson-3
p903
ass(Vimage
p904
g203
tp905
(dp906
Vinstall-stem
p907
Vvmlinuz
p908
sVsuggests
p909
Vsilo, fdutils
p910
sVconfigs
p911
(lp912
ss(Vrelations
p913
g99
tp914
(dp915
Vheaders%gcc-4.9
p916
Vlinux-compiler-gcc-4.9-x86
p917
ss(Vbase
p918
g91
g409
tp919
(dp920
Vflavours
p921
(lp922
Vamd64
p923
ass(Vbase
p924
g743
tp925
(dp926
g8
(lp927
g10
asVkernel-arch
p928
Vmips
p929
ss(Vdescription
p930
g190
NValpha-generic
p931
tp932
(dp933
Vhardware-long
p934
VDEC Alpha systems with extended kernel start address (Wildfire, Titan, Marvel)
p935
sVhardware
p936
VAlpha
p937
ss(Vbuild
p938
g125
tp939
(dp940
Vimage-file
p941
Vvmlinux
p942
ss(Vimage
p943
g248
tp944
(dp945
Vinstall-stem
p946
Vvmlinux
p947
sVsuggests
p948
Vpalo
p949
ss(Vimage
p950
g157
NVorion5x
p951
tp952
(dp953
Vcheck-size-with-dtb
p954
I01
sVrecommends
p955
Vu-boot-tools
p956
sVcheck-size
p957
L2097080L
sVconfigs
p958
(lp959
Varmel/config-reduced
p960
aVarmel/config.orion5x
p961
ass(Vimage
p962
g125
NVocteon
p963
tp964
(dp965
Vconfigs
p966
(lp967
Vkernelarch-mips/config.octeon
p968
ass(Vdescription
p969
g157
NVkirkwood
p970
tp971
(dp972
Vhardware-long
p973
VMarvell Kirkwood based systems (SheevaPlug, QNAP TS-119/TS-219, etc)
p974
sVhardware
p975
VMarvell Kirkwood
p976
ss(Vbase
p977
g39
tp978
(dp979
g8
(lp980
g10
asVkernel-arch
p981
Vsh
p982
ss(Vabi
p983
NVrt
p984
tp985
(dp986
Vignore-changes
p987
(lp988
V*
p989
ass(Vdescription
p990
g99
NV586
p991
tp992
(dp993
Vparts
p994
(lp995
Vup
p996
asVhardware-long
p997
VPCs with a single processor not supporting PAE
p998
sVhardware
p999
Volder PCs
p1000
ss(Vimage
p1001
g743
NV5kc-malta
p1002
tp1003
(dp1004
Vconfigs
p1005
(lp1006
Vkernelarch-mips/config.5kc-malta
p1007
ass(Vbuild
p1008
g39
tp1009
(dp1010
Vimage-file
p1011
Varch/sh/boot/zImage
p1012
ss(Vimage
p1013
g39
tp1014
(dp1015
Vinstall-stem
p1016
Vvmlinuz
p1017
sVsuggests
p1018
Vfdutils
p1019
ss(Vimage
p1020
tp1021
(dp1022
Vtype
p1023
Vplain
p1024
sVinitramfs-generators
p1025
(lp1026
Vinitramfs-tools
p1027
aVinitramfs-fallback
p1028
ass(Vdescription
p1029
g32
NVloongson-2f
p1030
tp1031
(dp1032
Vhardware-long
p1033
VLemote Loongson 2F systems
p1034
sVhardware
p1035
VLoongson 2F
p1036
ss(Vversion
p1037
tp1038
(dp1039
Vupstream
p1040
V4.2
p1041
sVabiname_base
p1042
V4.2.0
p1043
sVabiname
p1044
V4.2.0-kali1
p1045
sVsource
p1046
V4.2.5-1kali1
p1047
ss(Vbase
p1048
g248
NVparisc64-smp
p1049
tp1050
(dp1051
Vcflags
p1052
V-fno-cse-follow-jumps
p1053
sVoverride-host-type
p1054
Vhppa64-linux-gnu
p1055
ss(Vbase
p1056
g82
tp1057
(dp1058
g8
(lp1059
g10
asVkernel-arch
p1060
Varm
p1061
ss(Vbuild
p1062
g367
tp1063
(dp1064
Vimage-file
p1065
Vvmlinux.gz
p1066
ss(Vbuild
p1067
g248
tp1068
(dp1069
Vimage-file
p1070
Vvmlinux
p1071
ss(Vimage
p1072
g196
NVpowerpc64
p1073
tp1074
(dp1075
Vconfigs
p1076
(lp1077
Vkernelarch-powerpc/config-arch-64
p1078
aVkernelarch-powerpc/config-arch-64-be
p1079
ass(Vdescription
p1080
g39
NVsh7785lcr
p1081
tp1082
(dp1083
Vhardware-long
p1084
VRenesas SH7785 reference board
p1085
sVhardware
p1086
Vsh7785lcr
p1087
ss(Vdescription
p1088
g118
NVs390x
p1089
tp1090
(dp1091
Vhardware
p1092
VIBM zSeries
p1093
ss(Vbase
p1094
Vx32
p1095
tp1096
(dp1097
Vfeaturesets
p1098
(lp1099
sVkernel-arch
p1100
Vx86
p1101
ss(Vimage
p1102
g233
tp1103
(dp1104
Vinstall-stem
p1105
Vvmlinuz
p1106
ss(Vimage
p1107
g110
NVpowerpc-smp
p1108
tp1109
(dp1110
Vconfigs
p1111
(lp1112
Vpowerpc/config.powerpc
p1113
aVpowerpc/config.powerpc-smp
p1114
ass(Vbuild
p1115
g5
tp1116
(dp1117
Vimage-file
p1118
Vvmlinux
p1119
ss(Vimage
p1120
g203
NVsparc64
p1121
tp1122
(dp1123
Vconfigs
p1124
(lp1125
Vkernelarch-sparc/config-up
p1126
ass(g21
g14
g10
tp1127
(dp1128
g25
I01
sg26
(lp1129
Vpowerpcspe
p1130
ass(Vrelations
p1131
g82
tp1132
(dp1133
Vheaders%gcc-4.9
p1134
Vlinux-compiler-gcc-4.9-arm
p1135
ss(Vdescription
p1136
Ng984
tp1137
(dp1138
Vparts
p1139
(lp1140
Vrt
p1141
asVpart-long-rt
p1142
VThis kernel includes the PREEMPT_RT realtime patch set.
p1143
sVpart-short-rt
p1144
VPREEMPT_RT
p1145
ss(Vbase
p1146
NVrt
p1147
tp1148
(dp1149
Venabled
p1150
I00
ss(g21
g125
g10
tp1151
(dp1152
g25
I01
sg26
(lp1153
V5kc-malta
p1154
aVloongson-3
p1155
aVocteon
p1156
ass(Vdescription
p1157
g125
NVocteon
p1158
tp1159
(dp1160
Vhardware-long
p1161
VCavium Networks Octeon
p1162
sVhardware
p1163
VOcteon
p1164
ss(Vimage
p1165
g32
NVloongson-2e
p1166
tp1167
(dp1168
Vconfigs
p1169
(lp1170
Vkernelarch-mips/config.loongson-2e
p1171
ass(Vdescription
p1172
g743
NV5kc-malta
p1173
tp1174
(dp1175
Vhardware-long
p1176
VMIPS Malta boards
p1177
sVhardware
p1178
VMIPS Malta
p1179
ss(g21
g203
g10
tp1180
(dp1181
g25
I01
sg26
(lp1182
Vsparc64
p1183
aVsparc64-smp
p1184
ass(Vdescription
p1185
g203
NVsparc64
p1186
tp1187
(dp1188
Vhardware
p1189
Vuniprocessor 64-bit UltraSPARC
p1190
ss(g21
g743
g10
tp1191
(dp1192
g25
I01
sg26
(lp1193
V5kc-malta
p1194
aVocteon
p1195
ass(Vbuild
p1196
g196
tp1197
(dp1198
Vimage-file
p1199
Vvmlinux
p1200
ss(Vbase
p1201
g99
g149
tp1202
(dp1203
Vflavours
p1204
(lp1205
V586
p1206
aV686-pae
p1207
ass(Vrelations
p1208
g248
tp1209
(dp1210
Vgcc-4.9
p1211
Vgcc-4.9, binutils-hppa64, gcc-4.9-hppa64
p1212
ss(Vbuild
p1213
g99
NV686-pae
p1214
tp1215
(dp1216
Vdebug-info
p1217
I01
ss(Vbuild
p1218
g203
tp1219
(dp1220
Vimage-file
p1221
Varch/sparc/boot/zImage
p1222
ss(Vimage
p1223
g743
tp1224
(dp1225
Vinstall-stem
p1226
Vvmlinux
p1227
ss(Vbase
p1228
Vs390
p1229
tp1230
(dp1231
Vfeaturesets
p1232
(lp1233
sVkernel-arch
p1234
Vs390
p1235
sstp1236
Rp1237
.