ccopy_reg
_reconstructor
p0
(cdebian_linux.config
ConfigCore
p1
c__builtin__
dict
p2
(dp3
(Vbase
p4
Vsparc64
p5
tp6
(dp7
Vkernel-arch
p8
Vsparc
p9
sVfeaturesets
p10
(lp11
Vnone
p12
ass(Vimage
p13
Varm64
p14
tp15
(dp16
Vinstall-stem
p17
Vvmlinuz
p18
ss(Vbuild
p19
Vi386
p20
tp21
(dp22
Vimage-file
p23
Varch/x86/boot/bzImage
p24
sVsigned-modules
p25
I00
sVvdso
p26
I01
ss(Vbase
p27
Varmel
p28
tp29
(dp30
Vkernel-arch
p31
Varm
p32
sg10
(lp33
g12
ass(Vbase
p34
Vhppa
p35
g12
tp36
(dp37
Vflavours
p38
(lp39
Vparisc
p40
aVparisc64-smp
p41
asVimplicit-flavour
p42
I01
ss(Vbuild
p43
tp44
(dp45
Vsigned-modules
p46
I01
sVdebug-info
p47
I01
ss(g34
Varmhf
p48
g12
tp49
(dp50
g38
(lp51
Varmmp
p52
aVarmmp-lpae
p53
asg42
I01
ss(Vbase
p54
NVrt
p55
tp56
(dp57
Venabled
p58
I00
ss(Vimage
p59
Vppc64el
p60
NVpowerpc64le
p61
tp62
(dp63
Vconfigs
p64
(lp65
Vkernelarch-powerpc/config-arch-64
p66
aVkernelarch-powerpc/config-arch-64-le
p67
ass(Vimage
p68
Vmips64el
p69
NV5kc-malta
p70
tp71
(dp72
Vconfigs
p73
(lp74
Vkernelarch-mips/config.malta
p75
aVkernelarch-mips/config.mips64r2
p76
ass(Vbase
p77
Vmips
p78
tp79
(dp80
Vkernel-arch
p81
Vmips
p82
sg10
(lp83
g12
ass(Vimage
p84
tp85
(dp86
Vinitramfs-generators
p87
(lp88
Vinitramfs-tools
p89
aVinitramfs-fallback
p90
ass(Vdescription
p91
Vmipsel
p92
NV4kc-malta
p93
tp94
(dp95
Vhardware
p96
VMIPS Malta
p97
sVhardware-long
p98
VMIPS Malta boards
p99
ss(Vdescription
p100
Vamd64
p101
NVamd64
p102
tp103
(dp104
Vhardware
p105
V64-bit PCs
p106
sVhardware-long
p107
VPCs with AMD64, Intel 64 or VIA Nano processors
p108
ss(Vdescription
p109
g92
NVloongson-3
p110
tp111
(dp112
Vhardware
p113
VLoongson 3A/3B
p114
sVhardware-long
p115
VLoongson 3A or 3B based systems (e.g. from Loongson or Lemote)
p116
ss(Vbase
p117
Vor1k
p118
tp119
(dp120
Vkernel-arch
p121
Vopenrisc
p122
sVfeaturesets
p123
(lp124
ss(Vimage
p125
Valpha
p126
tp127
(dp128
Vinstall-stem
p129
Vvmlinuz
p130
sVsuggests
p131
Vaboot, fdutils
p132
ss(Vdescription
p133
Vsh4
p134
NVsh7751r
p135
tp136
(dp137
Vhardware
p138
Vsh7751r
p139
sVhardware-long
p140
VRenesas SH7751R R2D plus board
p141
ss(Vdescription
p142
Vm68k
p143
NVm68k
p144
tp145
(dp146
Vhardware
p147
VMotorola MC68020+ family
p148
ss(Vimage
p149
g5
NVsparc64
p150
tp151
(dp152
Vconfigs
p153
(lp154
Vkernelarch-sparc/config-up
p155
ass(Vbase
p156
Vpowerpc
p157
tp158
(dp159
Vkernel-arch
p160
Vpowerpc
p161
sg10
(lp162
g12
ass(Vbuild
p163
g92
tp164
(dp165
Vimage-file
p166
Vvmlinux
p167
sVsigned-modules
p168
I00
ss(Vdescription
p169
g28
NVversatile
p170
tp171
(dp172
Vhardware
p173
VVersatile
p174
sVhardware-long
p175
VVersatile systems (PB, AB, Qemu)
p176
ss(Vdescription
p177
g60
NVpowerpc64le
p178
tp179
(dp180
Vhardware
p181
VLittle-endian 64-bit PowerPC
p182
ss(Vbuild
p183
g5
tp184
(dp185
Vimage-file
p186
Varch/sparc/boot/zImage
p187
sVsigned-modules
p188
I00
ss(Vbase
p189
g101
Vnone
p190
tp191
(dp192
Vflavours
p193
(lp194
Vamd64
p195
ass(Vdescription
p196
g157
NVpowerpc
p197
tp198
(dp199
Vhardware
p200
Vuniprocessor 32-bit PowerPC
p201
ss(Vimage
p202
g78
NV4kc-malta
p203
tp204
(dp205
Vconfigs
p206
(lp207
Vkernelarch-mips/config.malta
p208
aVkernelarch-mips/config.mips32r2
p209
ass(Vabi
p210
tp211
(dp212
Vabiname
p213
Vkali1
p214
ss(Vbuild
p215
Vpowerpcspe
p216
tp217
(dp218
Vimage-file
p219
Vvmlinux
p220
sVsigned-modules
p221
I00
sVvdso
p222
I01
ss(Vbuild
p223
g134
tp224
(dp225
Vimage-file
p226
Varch/sh/boot/zImage
p227
sVsigned-modules
p228
I00
ss(Vimage
p229
Vppc64
p230
tp231
(dp232
Vconfigs
p233
(lp234
sVinstall-stem
p235
Vvmlinux
p236
sVsuggests
p237
Vmkvmlinuz
p238
ss(Vbase
p239
g20
tp240
(dp241
Vfeaturesets
p242
(lp243
Vnone
p244
aVrt
p245
asVkernel-arch
p246
Vx86
p247
ss(Vdescription
p248
g35
NVparisc64-smp
p249
tp250
(dp251
Vhardware
p252
Vmultiprocessor 64-bit PA-RISC
p253
sVhardware-long
p254
VHP PA-RISC 64-bit SMP systems with support for more than 4 GB RAM
p255
ss(g34
g78
g12
tp256
(dp257
g38
(lp258
V4kc-malta
p259
aV5kc-malta
p260
aVocteon
p261
asg42
I01
ss(Vbuild
p262
Vmips64
p263
tp264
(dp265
Vimage-file
p266
Vvmlinux
p267
sVsigned-modules
p268
I00
ss(Vdescription
p269
g28
NVmarvell
p270
tp271
(dp272
Vhardware
p273
VMarvell Kirkwood/Orion
p274
sVhardware-long
p275
VMarvell Kirkwood based systems (SheevaPlug, QNAP TS-119/TS-219, etc)\u000aand Orion 5181, 5182 and 5281 based systems (QNAP TS-109/TS-209, etc)
p276
ss(Vimage
p277
g69
tp278
(dp279
Vinstall-stem
p280
Vvmlinux
p281
ss(Vdescription
p282
g126
NValpha-generic
p283
tp284
(dp285
Vhardware
p286
VAlpha
p287
sVhardware-long
p288
VDEC Alpha systems with extended kernel start address (Wildfire, Titan, Marvel)
p289
ss(Vbuild
p290
g126
tp291
(dp292
Vimage-file
p293
Varch/alpha/boot/vmlinux.gz
p294
sVsigned-modules
p295
I00
ss(Vrelations
p296
Vs390x
p297
tp298
(dp299
Vheaders%gcc-5
p300
Vlinux-compiler-gcc-5-s390
p301
ss(Vbase
p302
g230
tp303
(dp304
Vkernel-arch
p305
Vpowerpc
p306
sg10
(lp307
g12
ass(Vbase
p308
g20
Vnone
p309
tp310
(dp311
Vflavours
p312
(lp313
V686
p314
aV686-pae
p315
ass(Vdescription
p316
g5
NVsparc64-smp
p317
tp318
(dp319
Vhardware
p320
Vmultiprocessor 64-bit UltraSPARC
p321
ss(Vimage
p322
g28
NVmarvell
p323
tp324
(dp325
Vrecommends
p326
Vu-boot-tools
p327
sVcheck-size-with-dtb
p328
I01
sVbreaks
p329
Vflash-kernel (<< 3.57~)
p330
sVcheck-size
p331
L2097080L
ss(Vdescription
p332
g92
NVocteon
p333
tp334
(dp335
Vhardware
p336
VOcteon
p337
sVhardware-long
p338
VCavium Networks Octeon
p339
ss(Vimage
p340
g92
NV5kc-malta
p341
tp342
(dp343
Vconfigs
p344
(lp345
Vkernelarch-mips/config.malta
p346
aVkernelarch-mips/config.mips64r2
p347
ass(Vbase
p348
g101
Vrt
p349
tp350
(dp351
Vflavours
p352
(lp353
Vamd64
p354
ass(Vbase
p355
Vs390
p356
tp357
(dp358
Vkernel-arch
p359
Vs390
p360
sVfeaturesets
p361
(lp362
ss(g34
g263
g12
tp363
(dp364
g38
(lp365
V5kc-malta
p366
aVocteon
p367
asg42
I01
ss(g34
g157
g12
tp368
(dp369
g38
(lp370
Vpowerpc
p371
aVpowerpc-smp
p372
aVpowerpc64
p373
asg42
I01
ss(Vimage
p374
g134
NVsh7785lcr
p375
tp376
(dp377
Vrecommends
p378
Vu-boot-tools
p379
sVcheck-size
p380
L4194304L
ss(Vimage
p381
g78
NVocteon
p382
tp383
(dp384
Vconfigs
p385
(lp386
Vkernelarch-mips/config.octeon
p387
ass(Vdescription
p388
g69
NVloongson-3
p389
tp390
(dp391
Vhardware
p392
VLoongson 3A/3B
p393
sVhardware-long
p394
VLoongson 3A or 3B based systems (e.g. from Loongson or Lemote)
p395
ss(g34
g126
g12
tp396
(dp397
g38
(lp398
Valpha-generic
p399
aValpha-smp
p400
asg42
I01
ss(Vbuild
p401
g297
tp402
(dp403
Vimage-file
p404
Varch/s390/boot/image
p405
sVvdso
p406
I01
ss(Vdescription
p407
g14
NVarm64
p408
tp409
(dp410
Vhardware
p411
V64-bit ARMv8 machines
p412
ss(Vimage
p413
g101
tp414
(dp415
Vbootloaders
p416
(lp417
Vgrub-pc
p418
aVgrub-efi-amd64
p419
aVextlinux
p420
asVbreaks
p421
Vxserver-xorg-input-vmmouse (<< 1:13.0.99)
p422
sVinstall-stem
p423
Vvmlinuz
p424
ss(Vimage
p425
g263
NVocteon
p426
tp427
(dp428
Vconfigs
p429
(lp430
Vkernelarch-mips/config.octeon
p431
ass(Vbuild
p432
g60
tp433
(dp434
Vimage-file
p435
Vvmlinux
p436
sVvdso
p437
I01
ss(Vimage
p438
g216
tp439
(dp440
Vinstall-stem
p441
Vvmlinux
p442
sVsuggests
p443
Vmkvmlinuz
p444
ss(Vbase
p445
g101
tp446
(dp447
Vfeaturesets
p448
(lp449
Vnone
p450
aVrt
p451
asVkernel-arch
p452
Vx86
p453
ss(Vdescription
p454
g78
NV5kc-malta
p455
tp456
(dp457
Vhardware
p458
VMIPS Malta (64-bit)
p459
sVhardware-long
p460
VMIPS Malta boards (64-bit)
p461
ss(Vbuild
p462
g143
tp463
(dp464
Vimage-file
p465
Vvmlinux.gz
p466
sVsigned-modules
p467
I00
ss(Vdescription
p468
g157
NVpowerpc64
p469
tp470
(dp471
Vhardware
p472
V64-bit PowerPC
p473
ss(Vdescription
p474
g48
NVarmmp
p475
tp476
(dp477
Vhardware
p478
VARMv7 multiplatform compatible SoCs
p479
sVhardware-long
p480
VARMv7 multiplatform kernel. See\u000ahttps://wiki.debian.org/DebianKernel/ARMMP for details of supported\u000aplatforms
p481
ss(Vabi
p482
NVrt
p483
tp484
(dp485
Vignore-changes
p486
(lp487
V*
p488
ass(Vrelations
p489
tp490
(dp491
Vinitramfs-fallback
p492
Vlinux-initramfs-tool
p493
sVgcc-5
p494
Vgcc-5 <!stage1 !cross>, gcc-5-@gnu-type-package@:native <!stage1 cross>
p495
sVinitramfs-tools
p496
Vinitramfs-tools (>= 0.110~)
p497
ss(Vdescription
p498
Ng483
tp499
(dp500
Vpart-short-rt
p501
VPREEMPT_RT
p502
sVparts
p503
(lp504
Vrt
p505
asVpart-long-rt
p506
VThis kernel includes the PREEMPT_RT realtime patch set.
p507
ss(Vbuild
p508
g20
NV686-pae
p509
tp510
(dp511
Vdebug-info
p512
I01
ss(Vimage
p513
g92
NVocteon
p514
tp515
(dp516
Vconfigs
p517
(lp518
Vkernelarch-mips/config.octeon
p519
ass(g34
g134
g12
tp520
(dp521
g38
(lp522
Vsh7751r
p523
aVsh7785lcr
p524
asg42
I01
ss(Vdescription
p525
g263
NV5kc-malta
p526
tp527
(dp528
Vhardware
p529
VMIPS Malta
p530
sVhardware-long
p531
VMIPS Malta boards
p532
ss(Vrelations
p533
g101
tp534
(dp535
Vheaders%gcc-5
p536
Vlinux-compiler-gcc-5-x86
p537
ss(Vbase
p538
g69
tp539
(dp540
Vkernel-arch
p541
Vmips
p542
sg10
(lp543
g12
ass(Vimage
p544
g230
NVpowerpc64
p545
tp546
(dp547
Vconfigs
p548
(lp549
Vkernelarch-powerpc/config-arch-64
p550
aVkernelarch-powerpc/config-arch-64-be
p551
ass(Vrelations
p552
g35
tp553
(dp554
Vgcc-5
p555
Vgcc-5 <!stage1 !cross>, binutils-hppa64-linux-gnu <!stage1 !cross>, gcc-5-hppa64-linux-gnu <!stage1 !cross>, gcc-5-hppa-linux-gnu:native <!stage1 cross>, binutils-hppa64-linux-gnu:native <!stage1 cross>, gcc-5-hppa64-linux-gnu:native <!stage1 cross>
p556
ss(g34
g230
g12
tp557
(dp558
g38
(lp559
Vpowerpc64
p560
asg42
I01
ss(g34
g69
g12
tp561
(dp562
g38
(lp563
V5kc-malta
p564
aVloongson-3
p565
aVocteon
p566
asg42
I01
ss(Vbuild
p567
g157
tp568
(dp569
Vimage-file
p570
Vvmlinux
p571
sVvdso
p572
I01
ss(g34
g28
g12
tp573
(dp574
g38
(lp575
Vmarvell
p576
aVversatile
p577
asg42
I01
ss(Vimage
p578
g20
tp579
(dp580
Vbootloaders
p581
(lp582
Vgrub-pc
p583
aVextlinux
p584
asVbreaks
p585
Vxserver-xorg-input-vmmouse (<< 1:13.0.99)
p586
sVinstall-stem
p587
Vvmlinuz
p588
ss(Vbuild
p589
g14
tp590
(dp591
Vimage-file
p592
Varch/arm64/boot/Image
p593
sVsigned-modules
p594
I00
sVdebug-info
p595
I01
sVvdso
p596
I01
ss(Vbase
p597
tp598
(dp599
Vcompiler
p600
Vgcc-5
p601
sVarches
p602
(lp603
Valpha
p604
aVamd64
p605
aVarm64
p606
aVarmel
p607
aVarmhf
p608
aVhppa
p609
aVi386
p610
aVm68k
p611
aVmips
p612
aVmipsel
p613
aVmipsn32
p614
aVmipsn32el
p615
aVmips64
p616
aVmips64el
p617
aVor1k
p618
aVpowerpc
p619
aVpowerpcspe
p620
aVppc64
p621
aVppc64el
p622
aVs390
p623
aVs390x
p624
aVsh4
p625
aVsparc
p626
aVsparc64
p627
aVtilegx
p628
aVx32
p629
asVfeaturesets
p630
(lp631
Vnone
p632
aVrt
p633
ass(Vbuild
p634
g101
tp635
(dp636
Vimage-file
p637
Varch/x86/boot/bzImage
p638
sVsigned-modules
p639
I00
sVdebug-info
p640
I01
sVvdso
p641
I01
ss(Vdescription
p642
g216
tp643
(dp644
Vhardware
p645
V32-bit PowerPC with SPE (instead of AltiVec) with SMP support
p646
ss(Vbase
p647
Vsparc
p648
tp649
(dp650
Vkernel-arch
p651
Vsparc
p652
sVfeaturesets
p653
(lp654
ss(Vimage
p655
g157
tp656
(dp657
Vconfigs
p658
(lp659
sVinstall-stem
p660
Vvmlinux
p661
sVsuggests
p662
Vmkvmlinuz
p663
ss(Vbase
p664
g134
tp665
(dp666
Vkernel-arch
p667
Vsh
p668
sg10
(lp669
g12
ass(Vbuild
p670
g48
tp671
(dp672
Vimage-file
p673
Varch/arm/boot/zImage
p674
sVsigned-modules
p675
I00
sVvdso
p676
I01
ss(Vbase
p677
g14
Vnone
p678
tp679
(dp680
Vflavours
p681
(lp682
Varm64
p683
ass(Vdescription
p684
g92
NV5kc-malta
p685
tp686
(dp687
Vhardware
p688
VMIPS Malta (64-bit)
p689
sVhardware-long
p690
VMIPS Malta boards (64-bit)
p691
ss(Vdescription
p692
g5
NVsparc64
p693
tp694
(dp695
Vhardware
p696
Vuniprocessor 64-bit UltraSPARC
p697
ss(Vdescription
p698
g35
NVparisc
p699
tp700
(dp701
Vhardware
p702
V32-bit PA-RISC
p703
sVhardware-long
p704
VHP PA-RISC 32-bit systems with max 4 GB RAM
p705
ss(Vbase
p706
g92
tp707
(dp708
Vkernel-arch
p709
Vmips
p710
sg10
(lp711
g12
ass(Vimage
p712
g69
NVloongson-3
p713
tp714
(dp715
Vconfigs
p716
(lp717
Vkernelarch-mips/config.loongson-3
p718
ass(Vbase
p719
g216
tp720
(dp721
Vkernel-arch
p722
Vpowerpc
p723
sg10
(lp724
g12
ass(g34
g60
g12
tp725
(dp726
g38
(lp727
Vpowerpc64le
p728
asg42
I01
ss(Vbase
p729
Vtilegx
p730
tp731
(dp732
Vkernel-arch
p733
Vtile
p734
sVfeaturesets
p735
(lp736
ss(Vdescription
p737
tp738
(dp739
Vpart-long-xen
p740
VThis kernel also runs on a Xen hypervisor.\u000aIt supports both privileged (dom0) and unprivileged (domU) operation.
p741
sVpart-long-up
p742
VThis kernel is not suitable for SMP (multi-processor,\u000amulti-core or hyper-threaded) systems.
p743
ss(Vdescription
p744
g230
NVpowerpc64
p745
tp746
(dp747
Vhardware
p748
V64-bit PowerPC
p749
ss(Vbase
p750
Vmipsn32
p751
tp752
(dp753
Vkernel-arch
p754
Vmips
p755
sVfeaturesets
p756
(lp757
ss(Vrelations
p758
g48
tp759
(dp760
Vheaders%gcc-5
p761
Vlinux-compiler-gcc-5-arm
p762
ss(Vbase
p763
Vx32
p764
tp765
(dp766
Vkernel-arch
p767
Vx86
p768
sVfeaturesets
p769
(lp770
ss(g34
g5
g12
tp771
(dp772
g38
(lp773
Vsparc64
p774
aVsparc64-smp
p775
asg42
I01
ss(Vdescription
p776
g126
NValpha-smp
p777
tp778
(dp779
Vhardware
p780
VAlpha SMP
p781
sVhardware-long
p782
VDEC Alpha SMP systems with extended kernel start address (Wildfire, Titan, Marvel)
p783
ss(g34
g216
g12
tp784
(dp785
g38
(lp786
Vpowerpcspe
p787
asg42
I01
ss(Vimage
p788
g143
tp789
(dp790
Vinstall-stem
p791
Vvmlinuz
p792
sVsuggests
p793
Vvmelilo, fdutils
p794
ss(Vimage
p795
g28
tp796
(dp797
Vinstall-stem
p798
Vvmlinuz
p799
ss(Vimage
p800
g35
tp801
(dp802
Vinstall-stem
p803
Vvmlinux
p804
sVsuggests
p805
Vpalo
p806
ss(Vimage
p807
g134
tp808
(dp809
Vinstall-stem
p810
Vvmlinuz
p811
ss(Vbuild
p812
g78
tp813
(dp814
Vimage-file
p815
Vvmlinux
p816
sVsigned-modules
p817
I00
ss(Vbase
p818
g14
tp819
(dp820
Vkernel-arch
p821
Varm64
p822
sVfeaturesets
p823
(lp824
Vnone
p825
ass(Vdescription
p826
g69
NV5kc-malta
p827
tp828
(dp829
Vhardware
p830
VMIPS Malta
p831
sVhardware-long
p832
VMIPS Malta boards
p833
ss(Vbuild
p834
g28
tp835
(dp836
Vimage-file
p837
Varch/arm/boot/zImage
p838
sVsigned-modules
p839
I00
ss(Vdescription
p840
g78
NV4kc-malta
p841
tp842
(dp843
Vhardware
p844
VMIPS Malta
p845
sVhardware-long
p846
VMIPS Malta boards
p847
ss(Vdescription
p848
g20
NV686-pae
p849
tp850
(dp851
Vhardware
p852
Vmodern PCs
p853
sVparts
p854
(lp855
Vpae
p856
asVhardware-long
p857
VPCs with one or more processors supporting PAE
p858
ss(Vdescription
p859
g134
NVsh7785lcr
p860
tp861
(dp862
Vhardware
p863
Vsh7785lcr
p864
sVhardware-long
p865
VRenesas SH7785 reference board
p866
ss(Vbase
p867
g48
tp868
(dp869
Vkernel-arch
p870
Varm
p871
sg10
(lp872
g12
ass(Vimage
p873
g92
NVloongson-3
p874
tp875
(dp876
Vconfigs
p877
(lp878
Vkernelarch-mips/config.loongson-3
p879
ass(Vimage
p880
g297
tp881
(dp882
Vbootloaders
p883
(lp884
Vs390-tools
p885
asVinstall-stem
p886
Vvmlinuz
p887
ss(Vbase
p888
g35
tp889
(dp890
Vkernel-arch
p891
Vparisc
p892
sg10
(lp893
g12
ass(Vdescription
p894
g20
g309
V686-pae
p895
tp896
(dp897
Vparts
p898
(lp899
Vxen
p900
ass(Vdescription
p901
g20
NV686
p902
tp903
(dp904
Vhardware
p905
Volder PCs
p906
sVhardware-long
p907
VPCs with one or more processors not supporting PAE
p908
ss(Vdescription
p909
g69
NVocteon
p910
tp911
(dp912
Vhardware
p913
VOcteon
p914
sVhardware-long
p915
VCavium Networks Octeon
p916
ss(Vimage
p917
g14
NVarm64
p918
tp919
(dp920
s(Vrelations
p921
g28
tp922
(dp923
Vheaders%gcc-5
p924
Vlinux-compiler-gcc-5-arm
p925
ss(Vimage
p926
g157
NVpowerpc64
p927
tp928
(dp929
Vconfigs
p930
(lp931
Vkernelarch-powerpc/config-arch-64
p932
aVkernelarch-powerpc/config-arch-64-be
p933
ass(Vimage
p934
g157
NVpowerpc-smp
p935
tp936
(dp937
Vconfigs
p938
(lp939
Vpowerpc/config.powerpc
p940
aVpowerpc/config.powerpc-smp
p941
ass(Vbase
p942
g143
tp943
(dp944
Vcflags
p945
V-ffreestanding
p946
sVkernel-arch
p947
Vm68k
p948
sg10
(lp949
g12
ass(Vbase
p950
g20
Vrt
p951
tp952
(dp953
Vflavours
p954
(lp955
V686-pae
p956
ass(Vdescription
p957
g101
g190
Vamd64
p958
tp959
(dp960
Vparts
p961
(lp962
Vxen
p963
ass(Vbuild
p964
g69
tp965
(dp966
Vimage-file
p967
Vvmlinux
p968
sVsigned-modules
p969
I00
ss(Vbase
p970
g126
tp971
(dp972
Vkernel-arch
p973
Valpha
p974
sg10
(lp975
g12
ass(Vbuild
p976
g297
NVs390x
p977
tp978
(dp979
Vdebug-info
p980
I01
ss(Vimage
p981
g5
NVsparc64-smp
p982
tp983
(dp984
Vconfigs
p985
(lp986
Vkernelarch-sparc/config-smp
p987
ass(Vxen
p988
g101
g190
Vamd64
p989
tp990
(dp991
Vflavours
p992
(lp993
Vamd64
p994
ass(Vdescription
p995
g157
NVpowerpc-smp
p996
tp997
(dp998
Vhardware
p999
Vmultiprocessor 32-bit PowerPC
p1000
ss(Vimage
p1001
g69
NVocteon
p1002
tp1003
(dp1004
Vconfigs
p1005
(lp1006
Vkernelarch-mips/config.octeon
p1007
ass(Vbuild
p1008
g230
tp1009
(dp1010
Vimage-file
p1011
Vvmlinux
p1012
sVsigned-modules
p1013
I00
sVvdso
p1014
I01
ss(Vdescription
p1015
g78
NVocteon
p1016
tp1017
(dp1018
Vhardware
p1019
VOcteon
p1020
sVhardware-long
p1021
VCavium Networks Octeon
p1022
ss(g34
g297
g12
tp1023
(dp1024
g38
(lp1025
Vs390x
p1026
asg42
I01
ss(Vimage
p1027
g78
tp1028
(dp1029
Vinstall-stem
p1030
Vvmlinux
p1031
ss(Vdescription
p1032
g20
tp1033
(dp1034
Vpart-long-pae
p1035
VThis kernel requires PAE (Physical Address Extension).\u000aThis feature is supported by the Intel Pentium Pro/II/III/4/4M/D, Xeon,\u000aCore and Atom; AMD Geode NX, Athlon (K7), Duron, Opteron, Sempron,\u000aTurion or Phenom; Transmeta Efficeon; VIA C7; and some other processors.
p1036
ss(Vbase
p1037
g35
NVparisc64-smp
p1038
tp1039
(dp1040
Vcflags
p1041
V-fno-cse-follow-jumps
p1042
sVoverride-host-type
p1043
Vhppa64-linux-gnu
p1044
ss(Vbase
p1045
Vmipsn32el
p1046
tp1047
(dp1048
Vkernel-arch
p1049
Vmips
p1050
sVfeaturesets
p1051
(lp1052
ss(Vimage
p1053
g263
NV5kc-malta
p1054
tp1055
(dp1056
Vconfigs
p1057
(lp1058
Vkernelarch-mips/config.malta
p1059
aVkernelarch-mips/config.mips64r2
p1060
ass(Vimage
p1061
g92
tp1062
(dp1063
Vinstall-stem
p1064
Vvmlinux
p1065
ss(Vbuild
p1066
g35
tp1067
(dp1068
Vimage-file
p1069
Vvmlinux
p1070
sVsigned-modules
p1071
I00
ss(Vimage
p1072
g78
NV5kc-malta
p1073
tp1074
(dp1075
Vconfigs
p1076
(lp1077
Vkernelarch-mips/config.malta
p1078
aVkernelarch-mips/config.mips64r2
p1079
ass(Vimage
p1080
g48
tp1081
(dp1082
Vinstall-stem
p1083
Vvmlinuz
p1084
ss(Vdescription
p1085
g297
NVs390x
p1086
tp1087
(dp1088
Vhardware
p1089
VIBM zSeries
p1090
ss(g34
g92
g12
tp1091
(dp1092
g38
(lp1093
V4kc-malta
p1094
aV5kc-malta
p1095
aVloongson-3
p1096
aVocteon
p1097
asg42
I01
ss(Vbase
p1098
g60
tp1099
(dp1100
Vkernel-arch
p1101
Vpowerpc
p1102
sg10
(lp1103
g12
ass(Vversion
p1104
tp1105
(dp1106
Vabiname_base
p1107
V4.7.0
p1108
sVupstream
p1109
V4.7
p1110
sVsource
p1111
V4.7.5-1kali3
p1112
sVabiname
p1113
V4.7.0-kali1
p1114
ss(Vbase
p1115
g297
tp1116
(dp1117
Vkernel-arch
p1118
Vs390
p1119
sg10
(lp1120
g12
ass(Vbase
p1121
g263
tp1122
(dp1123
Vkernel-arch
p1124
Vmips
p1125
sg10
(lp1126
g12
ass(Vdescription
p1127
g48
NVarmmp-lpae
p1128
tp1129
(dp1130
Vhardware
p1131
VARMv7 multiplatform compatible SoCs supporting LPAE
p1132
sVhardware-long
p1133
VARMv7 multiplatform kernel supporting LPAE. See\u000ahttps://wiki.debian.org/DebianKernel/ARMMP for details of supported\u000aplatforms.
p1134
ss(Vimage
p1135
g5
tp1136
(dp1137
Vconfigs
p1138
(lp1139
sVinstall-stem
p1140
Vvmlinuz
p1141
sVsuggests
p1142
Vsilo, fdutils
p1143
ss(Vimage
p1144
g92
NV4kc-malta
p1145
tp1146
(dp1147
Vconfigs
p1148
(lp1149
Vkernelarch-mips/config.malta
p1150
aVkernelarch-mips/config.mips32r2
p1151
ass(Vdescription
p1152
g263
NVocteon
p1153
tp1154
(dp1155
Vhardware
p1156
VOcteon
p1157
sVhardware-long
p1158
VCavium Networks Octeon
p1159
ss(Vimage
p1160
g263
tp1161
(dp1162
Vinstall-stem
p1163
Vvmlinux
p1164
ss(Vimage
p1165
g60
tp1166
(dp1167
Vconfigs
p1168
(lp1169
sVinstall-stem
p1170
Vvmlinux
p1171
sVsuggests
p1172
Vmkvmlinuz
p1173
ss(Vrelations
p1174
g20
tp1175
(dp1176
Vheaders%gcc-5
p1177
Vlinux-compiler-gcc-5-x86
p1178
ss(g34
g143
g12
tp1179
(dp1180
g38
(lp1181
Vm68k
p1182
asg42
I01
sstp1183
Rp1184
.