ccopy_reg
_reconstructor
p0
(cdebian_linux.config
ConfigCore
p1
c__builtin__
dict
p2
(dp3
(Vbase
p4
Vhppa
p5
tp6
(dp7
Vfeaturesets
p8
(lp9
Vnone
p10
asVkernel-arch
p11
Vparisc
p12
ss(Vbase
p13
Varmel
p14
tp15
(dp16
g8
(lp17
g10
asVkernel-arch
p18
Varm
p19
ss(Vbuild
p20
Vmips
p21
tp22
(dp23
Vimage-file
p24
Vvmlinux
p25
sVsigned-modules
p26
I00
ss(Vbase
p27
g5
g10
tp28
(dp29
Vflavours
p30
(lp31
Vparisc
p32
aVparisc64-smp
p33
asVimplicit-flavour
p34
I01
ss(Vimage
p35
Vmips64
p36
NV5kc-malta
p37
tp38
(dp39
Vconfigs
p40
(lp41
Vkernelarch-mips/config.5kc-malta
p42
ass(Vimage
p43
Vmipsel
p44
NVloongson-2f
p45
tp46
(dp47
Vconfigs
p48
(lp49
Vkernelarch-mips/config.loongson-2f
p50
asVrecommends
p51
Vlibc6-loongson2f
p52
ss(Vimage
p53
tp54
(dp55
Vinitramfs-generators
p56
(lp57
Vinitramfs-tools
p58
aVinitramfs-fallback
p59
ass(Vdescription
p60
g44
NV4kc-malta
p61
tp62
(dp63
Vhardware
p64
VMIPS Malta
p65
sVhardware-long
p66
VMIPS Malta boards
p67
ss(Vimage
p68
Vsparc64
p69
NVsparc64
p70
tp71
(dp72
Vconfigs
p73
(lp74
Vkernelarch-sparc/config-up
p75
ass(Vbase
p76
Varm64
p77
Vnone
p78
tp79
(dp80
Vflavours
p81
(lp82
Varm64
p83
ass(g27
g44
g10
tp84
(dp85
g30
(lp86
V4kc-malta
p87
aV5kc-malta
p88
aVloongson-2e
p89
aVloongson-2f
p90
aVloongson-3
p91
asg34
I01
ss(Vdescription
p92
g36
NVocteon
p93
tp94
(dp95
Vhardware
p96
VOcteon
p97
sVhardware-long
p98
VCavium Networks Octeon
p99
ss(g27
g69
g10
tp100
(dp101
g30
(lp102
Vsparc64
p103
aVsparc64-smp
p104
asg34
I01
ss(g27
Vsh4
p105
g10
tp106
(dp107
g30
(lp108
Vsh7751r
p109
aVsh7785lcr
p110
asg34
I01
ss(Vrelations
p111
Vi386
p112
tp113
(dp114
Vheaders%gcc-5
p115
Vlinux-compiler-gcc-5-x86
p116
ss(Vbase
p117
g21
tp118
(dp119
g8
(lp120
g10
asVkernel-arch
p121
Vmips
p122
ss(Vbuild
p123
g14
tp124
(dp125
Vimage-file
p126
Varch/arm/boot/zImage
p127
ss(Vimage
p128
g77
tp129
(dp130
Vinstall-stem
p131
Vvmlinuz
p132
ss(Vbase
p133
g112
Vnone
p134
tp135
(dp136
Vflavours
p137
(lp138
V686
p139
aV686-pae
p140
ass(Vrelations
p141
g14
tp142
(dp143
Vheaders%gcc-5
p144
Vlinux-compiler-gcc-5-arm
p145
ss(Vbase
p146
Vmips64el
p147
tp148
(dp149
g8
(lp150
g10
asVkernel-arch
p151
Vmips
p152
ss(Vimage
p153
g21
NV4kc-malta
p154
tp155
(dp156
Vconfigs
p157
(lp158
Vkernelarch-mips/config.4kc-malta
p159
ass(Vdescription
p160
Vs390x
p161
NVs390x
p162
tp163
(dp164
Vhardware
p165
VIBM zSeries
p166
ss(Vbase
p167
NVrt
p168
tp169
(dp170
Venabled
p171
I00
ss(Vdescription
p172
g44
NV5kc-malta
p173
tp174
(dp175
Vhardware
p176
VMIPS Malta (64-bit)
p177
sVhardware-long
p178
VMIPS Malta boards (64-bit)
p179
ss(Vimage
p180
g112
NV686-pae
p181
tp182
(dp183
Vconfigs
p184
(lp185
Vkernelarch-x86/config-arch-32
p186
aVi386/config.686-pae
p187
asVrecommends
p188
Vlibc6-i686
p189
ss(Vbase
p190
g112
Vrt
p191
tp192
(dp193
Vflavours
p194
(lp195
V686-pae
p196
ass(Vimage
p197
Vpowerpc
p198
NVpowerpc-smp
p199
tp200
(dp201
Vconfigs
p202
(lp203
Vpowerpc/config.powerpc
p204
aVpowerpc/config.powerpc-smp
p205
ass(Vimage
p206
g161
NVs390x
p207
tp208
(dp209
Vconfigs
p210
(lp211
Vkernelarch-s390/config-arch-64
p212
ass(Vdescription
p213
Vpowerpcspe
p214
tp215
(dp216
Vhardware
p217
V32-bit PowerPC with SPE (instead of AltiVec) with SMP support
p218
ss(Vrelations
p219
tp220
(dp221
Vgcc-5
p222
Vgcc-5 <!stage1>
p223
sVinitramfs-tools
p224
Vinitramfs-tools (>= 0.110~)
p225
sVinitramfs-fallback
p226
Vlinux-initramfs-tool
p227
ss(Vimage
p228
g112
NV686
p229
tp230
(dp231
Vconfigs
p232
(lp233
Vkernelarch-x86/config-arch-32
p234
aVi386/config.686
p235
asVrecommends
p236
Vlibc6-i686
p237
ss(Vbuild
p238
g5
tp239
(dp240
Vimage-file
p241
Vvmlinux
p242
sVsigned-modules
p243
I00
ss(Vimage
p244
g214
tp245
(dp246
Vinstall-stem
p247
Vvmlinux
p248
sVsuggests
p249
Vmkvmlinuz
p250
ss(Vdescription
p251
g5
NVparisc
p252
tp253
(dp254
Vhardware
p255
V32-bit PA-RISC
p256
sVhardware-long
p257
VHP PA-RISC 32-bit systems with max 4 GB RAM
p258
ss(Vbase
p259
Vor1k
p260
tp261
(dp262
Vfeaturesets
p263
(lp264
sVkernel-arch
p265
Vopenrisc
p266
ss(Vrelations
p267
Varmhf
p268
tp269
(dp270
Vheaders%gcc-5
p271
Vlinux-compiler-gcc-5-arm
p272
ss(Vdescription
p273
g21
NV4kc-malta
p274
tp275
(dp276
Vhardware
p277
VMIPS Malta
p278
sVhardware-long
p279
VMIPS Malta boards
p280
ss(Vimage
p281
g147
NV5kc-malta
p282
tp283
(dp284
Vconfigs
p285
(lp286
Vkernelarch-mips/config.5kc-malta
p287
ass(Vdescription
p288
g77
NVarm64
p289
tp290
(dp291
Vhardware
p292
V64-bit ARMv8 machines
p293
ss(Vbuild
p294
Vamd64
p295
tp296
(dp297
Vdebug-info
p298
I01
sVimage-file
p299
Varch/x86/boot/bzImage
p300
sVvdso
p301
I01
ss(Vdescription
p302
g44
NVloongson-3
p303
tp304
(dp305
Vhardware
p306
VLoongson 3A/3B
p307
sVhardware-long
p308
VLoongson 3A or 3B based systems (e.g. from Loongson or Lemote)
p309
ss(Vdescription
p310
g14
NVversatile
p311
tp312
(dp313
Vhardware
p314
VVersatile
p315
sVhardware-long
p316
VVersatile systems (PB, AB, Qemu)
p317
ss(Vimage
p318
g44
NVloongson-2e
p319
tp320
(dp321
Vconfigs
p322
(lp323
Vkernelarch-mips/config.loongson-2e
p324
ass(Vbuild
p325
Vm68k
p326
tp327
(dp328
Vimage-file
p329
Vvmlinux.gz
p330
sVsigned-modules
p331
I00
ss(g27
g326
g10
tp332
(dp333
g30
(lp334
Vm68k
p335
asg34
I01
ss(Vbuild
p336
g14
NVmarvell
p337
tp338
(dp339
Vsigned-modules
p340
I00
ss(Vdescription
p341
g69
NVsparc64-smp
p342
tp343
(dp344
Vhardware
p345
Vmultiprocessor 64-bit UltraSPARC
p346
ss(Vimage
p347
g198
NVpowerpc64
p348
tp349
(dp350
Vconfigs
p351
(lp352
Vkernelarch-powerpc/config-arch-64
p353
aVkernelarch-powerpc/config-arch-64-be
p354
ass(g27
Vppc64
p355
g10
tp356
(dp357
g30
(lp358
Vpowerpc64
p359
asg34
I01
ss(Vdescription
p360
g295
NVamd64
p361
tp362
(dp363
Vhardware
p364
V64-bit PCs
p365
sVhardware-long
p366
VPCs with AMD64, Intel 64 or VIA Nano processors
p367
ss(Vbase
p368
Vx32
p369
tp370
(dp371
Vfeaturesets
p372
(lp373
sVkernel-arch
p374
Vx86
p375
ss(Vdescription
p376
g44
NVloongson-2f
p377
tp378
(dp379
Vhardware
p380
VLoongson 2F
p381
sVhardware-long
p382
VLemote Loongson 2F systems
p383
ss(Vdescription
p384
g147
NVloongson-3
p385
tp386
(dp387
Vhardware
p388
VLoongson 3A/3B
p389
sVhardware-long
p390
VLoongson 3A or 3B based systems (e.g. from Loongson or Lemote)
p391
ss(Vimage
p392
g112
tp393
(dp394
Vbootloaders
p395
(lp396
Vgrub-pc
p397
aVextlinux
p398
asVconfigs
p399
(lp400
sVbreaks
p401
Vxserver-xorg-input-vmmouse (<< 1:13.0.99)
p402
sVinstall-stem
p403
Vvmlinuz
p404
ss(Vdescription
p405
g112
NV686
p406
tp407
(dp408
Vhardware
p409
Volder PCs
p410
sVhardware-long
p411
VPCs with one or more processors not supporting PAE
p412
ss(Vbase
p413
g5
NVparisc64-smp
p414
tp415
(dp416
Voverride-host-type
p417
Vhppa64-linux-gnu
p418
sVcflags
p419
V-fno-cse-follow-jumps
p420
ss(Vbase
p421
g295
tp422
(dp423
Vfeaturesets
p424
(lp425
Vnone
p426
aVrt
p427
asVkernel-arch
p428
Vx86
p429
ss(Vimage
p430
g44
tp431
(dp432
Vinstall-stem
p433
Vvmlinux
p434
ss(Vimage
p435
g44
NV4kc-malta
p436
tp437
(dp438
Vconfigs
p439
(lp440
Vkernelarch-mips/config.4kc-malta
p441
ass(Vdescription
p442
g198
NVpowerpc64
p443
tp444
(dp445
Vhardware
p446
V64-bit PowerPC
p447
ss(Vimage
p448
g147
NVloongson-3
p449
tp450
(dp451
Vconfigs
p452
(lp453
Vkernelarch-mips/config.loongson-3
p454
ass(Vdescription
p455
g268
NVarmmp-lpae
p456
tp457
(dp458
Vhardware
p459
VARMv7 multiplatform compatible SoCs supporting LPAE
p460
sVhardware-long
p461
VARMv7 multiplatform kernel supporting LPAE. See\u000ahttps://wiki.debian.org/DebianKernel/ARMMP for details of supported\u000aplatforms.
p462
ss(Vbuild
p463
g268
tp464
(dp465
Vimage-file
p466
Varch/arm/boot/zImage
p467
sVvdso
p468
I01
ss(g27
g147
g10
tp469
(dp470
g30
(lp471
V5kc-malta
p472
aVloongson-3
p473
aVocteon
p474
asg34
I01
ss(g27
g14
g10
tp475
(dp476
g30
(lp477
Vmarvell
p478
aVversatile
p479
asg34
I01
ss(Vbase
p480
g69
tp481
(dp482
g8
(lp483
g10
asVkernel-arch
p484
Vsparc
p485
ss(g27
g198
g10
tp486
(dp487
g30
(lp488
Vpowerpc
p489
aVpowerpc-smp
p490
aVpowerpc64
p491
asg34
I01
ss(Vimage
p492
g105
NVsh7785lcr
p493
tp494
(dp495
Vcheck-size
p496
L4194304L
sVrecommends
p497
Vu-boot-tools
p498
ss(Vdescription
p499
g326
NVm68k
p500
tp501
(dp502
Vhardware
p503
VMotorola MC68020+ family
p504
ss(Vrelations
p505
g161
tp506
(dp507
Vheaders%gcc-5
p508
Vlinux-compiler-gcc-5-s390
p509
ss(Vbase
p510
Vs390
p511
tp512
(dp513
Vfeaturesets
p514
(lp515
sVkernel-arch
p516
Vs390
p517
ss(Vbuild
p518
g161
tp519
(dp520
Vimage-file
p521
Varch/s390/boot/image
p522
sVvdso
p523
I01
ss(g27
g161
g10
tp524
(dp525
g30
(lp526
Vs390x
p527
asg34
I01
ss(Vbuild
p528
Vppc64el
p529
tp530
(dp531
Vimage-file
p532
Vvmlinux
p533
sVvdso
p534
I01
ss(Vimage
p535
g44
NVloongson-3
p536
tp537
(dp538
Vconfigs
p539
(lp540
Vkernelarch-mips/config.loongson-3
p541
ass(Vdescription
p542
Valpha
p543
NValpha-generic
p544
tp545
(dp546
Vhardware
p547
VAlpha
p548
sVhardware-long
p549
VDEC Alpha systems with extended kernel start address (Wildfire, Titan, Marvel)
p550
ss(Vbuild
p551
g214
tp552
(dp553
Vimage-file
p554
Vvmlinux
p555
sVsigned-modules
p556
I00
sVvdso
p557
I01
ss(Vbuild
p558
tp559
(dp560
Vsigned-modules
p561
I01
ss(Vdescription
p562
g198
NVpowerpc
p563
tp564
(dp565
Vhardware
p566
Vuniprocessor 32-bit PowerPC
p567
ss(Vdescription
p568
g147
NVocteon
p569
tp570
(dp571
Vhardware
p572
VOcteon
p573
sVhardware-long
p574
VCavium Networks Octeon
p575
ss(Vimage
p576
g326
tp577
(dp578
Vinstall-stem
p579
Vvmlinuz
p580
sVsuggests
p581
Vvmelilo, fdutils
p582
ss(Vbase
p583
g44
tp584
(dp585
g8
(lp586
g10
asVkernel-arch
p587
Vmips
p588
ss(Vbase
p589
g36
tp590
(dp591
g8
(lp592
g10
asVkernel-arch
p593
Vmips
p594
ss(Vimage
p595
g147
NVocteon
p596
tp597
(dp598
Vconfigs
p599
(lp600
Vkernelarch-mips/config.octeon
p601
ass(Vbuild
p602
g105
tp603
(dp604
Vimage-file
p605
Varch/sh/boot/zImage
p606
sVsigned-modules
p607
I00
ss(Vabi
p608
NVrt
p609
tp610
(dp611
Vignore-changes
p612
(lp613
V*
p614
ass(Vbuild
p615
g543
tp616
(dp617
Vimage-file
p618
Varch/alpha/boot/vmlinux.gz
p619
sVsigned-modules
p620
I00
ss(Vbase
p621
tp622
(dp623
Vcompiler
p624
Vgcc-5
p625
sVfeaturesets
p626
(lp627
Vnone
p628
aVrt
p629
asVarches
p630
(lp631
Valpha
p632
aVamd64
p633
aVarm64
p634
aVarmel
p635
aVarmhf
p636
aVhppa
p637
aVi386
p638
aVm68k
p639
aVmips
p640
aVmipsel
p641
aVmips64
p642
aVmips64el
p643
aVor1k
p644
aVpowerpc
p645
aVpowerpcspe
p646
aVppc64
p647
aVppc64el
p648
aVs390
p649
aVs390x
p650
aVsh4
p651
aVsparc
p652
aVsparc64
p653
aVx32
p654
ass(Vimage
p655
g268
tp656
(dp657
Vconfigs
p658
(lp659
Vkernelarch-arm/config
p660
asVsuggests
p661
Vfdutils
p662
sVinstall-stem
p663
Vvmlinuz
p664
ss(Vbase
p665
g198
tp666
(dp667
g8
(lp668
g10
asVkernel-arch
p669
Vpowerpc
p670
ss(Vdescription
p671
g21
NVocteon
p672
tp673
(dp674
Vhardware
p675
VOcteon
p676
sVhardware-long
p677
VCavium Networks Octeon
p678
ss(g27
g21
g10
tp679
(dp680
g30
(lp681
V4kc-malta
p682
aV5kc-malta
p683
aVocteon
p684
asg34
I01
ss(Vdescription
p685
g543
NValpha-smp
p686
tp687
(dp688
Vhardware
p689
VAlpha SMP
p690
sVhardware-long
p691
VDEC Alpha SMP systems with extended kernel start address (Wildfire, Titan, Marvel)
p692
ss(Vbase
p693
g543
tp694
(dp695
g8
(lp696
g10
asVkernel-arch
p697
Valpha
p698
ss(Vimage
p699
g5
tp700
(dp701
Vinstall-stem
p702
Vvmlinux
p703
sVsuggests
p704
Vpalo
p705
ss(Vxen
p706
g295
Vnone
p707
Vamd64
p708
tp709
(dp710
Vflavours
p711
(lp712
Vamd64
p713
ass(Vimage
p714
g36
NVocteon
p715
tp716
(dp717
Vconfigs
p718
(lp719
Vkernelarch-mips/config.octeon
p720
ass(Vimage
p721
g295
NVamd64
p722
tp723
(dp724
Vconfigs
p725
(lp726
Vkernelarch-x86/config-arch-64
p727
ass(Vimage
p728
g161
tp729
(dp730
Vbootloaders
p731
(lp732
Vs390-tools
p733
asVconfigs
p734
(lp735
sVinstall-stem
p736
Vvmlinuz
p737
ss(Vimage
p738
g77
NVarm64
p739
tp740
(dp741
s(Vimage
p742
g14
NVmarvell
p743
tp744
(dp745
Vcheck-size
p746
L2097080L
sVbreaks
p747
Vflash-kernel (<< 3.57~)
p748
sVrecommends
p749
Vu-boot-tools
p750
sVcheck-size-with-dtb
p751
I01
ss(g27
g214
g10
tp752
(dp753
g30
(lp754
Vpowerpcspe
p755
asg34
I01
ss(Vimage
p756
g21
tp757
(dp758
Vinstall-stem
p759
Vvmlinux
p760
ss(Vdescription
p761
g355
NVpowerpc64
p762
tp763
(dp764
Vhardware
p765
V64-bit PowerPC
p766
ss(Vrelations
p767
g5
tp768
(dp769
Vgcc-5
p770
Vgcc-5 <!stage1>, binutils-hppa64-linux-gnu <!stage1>, gcc-5-hppa64-linux-gnu <!stage1>
p771
ss(Vbase
p772
g112
tp773
(dp774
Vfeaturesets
p775
(lp776
Vnone
p777
aVrt
p778
asVkernel-arch
p779
Vx86
p780
ss(Vbuild
p781
g198
tp782
(dp783
Vimage-file
p784
Vvmlinux
p785
sVvdso
p786
I01
ss(Vimage
p787
g14
tp788
(dp789
Vconfigs
p790
(lp791
Vkernelarch-arm/config
p792
aVarmel/config
p793
asVsuggests
p794
Vfdutils
p795
sVinstall-stem
p796
Vvmlinuz
p797
ss(Vbuild
p798
g112
tp799
(dp800
Vimage-file
p801
Varch/x86/boot/bzImage
p802
sVvdso
p803
I01
ss(Vimage
p804
g355
tp805
(dp806
Vconfigs
p807
(lp808
sVsuggests
p809
Vmkvmlinuz
p810
sVinstall-stem
p811
Vvmlinux
p812
ss(Vdescription
p813
g36
NV5kc-malta
p814
tp815
(dp816
Vhardware
p817
VMIPS Malta
p818
sVhardware-long
p819
VMIPS Malta boards
p820
ss(Vdescription
p821
g147
NV5kc-malta
p822
tp823
(dp824
Vhardware
p825
VMIPS Malta
p826
sVhardware-long
p827
VMIPS Malta boards
p828
ss(Vimage
p829
g69
tp830
(dp831
Vconfigs
p832
(lp833
sVsuggests
p834
Vsilo, fdutils
p835
sVinstall-stem
p836
Vvmlinuz
p837
ss(Vdescription
p838
g529
NVpowerpc64le
p839
tp840
(dp841
Vhardware
p842
VLittle-endian 64-bit PowerPC
p843
ss(Vbase
p844
g295
Vrt
p845
tp846
(dp847
Vflavours
p848
(lp849
Vamd64
p850
ass(Vimage
p851
g147
tp852
(dp853
Vinstall-stem
p854
Vvmlinux
p855
ss(Vimage
p856
g198
tp857
(dp858
Vconfigs
p859
(lp860
sVsuggests
p861
Vmkvmlinuz
p862
sVinstall-stem
p863
Vvmlinux
p864
ss(Vimage
p865
g543
tp866
(dp867
Vinstall-stem
p868
Vvmlinuz
p869
sVsuggests
p870
Vaboot, fdutils
p871
ss(Vimage
p872
g21
NV5kc-malta
p873
tp874
(dp875
Vconfigs
p876
(lp877
Vkernelarch-mips/config.5kc-malta
p878
ass(Vimage
p879
g529
tp880
(dp881
Vconfigs
p882
(lp883
sVsuggests
p884
Vmkvmlinuz
p885
sVinstall-stem
p886
Vvmlinux
p887
ss(Vabi
p888
tp889
(dp890
Vabiname
p891
Vkali1
p892
sVignore-changes
p893
(lp894
Vmodule:sound/hda/*
p895
aVzpci_disable_device
p896
aVzpci_enable_device
p897
aVzpci_stop_device
p898
ass(Vdescription
p899
g112
NV686-pae
p900
tp901
(dp902
Vparts
p903
(lp904
Vpae
p905
asVhardware
p906
Vmodern PCs
p907
sVhardware-long
p908
VPCs with one or more processors supporting PAE
p909
ss(Vdescription
p910
g5
NVparisc64-smp
p911
tp912
(dp913
Vhardware
p914
Vmultiprocessor 64-bit PA-RISC
p915
sVhardware-long
p916
VHP PA-RISC 64-bit SMP systems with support for more than 4 GB RAM
p917
ss(Vbase
p918
g295
g707
tp919
(dp920
Vflavours
p921
(lp922
Vamd64
p923
ass(Vdescription
p924
g105
NVsh7751r
p925
tp926
(dp927
Vhardware
p928
Vsh7751r
p929
sVhardware-long
p930
VRenesas SH7751R R2D plus board
p931
ss(Vbase
p932
g105
tp933
(dp934
g8
(lp935
g10
asVkernel-arch
p936
Vsh
p937
ss(Vbase
p938
Vsparc
p939
tp940
(dp941
Vfeaturesets
p942
(lp943
sVkernel-arch
p944
Vsparc
p945
ss(Vrelations
p946
g295
tp947
(dp948
Vheaders%gcc-5
p949
Vlinux-compiler-gcc-5-x86
p950
ss(Vbuild
p951
g36
tp952
(dp953
Vimage-file
p954
Vvmlinux
p955
sVsigned-modules
p956
I00
ss(Vdescription
p957
g268
NVarmmp
p958
tp959
(dp960
Vhardware
p961
VARMv7 multiplatform compatible SoCs
p962
sVhardware-long
p963
VARMv7 multiplatform kernel. See\u000ahttps://wiki.debian.org/DebianKernel/ARMMP for details of supported\u000aplatforms
p964
ss(g27
g36
g10
tp965
(dp966
g30
(lp967
V5kc-malta
p968
aVocteon
p969
asg34
I01
ss(Vdescription
p970
g295
g707
Vamd64
p971
tp972
(dp973
Vparts
p974
(lp975
Vxen
p976
ass(g27
g543
g10
tp977
(dp978
g30
(lp979
Valpha-generic
p980
aValpha-smp
p981
asg34
I01
ss(Vimage
p982
g268
NVarmmp-lpae
p983
tp984
(dp985
Vconfigs
p986
(lp987
Varmhf/config.armmp
p988
aVarmhf/config.lpae
p989
ass(Vdescription
p990
g14
NVmarvell
p991
tp992
(dp993
Vhardware
p994
VMarvell Kirkwood/Orion
p995
sVhardware-long
p996
VMarvell Kirkwood based systems (SheevaPlug, QNAP TS-119/TS-219, etc)\u000aand Orion 5181, 5182 and 5281 based systems (QNAP TS-109/TS-209, etc)
p997
ss(Vbuild
p998
g355
tp999
(dp1000
Vimage-file
p1001
Vvmlinux
p1002
sVsigned-modules
p1003
I00
sVvdso
p1004
I01
ss(Vimage
p1005
g105
tp1006
(dp1007
Vinstall-stem
p1008
Vvmlinuz
p1009
sVsuggests
p1010
Vfdutils
p1011
ss(Vdescription
p1012
Ng609
tp1013
(dp1014
Vparts
p1015
(lp1016
Vrt
p1017
asVpart-short-rt
p1018
VPREEMPT_RT
p1019
sVpart-long-rt
p1020
VThis kernel includes the PREEMPT_RT realtime patch set.
p1021
ss(Vimage
p1022
g295
tp1023
(dp1024
Vbootloaders
p1025
(lp1026
Vgrub-pc
p1027
aVgrub-efi
p1028
aVextlinux
p1029
asVconfigs
p1030
(lp1031
sVbreaks
p1032
Vxserver-xorg-input-vmmouse (<< 1:13.0.99)
p1033
sVinstall-stem
p1034
Vvmlinuz
p1035
ss(Vversion
p1036
tp1037
(dp1038
Vabiname_base
p1039
V4.5.0
p1040
sVabiname
p1041
V4.5.0-kali1
p1042
sVsource
p1043
V4.5.3-2kali1
p1044
sVupstream
p1045
V4.5
p1046
ss(Vdescription
p1047
g112
tp1048
(dp1049
Vpart-long-pae
p1050
VThis kernel requires PAE (Physical Address Extension).\u000aThis feature is supported by the Intel Pentium Pro/II/III/4/4M/D, Xeon,\u000aCore and Atom; AMD Geode NX, Athlon (K7), Duron, Opteron, Sempron,\u000aTurion or Phenom; Transmeta Efficeon; VIA C7; and some other processors.
p1051
ss(Vdescription
p1052
tp1053
(dp1054
Vpart-long-up
p1055
VThis kernel is not suitable for SMP (multi-processor,\u000amulti-core or hyper-threaded) systems.
p1056
sVpart-long-xen
p1057
VThis kernel also runs on a Xen hypervisor.\u000aIt supports both privileged (dom0) and unprivileged (domU) operation.
p1058
ss(Vdescription
p1059
g112
g134
V686-pae
p1060
tp1061
(dp1062
Vparts
p1063
(lp1064
Vxen
p1065
ass(Vbase
p1066
g529
tp1067
(dp1068
g8
(lp1069
g10
asVkernel-arch
p1070
Vpowerpc
p1071
ss(Vbase
p1072
g161
tp1073
(dp1074
g8
(lp1075
g10
asVkernel-arch
p1076
Vs390
p1077
ss(Vimage
p1078
g21
NVocteon
p1079
tp1080
(dp1081
Vconfigs
p1082
(lp1083
Vkernelarch-mips/config.octeon
p1084
ass(g27
g268
g10
tp1085
(dp1086
g30
(lp1087
Varmmp
p1088
aVarmmp-lpae
p1089
asg34
I01
ss(Vimage
p1090
g69
NVsparc64-smp
p1091
tp1092
(dp1093
Vconfigs
p1094
(lp1095
Vkernelarch-sparc/config-smp
p1096
ass(Vbuild
p1097
g44
tp1098
(dp1099
Vimage-file
p1100
Vvmlinux
p1101
sVsigned-modules
p1102
I00
ss(Vdescription
p1103
g21
NV5kc-malta
p1104
tp1105
(dp1106
Vhardware
p1107
VMIPS Malta (64-bit)
p1108
sVhardware-long
p1109
VMIPS Malta boards (64-bit)
p1110
ss(Vbuild
p1111
g161
NVs390x
p1112
tp1113
(dp1114
Vdebug-info
p1115
I01
ss(Vimage
p1116
g44
NV5kc-malta
p1117
tp1118
(dp1119
Vconfigs
p1120
(lp1121
Vkernelarch-mips/config.5kc-malta
p1122
ass(Vbuild
p1123
g77
tp1124
(dp1125
Vdebug-info
p1126
I01
sVimage-file
p1127
Varch/arm64/boot/Image
p1128
sVvdso
p1129
I01
ss(Vbase
p1130
g214
tp1131
(dp1132
g8
(lp1133
g10
asVkernel-arch
p1134
Vpowerpc
p1135
ss(Vbase
p1136
g77
tp1137
(dp1138
Vfeaturesets
p1139
(lp1140
Vnone
p1141
asVkernel-arch
p1142
Varm64
p1143
ss(g27
g529
g10
tp1144
(dp1145
g30
(lp1146
Vpowerpc64le
p1147
asg34
I01
ss(Vbase
p1148
g355
tp1149
(dp1150
g8
(lp1151
g10
asVkernel-arch
p1152
Vpowerpc
p1153
ss(Vimage
p1154
g36
tp1155
(dp1156
Vinstall-stem
p1157
Vvmlinux
p1158
ss(Vdescription
p1159
g105
NVsh7785lcr
p1160
tp1161
(dp1162
Vhardware
p1163
Vsh7785lcr
p1164
sVhardware-long
p1165
VRenesas SH7785 reference board
p1166
ss(Vbase
p1167
g326
tp1168
(dp1169
g8
(lp1170
g10
asVkernel-arch
p1171
Vm68k
p1172
sVcflags
p1173
V-ffreestanding
p1174
ss(Vbuild
p1175
g69
tp1176
(dp1177
Vimage-file
p1178
Varch/sparc/boot/zImage
p1179
sVsigned-modules
p1180
I00
ss(Vbuild
p1181
g112
NV686-pae
p1182
tp1183
(dp1184
Vdebug-info
p1185
I01
ss(Vdescription
p1186
g69
NVsparc64
p1187
tp1188
(dp1189
Vhardware
p1190
Vuniprocessor 64-bit UltraSPARC
p1191
ss(Vimage
p1192
g529
NVpowerpc64le
p1193
tp1194
(dp1195
Vconfigs
p1196
(lp1197
Vkernelarch-powerpc/config-arch-64
p1198
aVkernelarch-powerpc/config-arch-64-le
p1199
ass(Vbase
p1200
g268
tp1201
(dp1202
g8
(lp1203
g10
asVkernel-arch
p1204
Varm
p1205
ss(Vbuild
p1206
g147
tp1207
(dp1208
Vimage-file
p1209
Vvmlinux
p1210
sVsigned-modules
p1211
I00
ss(Vimage
p1212
g355
NVpowerpc64
p1213
tp1214
(dp1215
Vconfigs
p1216
(lp1217
Vkernelarch-powerpc/config-arch-64
p1218
aVkernelarch-powerpc/config-arch-64-be
p1219
ass(Vdescription
p1220
g198
NVpowerpc-smp
p1221
tp1222
(dp1223
Vhardware
p1224
Vmultiprocessor 32-bit PowerPC
p1225
ss(Vdescription
p1226
g44
NVloongson-2e
p1227
tp1228
(dp1229
Vhardware
p1230
VLoongson 2E
p1231
sVhardware-long
p1232
VLemote Loongson 2E systems
p1233
sstp1234
Rp1235
.