ccopy_reg
_reconstructor
p0
(cdebian_linux.config
ConfigCore
p1
c__builtin__
dict
p2
(dp3
(Vdescription
p4
Vamd64
p5
Vnone
p6
Vamd64
p7
tp8
(dp9
Vparts
p10
(lp11
Vxen
p12
ass(Vdescription
p13
Vpowerpcspe
p14
tp15
(dp16
Vhardware
p17
V32-bit PowerPC with SPE (instead of AltiVec) with SMP support
p18
ss(Vbuild
p19
Vmips64
p20
tp21
(dp22
Vimage-file
p23
Vvmlinux
p24
ss(Vbuild
p25
Vhppa
p26
tp27
(dp28
Vimage-file
p29
Vvmlinux
p30
ss(Vimage
p31
Valpha
p32
tp33
(dp34
Vinstall-stem
p35
Vvmlinuz
p36
sVsuggests
p37
Vaboot, fdutils
p38
ss(Vimage
p39
Vmips
p40
tp41
(dp42
Vinstall-stem
p43
Vvmlinux
p44
ss(Vbase
p45
Vppc64el
p46
tp47
(dp48
Vkernel-arch
p49
Vpowerpc
p50
sVfeaturesets
p51
(lp52
Vnone
p53
ass(Vimage
p54
Vi386
p55
tp56
(dp57
Vconfigs
p58
(lp59
sVbreaks
p60
Vxserver-xorg-input-vmmouse (<< 1:13.0.99)
p61
sVinstall-stem
p62
Vvmlinuz
p63
sVbootloaders
p64
(lp65
Vgrub-pc
p66
aVextlinux
p67
ass(Vdescription
p68
Vpowerpc
p69
NVpowerpc-smp
p70
tp71
(dp72
Vhardware
p73
Vmultiprocessor 32-bit PowerPC
p74
ss(Vdescription
p75
Varmel
p76
NVversatile
p77
tp78
(dp79
Vhardware-long
p80
VVersatile systems (PB, AB, Qemu)
p81
sVhardware
p82
VVersatile
p83
ss(Vimage
p84
g20
NV5kc-malta
p85
tp86
(dp87
Vconfigs
p88
(lp89
Vkernelarch-mips/config.5kc-malta
p90
ass(Vdescription
p91
g55
tp92
(dp93
Vpart-long-pae
p94
VThis kernel requires PAE (Physical Address Extension).\u000aThis feature is supported by the Intel Pentium Pro/II/III/4/4M/D, Xeon,\u000aCore and Atom; AMD Geode NX, Athlon (K7), Duron, Opteron, Sempron,\u000aTurion or Phenom; Transmeta Efficeon; VIA C7; and some other processors.
p95
ss(Vbase
p96
Vmipsel
p97
g53
tp98
(dp99
Vimplicit-flavour
p100
I01
sVflavours
p101
(lp102
V4kc-malta
p103
aV5kc-malta
p104
aVloongson-2e
p105
aVloongson-2f
p106
aVloongson-3
p107
ass(Vbase
p108
g55
tp109
(dp110
Vfeaturesets
p111
(lp112
Vnone
p113
aVrt
p114
asVcompiler
p115
Vgcc-5
p116
sVkernel-arch
p117
Vx86
p118
ss(Vbase
p119
g26
NVparisc64-smp
p120
tp121
(dp122
Vcflags
p123
V-fno-cse-follow-jumps
p124
sVoverride-host-type
p125
Vhppa64-linux-gnu
p126
ss(Vbase
p127
Varm64
p128
tp129
(dp130
Vkernel-arch
p131
Varm64
p132
sVfeaturesets
p133
(lp134
Vnone
p135
ass(Vdescription
p136
Vmips64el
p137
NV5kc-malta
p138
tp139
(dp140
Vhardware-long
p141
VMIPS Malta boards
p142
sVhardware
p143
VMIPS Malta
p144
ss(Vbase
p145
g5
Vrt
p146
tp147
(dp148
Vflavours
p149
(lp150
Vamd64
p151
ass(Vbase
p152
g20
tp153
(dp154
Vkernel-arch
p155
Vmips
p156
sg51
(lp157
g53
ass(Vdescription
p158
g97
NVloongson-2f
p159
tp160
(dp161
Vhardware-long
p162
VLemote Loongson 2F systems
p163
sVhardware
p164
VLoongson 2F
p165
ss(Vbase
p166
g5
tp167
(dp168
Vfeaturesets
p169
(lp170
Vnone
p171
aVrt
p172
asVcompiler
p173
Vgcc-5
p174
sVkernel-arch
p175
Vx86
p176
ss(Vrelations
p177
Varmhf
p178
tp179
(dp180
Vheaders%gcc-4.9
p181
Vlinux-compiler-gcc-4.9-arm
p182
ss(Vabi
p183
NVrt
p184
tp185
(dp186
Vignore-changes
p187
(lp188
V*
p189
ass(Vimage
p190
g97
NV5kc-malta
p191
tp192
(dp193
Vconfigs
p194
(lp195
Vkernelarch-mips/config.5kc-malta
p196
ass(Vimage
p197
g97
NVloongson-3
p198
tp199
(dp200
Vconfigs
p201
(lp202
Vkernelarch-mips/config.loongson-3
p203
ass(Vdescription
p204
Ng184
tp205
(dp206
Vparts
p207
(lp208
Vrt
p209
asVpart-long-rt
p210
VThis kernel includes the PREEMPT_RT realtime patch set.
p211
sVpart-short-rt
p212
VPREEMPT_RT
p213
ss(Vrelations
p214
g5
tp215
(dp216
Vheaders%gcc-5
p217
Vlinux-compiler-gcc-5-x86
p218
ss(g96
Vsh4
p219
g53
tp220
(dp221
g100
I01
sg101
(lp222
Vsh7751r
p223
aVsh7785lcr
p224
ass(Vdescription
p225
Vs390x
p226
NVs390x
p227
tp228
(dp229
Vhardware
p230
VIBM zSeries
p231
ss(Vimage
p232
g97
NVloongson-2e
p233
tp234
(dp235
Vconfigs
p236
(lp237
Vkernelarch-mips/config.loongson-2e
p238
ass(Vabi
p239
g226
tp240
(dp241
Vignore-changes
p242
(lp243
Vmodule:arch/s390/kvm/kvm
p244
ass(Vimage
p245
g226
NVs390x
p246
tp247
(dp248
Vconfigs
p249
(lp250
Vkernelarch-s390/config-arch-64
p251
ass(g96
g14
g53
tp252
(dp253
g100
I01
sg101
(lp254
Vpowerpcspe
p255
ass(Vimage
p256
Vsparc64
p257
NVsparc64-smp
p258
tp259
(dp260
Vconfigs
p261
(lp262
Vkernelarch-sparc/config-smp
p263
ass(Vimage
p264
g5
NVamd64
p265
tp266
(dp267
Vconfigs
p268
(lp269
Vkernelarch-x86/config-arch-64
p270
ass(Vbase
p271
g32
tp272
(dp273
Vkernel-arch
p274
Valpha
p275
sg51
(lp276
g53
ass(g96
g69
g53
tp277
(dp278
g100
I01
sg101
(lp279
Vpowerpc
p280
aVpowerpc-smp
p281
aVpowerpc64
p282
ass(Vdescription
p283
g26
NVparisc64-smp
p284
tp285
(dp286
Vhardware-long
p287
VHP PA-RISC 64-bit SMP systems with support for more than 4 GB RAM
p288
sVhardware
p289
Vmultiprocessor 64-bit PA-RISC
p290
ss(Vimage
p291
g69
NVpowerpc64
p292
tp293
(dp294
Vconfigs
p295
(lp296
Vkernelarch-powerpc/config-arch-64
p297
aVkernelarch-powerpc/config-arch-64-be
p298
ass(Vimage
p299
Vppc64
p300
tp301
(dp302
Vconfigs
p303
(lp304
sVinstall-stem
p305
Vvmlinux
p306
sVsuggests
p307
Vmkvmlinuz
p308
ss(Vdescription
p309
g32
NValpha-smp
p310
tp311
(dp312
Vhardware-long
p313
VDEC Alpha SMP systems with extended kernel start address (Wildfire, Titan, Marvel)
p314
sVhardware
p315
VAlpha SMP
p316
ss(Vbase
p317
g226
tp318
(dp319
Vkernel-arch
p320
Vs390
p321
sg51
(lp322
g53
ass(Vbase
p323
tp324
(dp325
Varches
p326
(lp327
Valpha
p328
aVamd64
p329
aVarm64
p330
aVarmel
p331
aVarmhf
p332
aVhppa
p333
aVi386
p334
aVm68k
p335
aVmips
p336
aVmipsel
p337
aVmips64
p338
aVmips64el
p339
aVor1k
p340
aVpowerpc
p341
aVpowerpcspe
p342
aVppc64
p343
aVppc64el
p344
aVs390
p345
aVs390x
p346
aVsh4
p347
aVsparc
p348
aVsparc64
p349
aVx32
p350
asVfeaturesets
p351
(lp352
Vnone
p353
aVrt
p354
asVcompiler
p355
Vgcc-4.9
p356
ss(g96
g178
g53
tp357
(dp358
g100
I01
sg101
(lp359
Varmmp
p360
aVarmmp-lpae
p361
ass(Vbase
p362
g97
tp363
(dp364
Vkernel-arch
p365
Vmips
p366
sg51
(lp367
g53
ass(Vbuild
p368
g32
tp369
(dp370
Vimage-file
p371
Varch/alpha/boot/vmlinux.gz
p372
ss(Vimage
p373
g46
tp374
(dp375
Vconfigs
p376
(lp377
sVinstall-stem
p378
Vvmlinux
p379
sVsuggests
p380
Vmkvmlinuz
p381
ss(Vabi
p382
tp383
(dp384
Vabiname
p385
Vkali1
p386
sVignore-changes
p387
(lp388
V__scm_destroy
p389
aV__scm_send
p390
aVscm_detach_fds
p391
aVscm_fp_dup
p392
aVefivar_validate
p393
aVget_thermal_instance
p394
aVinet_csk_reqsk_queue_add
p395
aVtcp_req_err
p396
aVmodule:drivers/gpu/drm/drm_kms_helper
p397
aVmodule:drivers/hv/hv_vmbus
p398
aVmodule:drivers/md/dm-snapshot
p399
aVmodule:drivers/mmc/host/sdhci
p400
aVmodule:net/ceph/libceph
p401
ass(Vdescription
p402
g137
NVocteon
p403
tp404
(dp405
Vhardware-long
p406
VCavium Networks Octeon
p407
sVhardware
p408
VOcteon
p409
ss(g96
g300
g53
tp410
(dp411
g100
I01
sg101
(lp412
Vpowerpc64
p413
ass(Vimage
p414
g20
NVocteon
p415
tp416
(dp417
Vconfigs
p418
(lp419
Vkernelarch-mips/config.octeon
p420
ass(Vdescription
p421
g20
NV5kc-malta
p422
tp423
(dp424
Vhardware-long
p425
VMIPS Malta boards
p426
sVhardware
p427
VMIPS Malta
p428
ss(Vbase
p429
NVrt
p430
tp431
(dp432
Venabled
p433
I00
ss(Vbuild
p434
g257
tp435
(dp436
Vimage-file
p437
Varch/sparc/boot/zImage
p438
ss(Vbase
p439
g55
Vrt
p440
tp441
(dp442
Vflavours
p443
(lp444
V686-pae
p445
ass(Vdescription
p446
tp447
(dp448
Vpart-long-up
p449
VThis kernel is not suitable for SMP (multi-processor,\u000amulti-core or hyper-threaded) systems.
p450
sVpart-long-xen
p451
VThis kernel also runs on a Xen hypervisor.\u000aIt supports both privileged (dom0) and unprivileged (domU) operation.
p452
ss(Vimage
p453
g14
tp454
(dp455
Vinstall-stem
p456
Vvmlinux
p457
sVsuggests
p458
Vmkvmlinuz
p459
ss(Vbase
p460
g5
g6
tp461
(dp462
Vflavours
p463
(lp464
Vamd64
p465
ass(Vxen
p466
g5
g6
Vamd64
p467
tp468
(dp469
Vflavours
p470
(lp471
Vamd64
p472
ass(g96
g32
g53
tp473
(dp474
g100
I01
sg101
(lp475
Valpha-generic
p476
aValpha-smp
p477
ass(Vimage
p478
g69
NVpowerpc-smp
p479
tp480
(dp481
Vconfigs
p482
(lp483
Vpowerpc/config.powerpc
p484
aVpowerpc/config.powerpc-smp
p485
ass(Vimage
p486
g69
tp487
(dp488
Vconfigs
p489
(lp490
sVinstall-stem
p491
Vvmlinux
p492
sVsuggests
p493
Vmkvmlinuz
p494
ss(Vbase
p495
g55
Vnone
p496
tp497
(dp498
Vflavours
p499
(lp500
V686
p501
aV686-pae
p502
ass(Vimage
p503
g97
NVloongson-2f
p504
tp505
(dp506
Vconfigs
p507
(lp508
Vkernelarch-mips/config.loongson-2f
p509
asVrecommends
p510
Vlibc6-loongson2f
p511
ss(Vdescription
p512
g69
NVpowerpc64
p513
tp514
(dp515
Vhardware
p516
V64-bit PowerPC
p517
ss(Vdescription
p518
g40
NVocteon
p519
tp520
(dp521
Vhardware-long
p522
VCavium Networks Octeon
p523
sVhardware
p524
VOcteon
p525
ss(Vimage
p526
g137
tp527
(dp528
Vinstall-stem
p529
Vvmlinux
p530
ss(Vimage
p531
g178
NVarmmp-lpae
p532
tp533
(dp534
Vconfigs
p535
(lp536
Varmhf/config.armmp
p537
aVarmhf/config.lpae
p538
ass(Vimage
p539
g97
NV4kc-malta
p540
tp541
(dp542
Vconfigs
p543
(lp544
Vkernelarch-mips/config.4kc-malta
p545
ass(Vbase
p546
g137
tp547
(dp548
Vkernel-arch
p549
Vmips
p550
sg51
(lp551
g53
ass(g96
g76
g53
tp552
(dp553
g100
I01
sg101
(lp554
Vmarvell
p555
aVversatile
p556
ass(Vdescription
p557
g46
NVpowerpc64le
p558
tp559
(dp560
Vhardware
p561
VLittle-endian 64-bit PowerPC
p562
ss(Vbase
p563
g128
Vnone
p564
tp565
(dp566
Vflavours
p567
(lp568
Varm64
p569
ass(Vimage
p570
g40
NV5kc-malta
p571
tp572
(dp573
Vconfigs
p574
(lp575
Vkernelarch-mips/config.5kc-malta
p576
ass(Vbuild
p577
g226
NVs390x
p578
tp579
(dp580
Vdebug-info
p581
I01
ss(Vbuild
p582
g14
tp583
(dp584
Vvdso
p585
I01
sVimage-file
p586
Vvmlinux
p587
ss(Vdescription
p588
g219
NVsh7751r
p589
tp590
(dp591
Vhardware-long
p592
VRenesas SH7751R R2D plus board
p593
sVhardware
p594
Vsh7751r
p595
ss(Vimage
p596
g46
NVpowerpc64le
p597
tp598
(dp599
Vconfigs
p600
(lp601
Vkernelarch-powerpc/config-arch-64
p602
aVkernelarch-powerpc/config-arch-64-le
p603
ass(Vbase
p604
Vsparc
p605
tp606
(dp607
Vkernel-arch
p608
Vsparc
p609
sVfeaturesets
p610
(lp611
ss(Vimage
p612
g219
NVsh7785lcr
p613
tp614
(dp615
Vcheck-size
p616
L4194304L
sVrecommends
p617
Vu-boot-tools
p618
ss(Vdescription
p619
g69
NVpowerpc
p620
tp621
(dp622
Vhardware
p623
Vuniprocessor 32-bit PowerPC
p624
ss(g96
g40
g53
tp625
(dp626
g100
I01
sg101
(lp627
V4kc-malta
p628
aV5kc-malta
p629
aVocteon
p630
ass(Vimage
p631
tp632
(dp633
Vinitramfs-generators
p634
(lp635
Vinitramfs-tools
p636
aVinitramfs-fallback
p637
ass(g96
g46
g53
tp638
(dp639
g100
I01
sg101
(lp640
Vpowerpc64le
p641
ass(Vbase
p642
Vs390
p643
tp644
(dp645
Vkernel-arch
p646
Vs390
p647
sVfeaturesets
p648
(lp649
ss(Vimage
p650
g178
tp651
(dp652
Vconfigs
p653
(lp654
Vkernelarch-arm/config
p655
asVinstall-stem
p656
Vvmlinuz
p657
sVsuggests
p658
Vfdutils
p659
ss(Vbuild
p660
g5
tp661
(dp662
Vvdso
p663
I01
sVdebug-info
p664
I01
sVimage-file
p665
Varch/x86/boot/bzImage
p666
ss(Vimage
p667
g5
tp668
(dp669
Vconfigs
p670
(lp671
sVbreaks
p672
Vxserver-xorg-input-vmmouse (<< 1:13.0.99)
p673
sVinstall-stem
p674
Vvmlinuz
p675
sVbootloaders
p676
(lp677
Vgrub-pc
p678
aVgrub-efi
p679
aVextlinux
p680
ass(Vbuild
p681
g55
NV686-pae
p682
tp683
(dp684
Vdebug-info
p685
I01
ss(Vbuild
p686
g137
tp687
(dp688
Vimage-file
p689
Vvmlinux
p690
ss(Vimage
p691
g55
NV686
p692
tp693
(dp694
Vconfigs
p695
(lp696
Vkernelarch-x86/config-arch-32
p697
aVi386/config.686
p698
asVrecommends
p699
Vlibc6-i686
p700
ss(Vimage
p701
g55
NV686-pae
p702
tp703
(dp704
Vconfigs
p705
(lp706
Vkernelarch-x86/config-arch-32
p707
aVi386/config.686-pae
p708
asVrecommends
p709
Vlibc6-i686
p710
ss(Vbuild
p711
g76
tp712
(dp713
Vimage-file
p714
Varch/arm/boot/zImage
p715
ss(Vdescription
p716
g178
NVarmmp
p717
tp718
(dp719
Vhardware-long
p720
VARMv7 multiplatform kernel. See\u000ahttps://wiki.debian.org/DebianKernel/ARMMP for details of supported\u000aplatforms
p721
sVhardware
p722
VARMv7 multiplatform compatible SoCs
p723
ss(Vimage
p724
g76
NVmarvell
p725
tp726
(dp727
Vcheck-size-with-dtb
p728
I01
sVcheck-size
p729
L2097080L
sVrecommends
p730
Vu-boot-tools
p731
sVbreaks
p732
Vflash-kernel (<< 3.57~)
p733
ss(Vbuild
p734
g69
tp735
(dp736
Vvdso
p737
I01
sVimage-file
p738
Vvmlinux
p739
ss(Vbase
p740
Vm68k
p741
tp742
(dp743
Vcflags
p744
V-ffreestanding
p745
sVcompiler
p746
Vgcc-4.8
p747
sg51
(lp748
g53
asVkernel-arch
p749
Vm68k
p750
ss(Vimage
p751
g226
tp752
(dp753
Vconfigs
p754
(lp755
sVinstall-stem
p756
Vvmlinuz
p757
sVbootloaders
p758
(lp759
Vs390-tools
p760
ass(Vimage
p761
g137
NVocteon
p762
tp763
(dp764
Vconfigs
p765
(lp766
Vkernelarch-mips/config.octeon
p767
ass(Vbase
p768
g14
tp769
(dp770
Vkernel-arch
p771
Vpowerpc
p772
sg51
(lp773
g53
ass(Vbuild
p774
g226
tp775
(dp776
Vvdso
p777
I01
sVimage-file
p778
Varch/s390/boot/image
p779
ss(Vdescription
p780
g55
NV686-pae
p781
tp782
(dp783
Vparts
p784
(lp785
Vpae
p786
asVhardware-long
p787
VPCs with one or more processors supporting PAE
p788
sVhardware
p789
Vmodern PCs
p790
ss(Vdescription
p791
g97
NVloongson-2e
p792
tp793
(dp794
Vhardware-long
p795
VLemote Loongson 2E systems
p796
sVhardware
p797
VLoongson 2E
p798
ss(Vbase
p799
g178
tp800
(dp801
Vkernel-arch
p802
Varm
p803
sg51
(lp804
g53
ass(g96
g20
g53
tp805
(dp806
g100
I01
sg101
(lp807
V5kc-malta
p808
aVocteon
p809
ass(Vrelations
p810
tp811
(dp812
Vgcc-4.8
p813
Vgcc-4.8 <!stage1>
p814
sVgcc-4.9
p815
Vgcc-4.9 <!stage1>
p816
sVinitramfs-tools
p817
Vinitramfs-tools (>= 0.110~)
p818
sVgcc-5
p819
Vgcc-5 <!stage1>
p820
sVinitramfs-fallback
p821
Vlinux-initramfs-tool
p822
ss(Vbase
p823
g26
tp824
(dp825
Vkernel-arch
p826
Vparisc
p827
sg51
(lp828
g53
ass(g96
g226
g53
tp829
(dp830
g100
I01
sg101
(lp831
Vs390x
p832
ass(Vimage
p833
g76
tp834
(dp835
Vconfigs
p836
(lp837
Vkernelarch-arm/config
p838
aVarmel/config
p839
asVinstall-stem
p840
Vvmlinuz
p841
sVsuggests
p842
Vfdutils
p843
ss(Vdescription
p844
g128
NVarm64
p845
tp846
(dp847
Vhardware
p848
V64-bit ARMv8 machines
p849
ss(g96
g741
g53
tp850
(dp851
g100
I01
sg101
(lp852
Vm68k
p853
ass(Vdescription
p854
g178
NVarmmp-lpae
p855
tp856
(dp857
Vhardware-long
p858
VARMv7 multiplatform kernel supporting LPAE. See\u000ahttps://wiki.debian.org/DebianKernel/ARMMP for details of supported\u000aplatforms.
p859
sVhardware
p860
VARMv7 multiplatform compatible SoCs supporting LPAE
p861
ss(Vdescription
p862
g257
NVsparc64-smp
p863
tp864
(dp865
Vhardware
p866
Vmultiprocessor 64-bit UltraSPARC
p867
ss(Vbuild
p868
g97
tp869
(dp870
Vimage-file
p871
Vvmlinux
p872
ss(Vrelations
p873
g76
tp874
(dp875
Vheaders%gcc-4.9
p876
Vlinux-compiler-gcc-4.9-arm
p877
ss(Vimage
p878
g40
NV4kc-malta
p879
tp880
(dp881
Vconfigs
p882
(lp883
Vkernelarch-mips/config.4kc-malta
p884
ass(Vbase
p885
g69
tp886
(dp887
Vkernel-arch
p888
Vpowerpc
p889
sg51
(lp890
g53
ass(Vimage
p891
g128
tp892
(dp893
Vinstall-stem
p894
Vvmlinuz
p895
ss(Vbase
p896
g257
tp897
(dp898
Vkernel-arch
p899
Vsparc
p900
sg51
(lp901
g53
ass(Vimage
p902
g137
NV5kc-malta
p903
tp904
(dp905
Vconfigs
p906
(lp907
Vkernelarch-mips/config.5kc-malta
p908
ass(Vbase
p909
g76
tp910
(dp911
Vkernel-arch
p912
Varm
p913
sg51
(lp914
g53
ass(Vimage
p915
g40
NVocteon
p916
tp917
(dp918
Vconfigs
p919
(lp920
Vkernelarch-mips/config.octeon
p921
ass(g96
g257
g53
tp922
(dp923
g100
I01
sg101
(lp924
Vsparc64
p925
aVsparc64-smp
p926
ass(Vdescription
p927
g55
g496
V686-pae
p928
tp929
(dp930
Vparts
p931
(lp932
Vxen
p933
ass(Vimage
p934
g741
tp935
(dp936
Vinstall-stem
p937
Vvmlinuz
p938
sVsuggests
p939
Vvmelilo, fdutils
p940
ss(Vrelations
p941
g55
tp942
(dp943
Vheaders%gcc-5
p944
Vlinux-compiler-gcc-5-x86
p945
ss(Vbuild
p946
g178
tp947
(dp948
Vvdso
p949
I01
sVimage-file
p950
Varch/arm/boot/zImage
p951
ss(Vdescription
p952
g26
NVparisc
p953
tp954
(dp955
Vhardware-long
p956
VHP PA-RISC 32-bit systems with max 4 GB RAM
p957
sVhardware
p958
V32-bit PA-RISC
p959
ss(Vdescription
p960
g40
NV5kc-malta
p961
tp962
(dp963
Vhardware-long
p964
VMIPS Malta boards (64-bit)
p965
sVhardware
p966
VMIPS Malta (64-bit)
p967
ss(Vbase
p968
g219
tp969
(dp970
Vkernel-arch
p971
Vsh
p972
sg51
(lp973
g53
ass(Vdescription
p974
g300
NVpowerpc64
p975
tp976
(dp977
Vhardware
p978
V64-bit PowerPC
p979
ss(Vimage
p980
g137
NVloongson-3
p981
tp982
(dp983
Vconfigs
p984
(lp985
Vkernelarch-mips/config.loongson-3
p986
ass(Vbuild
p987
g55
tp988
(dp989
Vvdso
p990
I01
sVimage-file
p991
Varch/x86/boot/bzImage
p992
ss(Vbuild
p993
g128
tp994
(dp995
Vvdso
p996
I01
sVdebug-info
p997
I01
sVimage-file
p998
Varch/arm64/boot/Image
p999
ss(Vdescription
p1000
g137
NVloongson-3
p1001
tp1002
(dp1003
Vhardware-long
p1004
VLoongson 3A or 3B based systems (e.g. from Loongson or Lemote)
p1005
sVhardware
p1006
VLoongson 3A/3B
p1007
ss(Vversion
p1008
tp1009
(dp1010
Vupstream
p1011
V4.4
p1012
sVabiname
p1013
V4.4.0-kali1
p1014
sVabiname_base
p1015
V4.4.0
p1016
sVsource
p1017
V4.4.4-1kali1
p1018
ss(Vimage
p1019
g300
NVpowerpc64
p1020
tp1021
(dp1022
Vconfigs
p1023
(lp1024
Vkernelarch-powerpc/config-arch-64
p1025
aVkernelarch-powerpc/config-arch-64-be
p1026
ass(Vrelations
p1027
g226
tp1028
(dp1029
Vheaders%gcc-4.9
p1030
Vlinux-compiler-gcc-4.9-s390
p1031
ss(Vbuild
p1032
g741
tp1033
(dp1034
Vimage-file
p1035
Vvmlinux.gz
p1036
ss(Vdescription
p1037
g5
NVamd64
p1038
tp1039
(dp1040
Vhardware-long
p1041
VPCs with AMD64, Intel 64 or VIA Nano processors
p1042
sVhardware
p1043
V64-bit PCs
p1044
ss(Vbuild
p1045
g219
tp1046
(dp1047
Vimage-file
p1048
Varch/sh/boot/zImage
p1049
ss(Vdescription
p1050
g40
NV4kc-malta
p1051
tp1052
(dp1053
Vhardware-long
p1054
VMIPS Malta boards
p1055
sVhardware
p1056
VMIPS Malta
p1057
ss(Vimage
p1058
g219
tp1059
(dp1060
Vinstall-stem
p1061
Vvmlinuz
p1062
sVsuggests
p1063
Vfdutils
p1064
ss(Vdescription
p1065
g741
NVm68k
p1066
tp1067
(dp1068
Vhardware
p1069
VMotorola MC68020+ family
p1070
ss(Vimage
p1071
g128
NVarm64
p1072
tp1073
(dp1074
s(Vbase
p1075
g300
tp1076
(dp1077
Vkernel-arch
p1078
Vpowerpc
p1079
sg51
(lp1080
g53
ass(Vimage
p1081
g257
NVsparc64
p1082
tp1083
(dp1084
Vconfigs
p1085
(lp1086
Vkernelarch-sparc/config-up
p1087
ass(Vimage
p1088
g26
tp1089
(dp1090
Vinstall-stem
p1091
Vvmlinux
p1092
sVsuggests
p1093
Vpalo
p1094
ss(Vimage
p1095
g257
tp1096
(dp1097
Vconfigs
p1098
(lp1099
sVinstall-stem
p1100
Vvmlinuz
p1101
sVsuggests
p1102
Vsilo, fdutils
p1103
ss(Vdescription
p1104
g97
NV5kc-malta
p1105
tp1106
(dp1107
Vhardware-long
p1108
VMIPS Malta boards (64-bit)
p1109
sVhardware
p1110
VMIPS Malta (64-bit)
p1111
ss(Vimage
p1112
g97
tp1113
(dp1114
Vinstall-stem
p1115
Vvmlinux
p1116
ss(Vbuild
p1117
g46
tp1118
(dp1119
Vvdso
p1120
I01
sVimage-file
p1121
Vvmlinux
p1122
ss(Vbuild
p1123
g40
tp1124
(dp1125
Vimage-file
p1126
Vvmlinux
p1127
ss(Vdescription
p1128
g97
NVloongson-3
p1129
tp1130
(dp1131
Vhardware-long
p1132
VLoongson 3A or 3B based systems (e.g. from Loongson or Lemote)
p1133
sVhardware
p1134
VLoongson 3A/3B
p1135
ss(Vdescription
p1136
g55
NV686
p1137
tp1138
(dp1139
Vhardware-long
p1140
VPCs with one or more processors not supporting PAE
p1141
sVhardware
p1142
Volder PCs
p1143
ss(Vdescription
p1144
g219
NVsh7785lcr
p1145
tp1146
(dp1147
Vhardware-long
p1148
VRenesas SH7785 reference board
p1149
sVhardware
p1150
Vsh7785lcr
p1151
ss(Vdescription
p1152
g32
NValpha-generic
p1153
tp1154
(dp1155
Vhardware-long
p1156
VDEC Alpha systems with extended kernel start address (Wildfire, Titan, Marvel)
p1157
sVhardware
p1158
VAlpha
p1159
ss(Vimage
p1160
g20
tp1161
(dp1162
Vinstall-stem
p1163
Vvmlinux
p1164
ss(Vdescription
p1165
g76
NVmarvell
p1166
tp1167
(dp1168
Vhardware-long
p1169
VMarvell Kirkwood based systems (SheevaPlug, QNAP TS-119/TS-219, etc)\u000aand Orion 5181, 5182 and 5281 based systems (QNAP TS-109/TS-209, etc)
p1170
sVhardware
p1171
VMarvell Kirkwood/Orion
p1172
ss(Vdescription
p1173
g20
NVocteon
p1174
tp1175
(dp1176
Vhardware-long
p1177
VCavium Networks Octeon
p1178
sVhardware
p1179
VOcteon
p1180
ss(Vbase
p1181
Vor1k
p1182
tp1183
(dp1184
Vkernel-arch
p1185
Vopenrisc
p1186
sVfeaturesets
p1187
(lp1188
ss(Vbase
p1189
Vx32
p1190
tp1191
(dp1192
Vkernel-arch
p1193
Vx86
p1194
sVfeaturesets
p1195
(lp1196
ss(Vbuild
p1197
g300
tp1198
(dp1199
Vvdso
p1200
I01
sVimage-file
p1201
Vvmlinux
p1202
ss(g96
g26
g53
tp1203
(dp1204
g100
I01
sg101
(lp1205
Vparisc
p1206
aVparisc64-smp
p1207
ass(g96
g137
g53
tp1208
(dp1209
g100
I01
sg101
(lp1210
V5kc-malta
p1211
aVloongson-3
p1212
aVocteon
p1213
ass(Vrelations
p1214
g26
tp1215
(dp1216
Vgcc-4.9
p1217
Vgcc-4.9 <!stage1>, binutils-hppa64 <!stage1>, gcc-4.9-hppa64 <!stage1>
p1218
ss(Vdescription
p1219
g97
NV4kc-malta
p1220
tp1221
(dp1222
Vhardware-long
p1223
VMIPS Malta boards
p1224
sVhardware
p1225
VMIPS Malta
p1226
ss(Vbase
p1227
g40
tp1228
(dp1229
Vkernel-arch
p1230
Vmips
p1231
sg51
(lp1232
g53
ass(Vdescription
p1233
g257
NVsparc64
p1234
tp1235
(dp1236
Vhardware
p1237
Vuniprocessor 64-bit UltraSPARC
p1238
sstp1239
Rp1240
.