ccopy_reg
_reconstructor
p0
(cdebian_linux.config
ConfigCore
p1
c__builtin__
dict
p2
(dp3
(Vbase
p4
Vi386
p5
Vrt
p6
tp7
(dp8
Vflavours
p9
(lp10
V686-pae
p11
ass(Vbuild
p12
Varmel
p13
tp14
(dp15
Vimage-file
p16
Varch/arm/boot/zImage
p17
ss(Vdescription
p18
Vpowerpcspe
p19
tp20
(dp21
Vhardware
p22
V32-bit PowerPC with SPE (instead of AltiVec) with SMP support
p23
ss(Vbase
p24
Vamd64
p25
tp26
(dp27
Vfeaturesets
p28
(lp29
Vnone
p30
aVrt
p31
asVkernel-arch
p32
Vx86
p33
ss(Vbase
p34
Vpowerpc
p35
tp36
(dp37
Vfeaturesets
p38
(lp39
Vnone
p40
asVkernel-arch
p41
Vpowerpc
p42
ss(Vxen
p43
g25
Vnone
p44
Vamd64
p45
tp46
(dp47
Vflavours
p48
(lp49
Vamd64
p50
ass(Vdescription
p51
Varmhf
p52
NVarmmp-lpae
p53
tp54
(dp55
Vhardware
p56
VARMv7 multiplatform compatible SoCs supporting LPAE
p57
sVhardware-long
p58
VARMv7 multiplatform kernel supporting LPAE. See\u000ahttps://wiki.debian.org/DebianKernel/ARMMP for details of supported\u000aplatforms.
p59
ss(Vdescription
p60
Varm64
p61
NVarm64
p62
tp63
(dp64
Vhardware
p65
V64-bit ARMv8 machines
p66
ss(Vbase
p67
Vs390
p68
tp69
(dp70
Vfeaturesets
p71
(lp72
sVkernel-arch
p73
Vs390
p74
ss(Vimage
p75
Vmips64el
p76
NV5kc-malta
p77
tp78
(dp79
Vconfigs
p80
(lp81
Vkernelarch-mips/config.5kc-malta
p82
ass(Vbase
p83
g19
g40
tp84
(dp85
Vflavours
p86
(lp87
Vpowerpcspe
p88
asVimplicit-flavour
p89
I01
ss(Vbuild
p90
Vppc64
p91
tp92
(dp93
Vsigned-modules
p94
I00
sVimage-file
p95
Vvmlinux
p96
sVvdso
p97
I01
ss(Vbuild
p98
Vsh4
p99
tp100
(dp101
Vsigned-modules
p102
I00
sVimage-file
p103
Varch/sh/boot/zImage
p104
ss(Vbuild
p105
Vppc64el
p106
tp107
(dp108
Vimage-file
p109
Vvmlinux
p110
sVvdso
p111
I01
ss(Vdescription
p112
Vmipsel
p113
NVloongson-3
p114
tp115
(dp116
Vhardware
p117
VLoongson 3A/3B
p118
sVhardware-long
p119
VLoongson 3A or 3B based systems (e.g. from Loongson or Lemote)
p120
ss(Vdescription
p121
Vhppa
p122
NVparisc64-smp
p123
tp124
(dp125
Vhardware
p126
Vmultiprocessor 64-bit PA-RISC
p127
sVhardware-long
p128
VHP PA-RISC 64-bit SMP systems with support for more than 4 GB RAM
p129
ss(Vbuild
p130
g52
tp131
(dp132
Vimage-file
p133
Varch/arm/boot/zImage
p134
sVvdso
p135
I01
ss(Vdescription
p136
g99
NVsh7785lcr
p137
tp138
(dp139
Vhardware
p140
Vsh7785lcr
p141
sVhardware-long
p142
VRenesas SH7785 reference board
p143
ss(Vrelations
p144
g5
tp145
(dp146
Vheaders%gcc-5
p147
Vlinux-compiler-gcc-5-x86
p148
ss(Vversion
p149
tp150
(dp151
Vsource
p152
V4.5.2-1
p153
sVabiname
p154
V4.5.0-2
p155
sVabiname_base
p156
V4.5.0
p157
sVupstream
p158
V4.5
p159
ss(Vimage
p160
g113
NV4kc-malta
p161
tp162
(dp163
Vconfigs
p164
(lp165
Vkernelarch-mips/config.4kc-malta
p166
ass(Vdescription
p167
g35
NVpowerpc
p168
tp169
(dp170
Vhardware
p171
Vuniprocessor 32-bit PowerPC
p172
ss(Vdescription
p173
g113
NV5kc-malta
p174
tp175
(dp176
Vhardware
p177
VMIPS Malta (64-bit)
p178
sVhardware-long
p179
VMIPS Malta boards (64-bit)
p180
ss(g83
g35
g40
tp181
(dp182
g86
(lp183
Vpowerpc
p184
aVpowerpc-smp
p185
aVpowerpc64
p186
asg89
I01
ss(Vbase
p187
Vs390x
p188
tp189
(dp190
g38
(lp191
g40
asVkernel-arch
p192
Vs390
p193
ss(Vbase
p194
g25
g44
tp195
(dp196
Vflavours
p197
(lp198
Vamd64
p199
ass(Vdescription
p200
g113
NV4kc-malta
p201
tp202
(dp203
Vhardware
p204
VMIPS Malta
p205
sVhardware-long
p206
VMIPS Malta boards
p207
ss(Vimage
p208
g13
NVmarvell
p209
tp210
(dp211
Vbreaks
p212
Vflash-kernel (<< 3.57~)
p213
sVcheck-size
p214
L2097080L
sVrecommends
p215
Vu-boot-tools
p216
sVcheck-size-with-dtb
p217
I01
ss(g83
g99
g40
tp218
(dp219
g86
(lp220
Vsh7751r
p221
aVsh7785lcr
p222
asg89
I01
ss(Vbase
p223
g52
tp224
(dp225
g38
(lp226
g40
asVkernel-arch
p227
Varm
p228
ss(Vimage
p229
g13
tp230
(dp231
Vconfigs
p232
(lp233
Vkernelarch-arm/config
p234
aVarmel/config
p235
asVsuggests
p236
Vfdutils
p237
sVinstall-stem
p238
Vvmlinuz
p239
ss(Vimage
p240
g76
NVloongson-3
p241
tp242
(dp243
Vconfigs
p244
(lp245
Vkernelarch-mips/config.loongson-3
p246
ass(g83
Vm68k
p247
g40
tp248
(dp249
g86
(lp250
Vm68k
p251
asg89
I01
ss(Vbuild
p252
g5
tp253
(dp254
Vimage-file
p255
Varch/x86/boot/bzImage
p256
sVvdso
p257
I01
ss(Vbuild
p258
g76
tp259
(dp260
Vsigned-modules
p261
I00
sVimage-file
p262
Vvmlinux
p263
ss(Vdescription
p264
g122
NVparisc
p265
tp266
(dp267
Vhardware
p268
V32-bit PA-RISC
p269
sVhardware-long
p270
VHP PA-RISC 32-bit systems with max 4 GB RAM
p271
ss(Vdescription
p272
tp273
(dp274
Vpart-long-xen
p275
VThis kernel also runs on a Xen hypervisor.\u000aIt supports both privileged (dom0) and unprivileged (domU) operation.
p276
sVpart-long-up
p277
VThis kernel is not suitable for SMP (multi-processor,\u000amulti-core or hyper-threaded) systems.
p278
ss(Vdescription
p279
g13
NVmarvell
p280
tp281
(dp282
Vhardware
p283
VMarvell Kirkwood/Orion
p284
sVhardware-long
p285
VMarvell Kirkwood based systems (SheevaPlug, QNAP TS-119/TS-219, etc)\u000aand Orion 5181, 5182 and 5281 based systems (QNAP TS-109/TS-209, etc)
p286
ss(Vbase
p287
g13
tp288
(dp289
g38
(lp290
g40
asVkernel-arch
p291
Varm
p292
ss(g83
g91
g40
tp293
(dp294
g86
(lp295
Vpowerpc64
p296
asg89
I01
ss(Vimage
p297
Vsparc64
p298
tp299
(dp300
Vconfigs
p301
(lp302
sVsuggests
p303
Vsilo, fdutils
p304
sVinstall-stem
p305
Vvmlinuz
p306
ss(Vimage
p307
g106
NVpowerpc64le
p308
tp309
(dp310
Vconfigs
p311
(lp312
Vkernelarch-powerpc/config-arch-64
p313
aVkernelarch-powerpc/config-arch-64-le
p314
ass(Vimage
p315
Vmips64
p316
tp317
(dp318
Vinstall-stem
p319
Vvmlinux
p320
ss(Vbuild
p321
Vmips
p322
tp323
(dp324
Vsigned-modules
p325
I00
sVimage-file
p326
Vvmlinux
p327
ss(Vrelations
p328
tp329
(dp330
Vinitramfs-fallback
p331
Vlinux-initramfs-tool
p332
sVinitramfs-tools
p333
Vinitramfs-tools (>= 0.110~)
p334
sVgcc-5
p335
Vgcc-5 <!stage1>
p336
ss(Vbase
p337
g5
tp338
(dp339
Vfeaturesets
p340
(lp341
Vnone
p342
aVrt
p343
asVkernel-arch
p344
Vx86
p345
ss(Vbase
p346
g298
tp347
(dp348
g38
(lp349
g40
asVkernel-arch
p350
Vsparc
p351
ss(Vimage
p352
g5
NV686
p353
tp354
(dp355
Vconfigs
p356
(lp357
Vkernelarch-x86/config-arch-32
p358
aVi386/config.686
p359
asVrecommends
p360
Vlibc6-i686
p361
ss(Vrelations
p362
g188
tp363
(dp364
Vheaders%gcc-5
p365
Vlinux-compiler-gcc-5-s390
p366
ss(Vbuild
p367
g25
tp368
(dp369
Vvdso
p370
I01
sVdebug-info
p371
I01
sVimage-file
p372
Varch/x86/boot/bzImage
p373
ss(Vbase
p374
Vsparc
p375
tp376
(dp377
Vfeaturesets
p378
(lp379
sVkernel-arch
p380
Vsparc
p381
ss(Vimage
p382
Valpha
p383
tp384
(dp385
Vsuggests
p386
Vaboot, fdutils
p387
sVinstall-stem
p388
Vvmlinuz
p389
ss(Vbase
p390
g25
Vrt
p391
tp392
(dp393
Vflavours
p394
(lp395
Vamd64
p396
ass(Vbuild
p397
g188
tp398
(dp399
Vimage-file
p400
Varch/s390/boot/image
p401
sVvdso
p402
I01
ss(Vimage
p403
tp404
(dp405
Vinitramfs-generators
p406
(lp407
Vinitramfs-tools
p408
aVinitramfs-fallback
p409
ass(Vimage
p410
g316
NVocteon
p411
tp412
(dp413
Vconfigs
p414
(lp415
Vkernelarch-mips/config.octeon
p416
ass(Vabi
p417
NVrt
p418
tp419
(dp420
Vignore-changes
p421
(lp422
V*
p423
ass(Vbase
p424
g247
tp425
(dp426
g38
(lp427
g40
asVcflags
p428
V-ffreestanding
p429
sVkernel-arch
p430
Vm68k
p431
ss(Vrelations
p432
g122
tp433
(dp434
Vgcc-5
p435
Vgcc-5 <!stage1>, binutils-hppa64-linux-gnu <!stage1>, gcc-5-hppa64-linux-gnu <!stage1>
p436
ss(Vbase
p437
Vx32
p438
tp439
(dp440
Vfeaturesets
p441
(lp442
sVkernel-arch
p443
Vx86
p444
ss(Vimage
p445
g113
tp446
(dp447
Vinstall-stem
p448
Vvmlinux
p449
ss(Vimage
p450
g19
tp451
(dp452
Vsuggests
p453
Vmkvmlinuz
p454
sVinstall-stem
p455
Vvmlinux
p456
ss(Vdescription
p457
g316
NV5kc-malta
p458
tp459
(dp460
Vhardware
p461
VMIPS Malta
p462
sVhardware-long
p463
VMIPS Malta boards
p464
ss(Vdescription
p465
g5
NV686
p466
tp467
(dp468
Vhardware
p469
Volder PCs
p470
sVhardware-long
p471
VPCs with one or more processors not supporting PAE
p472
ss(Vimage
p473
g52
NVarmmp-lpae
p474
tp475
(dp476
Vconfigs
p477
(lp478
Varmhf/config.armmp
p479
aVarmhf/config.lpae
p480
ass(Vdescription
p481
g91
NVpowerpc64
p482
tp483
(dp484
Vhardware
p485
V64-bit PowerPC
p486
ss(Vimage
p487
g52
tp488
(dp489
Vconfigs
p490
(lp491
Vkernelarch-arm/config
p492
asVsuggests
p493
Vfdutils
p494
sVinstall-stem
p495
Vvmlinuz
p496
ss(Vimage
p497
g322
NVocteon
p498
tp499
(dp500
Vconfigs
p501
(lp502
Vkernelarch-mips/config.octeon
p503
ass(Vimage
p504
g99
tp505
(dp506
Vsuggests
p507
Vfdutils
p508
sVinstall-stem
p509
Vvmlinuz
p510
ss(g83
g122
g40
tp511
(dp512
g86
(lp513
Vparisc
p514
aVparisc64-smp
p515
asg89
I01
ss(Vbuild
p516
g247
tp517
(dp518
Vsigned-modules
p519
I00
sVimage-file
p520
Vvmlinux.gz
p521
ss(Vbase
p522
g91
tp523
(dp524
g38
(lp525
g40
asVkernel-arch
p526
Vpowerpc
p527
ss(Vbase
p528
g113
tp529
(dp530
g38
(lp531
g40
asVkernel-arch
p532
Vmips
p533
ss(Vbase
p534
g19
tp535
(dp536
g38
(lp537
g40
asVkernel-arch
p538
Vpowerpc
p539
ss(Vbuild
p540
g122
tp541
(dp542
Vsigned-modules
p543
I00
sVimage-file
p544
Vvmlinux
p545
ss(Vimage
p546
g113
NV5kc-malta
p547
tp548
(dp549
Vconfigs
p550
(lp551
Vkernelarch-mips/config.5kc-malta
p552
ass(Vbase
p553
g316
tp554
(dp555
g38
(lp556
g40
asVkernel-arch
p557
Vmips
p558
ss(Vdescription
p559
g106
NVpowerpc64le
p560
tp561
(dp562
Vhardware
p563
VLittle-endian 64-bit PowerPC
p564
ss(Vbase
p565
tp566
(dp567
Varches
p568
(lp569
Valpha
p570
aVamd64
p571
aVarm64
p572
aVarmel
p573
aVarmhf
p574
aVhppa
p575
aVi386
p576
aVm68k
p577
aVmips
p578
aVmipsel
p579
aVmips64
p580
aVmips64el
p581
aVor1k
p582
aVpowerpc
p583
aVpowerpcspe
p584
aVppc64
p585
aVppc64el
p586
aVs390
p587
aVs390x
p588
aVsh4
p589
aVsparc
p590
aVsparc64
p591
aVx32
p592
asVfeaturesets
p593
(lp594
Vnone
p595
aVrt
p596
asVcompiler
p597
Vgcc-5
p598
ss(Vdescription
p599
g35
NVpowerpc64
p600
tp601
(dp602
Vhardware
p603
V64-bit PowerPC
p604
ss(Vdescription
p605
g5
Vnone
p606
V686-pae
p607
tp608
(dp609
Vparts
p610
(lp611
Vxen
p612
ass(Vimage
p613
g298
NVsparc64-smp
p614
tp615
(dp616
Vconfigs
p617
(lp618
Vkernelarch-sparc/config-smp
p619
ass(Vdescription
p620
g316
NVocteon
p621
tp622
(dp623
Vhardware
p624
VOcteon
p625
sVhardware-long
p626
VCavium Networks Octeon
p627
ss(Vbuild
p628
g298
tp629
(dp630
Vsigned-modules
p631
I00
sVimage-file
p632
Varch/sparc/boot/zImage
p633
ss(g83
g316
g40
tp634
(dp635
g86
(lp636
V5kc-malta
p637
aVocteon
p638
asg89
I01
ss(Vimage
p639
g25
NVamd64
p640
tp641
(dp642
Vconfigs
p643
(lp644
Vkernelarch-x86/config-arch-64
p645
ass(Vabi
p646
tp647
(dp648
Vabiname
p649
V2
p650
ss(Vbase
p651
g322
tp652
(dp653
g38
(lp654
g40
asVkernel-arch
p655
Vmips
p656
ss(Vdescription
p657
g383
NValpha-smp
p658
tp659
(dp660
Vhardware
p661
VAlpha SMP
p662
sVhardware-long
p663
VDEC Alpha SMP systems with extended kernel start address (Wildfire, Titan, Marvel)
p664
ss(Vbase
p665
g61
tp666
(dp667
Vfeaturesets
p668
(lp669
Vnone
p670
asVkernel-arch
p671
Varm64
p672
ss(Vbuild
p673
tp674
(dp675
Vsigned-modules
p676
I01
ss(Vimage
p677
g76
tp678
(dp679
Vinstall-stem
p680
Vvmlinux
p681
ss(Vbase
p682
g5
g606
tp683
(dp684
Vflavours
p685
(lp686
V686
p687
aV686-pae
p688
ass(Vdescription
p689
g13
NVversatile
p690
tp691
(dp692
Vhardware
p693
VVersatile
p694
sVhardware-long
p695
VVersatile systems (PB, AB, Qemu)
p696
ss(Vbuild
p697
g113
tp698
(dp699
Vsigned-modules
p700
I00
sVimage-file
p701
Vvmlinux
p702
ss(Vdescription
p703
g383
NValpha-generic
p704
tp705
(dp706
Vhardware
p707
VAlpha
p708
sVhardware-long
p709
VDEC Alpha systems with extended kernel start address (Wildfire, Titan, Marvel)
p710
ss(Vdescription
p711
g76
NVocteon
p712
tp713
(dp714
Vhardware
p715
VOcteon
p716
sVhardware-long
p717
VCavium Networks Octeon
p718
ss(Vbase
p719
g76
tp720
(dp721
g38
(lp722
g40
asVkernel-arch
p723
Vmips
p724
ss(Vimage
p725
g298
NVsparc64
p726
tp727
(dp728
Vconfigs
p729
(lp730
Vkernelarch-sparc/config-up
p731
ass(Vdescription
p732
g188
NVs390x
p733
tp734
(dp735
Vhardware
p736
VIBM zSeries
p737
ss(Vdescription
p738
g52
NVarmmp
p739
tp740
(dp741
Vhardware
p742
VARMv7 multiplatform compatible SoCs
p743
sVhardware-long
p744
VARMv7 multiplatform kernel. See\u000ahttps://wiki.debian.org/DebianKernel/ARMMP for details of supported\u000aplatforms
p745
ss(Vimage
p746
g35
NVpowerpc64
p747
tp748
(dp749
Vconfigs
p750
(lp751
Vkernelarch-powerpc/config-arch-64
p752
aVkernelarch-powerpc/config-arch-64-be
p753
ass(Vimage
p754
g247
tp755
(dp756
Vsuggests
p757
Vvmelilo, fdutils
p758
sVinstall-stem
p759
Vvmlinuz
p760
ss(Vrelations
p761
g25
tp762
(dp763
Vheaders%gcc-5
p764
Vlinux-compiler-gcc-5-x86
p765
ss(Vdescription
p766
g322
NV5kc-malta
p767
tp768
(dp769
Vhardware
p770
VMIPS Malta (64-bit)
p771
sVhardware-long
p772
VMIPS Malta boards (64-bit)
p773
ss(g83
g13
g40
tp774
(dp775
g86
(lp776
Vmarvell
p777
aVversatile
p778
asg89
I01
ss(Vimage
p779
g61
NVarm64
p780
tp781
(dp782
s(Vdescription
p783
g99
NVsh7751r
p784
tp785
(dp786
Vhardware
p787
Vsh7751r
p788
sVhardware-long
p789
VRenesas SH7751R R2D plus board
p790
ss(Vimage
p791
g188
NVs390x
p792
tp793
(dp794
Vconfigs
p795
(lp796
Vkernelarch-s390/config-arch-64
p797
ass(g83
g322
g40
tp798
(dp799
g86
(lp800
V4kc-malta
p801
aV5kc-malta
p802
aVocteon
p803
asg89
I01
ss(Vimage
p804
g5
NV686-pae
p805
tp806
(dp807
Vconfigs
p808
(lp809
Vkernelarch-x86/config-arch-32
p810
aVi386/config.686-pae
p811
asVrecommends
p812
Vlibc6-i686
p813
ss(Vdescription
p814
g76
NV5kc-malta
p815
tp816
(dp817
Vhardware
p818
VMIPS Malta
p819
sVhardware-long
p820
VMIPS Malta boards
p821
ss(Vdescription
p822
g247
NVm68k
p823
tp824
(dp825
Vhardware
p826
VMotorola MC68020+ family
p827
ss(Vbuild
p828
g188
NVs390x
p829
tp830
(dp831
Vdebug-info
p832
I01
ss(Vbase
p833
g99
tp834
(dp835
g38
(lp836
g40
asVkernel-arch
p837
Vsh
p838
ss(Vimage
p839
g113
NVloongson-2e
p840
tp841
(dp842
Vconfigs
p843
(lp844
Vkernelarch-mips/config.loongson-2e
p845
ass(Vdescription
p846
g35
NVpowerpc-smp
p847
tp848
(dp849
Vhardware
p850
Vmultiprocessor 32-bit PowerPC
p851
ss(Vdescription
p852
g25
NVamd64
p853
tp854
(dp855
Vhardware
p856
V64-bit PCs
p857
sVhardware-long
p858
VPCs with AMD64, Intel 64 or VIA Nano processors
p859
ss(Vimage
p860
g91
tp861
(dp862
Vconfigs
p863
(lp864
sVsuggests
p865
Vmkvmlinuz
p866
sVinstall-stem
p867
Vvmlinux
p868
ss(Vrelations
p869
g13
tp870
(dp871
Vheaders%gcc-5
p872
Vlinux-compiler-gcc-5-arm
p873
ss(Vdescription
p874
g113
NVloongson-2e
p875
tp876
(dp877
Vhardware
p878
VLoongson 2E
p879
sVhardware-long
p880
VLemote Loongson 2E systems
p881
ss(g83
g383
g40
tp882
(dp883
g86
(lp884
Valpha-generic
p885
aValpha-smp
p886
asg89
I01
ss(Vdescription
p887
g322
NVocteon
p888
tp889
(dp890
Vhardware
p891
VOcteon
p892
sVhardware-long
p893
VCavium Networks Octeon
p894
ss(Vdescription
p895
Ng418
tp896
(dp897
Vpart-long-rt
p898
VThis kernel includes the PREEMPT_RT realtime patch set.
p899
sVpart-short-rt
p900
VPREEMPT_RT
p901
sVparts
p902
(lp903
Vrt
p904
ass(Vbase
p905
Vor1k
p906
tp907
(dp908
Vfeaturesets
p909
(lp910
sVkernel-arch
p911
Vopenrisc
p912
ss(Vimage
p913
g61
tp914
(dp915
Vinstall-stem
p916
Vvmlinuz
p917
ss(Vbuild
p918
g383
tp919
(dp920
Vsigned-modules
p921
I00
sVimage-file
p922
Varch/alpha/boot/vmlinux.gz
p923
ss(Vimage
p924
g91
NVpowerpc64
p925
tp926
(dp927
Vconfigs
p928
(lp929
Vkernelarch-powerpc/config-arch-64
p930
aVkernelarch-powerpc/config-arch-64-be
p931
ass(g83
g298
g40
tp932
(dp933
g86
(lp934
Vsparc64
p935
aVsparc64-smp
p936
asg89
I01
ss(Vbase
p937
g383
tp938
(dp939
g38
(lp940
g40
asVkernel-arch
p941
Valpha
p942
ss(Vbuild
p943
g5
NV686-pae
p944
tp945
(dp946
Vdebug-info
p947
I01
ss(Vbase
p948
g61
Vnone
p949
tp950
(dp951
Vflavours
p952
(lp953
Varm64
p954
ass(Vimage
p955
g106
tp956
(dp957
Vconfigs
p958
(lp959
sVsuggests
p960
Vmkvmlinuz
p961
sVinstall-stem
p962
Vvmlinux
p963
ss(Vimage
p964
g316
NV5kc-malta
p965
tp966
(dp967
Vconfigs
p968
(lp969
Vkernelarch-mips/config.5kc-malta
p970
ass(Vimage
p971
g35
tp972
(dp973
Vconfigs
p974
(lp975
sVsuggests
p976
Vmkvmlinuz
p977
sVinstall-stem
p978
Vvmlinux
p979
ss(Vdescription
p980
g298
NVsparc64-smp
p981
tp982
(dp983
Vhardware
p984
Vmultiprocessor 64-bit UltraSPARC
p985
ss(Vdescription
p986
g298
NVsparc64
p987
tp988
(dp989
Vhardware
p990
Vuniprocessor 64-bit UltraSPARC
p991
ss(Vimage
p992
g188
tp993
(dp994
Vconfigs
p995
(lp996
sVbootloaders
p997
(lp998
Vs390-tools
p999
asVinstall-stem
p1000
Vvmlinuz
p1001
ss(Vimage
p1002
g322
NV5kc-malta
p1003
tp1004
(dp1005
Vconfigs
p1006
(lp1007
Vkernelarch-mips/config.5kc-malta
p1008
ass(Vbase
p1009
g106
tp1010
(dp1011
g38
(lp1012
g40
asVkernel-arch
p1013
Vpowerpc
p1014
ss(Vimage
p1015
g322
NV4kc-malta
p1016
tp1017
(dp1018
Vconfigs
p1019
(lp1020
Vkernelarch-mips/config.4kc-malta
p1021
ass(Vimage
p1022
g113
NVloongson-3
p1023
tp1024
(dp1025
Vconfigs
p1026
(lp1027
Vkernelarch-mips/config.loongson-3
p1028
ass(Vimage
p1029
g99
NVsh7785lcr
p1030
tp1031
(dp1032
Vcheck-size
p1033
L4194304L
sVrecommends
p1034
Vu-boot-tools
p1035
ss(Vbuild
p1036
g13
NVmarvell
p1037
tp1038
(dp1039
Vsigned-modules
p1040
I00
ss(Vimage
p1041
g25
tp1042
(dp1043
Vbreaks
p1044
Vxserver-xorg-input-vmmouse (<< 1:13.0.99)
p1045
sVconfigs
p1046
(lp1047
sVbootloaders
p1048
(lp1049
Vgrub-pc
p1050
aVgrub-efi
p1051
aVextlinux
p1052
asVinstall-stem
p1053
Vvmlinuz
p1054
ss(g83
g52
g40
tp1055
(dp1056
g86
(lp1057
Varmmp
p1058
aVarmmp-lpae
p1059
asg89
I01
ss(g83
g76
g40
tp1060
(dp1061
g86
(lp1062
V5kc-malta
p1063
aVloongson-3
p1064
aVocteon
p1065
asg89
I01
ss(Vimage
p1066
g35
NVpowerpc-smp
p1067
tp1068
(dp1069
Vconfigs
p1070
(lp1071
Vpowerpc/config.powerpc
p1072
aVpowerpc/config.powerpc-smp
p1073
ass(Vdescription
p1074
g5
NV686-pae
p1075
tp1076
(dp1077
Vhardware
p1078
Vmodern PCs
p1079
sVparts
p1080
(lp1081
Vpae
p1082
asVhardware-long
p1083
VPCs with one or more processors supporting PAE
p1084
ss(Vdescription
p1085
g322
NV4kc-malta
p1086
tp1087
(dp1088
Vhardware
p1089
VMIPS Malta
p1090
sVhardware-long
p1091
VMIPS Malta boards
p1092
ss(Vbuild
p1093
g316
tp1094
(dp1095
Vsigned-modules
p1096
I00
sVimage-file
p1097
Vvmlinux
p1098
ss(Vbase
p1099
g122
tp1100
(dp1101
g38
(lp1102
g40
asVkernel-arch
p1103
Vparisc
p1104
ss(Vdescription
p1105
g25
g44
Vamd64
p1106
tp1107
(dp1108
Vparts
p1109
(lp1110
Vxen
p1111
ass(g83
g188
g40
tp1112
(dp1113
g86
(lp1114
Vs390x
p1115
asg89
I01
ss(Vdescription
p1116
g113
NVloongson-2f
p1117
tp1118
(dp1119
Vhardware
p1120
VLoongson 2F
p1121
sVhardware-long
p1122
VLemote Loongson 2F systems
p1123
ss(Vrelations
p1124
g52
tp1125
(dp1126
Vheaders%gcc-5
p1127
Vlinux-compiler-gcc-5-arm
p1128
ss(Vimage
p1129
g76
NVocteon
p1130
tp1131
(dp1132
Vconfigs
p1133
(lp1134
Vkernelarch-mips/config.octeon
p1135
ass(Vbase
p1136
NVrt
p1137
tp1138
(dp1139
Venabled
p1140
I00
ss(Vbuild
p1141
g19
tp1142
(dp1143
Vsigned-modules
p1144
I00
sVimage-file
p1145
Vvmlinux
p1146
sVvdso
p1147
I01
ss(g83
g113
g40
tp1148
(dp1149
g86
(lp1150
V4kc-malta
p1151
aV5kc-malta
p1152
aVloongson-2e
p1153
aVloongson-2f
p1154
aVloongson-3
p1155
asg89
I01
ss(Vimage
p1156
g113
NVloongson-2f
p1157
tp1158
(dp1159
Vconfigs
p1160
(lp1161
Vkernelarch-mips/config.loongson-2f
p1162
asVrecommends
p1163
Vlibc6-loongson2f
p1164
ss(Vbuild
p1165
g61
tp1166
(dp1167
Vvdso
p1168
I01
sVdebug-info
p1169
I01
sVimage-file
p1170
Varch/arm64/boot/Image
p1171
ss(Vdescription
p1172
g76
NVloongson-3
p1173
tp1174
(dp1175
Vhardware
p1176
VLoongson 3A/3B
p1177
sVhardware-long
p1178
VLoongson 3A or 3B based systems (e.g. from Loongson or Lemote)
p1179
ss(Vimage
p1180
g5
tp1181
(dp1182
Vbreaks
p1183
Vxserver-xorg-input-vmmouse (<< 1:13.0.99)
p1184
sVconfigs
p1185
(lp1186
sVbootloaders
p1187
(lp1188
Vgrub-pc
p1189
aVextlinux
p1190
asVinstall-stem
p1191
Vvmlinuz
p1192
ss(Vimage
p1193
g322
tp1194
(dp1195
Vinstall-stem
p1196
Vvmlinux
p1197
ss(Vdescription
p1198
g5
tp1199
(dp1200
Vpart-long-pae
p1201
VThis kernel requires PAE (Physical Address Extension).\u000aThis feature is supported by the Intel Pentium Pro/II/III/4/4M/D, Xeon,\u000aCore and Atom; AMD Geode NX, Athlon (K7), Duron, Opteron, Sempron,\u000aTurion or Phenom; Transmeta Efficeon; VIA C7; and some other processors.
p1202
ss(Vbuild
p1203
g35
tp1204
(dp1205
Vimage-file
p1206
Vvmlinux
p1207
sVvdso
p1208
I01
ss(Vimage
p1209
g122
tp1210
(dp1211
Vsuggests
p1212
Vpalo
p1213
sVinstall-stem
p1214
Vvmlinux
p1215
ss(Vbase
p1216
g122
NVparisc64-smp
p1217
tp1218
(dp1219
Vcflags
p1220
V-fno-cse-follow-jumps
p1221
sVoverride-host-type
p1222
Vhppa64-linux-gnu
p1223
ss(g83
g106
g40
tp1224
(dp1225
g86
(lp1226
Vpowerpc64le
p1227
asg89
I01
sstp1228
Rp1229
.