ccopy_reg
_reconstructor
p0
(cdebian_linux.config
ConfigCore
p1
c__builtin__
dict
p2
(dp3
(S'description'
p4
S'sparc'
p5
NS'sparc64'
p6
tp7
(dp8
S'hardware'
p9
S'uniprocessor 64-bit UltraSPARC'
p10
ss(S'image'
p11
S'amd64'
p12
tp13
(dp14
S'install-stem'
p15
S'vmlinuz'
p16
sS'configs'
p17
(lp18
sS'bootloaders'
p19
(lp20
S'grub-pc'
p21
aS'extlinux'
p22
aS'lilo'
p23
ass(S'image'
p24
S'mipsel'
p25
NS'sb1-bcm91250a'
p26
tp27
(dp28
S'configs'
p29
(lp30
S'mips/config.sb1-bcm91250a'
p31
ass(S'base'
p32
g12
S'none'
p33
tp34
(dp35
S'flavours'
p36
(lp37
S'amd64'
p38
ass(S'description'
p39
S'powerpc'
p40
NS'powerpc-smp'
p41
tp42
(dp43
S'hardware'
p44
S'multiprocessor 32-bit PowerPC'
p45
ss(S'description'
p46
g25
NS'loongson-2e'
p47
tp48
(dp49
S'hardware'
p50
S'Loongson 2E'
p51
sS'hardware-long'
p52
S'Lemote Loongson 2E systems'
p53
ss(S'image'
p54
g5
NS'sparc64'
p55
tp56
(dp57
S'configs'
p58
(lp59
S'kernelarch-sparc/config-up'
p60
ass(S'description'
p61
g12
NS'amd64'
p62
tp63
(dp64
S'hardware'
p65
S'64-bit PCs'
p66
sS'hardware-long'
p67
S'PCs with AMD64, Intel 64 or VIA Nano processors'
p68
ss(S'description'
p69
S'ia64'
p70
NS'mckinley'
p71
tp72
(dp73
S'hardware'
p74
S'Itanium II'
p75
ss(S'version'
p76
tp77
(dp78
S'abiname'
p79
S'3.14-kali1'
p80
sS'source'
p81
V3.14.4-1kali1
p82
sS'upstream'
p83
S'3.14'
p84
ss(S'description'
p85
g12
g33
S'amd64'
p86
tp87
(dp88
S'parts'
p89
(lp90
S'xen'
p91
ass(S'description'
p92
S'armel'
p93
NS'ixp4xx'
p94
tp95
(dp96
S'hardware'
p97
S'IXP4xx'
p98
sS'hardware-long'
p99
S'IXP4xx based systems (Linksys NSLU2, etc)'
p100
ss(S'image'
p101
g25
NS'sb1a-bcm91480b'
p102
tp103
(dp104
S'configs'
p105
(lp106
S'mips/config.sb1a-bcm91480b'
p107
ass(S'base'
p108
S'alpha'
p109
tp110
(dp111
S'kernel-arch'
p112
S'alpha'
p113
sS'featuresets'
p114
(lp115
S'none'
p116
ass(S'base'
p117
S'armhf'
p118
g116
tp119
(dp120
S'implicit-flavour'
p121
I01
sS'flavours'
p122
(lp123
S'armmp'
p124
aS'armmp-lpae'
p125
ass(S'base'
p126
S'i386'
p127
S'rt'
p128
tp129
(dp130
S'flavours'
p131
(lp132
S'686-pae'
p133
ass(S'image'
p134
g5
NS'sparc32'
p135
tp136
(dp137
S'image-postproc'
p138
S'sparc32-image-postproc'
p139
ss(g117
S'm68k'
p140
g116
tp141
(dp142
g121
I01
sg122
(lp143
S'm68k'
p144
ass(S'relations'
p145
g127
tp146
(dp147
S'headers%gcc-4.8'
p148
S'linux-compiler-gcc-4.8-x86'
p149
ss(S'description'
p150
g5
NS'sparc32'
p151
tp152
(dp153
S'hardware'
p154
S'uniprocessor sparc32 (sun4m)'
p155
ss(S'description'
p156
g5
NS'sparc64-smp'
p157
tp158
(dp159
S'hardware'
p160
S'multiprocessor 64-bit UltraSPARC'
p161
ss(S'image'
p162
g40
tp163
(dp164
S'suggests'
p165
S'mkvmlinuz'
p166
sS'configs'
p167
(lp168
sS'install-stem'
p169
S'vmlinux'
p170
ss(S'description'
p171
S'sh4'
p172
NS'sh7785lcr'
p173
tp174
(dp175
S'hardware'
p176
S'sh7785lcr'
p177
sS'hardware-long'
p178
S'Renesas SH7785 reference board'
p179
ss(S'base'
p180
g12
S'rt'
p181
tp182
(dp183
S'flavours'
p184
(lp185
S'amd64'
p186
ass(S'base'
p187
g25
tp188
(dp189
S'kernel-arch'
p190
S'mips'
p191
sg114
(lp192
g116
ass(S'build'
p193
S'ppc64'
p194
tp195
(dp196
S'image-file'
p197
S'vmlinux'
p198
ss(S'description'
p199
g25
NS'loongson-2f'
p200
tp201
(dp202
S'hardware'
p203
S'Loongson 2F'
p204
sS'hardware-long'
p205
S'Lemote Loongson 2F systems'
p206
ss(S'description'
p207
g127
S'none'
p208
S'amd64'
p209
tp210
(dp211
S'parts'
p212
(lp213
S'xen'
p214
ass(S'base'
p215
S'arm64'
p216
tp217
(dp218
S'kernel-arch'
p219
S'arm64'
p220
sS'featuresets'
p221
(lp222
ss(S'base'
p223
g127
tp224
(dp225
S'kernel-arch'
p226
S'x86'
p227
sS'featuresets'
p228
(lp229
S'none'
p230
aS'rt'
p231
ass(S'image'
p232
g5
NS'sparc64-smp'
p233
tp234
(dp235
S'configs'
p236
(lp237
S'kernelarch-sparc/config-smp'
p238
ass(S'image'
p239
S'sparc64'
p240
NS'sparc64'
p241
tp242
(dp243
S'configs'
p244
(lp245
S'kernelarch-sparc/config-up'
p246
ass(S'relations'
p247
g12
tp248
(dp249
S'headers%gcc-4.8'
p250
S'linux-compiler-gcc-4.8-x86'
p251
ss(S'image'
p252
g70
tp253
(dp254
S'suggests'
p255
S'fdutils'
p256
sS'bootloaders'
p257
(lp258
S'elilo'
p259
asS'install-stem'
p260
S'vmlinuz'
p261
ss(S'relations'
p262
S's390'
p263
tp264
(dp265
S'headers%gcc-4.8'
p266
S'linux-compiler-gcc-4.8-s390'
p267
ss(g117
g25
g116
tp268
(dp269
g121
I01
sg122
(lp270
S'sb1-bcm91250a'
p271
aS'sb1a-bcm91480b'
p272
aS'4kc-malta'
p273
aS'5kc-malta'
p274
aS'loongson-2e'
p275
aS'loongson-2f'
p276
ass(S'image'
p277
g127
NS'686-pae'
p278
tp279
(dp280
S'configs'
p281
(lp282
S'kernelarch-x86/config-arch-32'
p283
aS'i386/config.686-pae'
p284
asS'recommends'
p285
S'libc6-i686'
p286
ss(S'description'
p287
S'powerpcspe'
p288
tp289
(dp290
S'hardware'
p291
S'32-bit PowerPC with SPE (instead of AltiVec) with SMP support'
p292
ss(S'relations'
p293
tp294
(dp295
S'gcc-4.8'
p296
S'gcc-4.8'
p297
sS'initramfs-fallback'
p298
S'linux-initramfs-tool'
p299
sS'gcc-4.7'
p300
S'gcc-4.7'
p301
sS'gcc-4.6'
p302
S'gcc-4.6'
p303
sS'gcc-4.4'
p304
S'gcc-4.4'
p305
sS'initramfs-tools'
p306
S'initramfs-tools (>= 0.110~)'
p307
ss(S'build'
p308
g109
tp309
(dp310
S'image-file'
p311
S'arch/alpha/boot/vmlinux.gz'
p312
ss(S'description'
p313
S'hppa'
p314
NS'parisc'
p315
tp316
(dp317
S'hardware'
p318
S'32-bit PA-RISC'
p319
sS'hardware-long'
p320
S'HP PA-RISC 32-bit systems with max 4 GB RAM'
p321
ss(S'description'
p322
g70
NS'itanium'
p323
tp324
(dp325
S'hardware'
p326
S'Itanium'
p327
ss(S'description'
p328
g40
NS'powerpc'
p329
tp330
(dp331
S'hardware'
p332
S'uniprocessor 32-bit PowerPC'
p333
ss(S'description'
p334
g118
NS'armmp'
p335
tp336
(dp337
S'hardware'
p338
S'ARMv7 multiplatform compatible SoCs'
p339
sS'hardware-long'
p340
S'ARMv7 multiplatform kernel for Marvell Armada 370/xp, Freescale iMX5x/iMX6'
p341
ss(S'description'
p342
g140
NS'm68k'
p343
tp344
(dp345
S'hardware'
p346
S'Motorola MC68020+ family'
p347
ss(S'build'
p348
g288
tp349
(dp350
S'image-file'
p351
S'vmlinux'
p352
ss(S'description'
p353
g93
NS'versatile'
p354
tp355
(dp356
S'hardware'
p357
S'Versatile'
p358
sS'hardware-long'
p359
S'Versatile systems (PB, AB, Qemu)'
p360
ss(g117
g172
g116
tp361
(dp362
g121
I01
sg122
(lp363
S'sh7751r'
p364
aS'sh7785lcr'
p365
ass(S'build'
p366
g314
tp367
(dp368
S'image-file'
p369
S'vmlinux'
p370
ss(S'description'
p371
g127
NS'amd64'
p372
tp373
(dp374
S'hardware'
p375
S'64-bit PCs'
p376
sS'parts'
p377
(lp378
S'xen'
p379
asS'hardware-long'
p380
S'PCs with AMD64, Intel 64 or VIA Nano processors'
p381
ss(S'description'
p382
g93
NS'orion5x'
p383
tp384
(dp385
S'hardware'
p386
S'Marvell Orion'
p387
sS'hardware-long'
p388
S'Marvell Orion 5181, 5182 and 5281 based systems (QNAP TS-109/TS-209, etc)'
p389
ss(S'base'
p390
g93
tp391
(dp392
S'kernel-arch'
p393
S'arm'
p394
sg114
(lp395
g116
ass(S'description'
p396
g263
NS's390x'
p397
tp398
(dp399
S'hardware'
p400
S'IBM zSeries'
p401
ss(S'base'
p402
g5
tp403
(dp404
S'kernel-arch'
p405
S'sparc'
p406
sg114
(lp407
g116
ass(S'image'
p408
g127
NS'amd64'
p409
tp410
(dp411
S'configs'
p412
(lp413
S'kernelarch-x86/config-arch-64'
p414
asS'recommends'
p415
S'libc6-i686'
p416
ss(S'base'
p417
g288
tp418
(dp419
S'kernel-arch'
p420
S'powerpc'
p421
sg114
(lp422
g116
ass(S'build'
p423
S's390x'
p424
NS's390x'
p425
tp426
(dp427
S'debug-info'
p428
I01
ss(S'image'
p429
g118
NS'armmp-lpae'
p430
tp431
(dp432
S'configs'
p433
(lp434
S'armhf/config.armmp'
p435
aS'armhf/config.lpae'
p436
ass(g117
g263
g116
tp437
(dp438
g121
I01
sg122
(lp439
S's390x'
p440
ass(S'description'
p441
g109
NS'alpha-generic'
p442
tp443
(dp444
S'hardware'
p445
S'Alpha'
p446
sS'hardware-long'
p447
S'DEC Alpha systems with extended kernel start address (Wildfire, Titan, Marvel)'
p448
ss(g117
g424
g116
tp449
(dp450
g121
I01
sg122
(lp451
S's390x'
p452
ass(S'base'
p453
S'mips'
p454
tp455
(dp456
S'kernel-arch'
p457
S'mips'
p458
sg114
(lp459
g116
ass(S'build'
p460
g12
tp461
(dp462
S'debug-info'
p463
I01
sS'image-file'
p464
S'arch/x86/boot/bzImage'
p465
ss(S'description'
p466
g127
NS'486'
p467
tp468
(dp469
S'hardware'
p470
S'older PCs'
p471
sS'parts'
p472
(lp473
S'up'
p474
asS'hardware-long'
p475
S'PCs with a single processor not supporting PAE'
p476
ss(S'description'
p477
g93
NS'kirkwood'
p478
tp479
(dp480
S'hardware'
p481
S'Marvell Kirkwood'
p482
sS'hardware-long'
p483
S'Marvell Kirkwood based systems (SheevaPlug, QNAP TS-119/TS-219, etc)'
p484
ss(S'build'
p485
g5
tp486
(dp487
S'image-file'
p488
S'arch/sparc/boot/zImage'
p489
ss(S'image'
p490
g25
tp491
(dp492
S'install-stem'
p493
S'vmlinux'
p494
sS'initramfs'
p495
I00
ss(S'description'
p496
g194
NS'powerpc64'
p497
tp498
(dp499
S'hardware'
p500
S'64-bit PowerPC'
p501
ss(S'build'
p502
g40
tp503
(dp504
S'image-file'
p505
S'vmlinux'
p506
ss(S'description'
p507
g454
NS'r4k-ip22'
p508
tp509
(dp510
S'hardware'
p511
S'SGI IP22'
p512
sS'hardware-long'
p513
S'SGI IP22 systems (Indy, Indigo2)'
p514
ss(S'build'
p515
g25
tp516
(dp517
S'image-file'
p518
S'vmlinux'
p519
ss(S'base'
p520
g12
tp521
(dp522
S'kernel-arch'
p523
S'x86'
p524
sS'featuresets'
p525
(lp526
S'none'
p527
aS'rt'
p528
ass(S'base'
p529
g70
tp530
(dp531
S'kernel-arch'
p532
S'ia64'
p533
sg114
(lp534
g116
asS'compiler'
p535
S'gcc-4.6'
p536
ss(g117
g194
g116
tp537
(dp538
g121
I01
sg122
(lp539
S'powerpc64'
p540
ass(S'image'
p541
g93
NS'kirkwood'
p542
tp543
(dp544
S'check-size'
p545
S'2097080'
p546
sS'recommends'
p547
S'uboot-mkimage'
p548
ss(S'base'
p549
g263
tp550
(dp551
S'kernel-arch'
p552
S's390'
p553
sg114
(lp554
g116
ass(g117
g93
g116
tp555
(dp556
g121
I01
sg122
(lp557
S'kirkwood'
p558
aS'mv78xx0'
p559
aS'orion5x'
p560
aS'versatile'
p561
ass(S'description'
p562
g172
NS'sh7751r'
p563
tp564
(dp565
S'hardware'
p566
S'sh7751r'
p567
sS'hardware-long'
p568
S'Renesas SH7751R R2D plus board'
p569
ss(S'base'
p570
g314
NS'parisc64-smp'
p571
tp572
(dp573
S'override-host-type'
p574
S'hppa64-linux-gnu'
p575
sS'cflags'
p576
S'-fno-cse-follow-jumps'
p577
ss(S'description'
p578
g127
tp579
(dp580
S'part-long-pae'
p581
S'This kernel requires PAE (Physical Address Extension).\nThis feature is supported by the Intel Pentium Pro/II/III/4/4M/D, Xeon,\nCore and Atom; AMD Geode NX, Athlon (K7), Duron, Opteron, Sempron,\nTurion or Phenom; Transmeta Efficeon; VIA C7; and some other processors.'
p582
ss(S'image'
p583
g118
tp584
(dp585
S'suggests'
p586
S'fdutils'
p587
sS'configs'
p588
(lp589
S'kernelarch-arm/config'
p590
aS'armhf/config'
p591
asS'install-stem'
p592
S'vmlinuz'
p593
ss(S'xen'
p594
g12
g33
S'amd64'
p595
tp596
(dp597
S'flavours'
p598
(lp599
S'amd64'
p600
ass(S'image'
p601
g424
NS's390x'
p602
tp603
(dp604
S'configs'
p605
(lp606
S'kernelarch-s390/config-arch-64'
p607
ass(S'image'
p608
g93
tp609
(dp610
S'suggests'
p611
S'fdutils'
p612
sS'configs'
p613
(lp614
S'kernelarch-arm/config'
p615
aS'armel/config'
p616
asS'install-stem'
p617
S'vmlinuz'
p618
ss(S'image'
p619
g263
tp620
(dp621
S'install-stem'
p622
S'vmlinuz'
p623
sS'configs'
p624
(lp625
sS'bootloaders'
p626
(lp627
S's390-tools'
p628
ass(S'relations'
p629
g93
tp630
(dp631
S'headers%gcc-4.8'
p632
S'linux-compiler-gcc-4.8-arm'
p633
ss(S'image'
p634
g314
tp635
(dp636
S'suggests'
p637
S'palo'
p638
sS'install-stem'
p639
S'vmlinux'
p640
ss(S'image'
p641
g288
tp642
(dp643
S'suggests'
p644
S'mkvmlinuz'
p645
sS'install-stem'
p646
S'vmlinux'
p647
ss(S'relations'
p648
g314
tp649
(dp650
S'gcc-4.8'
p651
S'gcc-4.8, binutils-hppa64, gcc-4.8-hppa64'
p652
ss(S'abi'
p653
g40
tp654
(dp655
S'ignore-changes'
p656
(lp657
S'nf_hooks_needed'
p658
ass(S'image'
p659
g40
NS'powerpc-smp'
p660
tp661
(dp662
S'configs'
p663
(lp664
S'powerpc/config.powerpc'
p665
aS'powerpc/config.powerpc-smp'
p666
ass(g117
g314
g116
tp667
(dp668
g121
I01
sg122
(lp669
S'parisc'
p670
aS'parisc64-smp'
p671
ass(S'image'
p672
g109
tp673
(dp674
S'suggests'
p675
S'aboot, fdutils'
p676
sS'install-stem'
p677
S'vmlinuz'
p678
ss(S'base'
p679
g240
tp680
(dp681
S'kernel-arch'
p682
S'sparc'
p683
sg114
(lp684
g116
ass(S'base'
p685
S'or1k'
p686
tp687
(dp688
S'kernel-arch'
p689
S'openrisc'
p690
sS'featuresets'
p691
(lp692
ss(S'description'
p693
g314
NS'parisc64-smp'
p694
tp695
(dp696
S'hardware'
p697
S'multiprocessor 64-bit PA-RISC'
p698
sS'hardware-long'
p699
S'HP PA-RISC 64-bit SMP systems with support for more than 4 GB RAM'
p700
ss(S'base'
p701
g424
tp702
(dp703
S'kernel-arch'
p704
S's390'
p705
sg114
(lp706
g116
ass(S'build'
p707
g127
NS'686-pae'
p708
tp709
(dp710
S'debug-info'
p711
I01
ss(S'image'
p712
g93
NS'ixp4xx'
p713
tp714
(dp715
S'check-size'
p716
S'1441760'
p717
sS'configs'
p718
(lp719
S'armel/config-reduced'
p720
aS'armel/config.ixp4xx'
p721
ass(S'description'
p722
g109
NS'alpha-legacy'
p723
tp724
(dp725
S'hardware'
p726
S'Alpha Legacy'
p727
sS'hardware-long'
p728
S'DEC Alpha systems with legacy kernel start address'
p729
ss(S'description'
p730
g109
NS'alpha-smp'
p731
tp732
(dp733
S'hardware'
p734
S'Alpha SMP'
p735
sS'hardware-long'
p736
S'DEC Alpha SMP systems with extended kernel start address (Wildfire, Titan, Marvel)'
p737
ss(S'image'
p738
g240
tp739
(dp740
S'suggests'
p741
S'silo, fdutils'
p742
sS'configs'
p743
(lp744
sS'install-stem'
p745
S'vmlinuz'
p746
ss(S'image'
p747
g194
tp748
(dp749
S'suggests'
p750
S'mkvmlinuz'
p751
sS'configs'
p752
(lp753
sS'install-stem'
p754
S'vmlinux'
p755
ss(S'image'
p756
g454
tp757
(dp758
S'install-stem'
p759
S'vmlinux'
p760
sS'initramfs'
p761
I00
ss(S'image'
p762
g127
tp763
(dp764
S'install-stem'
p765
S'vmlinuz'
p766
sS'configs'
p767
(lp768
sS'bootloaders'
p769
(lp770
S'grub-pc'
p771
aS'extlinux'
p772
aS'lilo'
p773
ass(S'image'
p774
g40
NS'powerpc64'
p775
tp776
(dp777
S'configs'
p778
(lp779
S'kernelarch-powerpc/config-arch-64'
p780
aS'powerpc/config.powerpc64'
p781
ass(g117
g5
g116
tp782
(dp783
g121
I01
sg122
(lp784
S'sparc64'
p785
aS'sparc64-smp'
p786
ass(S'base'
p787
g194
tp788
(dp789
S'kernel-arch'
p790
S'powerpc'
p791
sg114
(lp792
g116
ass(g117
g109
g116
tp793
(dp794
g121
I01
sg122
(lp795
S'alpha-generic'
p796
aS'alpha-smp'
p797
aS'alpha-legacy'
p798
ass(S'description'
p799
g127
g208
S'686-pae'
p800
tp801
(dp802
S'parts'
p803
(lp804
S'xen'
p805
ass(S'base'
p806
S'x32'
p807
tp808
(dp809
S'kernel-arch'
p810
S'x86'
p811
sS'featuresets'
p812
(lp813
ss(S'build'
p814
g424
tp815
(dp816
S'image-file'
p817
S'arch/s390/boot/image'
p818
ss(g117
g454
g116
tp819
(dp820
g121
I01
sg122
(lp821
S'r4k-ip22'
p822
aS'r5k-ip32'
p823
aS'sb1-bcm91250a'
p824
aS'sb1a-bcm91480b'
p825
aS'4kc-malta'
p826
aS'5kc-malta'
p827
aS'octeon'
p828
ass(S'build'
p829
g454
tp830
(dp831
S'image-file'
p832
S'vmlinux'
p833
ss(S'image'
p834
g240
NS'sparc64-smp'
p835
tp836
(dp837
S'configs'
p838
(lp839
S'kernelarch-sparc/config-smp'
p840
ass(S'build'
p841
g263
NS's390x'
p842
tp843
(dp844
S'debug-info'
p845
I01
ss(S'image'
p846
g172
NS'sh7785lcr'
p847
tp848
(dp849
S'check-size'
p850
S'4194304'
p851
sS'recommends'
p852
S'uboot-mkimage'
p853
ss(g117
g70
g116
tp854
(dp855
g121
I01
sg122
(lp856
S'itanium'
p857
aS'mckinley'
p858
ass(S'image'
p859
g25
NS'5kc-malta'
p860
tp861
(dp862
S'configs'
p863
(lp864
S'mips/config.5kc-malta'
p865
ass(S'image'
p866
g140
tp867
(dp868
S'suggests'
p869
S'vmelilo, fdutils'
p870
sS'install-stem'
p871
S'vmlinuz'
p872
ss(S'description'
p873
g25
NS'4kc-malta'
p874
tp875
(dp876
S'hardware'
p877
S'MIPS Malta'
p878
sS'hardware-long'
p879
S'MIPS Malta boards'
p880
ss(S'description'
p881
g25
NS'5kc-malta'
p882
tp883
(dp884
S'hardware'
p885
S'MIPS Malta (64-bit)'
p886
sS'hardware-long'
p887
S'MIPS Malta boards (64-bit)'
p888
ss(S'build'
p889
g70
tp890
(dp891
S'image-file'
p892
S'vmlinux.gz'
p893
ss(S'base'
p894
g118
tp895
(dp896
S'kernel-arch'
p897
S'arm'
p898
sg114
(lp899
g116
ass(S'image'
p900
g93
NS'orion5x'
p901
tp902
(dp903
S'check-size'
p904
S'1572792'
p905
sS'configs'
p906
(lp907
S'armel/config-reduced'
p908
aS'armel/config.orion5x'
p909
asS'recommends'
p910
S'uboot-mkimage'
p911
ss(S'image'
p912
g172
tp913
(dp914
S'suggests'
p915
S'fdutils'
p916
sS'install-stem'
p917
S'vmlinuz'
p918
ss(S'description'
p919
g454
NS'5kc-malta'
p920
tp921
(dp922
S'hardware'
p923
S'MIPS Malta (64-bit)'
p924
sS'hardware-long'
p925
S'MIPS Malta boards (64-bit)'
p926
ss(S'base'
p927
g314
tp928
(dp929
S'kernel-arch'
p930
S'parisc'
p931
sg114
(lp932
g116
ass(S'image'
p933
g12
NS'amd64'
p934
tp935
(dp936
S'configs'
p937
(lp938
S'kernelarch-x86/config-arch-64'
p939
ass(S'base'
p940
g172
tp941
(dp942
S'kernel-arch'
p943
S'sh'
p944
sg114
(lp945
g116
asS'compiler'
p946
S'gcc-4.7'
p947
ss(S'description'
p948
g454
NS'octeon'
p949
tp950
(dp951
S'hardware'
p952
S'Octeon'
p953
sS'hardware-long'
p954
S'Cavium Networks Octeon'
p955
ss(S'image'
p956
g5
tp957
(dp958
S'suggests'
p959
S'silo, fdutils'
p960
sS'configs'
p961
(lp962
sS'install-stem'
p963
S'vmlinuz'
p964
ss(S'description'
p965
tp966
(dp967
S'part-long-up'
p968
S'This kernel is not suitable for SMP (multi-processor,\nmulti-core or hyper-threaded) systems.'
p969
sS'part-long-xen'
p970
S'This kernel also runs on a Xen hypervisor.\nIt supports both privileged (dom0) and unprivileged (domU) operation.'
p971
ss(S'build'
p972
g240
tp973
(dp974
S'image-file'
p975
S'arch/sparc/boot/zImage'
p976
ss(S'relations'
p977
g118
tp978
(dp979
S'headers%gcc-4.8'
p980
S'linux-compiler-gcc-4.8-arm'
p981
ss(S'description'
p982
NS'rt'
p983
tp984
(dp985
S'part-long-rt'
p986
S'This kernel includes the PREEMPT_RT realtime patch set.'
p987
sS'parts'
p988
(lp989
S'rt'
p990
asS'part-short-rt'
p991
S'PREEMPT_RT'
p992
ss(S'description'
p993
g25
NS'sb1a-bcm91480b'
p994
tp995
(dp996
S'hardware'
p997
S'BCM91480B'
p998
sS'hardware-long'
p999
S'Broadcom BCM91480B systems (aka BigSur)'
p1000
ss(S'image'
p1001
g194
NS'powerpc64'
p1002
tp1003
(dp1004
S'configs'
p1005
(lp1006
S'kernelarch-powerpc/config-arch-64'
p1007
ass(S'description'
p1008
g454
NS'sb1a-bcm91480b'
p1009
tp1010
(dp1011
S'hardware'
p1012
S'BCM91480B'
p1013
sS'hardware-long'
p1014
S'Broadcom BCM91480B systems (aka BigSur)'
p1015
ss(S'relations'
p1016
g424
tp1017
(dp1018
S'headers%gcc-4.8'
p1019
S'linux-compiler-gcc-4.8-s390'
p1020
ss(S'description'
p1021
g40
NS'powerpc64'
p1022
tp1023
(dp1024
S'hardware'
p1025
S'64-bit PowerPC'
p1026
ss(S'base'
p1027
g40
tp1028
(dp1029
S'kernel-arch'
p1030
S'powerpc'
p1031
sg114
(lp1032
g116
ass(S'description'
p1033
g127
NS'686-pae'
p1034
tp1035
(dp1036
S'hardware'
p1037
S'modern PCs'
p1038
sS'parts'
p1039
(lp1040
S'pae'
p1041
asS'hardware-long'
p1042
S'PCs with one or more processors supporting PAE'
p1043
ss(S'description'
p1044
g454
NS'r5k-ip32'
p1045
tp1046
(dp1047
S'hardware'
p1048
S'SGI IP32'
p1049
sS'hardware-long'
p1050
S'SGI IP32 systems (O2)'
p1051
ss(S'description'
p1052
g424
NS's390x'
p1053
tp1054
(dp1055
S'hardware'
p1056
S'IBM zSeries'
p1057
ss(S'description'
p1058
g454
NS'4kc-malta'
p1059
tp1060
(dp1061
S'hardware'
p1062
S'MIPS Malta'
p1063
sS'hardware-long'
p1064
S'MIPS Malta boards'
p1065
ss(S'description'
p1066
g118
NS'armmp-lpae'
p1067
tp1068
(dp1069
S'hardware'
p1070
S'ARMv7 multiplatform compatible SoCs supporting LPAE'
p1071
sS'hardware-long'
p1072
S'ARMv7 multiplatform kernel supporting LPAE'
p1073
ss(S'build'
p1074
g263
tp1075
(dp1076
S'image-file'
p1077
S'arch/s390/boot/image'
p1078
ss(S'base'
p1079
g127
g208
tp1080
(dp1081
S'flavours'
p1082
(lp1083
S'486'
p1084
aS'686-pae'
p1085
aS'amd64'
p1086
ass(S'abi'
p1087
tp1088
(dp1089
S'abiname'
p1090
S'kali1'
p1091
sS'ignore-changes'
p1092
(lp1093
S'ib_update_cm_av'
p1094
aS'DAC1064_global_*'
p1095
aS'g450_mnp2f'
p1096
aS'matrox_*'
p1097
aS'matroxfb_*'
p1098
ass(S'relations'
p1099
g194
tp1100
(dp1101
S'gcc-4.8'
p1102
S'gcc-4.8 (>= 4.8.2-21)'
p1103
ss(g117
g288
g116
tp1104
(dp1105
g121
I01
sg122
(lp1106
S'powerpcspe'
p1107
ass(S'description'
p1108
g240
NS'sparc64-smp'
p1109
tp1110
(dp1111
S'hardware'
p1112
S'multiprocessor 64-bit UltraSPARC'
p1113
ss(S'base'
p1114
NS'rt'
p1115
tp1116
(dp1117
S'enabled'
p1118
I01
ss(S'base'
p1119
tp1120
(dp1121
S'arches'
p1122
(lp1123
S'alpha'
p1124
aS'amd64'
p1125
aS'arm64'
p1126
aS'armel'
p1127
aS'armhf'
p1128
aS'hppa'
p1129
aS'i386'
p1130
aS'ia64'
p1131
aS'm68k'
p1132
aS'mips'
p1133
aS'mipsel'
p1134
aS'or1k'
p1135
aS'powerpc'
p1136
aS'powerpcspe'
p1137
aS'ppc64'
p1138
aS'ppc64el'
p1139
aS's390'
p1140
aS's390x'
p1141
aS'sh4'
p1142
aS'sparc'
p1143
aS'sparc64'
p1144
aS'x32'
p1145
asS'featuresets'
p1146
(lp1147
S'none'
p1148
aS'rt'
p1149
asS'compiler'
p1150
S'gcc-4.7'
p1151
ss(S'build'
p1152
g140
tp1153
(dp1154
S'image-file'
p1155
S'vmlinux.gz'
p1156
ss(S'build'
p1157
g93
tp1158
(dp1159
S'image-file'
p1160
S'arch/arm/boot/zImage'
p1161
ss(g117
g40
g116
tp1162
(dp1163
g121
I01
sg122
(lp1164
S'powerpc'
p1165
aS'powerpc-smp'
p1166
aS'powerpc64'
p1167
ass(S'build'
p1168
g118
tp1169
(dp1170
S'image-file'
p1171
S'arch/arm/boot/zImage'
p1172
ss(S'image'
p1173
g127
NS'486'
p1174
tp1175
(dp1176
S'configs'
p1177
(lp1178
S'kernelarch-x86/config-arch-32'
p1179
aS'i386/config.486'
p1180
ass(S'base'
p1181
S'ppc64el'
p1182
tp1183
(dp1184
S'kernel-arch'
p1185
S'powerpc'
p1186
sS'featuresets'
p1187
(lp1188
ss(S'base'
p1189
g140
tp1190
(dp1191
S'kernel-arch'
p1192
S'm68k'
p1193
sg114
(lp1194
g116
asS'cflags'
p1195
S'-ffreestanding'
p1196
sS'compiler'
p1197
S'gcc-4.8'
p1198
ss(S'image'
p1199
tp1200
(dp1201
S'initramfs-generators'
p1202
(lp1203
S'initramfs-tools'
p1204
aS'initramfs-fallback'
p1205
asS'type'
p1206
S'plain'
p1207
ss(S'abi'
p1208
Ng983
tp1209
(dp1210
S'ignore-changes'
p1211
(lp1212
S'*'
p1213
ass(g117
g240
g116
tp1214
(dp1215
g121
I01
sg122
(lp1216
S'sparc64'
p1217
aS'sparc64-smp'
p1218
ass(S'image'
p1219
g25
NS'4kc-malta'
p1220
tp1221
(dp1222
S'configs'
p1223
(lp1224
S'mips/config.4kc-malta'
p1225
ass(S'image'
p1226
g263
NS's390x'
p1227
tp1228
(dp1229
S'configs'
p1230
(lp1231
S'kernelarch-s390/config-arch-64'
p1232
ass(S'description'
p1233
g25
NS'sb1-bcm91250a'
p1234
tp1235
(dp1236
S'hardware'
p1237
S'BCM91250A'
p1238
sS'hardware-long'
p1239
S'Broadcom BCM91250A systems (aka SWARM)'
p1240
ss(S'build'
p1241
g172
tp1242
(dp1243
S'image-file'
p1244
S'arch/sh/boot/zImage'
p1245
ss(S'description'
p1246
g93
NS'mv78xx0'
p1247
tp1248
(dp1249
S'hardware'
p1250
S'Marvell 78xx0'
p1251
sS'hardware-long'
p1252
S'Marvell DB-78xx0-BP Development Board'
p1253
ss(S'image'
p1254
g424
tp1255
(dp1256
S'install-stem'
p1257
S'vmlinuz'
p1258
sS'configs'
p1259
(lp1260
sS'bootloaders'
p1261
(lp1262
S's390-tools'
p1263
ass(S'description'
p1264
g454
NS'sb1-bcm91250a'
p1265
tp1266
(dp1267
S'hardware'
p1268
S'BCM91250A'
p1269
sS'hardware-long'
p1270
S'Broadcom BCM91250A systems (aka SWARM)'
p1271
ss(S'image'
p1272
g25
NS'loongson-2f'
p1273
tp1274
(dp1275
S'recommends'
p1276
S'libc6-loongson2f'
p1277
ss(S'description'
p1278
g240
NS'sparc64'
p1279
tp1280
(dp1281
S'hardware'
p1282
S'uniprocessor 64-bit UltraSPARC'
p1283
ss(S'build'
p1284
g127
tp1285
(dp1286
S'image-file'
p1287
S'arch/x86/boot/bzImage'
p1288
sstp1289
Rp1290
.