ccopy_reg
_reconstructor
p0
(cdebian_linux.config
ConfigCore
p1
c__builtin__
dict
p2
(dp3
(Vdescription
p4
Vppc64
p5
NVpowerpc64
p6
tp7
(dp8
Vhardware
p9
V64-bit PowerPC
p10
ss(Vimage
p11
Vmips
p12
NVocteon
p13
tp14
(dp15
Vconfigs
p16
(lp17
Vkernelarch-mips/config.octeon
p18
ass(Vimage
p19
Vpowerpc
p20
NVpowerpc64
p21
tp22
(dp23
Vconfigs
p24
(lp25
Vkernelarch-powerpc/config-arch-64
p26
aVkernelarch-powerpc/config-arch-64-be
p27
ass(Vbase
p28
Varm64
p29
Vnone
p30
tp31
(dp32
Vflavours
p33
(lp34
Varm64
p35
ass(Vimage
p36
g12
NV5kc-malta
p37
tp38
(dp39
Vconfigs
p40
(lp41
Vkernelarch-mips/config.5kc-malta
p42
ass(Vbase
p43
g5
tp44
(dp45
Vkernel-arch
p46
Vpowerpc
p47
sVfeaturesets
p48
(lp49
Vnone
p50
ass(Vimage
p51
Vhppa
p52
tp53
(dp54
Vsuggests
p55
Vpalo
p56
sVinstall-stem
p57
Vvmlinux
p58
ss(Vimage
p59
g29
NVarm64
p60
tp61
(dp62
s(Vimage
p63
Vmips64
p64
NV5kc-malta
p65
tp66
(dp67
Vconfigs
p68
(lp69
Vkernelarch-mips/config.5kc-malta
p70
ass(Vdescription
p71
Vi386
p72
NV686-pae
p73
tp74
(dp75
Vparts
p76
(lp77
Vpae
p78
asVhardware
p79
Vmodern PCs
p80
sVhardware-long
p81
VPCs with one or more processors supporting PAE
p82
ss(Vdescription
p83
Vmipsel
p84
NVloongson-3
p85
tp86
(dp87
Vhardware
p88
VLoongson 3A/3B
p89
sVhardware-long
p90
VLoongson 3A or 3B based systems (e.g. from Loongson or Lemote)
p91
ss(Vimage
p92
g64
NVocteon
p93
tp94
(dp95
Vconfigs
p96
(lp97
Vkernelarch-mips/config.octeon
p98
ass(Vdescription
p99
g84
NV5kc-malta
p100
tp101
(dp102
Vhardware
p103
VMIPS Malta (64-bit)
p104
sVhardware-long
p105
VMIPS Malta boards (64-bit)
p106
ss(Vbuild
p107
g12
tp108
(dp109
Vimage-file
p110
Vvmlinux
p111
ss(Vbase
p112
tp113
(dp114
Vcompiler
p115
Vgcc-4.9
p116
sVarches
p117
(lp118
Valpha
p119
aVamd64
p120
aVarm64
p121
aVarmel
p122
aVarmhf
p123
aVhppa
p124
aVi386
p125
aVm68k
p126
aVmips
p127
aVmipsel
p128
aVmips64
p129
aVmips64el
p130
aVor1k
p131
aVpowerpc
p132
aVpowerpcspe
p133
aVppc64
p134
aVppc64el
p135
aVs390
p136
aVs390x
p137
aVsh4
p138
aVsparc
p139
aVsparc64
p140
aVx32
p141
asVfeaturesets
p142
(lp143
Vnone
p144
aVrt
p145
ass(Vbase
p146
Varmhf
p147
g50
tp148
(dp149
Vflavours
p150
(lp151
Varmmp
p152
aVarmmp-lpae
p153
asVimplicit-flavour
p154
I01
ss(Vbase
p155
Vmips64el
p156
tp157
(dp158
Vkernel-arch
p159
Vmips
p160
sg48
(lp161
g50
ass(Vrelations
p162
g147
tp163
(dp164
Vheaders%gcc-4.9
p165
Vlinux-compiler-gcc-4.9-arm
p166
ss(Vimage
p167
g156
tp168
(dp169
Vinstall-stem
p170
Vvmlinux
p171
ss(Vbuild
p172
g147
tp173
(dp174
Vvdso
p175
I01
sVimage-file
p176
Varch/arm/boot/zImage
p177
ss(Vbase
p178
g72
Vrt
p179
tp180
(dp181
Vflavours
p182
(lp183
V686-pae
p184
ass(Vimage
p185
g84
NVloongson-2f
p186
tp187
(dp188
Vconfigs
p189
(lp190
Vkernelarch-mips/config.loongson-2f
p191
asVrecommends
p192
Vlibc6-loongson2f
p193
ss(Vbuild
p194
g20
tp195
(dp196
Vvdso
p197
I01
sVimage-file
p198
Vvmlinux
p199
ss(Vbuild
p200
Vs390x
p201
tp202
(dp203
Vvdso
p204
I01
sVimage-file
p205
Varch/s390/boot/image
p206
ss(Vdescription
p207
Vamd64
p208
NVamd64
p209
tp210
(dp211
Vhardware
p212
V64-bit PCs
p213
sVhardware-long
p214
VPCs with AMD64, Intel 64 or VIA Nano processors
p215
ss(Vdescription
p216
Vsparc64
p217
NVsparc64-smp
p218
tp219
(dp220
Vhardware
p221
Vmultiprocessor 64-bit UltraSPARC
p222
ss(Vdescription
p223
g72
NV686
p224
tp225
(dp226
Vhardware
p227
Volder PCs
p228
sVhardware-long
p229
VPCs with one or more processors not supporting PAE
p230
ss(Vimage
p231
g72
tp232
(dp233
Vconfigs
p234
(lp235
sVbreaks
p236
Vxserver-xorg-input-vmmouse (<< 1:13.0.99)
p237
sVbootloaders
p238
(lp239
Vgrub-pc
p240
aVextlinux
p241
asVinstall-stem
p242
Vvmlinuz
p243
ss(Vimage
p244
g201
NVs390x
p245
tp246
(dp247
Vconfigs
p248
(lp249
Vkernelarch-s390/config-arch-64
p250
ass(Vbase
p251
g52
tp252
(dp253
Vkernel-arch
p254
Vparisc
p255
sg48
(lp256
g50
ass(Vimage
p257
g5
tp258
(dp259
Vconfigs
p260
(lp261
sVsuggests
p262
Vmkvmlinuz
p263
sVinstall-stem
p264
Vvmlinux
p265
ss(Vimage
p266
g20
NVpowerpc-smp
p267
tp268
(dp269
Vconfigs
p270
(lp271
Vpowerpc/config.powerpc
p272
aVpowerpc/config.powerpc-smp
p273
ass(Vdescription
p274
g20
NVpowerpc-smp
p275
tp276
(dp277
Vhardware
p278
Vmultiprocessor 32-bit PowerPC
p279
ss(Vdescription
p280
g84
NVloongson-2f
p281
tp282
(dp283
Vhardware
p284
VLoongson 2F
p285
sVhardware-long
p286
VLemote Loongson 2F systems
p287
ss(Vbuild
p288
Vppc64el
p289
tp290
(dp291
Vvdso
p292
I01
sVimage-file
p293
Vvmlinux
p294
ss(Vbase
p295
g208
tp296
(dp297
Vcompiler
p298
Vgcc-5
p299
sVkernel-arch
p300
Vx86
p301
sVfeaturesets
p302
(lp303
Vnone
p304
aVrt
p305
ass(Vbuild
p306
g5
tp307
(dp308
Vvdso
p309
I01
sVimage-file
p310
Vvmlinux
p311
ss(Vimage
p312
tp313
(dp314
Vinitramfs-generators
p315
(lp316
Vinitramfs-tools
p317
aVinitramfs-fallback
p318
ass(Vbase
p319
g64
tp320
(dp321
Vkernel-arch
p322
Vmips
p323
sg48
(lp324
g50
ass(Vdescription
p325
g201
NVs390x
p326
tp327
(dp328
Vhardware
p329
VIBM zSeries
p330
ss(Vrelations
p331
Varmel
p332
tp333
(dp334
Vheaders%gcc-4.9
p335
Vlinux-compiler-gcc-4.9-arm
p336
ss(Vimage
p337
g84
NV5kc-malta
p338
tp339
(dp340
Vconfigs
p341
(lp342
Vkernelarch-mips/config.5kc-malta
p343
ass(Vimage
p344
g84
NV4kc-malta
p345
tp346
(dp347
Vconfigs
p348
(lp349
Vkernelarch-mips/config.4kc-malta
p350
ass(Vdescription
p351
g20
NVpowerpc64
p352
tp353
(dp354
Vhardware
p355
V64-bit PowerPC
p356
ss(Vbuild
p357
Vm68k
p358
tp359
(dp360
Vimage-file
p361
Vvmlinux.gz
p362
ss(Vbuild
p363
Valpha
p364
tp365
(dp366
Vimage-file
p367
Varch/alpha/boot/vmlinux.gz
p368
ss(g146
g289
g50
tp369
(dp370
g150
(lp371
Vpowerpc64le
p372
asg154
I01
ss(Vbuild
p373
g29
tp374
(dp375
Vvdso
p376
I01
sVdebug-info
p377
I01
sVimage-file
p378
Varch/arm64/boot/Image
p379
ss(Vdescription
p380
Vpowerpcspe
p381
tp382
(dp383
Vhardware
p384
V32-bit PowerPC with SPE (instead of AltiVec) with SMP support
p385
ss(g146
g364
g50
tp386
(dp387
g150
(lp388
Valpha-generic
p389
aValpha-smp
p390
asg154
I01
ss(g146
g156
g50
tp391
(dp392
g150
(lp393
V5kc-malta
p394
aVloongson-3
p395
aVocteon
p396
asg154
I01
ss(Vversion
p397
tp398
(dp399
Vabiname
p400
V4.4.0-kali1
p401
sVupstream
p402
V4.4
p403
sVabiname_base
p404
V4.4.0
p405
sVsource
p406
V4.4.2-3
p407
ss(Vdescription
p408
g84
NV4kc-malta
p409
tp410
(dp411
Vhardware
p412
VMIPS Malta
p413
sVhardware-long
p414
VMIPS Malta boards
p415
ss(Vbuild
p416
g208
tp417
(dp418
Vvdso
p419
I01
sVdebug-info
p420
I01
sVimage-file
p421
Varch/x86/boot/bzImage
p422
ss(Vdescription
p423
g52
NVparisc64-smp
p424
tp425
(dp426
Vhardware
p427
Vmultiprocessor 64-bit PA-RISC
p428
sVhardware-long
p429
VHP PA-RISC 64-bit SMP systems with support for more than 4 GB RAM
p430
ss(Vbase
p431
Vsparc
p432
tp433
(dp434
Vkernel-arch
p435
Vsparc
p436
sVfeaturesets
p437
(lp438
ss(g146
g332
g50
tp439
(dp440
g150
(lp441
Vmarvell
p442
aVversatile
p443
asg154
I01
ss(Vdescription
p444
g64
NV5kc-malta
p445
tp446
(dp447
Vhardware
p448
VMIPS Malta
p449
sVhardware-long
p450
VMIPS Malta boards
p451
ss(Vbuild
p452
g217
tp453
(dp454
Vimage-file
p455
Varch/sparc/boot/zImage
p456
ss(Vbase
p457
Vor1k
p458
tp459
(dp460
Vkernel-arch
p461
Vopenrisc
p462
sVfeaturesets
p463
(lp464
ss(Vbase
p465
g208
Vrt
p466
tp467
(dp468
Vflavours
p469
(lp470
Vamd64
p471
ass(Vimage
p472
g332
tp473
(dp474
Vconfigs
p475
(lp476
Vkernelarch-arm/config
p477
aVarmel/config
p478
asVsuggests
p479
Vfdutils
p480
sVinstall-stem
p481
Vvmlinuz
p482
ss(Vdescription
p483
g147
NVarmmp
p484
tp485
(dp486
Vhardware
p487
VARMv7 multiplatform compatible SoCs
p488
sVhardware-long
p489
VARMv7 multiplatform kernel. See\u000ahttps://wiki.debian.org/DebianKernel/ARMMP for details of supported\u000aplatforms
p490
ss(Vbase
p491
g358
tp492
(dp493
Vcompiler
p494
Vgcc-4.8
p495
sVcflags
p496
V-ffreestanding
p497
sg48
(lp498
g50
asVkernel-arch
p499
Vm68k
p500
ss(Vdescription
p501
g64
NVocteon
p502
tp503
(dp504
Vhardware
p505
VOcteon
p506
sVhardware-long
p507
VCavium Networks Octeon
p508
ss(Vbase
p509
g147
tp510
(dp511
Vkernel-arch
p512
Varm
p513
sg48
(lp514
g50
ass(Vdescription
p515
Vsh4
p516
NVsh7751r
p517
tp518
(dp519
Vhardware
p520
Vsh7751r
p521
sVhardware-long
p522
VRenesas SH7751R R2D plus board
p523
ss(Vbuild
p524
g52
tp525
(dp526
Vimage-file
p527
Vvmlinux
p528
ss(Vrelations
p529
tp530
(dp531
Vgcc-4.8
p532
Vgcc-4.8 <!stage1>
p533
sVgcc-4.9
p534
Vgcc-4.9 <!stage1>
p535
sVgcc-5
p536
Vgcc-5 <!stage1>
p537
sVinitramfs-fallback
p538
Vlinux-initramfs-tool
p539
sVinitramfs-tools
p540
Vinitramfs-tools (>= 0.110~)
p541
ss(Vbuild
p542
g72
tp543
(dp544
Vvdso
p545
I01
sVimage-file
p546
Varch/x86/boot/bzImage
p547
ss(Vimage
p548
g332
NVmarvell
p549
tp550
(dp551
Vbreaks
p552
Vflash-kernel (<< 3.57~)
p553
sVrecommends
p554
Vu-boot-tools
p555
sVcheck-size
p556
L2097080L
sVcheck-size-with-dtb
p557
I01
ss(g146
g381
g50
tp558
(dp559
g150
(lp560
Vpowerpcspe
p561
asg154
I01
ss(Vimage
p562
g289
tp563
(dp564
Vconfigs
p565
(lp566
sVsuggests
p567
Vmkvmlinuz
p568
sVinstall-stem
p569
Vvmlinux
p570
ss(Vimage
p571
g201
tp572
(dp573
Vconfigs
p574
(lp575
sVbootloaders
p576
(lp577
Vs390-tools
p578
asVinstall-stem
p579
Vvmlinuz
p580
ss(g146
g12
g50
tp581
(dp582
g150
(lp583
V4kc-malta
p584
aV5kc-malta
p585
aVocteon
p586
asg154
I01
ss(Vbase
p587
g84
tp588
(dp589
Vkernel-arch
p590
Vmips
p591
sg48
(lp592
g50
ass(Vbase
p593
g52
NVparisc64-smp
p594
tp595
(dp596
Voverride-host-type
p597
Vhppa64-linux-gnu
p598
sVcflags
p599
V-fno-cse-follow-jumps
p600
ss(Vdescription
p601
g20
NVpowerpc
p602
tp603
(dp604
Vhardware
p605
Vuniprocessor 32-bit PowerPC
p606
ss(Vdescription
p607
g12
NV5kc-malta
p608
tp609
(dp610
Vhardware
p611
VMIPS Malta (64-bit)
p612
sVhardware-long
p613
VMIPS Malta boards (64-bit)
p614
ss(g146
g358
g50
tp615
(dp616
g150
(lp617
Vm68k
p618
asg154
I01
ss(Vbuild
p619
g516
tp620
(dp621
Vimage-file
p622
Varch/sh/boot/zImage
p623
ss(Vdescription
p624
g332
NVmarvell
p625
tp626
(dp627
Vhardware
p628
VMarvell Kirkwood/Orion
p629
sVhardware-long
p630
VMarvell Kirkwood based systems (SheevaPlug, QNAP TS-119/TS-219, etc)\u000aand Orion 5181, 5182 and 5281 based systems (QNAP TS-109/TS-209, etc)
p631
ss(Vimage
p632
g217
tp633
(dp634
Vconfigs
p635
(lp636
sVsuggests
p637
Vsilo, fdutils
p638
sVinstall-stem
p639
Vvmlinuz
p640
ss(Vdescription
p641
g208
Vnone
p642
Vamd64
p643
tp644
(dp645
Vparts
p646
(lp647
Vxen
p648
ass(Vbase
p649
Vx32
p650
tp651
(dp652
Vkernel-arch
p653
Vx86
p654
sVfeaturesets
p655
(lp656
ss(Vimage
p657
g12
tp658
(dp659
Vinstall-stem
p660
Vvmlinux
p661
ss(Vimage
p662
g29
tp663
(dp664
Vinstall-stem
p665
Vvmlinuz
p666
ss(Vimage
p667
g156
NV5kc-malta
p668
tp669
(dp670
Vconfigs
p671
(lp672
Vkernelarch-mips/config.5kc-malta
p673
ass(Vimage
p674
g5
NVpowerpc64
p675
tp676
(dp677
Vconfigs
p678
(lp679
Vkernelarch-powerpc/config-arch-64
p680
aVkernelarch-powerpc/config-arch-64-be
p681
ass(Vimage
p682
g20
tp683
(dp684
Vconfigs
p685
(lp686
sVsuggests
p687
Vmkvmlinuz
p688
sVinstall-stem
p689
Vvmlinux
p690
ss(Vimage
p691
g72
NV686-pae
p692
tp693
(dp694
Vconfigs
p695
(lp696
Vkernelarch-x86/config-arch-32
p697
aVi386/config.686-pae
p698
asVrecommends
p699
Vlibc6-i686
p700
ss(Vimage
p701
g84
NVloongson-2e
p702
tp703
(dp704
Vconfigs
p705
(lp706
Vkernelarch-mips/config.loongson-2e
p707
ass(Vdescription
p708
g156
NV5kc-malta
p709
tp710
(dp711
Vhardware
p712
VMIPS Malta
p713
sVhardware-long
p714
VMIPS Malta boards
p715
ss(Vbase
p716
Vs390
p717
tp718
(dp719
Vkernel-arch
p720
Vs390
p721
sVfeaturesets
p722
(lp723
ss(Vdescription
p724
g156
NVocteon
p725
tp726
(dp727
Vhardware
p728
VOcteon
p729
sVhardware-long
p730
VCavium Networks Octeon
p731
ss(g146
g217
g50
tp732
(dp733
g150
(lp734
Vsparc64
p735
aVsparc64-smp
p736
asg154
I01
ss(g146
g516
g50
tp737
(dp738
g150
(lp739
Vsh7751r
p740
aVsh7785lcr
p741
asg154
I01
ss(Vdescription
p742
g12
NV4kc-malta
p743
tp744
(dp745
Vhardware
p746
VMIPS Malta
p747
sVhardware-long
p748
VMIPS Malta boards
p749
ss(Vbase
p750
g364
tp751
(dp752
Vkernel-arch
p753
Valpha
p754
sg48
(lp755
g50
ass(Vimage
p756
g364
tp757
(dp758
Vsuggests
p759
Vaboot, fdutils
p760
sVinstall-stem
p761
Vvmlinuz
p762
ss(g146
g20
g50
tp763
(dp764
g150
(lp765
Vpowerpc
p766
aVpowerpc-smp
p767
aVpowerpc64
p768
asg154
I01
ss(Vdescription
p769
g147
NVarmmp-lpae
p770
tp771
(dp772
Vhardware
p773
VARMv7 multiplatform compatible SoCs supporting LPAE
p774
sVhardware-long
p775
VARMv7 multiplatform kernel supporting LPAE. See\u000ahttps://wiki.debian.org/DebianKernel/ARMMP for details of supported\u000aplatforms.
p776
ss(Vimage
p777
g72
NV686
p778
tp779
(dp780
Vconfigs
p781
(lp782
Vkernelarch-x86/config-arch-32
p783
aVi386/config.686
p784
asVrecommends
p785
Vlibc6-i686
p786
ss(Vdescription
p787
g72
tp788
(dp789
Vpart-long-pae
p790
VThis kernel requires PAE (Physical Address Extension).\u000aThis feature is supported by the Intel Pentium Pro/II/III/4/4M/D, Xeon,\u000aCore and Atom; AMD Geode NX, Athlon (K7), Duron, Opteron, Sempron,\u000aTurion or Phenom; Transmeta Efficeon; VIA C7; and some other processors.
p791
ss(Vbuild
p792
g72
NV686-pae
p793
tp794
(dp795
Vdebug-info
p796
I01
ss(Vdescription
p797
g84
NVloongson-2e
p798
tp799
(dp800
Vhardware
p801
VLoongson 2E
p802
sVhardware-long
p803
VLemote Loongson 2E systems
p804
ss(Vimage
p805
g84
NVloongson-3
p806
tp807
(dp808
Vconfigs
p809
(lp810
Vkernelarch-mips/config.loongson-3
p811
ass(Vbuild
p812
g201
NVs390x
p813
tp814
(dp815
Vdebug-info
p816
I01
ss(Vdescription
p817
g156
NVloongson-3
p818
tp819
(dp820
Vhardware
p821
VLoongson 3A/3B
p822
sVhardware-long
p823
VLoongson 3A or 3B based systems (e.g. from Loongson or Lemote)
p824
ss(Vimage
p825
g156
NVloongson-3
p826
tp827
(dp828
Vconfigs
p829
(lp830
Vkernelarch-mips/config.loongson-3
p831
ass(g146
g52
g50
tp832
(dp833
g150
(lp834
Vparisc
p835
aVparisc64-smp
p836
asg154
I01
ss(Vbase
p837
g29
tp838
(dp839
Vkernel-arch
p840
Varm64
p841
sVfeaturesets
p842
(lp843
Vnone
p844
ass(Vbase
p845
g12
tp846
(dp847
Vkernel-arch
p848
Vmips
p849
sg48
(lp850
g50
ass(Vdescription
p851
g217
NVsparc64
p852
tp853
(dp854
Vhardware
p855
Vuniprocessor 64-bit UltraSPARC
p856
ss(Vdescription
p857
g72
Vnone
p858
V686-pae
p859
tp860
(dp861
Vparts
p862
(lp863
Vxen
p864
ass(Vbase
p865
g217
tp866
(dp867
Vkernel-arch
p868
Vsparc
p869
sg48
(lp870
g50
ass(Vdescription
p871
g516
NVsh7785lcr
p872
tp873
(dp874
Vhardware
p875
Vsh7785lcr
p876
sVhardware-long
p877
VRenesas SH7785 reference board
p878
ss(Vbuild
p879
g84
tp880
(dp881
Vimage-file
p882
Vvmlinux
p883
ss(Vdescription
p884
g364
NValpha-smp
p885
tp886
(dp887
Vhardware
p888
VAlpha SMP
p889
sVhardware-long
p890
VDEC Alpha SMP systems with extended kernel start address (Wildfire, Titan, Marvel)
p891
ss(Vimage
p892
g217
NVsparc64-smp
p893
tp894
(dp895
Vconfigs
p896
(lp897
Vkernelarch-sparc/config-smp
p898
ass(Vdescription
p899
g289
NVpowerpc64le
p900
tp901
(dp902
Vhardware
p903
VLittle-endian 64-bit PowerPC
p904
ss(Vimage
p905
g84
tp906
(dp907
Vinstall-stem
p908
Vvmlinux
p909
ss(Vbase
p910
g201
tp911
(dp912
Vkernel-arch
p913
Vs390
p914
sg48
(lp915
g50
ass(Vbuild
p916
g381
tp917
(dp918
Vvdso
p919
I01
sVimage-file
p920
Vvmlinux
p921
ss(Vbase
p922
g72
g858
tp923
(dp924
Vflavours
p925
(lp926
V686
p927
aV686-pae
p928
ass(Vabi
p929
NVrt
p930
tp931
(dp932
Vignore-changes
p933
(lp934
V*
p935
ass(Vbase
p936
g332
tp937
(dp938
Vkernel-arch
p939
Varm
p940
sg48
(lp941
g50
ass(Vdescription
p942
g364
NValpha-generic
p943
tp944
(dp945
Vhardware
p946
VAlpha
p947
sVhardware-long
p948
VDEC Alpha systems with extended kernel start address (Wildfire, Titan, Marvel)
p949
ss(Vimage
p950
g516
NVsh7785lcr
p951
tp952
(dp953
Vrecommends
p954
Vu-boot-tools
p955
sVcheck-size
p956
L4194304L
ss(g146
g64
g50
tp957
(dp958
g150
(lp959
V5kc-malta
p960
aVocteon
p961
asg154
I01
ss(Vimage
p962
g358
tp963
(dp964
Vsuggests
p965
Vvmelilo, fdutils
p966
sVinstall-stem
p967
Vvmlinuz
p968
ss(Vdescription
p969
g29
NVarm64
p970
tp971
(dp972
Vhardware
p973
V64-bit ARMv8 machines
p974
ss(Vbase
p975
g20
tp976
(dp977
Vkernel-arch
p978
Vpowerpc
p979
sg48
(lp980
g50
ass(Vimage
p981
g217
NVsparc64
p982
tp983
(dp984
Vconfigs
p985
(lp986
Vkernelarch-sparc/config-up
p987
ass(Vxen
p988
g208
g642
Vamd64
p989
tp990
(dp991
Vflavours
p992
(lp993
Vamd64
p994
ass(Vbase
p995
g289
tp996
(dp997
Vkernel-arch
p998
Vpowerpc
p999
sg48
(lp1000
g50
ass(Vdescription
p1001
tp1002
(dp1003
Vpart-long-xen
p1004
VThis kernel also runs on a Xen hypervisor.\u000aIt supports both privileged (dom0) and unprivileged (domU) operation.
p1005
sVpart-long-up
p1006
VThis kernel is not suitable for SMP (multi-processor,\u000amulti-core or hyper-threaded) systems.
p1007
ss(Vrelations
p1008
g208
tp1009
(dp1010
Vheaders%gcc-5
p1011
Vlinux-compiler-gcc-5-x86
p1012
ss(Vimage
p1013
g12
NV4kc-malta
p1014
tp1015
(dp1016
Vconfigs
p1017
(lp1018
Vkernelarch-mips/config.4kc-malta
p1019
ass(Vdescription
p1020
Ng930
tp1021
(dp1022
Vparts
p1023
(lp1024
Vrt
p1025
asVpart-long-rt
p1026
VThis kernel includes the PREEMPT_RT realtime patch set.
p1027
sVpart-short-rt
p1028
VPREEMPT_RT
p1029
ss(g146
g5
g50
tp1030
(dp1031
g150
(lp1032
Vpowerpc64
p1033
asg154
I01
ss(Vimage
p1034
g147
tp1035
(dp1036
Vconfigs
p1037
(lp1038
Vkernelarch-arm/config
p1039
asVsuggests
p1040
Vfdutils
p1041
sVinstall-stem
p1042
Vvmlinuz
p1043
ss(Vrelations
p1044
g52
tp1045
(dp1046
Vgcc-4.9
p1047
Vgcc-4.9 <!stage1>, binutils-hppa64 <!stage1>, gcc-4.9-hppa64 <!stage1>
p1048
ss(Vdescription
p1049
g332
NVversatile
p1050
tp1051
(dp1052
Vhardware
p1053
VVersatile
p1054
sVhardware-long
p1055
VVersatile systems (PB, AB, Qemu)
p1056
ss(Vimage
p1057
g208
NVamd64
p1058
tp1059
(dp1060
Vconfigs
p1061
(lp1062
Vkernelarch-x86/config-arch-64
p1063
ass(Vbase
p1064
g381
tp1065
(dp1066
Vkernel-arch
p1067
Vpowerpc
p1068
sg48
(lp1069
g50
ass(g146
g84
g50
tp1070
(dp1071
g150
(lp1072
V4kc-malta
p1073
aV5kc-malta
p1074
aVloongson-2e
p1075
aVloongson-2f
p1076
aVloongson-3
p1077
asg154
I01
ss(Vbuild
p1078
g64
tp1079
(dp1080
Vimage-file
p1081
Vvmlinux
p1082
ss(Vbuild
p1083
g156
tp1084
(dp1085
Vimage-file
p1086
Vvmlinux
p1087
ss(Vdescription
p1088
g12
NVocteon
p1089
tp1090
(dp1091
Vhardware
p1092
VOcteon
p1093
sVhardware-long
p1094
VCavium Networks Octeon
p1095
ss(Vimage
p1096
g147
NVarmmp-lpae
p1097
tp1098
(dp1099
Vconfigs
p1100
(lp1101
Varmhf/config.armmp
p1102
aVarmhf/config.lpae
p1103
ass(Vimage
p1104
g64
tp1105
(dp1106
Vinstall-stem
p1107
Vvmlinux
p1108
ss(Vrelations
p1109
g72
tp1110
(dp1111
Vheaders%gcc-5
p1112
Vlinux-compiler-gcc-5-x86
p1113
ss(Vbase
p1114
g208
g642
tp1115
(dp1116
Vflavours
p1117
(lp1118
Vamd64
p1119
ass(Vimage
p1120
g289
NVpowerpc64le
p1121
tp1122
(dp1123
Vconfigs
p1124
(lp1125
Vkernelarch-powerpc/config-arch-64
p1126
aVkernelarch-powerpc/config-arch-64-le
p1127
ass(Vimage
p1128
g208
tp1129
(dp1130
Vconfigs
p1131
(lp1132
sVbreaks
p1133
Vxserver-xorg-input-vmmouse (<< 1:13.0.99)
p1134
sVbootloaders
p1135
(lp1136
Vgrub-pc
p1137
aVgrub-efi
p1138
aVextlinux
p1139
asVinstall-stem
p1140
Vvmlinuz
p1141
ss(Vdescription
p1142
g52
NVparisc
p1143
tp1144
(dp1145
Vhardware
p1146
V32-bit PA-RISC
p1147
sVhardware-long
p1148
VHP PA-RISC 32-bit systems with max 4 GB RAM
p1149
ss(Vbase
p1150
g516
tp1151
(dp1152
Vkernel-arch
p1153
Vsh
p1154
sg48
(lp1155
g50
ass(Vbase
p1156
g72
tp1157
(dp1158
Vcompiler
p1159
Vgcc-5
p1160
sVkernel-arch
p1161
Vx86
p1162
sVfeaturesets
p1163
(lp1164
Vnone
p1165
aVrt
p1166
ass(Vabi
p1167
tp1168
(dp1169
Vabiname
p1170
Vkali1
p1171
ss(Vrelations
p1172
g201
tp1173
(dp1174
Vheaders%gcc-4.9
p1175
Vlinux-compiler-gcc-4.9-s390
p1176
ss(Vimage
p1177
g516
tp1178
(dp1179
Vsuggests
p1180
Vfdutils
p1181
sVinstall-stem
p1182
Vvmlinuz
p1183
ss(Vbase
p1184
NVrt
p1185
tp1186
(dp1187
Venabled
p1188
I01
ss(Vimage
p1189
g156
NVocteon
p1190
tp1191
(dp1192
Vconfigs
p1193
(lp1194
Vkernelarch-mips/config.octeon
p1195
ass(g146
g201
g50
tp1196
(dp1197
g150
(lp1198
Vs390x
p1199
asg154
I01
ss(Vdescription
p1200
g358
NVm68k
p1201
tp1202
(dp1203
Vhardware
p1204
VMotorola MC68020+ family
p1205
ss(Vbuild
p1206
g332
tp1207
(dp1208
Vimage-file
p1209
Varch/arm/boot/zImage
p1210
ss(Vimage
p1211
g381
tp1212
(dp1213
Vsuggests
p1214
Vmkvmlinuz
p1215
sVinstall-stem
p1216
Vvmlinux
p1217
sstp1218
Rp1219
.