cdebian_linux.config
ConfigCore
p0
(tRp1
(Vabi
p2
tp3
(dp4
Vabiname
p5
Vkali1
p6
sVignore-changes
p7
(lp8
V__cpuhp_*
p9
aV__xive_vm_h_*
p10
aVbpf_analyzer
p11
aVcxl_*
p12
aVdax_flush
p13
aVieee80211_nullfunc_get
p14
aVinet_add_protocol
p15
aVinet_del_protocol
p16
aViommu_device_*
p17
aVkvm_async_pf_task_wait
p18
aVkvmppc_*
p19
aVmm_iommu_*
p20
aVmv_mbus_*
p21
aVperf_*
p22
aVregister_cxl_calls
p23
aVregister_key_type
p24
aVunregister_cxl_calls
p25
aV*_hw_breakpoint
p26
aVmodule:arch/x86/kvm/*
p27
aVmodule:drivers/crypto/ccp/*
p28
aVmodule:drivers/hv/*
p29
aVmodule:drivers/gpu/drm/sun4i/*
p30
aVmodule:drivers/iio/**
p31
aVmodule:drivers/misc/cxl/*
p32
aVmodule:drivers/mtd/nand/*
p33
aVmodule:drivers/net/wireless/**
p34
aVmodule:drivers/nvdimm/*
p35
aVmodule:drivers/power/supply/bq27xxx_battery
p36
aVmodule:drivers/scsi/cxgbi/*
p37
aVmodule:drivers/scsi/libiscs*
p38
aVmodule:drivers/scsi/qla2xxx/qla2xxx
p39
aVmodule:drivers/scsi/ufs/*
p40
aVmodule:drivers/target/**
p41
aVmodule:drivers/usb/chipidea/**
p42
aVmodule:drivers/usb/gadget/**
p43
aVmodule:drivers/usb/host/**
p44
aVmodule:drivers/usb/musb/**
p45
aVmodule:fs/nfs/**
p46
aVmodule:net/ceph/libceph
p47
aVmodule:net/l2tp/**
p48
aVmodule:net/rxrpc/rxrpc
p49
aVmodule:sound/core/seq/**
p50
aVmodule:sound/firewire/snd-firewire-lib
p51
aVmodule:sound/pci/hda/*
p52
aVbtree_*
p53
aVvisitor*
p54
aVcan_rx_register
p55
aVip6_xmit
p56
aVmodule:net/dccp/dccp
p57
aVmodule:net/rds/rds
p58
aVdevfreq_*
p59
aVdevm_devfreq_*
p60
aVupdate_devfreq
p61
aVmodule:drivers/infiniband/**
p62
aVacpi_ec_add_query_handler
p63
aVacpi_ec_remove_query_handler
p64
aVfirst_ec
p65
aVdebugfs_create_automount
p66
aVmodule:drivers/iio/imu/inv_mpu6050/*
p67
aVdrm_crtc_accurate_vblank_count
p68
aVacpi_nfit_desc_init
p69
aVacpi_nfit_init
p70
aVloop_register_transfer
p71
ass(Vbase
p72
tp73
(dp74
Varches
p75
(lp76
Valpha
p77
aVamd64
p78
aVarm64
p79
aVarm64ilp32
p80
aVarmel
p81
aVarmhf
p82
aVhppa
p83
aVi386
p84
aVia64
p85
aVm68k
p86
aVmips
p87
aVmips64
p88
aVmips64el
p89
aVmips64r6
p90
aVmips64r6el
p91
aVmipsel
p92
aVmipsn32
p93
aVmipsn32el
p94
aVmipsn32r6
p95
aVmipsn32r6el
p96
aVmipsr6
p97
aVmipsr6el
p98
aVpowerpc
p99
aVpowerpcspe
p100
aVppc64
p101
aVppc64el
p102
aVriscv64
p103
aVs390
p104
aVs390x
p105
aVsh3
p106
aVsh4
p107
aVsparc
p108
aVsparc64
p109
aVx32
p110
asVcompiler
p111
Vgcc-7
p112
sVfeaturesets
p113
(lp114
Vnone
p115
aVrt
p116
ass(Vbuild
p117
tp118
(dp119
Vdebug-info
p120
I01
sVsigned-code
p121
I00
ss(Vbase
p122
NVrt
p123
tp124
(dp125
Venabled
p126
I01
ss(Vdescription
p127
tp128
(dp129
Vpart-long-up
p130
VThis kernel is not suitable for SMP (multi-processor,\u000amulti-core or hyper-threaded) systems.
p131
ss(Vimage
p132
tp133
(dp134
Vinitramfs-generators
p135
(lp136
Vinitramfs-tools
p137
aVinitramfs-fallback
p138
asVrecommends
p139
Vapparmor
p140
ss(Vrelations
p141
tp142
(dp143
Vgcc-7
p144
Vgcc-7 <!stage1 !cross>, gcc-7-@gnu-type-package@ <!stage1 cross>
p145
sVinitramfs-fallback
p146
Vlinux-initramfs-tool
p147
sVinitramfs-tools
p148
Vinitramfs-tools (>= 0.120+deb8u2)
p149
ss(Vbase
p150
Valpha
p151
tp152
(dp153
Vkernel-arch
p154
Valpha
p155
sVfeaturesets
p156
(lp157
Vnone
p158
ass(Vbuild
p159
g151
tp160
(dp161
Vimage-file
p162
Varch/alpha/boot/vmlinux.gz
p163
ss(Vimage
p164
g151
tp165
(dp166
Vsuggests
p167
Vaboot, fdutils
p168
sVinstall-stem
p169
Vvmlinuz
p170
ss(Vdescription
p171
g151
NValpha-generic
p172
tp173
(dp174
Vhardware
p175
VAlpha
p176
sVhardware-long
p177
VDEC Alpha systems with extended kernel start address (Wildfire, Titan, Marvel)
p178
ss(Vdescription
p179
g151
NValpha-smp
p180
tp181
(dp182
Vhardware
p183
VAlpha SMP
p184
sVhardware-long
p185
VDEC Alpha SMP systems with extended kernel start address (Wildfire, Titan, Marvel)
p186
ss(Vbase
p187
g151
g158
tp188
(dp189
Vflavours
p190
(lp191
Valpha-generic
p192
aValpha-smp
p193
asVimplicit-flavour
p194
I01
ss(Vbase
p195
Vamd64
p196
tp197
(dp198
Vfeaturesets
p199
(lp200
Vnone
p201
aVrt
p202
asVkernel-arch
p203
Vx86
p204
ss(Vbuild
p205
g196
tp206
(dp207
Vdebug-info
p208
I01
sVimage-file
p209
Varch/x86/boot/bzImage
p210
sVvdso
p211
I01
sVsigned-modules
p212
Vfalse
p213
ss(Vimage
p214
g196
tp215
(dp216
Vbootloaders
p217
(lp218
Vgrub-pc
p219
aVgrub-efi-amd64
p220
aVextlinux
p221
asVinstall-stem
p222
Vvmlinuz
p223
sVbreaks
p224
Vxserver-xorg-input-vmmouse (<< 1:13.0.99)
p225
ss(Vrelations
p226
g196
tp227
(dp228
Vgcc-7
p229
Vgcc-7 (>= 7.2.0-20~) <!stage1 !cross>, gcc-7-x86-64-linux-gnu (>= 7.2.0-20~) <!stage1 cross>
p230
sVheaders%gcc-7
p231
Vlinux-compiler-gcc-7-x86 (>= 4.14.17-1~)
p232
ss(Vdescription
p233
g196
NVamd64
p234
tp235
(dp236
Vhardware
p237
V64-bit PCs
p238
sVhardware-long
p239
VPCs with AMD64, Intel 64 or VIA Nano processors
p240
ss(Vdescription
p241
g196
NVcloud-amd64
p242
tp243
(dp244
Vhardware
p245
Vx86-64 cloud
p246
sVhardware-long
p247
VAmazon EC2, Google Compute Engine and Microsoft Azure cloud platforms
p248
ss(Vbase
p249
g196
Vnone
p250
tp251
(dp252
Vflavours
p253
(lp254
Vamd64
p255
aVcloud-amd64
p256
ass(Vbase
p257
g196
Vrt
p258
tp259
(dp260
Vflavours
p261
(lp262
Vamd64
p263
ass(Vbase
p264
Varm64
p265
tp266
(dp267
Vkernel-arch
p268
Varm64
p269
sVfeaturesets
p270
(lp271
Vnone
p272
aVrt
p273
ass(Vbuild
p274
g265
tp275
(dp276
Vdebug-info
p277
I01
sVimage-file
p278
Varch/arm64/boot/Image
p279
sVvdso
p280
I01
sVsigned-modules
p281
Vfalse
p282
ss(Vimage
p283
g265
tp284
(dp285
Vinstall-stem
p286
Vvmlinuz
p287
sVbreaks
p288
Vlibmozjs185-1.0, libmozjs-24-0 (<< 24.2.0-5.1~)
p289
ss(Vdescription
p290
g265
NVarm64
p291
tp292
(dp293
Vhardware
p294
V64-bit ARMv8 machines
p295
ss(Vimage
p296
g265
NVarm64
p297
tp298
(dp299
s(Vbase
p300
g265
Vnone
p301
tp302
(dp303
Vflavours
p304
(lp305
Varm64
p306
ass(Vbase
p307
g265
Vrt
p308
tp309
(dp310
Vflavours
p311
(lp312
Varm64
p313
ass(Vbase
p314
Varm64ilp32
p315
tp316
(dp317
Vkernel-arch
p318
Varm64
p319
sVfeaturesets
p320
(lp321
ss(Vbase
p322
Varmel
p323
tp324
(dp325
Vkernel-arch
p326
Varm
p327
sg156
(lp328
g158
ass(Vbuild
p329
g323
tp330
(dp331
Vimage-file
p332
Varch/arm/boot/zImage
p333
sVuncompressed-image-file
p334
Varch/arm/boot/Image
p335
ss(Vimage
p336
g323
tp337
(dp338
Vinstall-stem
p339
Vvmlinuz
p340
ss(Vrelations
p341
g323
tp342
(dp343
Vheaders%gcc-7
p344
Vlinux-compiler-gcc-7-arm
p345
ss(Vdescription
p346
g323
NVmarvell
p347
tp348
(dp349
Vhardware
p350
VMarvell Kirkwood/Orion
p351
sVhardware-long
p352
VMarvell Kirkwood and Orion based systems (https://wiki.debian.org/ArmEabiPort#Supported_hardware)
p353
ss(Vimage
p354
g323
NVmarvell
p355
tp356
(dp357
Vrecommends
p358
Vu-boot-tools
p359
sVcheck-size
p360
L2097080L
sVcheck-size-with-dtb
p361
I01
sVcheck-uncompressed-size
p362
L7340032L
sVbreaks
p363
Vflash-kernel (<< 3.57~)
p364
ss(g187
g323
g158
tp365
(dp366
g190
(lp367
Vmarvell
p368
asg194
I01
ss(Vbase
p369
Varmhf
p370
tp371
(dp372
Vfeaturesets
p373
(lp374
Vnone
p375
aVrt
p376
asVkernel-arch
p377
Varm
p378
ss(Vbuild
p379
g370
tp380
(dp381
Vimage-file
p382
Varch/arm/boot/zImage
p383
sVvdso
p384
I01
sVsigned-modules
p385
Vfalse
p386
ss(Vimage
p387
g370
tp388
(dp389
Vinstall-stem
p390
Vvmlinuz
p391
ss(Vrelations
p392
g370
tp393
(dp394
Vheaders%gcc-7
p395
Vlinux-compiler-gcc-7-arm
p396
ss(Vdescription
p397
g370
NVarmmp
p398
tp399
(dp400
Vhardware
p401
VARMv7 multiplatform compatible SoCs
p402
sVhardware-long
p403
VARMv7 multiplatform kernel. See\u000ahttps://wiki.debian.org/DebianKernel/ARMMP for details of supported\u000aplatforms
p404
ss(Vdescription
p405
g370
NVarmmp-lpae
p406
tp407
(dp408
Vhardware
p409
VARMv7 multiplatform compatible SoCs supporting LPAE
p410
sVhardware-long
p411
VARMv7 multiplatform kernel supporting LPAE. See\u000ahttps://wiki.debian.org/DebianKernel/ARMMP for details of supported\u000aplatforms.
p412
ss(Vbase
p413
g370
Vnone
p414
tp415
(dp416
Vflavours
p417
(lp418
Varmmp
p419
aVarmmp-lpae
p420
ass(Vbase
p421
g370
Vrt
p422
tp423
(dp424
Vflavours
p425
(lp426
Varmmp
p427
ass(Vbase
p428
Vhppa
p429
tp430
(dp431
Vkernel-arch
p432
Vparisc
p433
sg156
(lp434
g158
ass(Vbuild
p435
g429
tp436
(dp437
Vimage-file
p438
Varch/parisc/boot/bzImage
p439
sVdebug-info
p440
I00
ss(Vimage
p441
g429
tp442
(dp443
Vsuggests
p444
Vpalo
p445
sVinstall-stem
p446
Vvmlinuz
p447
ss(Vdescription
p448
g429
NVparisc
p449
tp450
(dp451
Vhardware
p452
V32-bit PA-RISC
p453
sVhardware-long
p454
VHP PA-RISC 32-bit systems with max 4 GB RAM
p455
ss(Vdescription
p456
g429
NVparisc-smp
p457
tp458
(dp459
Vhardware
p460
Vmultiprocessor 32-bit PA-RISC
p461
sVhardware-long
p462
VHP PA-RISC 32-bit SMP systems with max 4 GB RAM
p463
ss(Vbase
p464
g429
NVparisc64-smp
p465
tp466
(dp467
Vcflags
p468
V-fno-cse-follow-jumps
p469
sVoverride-host-type
p470
Vhppa64-linux-gnu
p471
ss(Vdescription
p472
g429
NVparisc64-smp
p473
tp474
(dp475
Vhardware
p476
Vmultiprocessor 64-bit PA-RISC
p477
sVhardware-long
p478
VHP PA-RISC 64-bit SMP systems with support for more than 4 GB RAM
p479
ss(Vrelations
p480
g429
tp481
(dp482
Vgcc-7
p483
Vgcc-7 <!stage1 !cross>, binutils-hppa64-linux-gnu <!stage1 !cross>, gcc-7-hppa64-linux-gnu <!stage1 !cross>, gcc-7-hppa-linux-gnu <!stage1 cross>, binutils-hppa64-linux-gnu <!stage1 cross>, gcc-7-hppa64-linux-gnu <!stage1 cross>
p484
ss(g187
g429
g158
tp485
(dp486
g190
(lp487
Vparisc
p488
aVparisc-smp
p489
aVparisc64-smp
p490
asg194
I01
ss(Vbase
p491
Vi386
p492
tp493
(dp494
Vfeaturesets
p495
(lp496
Vnone
p497
aVrt
p498
asVkernel-arch
p499
Vx86
p500
ss(Vbuild
p501
g492
tp502
(dp503
Vimage-file
p504
Varch/x86/boot/bzImage
p505
sVvdso
p506
I01
sVsigned-modules
p507
Vfalse
p508
ss(Vdescription
p509
g492
tp510
(dp511
Vpart-long-pae
p512
VThis kernel requires PAE (Physical Address Extension).\u000aThis feature is supported by the Intel Pentium Pro/II/III/4/4M/D, Xeon,\u000aCore and Atom; AMD Geode NX, Athlon (K7), Duron, Opteron, Sempron,\u000aTurion or Phenom; Transmeta Efficeon; VIA C7; and some other processors.
p513
ss(Vimage
p514
g492
tp515
(dp516
Vbootloaders
p517
(lp518
Vgrub-pc
p519
aVextlinux
p520
asVinstall-stem
p521
Vvmlinuz
p522
sVbreaks
p523
Vxserver-xorg-input-vmmouse (<< 1:13.0.99)
p524
ss(Vrelations
p525
g492
tp526
(dp527
Vgcc-7
p528
Vgcc-7 (>= 7.2.0-20~) <!stage1 !cross>, gcc-7-i686-linux-gnu (>= 7.2.0-20~) <!stage1 cross>
p529
sVheaders%gcc-7
p530
Vlinux-compiler-gcc-7-x86 (>= 4.14.17-1~)
p531
ss(Vdescription
p532
g492
NV686
p533
tp534
(dp535
Vhardware
p536
Volder PCs
p537
sVhardware-long
p538
VPCs with one or more processors not supporting PAE
p539
ss(Vbuild
p540
g492
NV686-pae
p541
tp542
(dp543
Vdebug-info
p544
I01
ss(Vdescription
p545
g492
NV686-pae
p546
tp547
(dp548
Vhardware
p549
Vmodern PCs
p550
sVhardware-long
p551
VPCs with one or more processors supporting PAE
p552
sVparts
p553
(lp554
Vpae
p555
ass(Vbase
p556
g492
Vnone
p557
tp558
(dp559
Vflavours
p560
(lp561
V686
p562
aV686-pae
p563
ass(Vbase
p564
g492
Vrt
p565
tp566
(dp567
Vflavours
p568
(lp569
V686-pae
p570
ass(Vbase
p571
Via64
p572
tp573
(dp574
Vkernel-arch
p575
Via64
p576
sg156
(lp577
g158
ass(Vbuild
p578
g572
tp579
(dp580
Vimage-file
p581
Vvmlinux.gz
p582
ss(Vimage
p583
g572
tp584
(dp585
Vbootloaders
p586
(lp587
Velilo
p588
asVinstall-stem
p589
Vvmlinuz
p590
ss(Vdescription
p591
g572
NVitanium
p592
tp593
(dp594
Vhardware
p595
VItanium (Merced)
p596
sVhardware-long
p597
Vsystems with original Itanium (Merced) processors
p598
ss(Vdescription
p599
g572
NVmckinley
p600
tp601
(dp602
Vhardware
p603
VItanium 2+
p604
sVhardware-long
p605
Vsystems with Itanium 2 or 9300/9500/9700-series processors
p606
ss(g187
g572
g158
tp607
(dp608
g190
(lp609
Vitanium
p610
aVmckinley
p611
asg194
I01
ss(Vbase
p612
Vm68k
p613
tp614
(dp615
Vcflags
p616
V-ffreestanding
p617
sVkernel-arch
p618
Vm68k
p619
sg156
(lp620
g158
ass(Vbuild
p621
g613
tp622
(dp623
Vimage-file
p624
Vvmlinux
p625
ss(Vimage
p626
g613
tp627
(dp628
Vsuggests
p629
Vvmelilo, fdutils
p630
sVinstall-stem
p631
Vvmlinux
p632
ss(Vdescription
p633
g613
NVm68k
p634
tp635
(dp636
Vhardware
p637
VMotorola MC68020+ family
p638
ss(g187
g613
g158
tp639
(dp640
g190
(lp641
Vm68k
p642
asg194
I01
ss(Vbase
p643
Vmips
p644
tp645
(dp646
Vkernel-arch
p647
Vmips
p648
sg156
(lp649
g158
ass(Vbuild
p650
g644
tp651
(dp652
Vimage-file
p653
Vvmlinux
p654
ss(Vimage
p655
g644
tp656
(dp657
Vinstall-stem
p658
Vvmlinux
p659
ss(Vdescription
p660
g644
NV4kc-malta
p661
tp662
(dp663
Vhardware
p664
VMIPS Malta
p665
sVhardware-long
p666
VMIPS Malta boards
p667
ss(Vimage
p668
g644
NV4kc-malta
p669
tp670
(dp671
Vconfigs
p672
(lp673
Vkernelarch-mips/config.malta
p674
aVkernelarch-mips/config.mips32r2
p675
ass(Vdescription
p676
g644
NV5kc-malta
p677
tp678
(dp679
Vhardware
p680
VMIPS Malta (64-bit)
p681
sVhardware-long
p682
VMIPS Malta boards (64-bit)
p683
ss(Vimage
p684
g644
NV5kc-malta
p685
tp686
(dp687
Vconfigs
p688
(lp689
Vkernelarch-mips/config.malta
p690
aVkernelarch-mips/config.mips64r2
p691
ass(Vdescription
p692
g644
NVocteon
p693
tp694
(dp695
Vhardware
p696
VOcteon
p697
sVhardware-long
p698
VCavium Networks Octeon
p699
ss(Vimage
p700
g644
NVocteon
p701
tp702
(dp703
Vconfigs
p704
(lp705
Vkernelarch-mips/config.octeon
p706
ass(g187
g644
g158
tp707
(dp708
g190
(lp709
V4kc-malta
p710
aV5kc-malta
p711
aVocteon
p712
asg194
I01
ss(Vbase
p713
Vmips64
p714
tp715
(dp716
Vkernel-arch
p717
Vmips
p718
sg156
(lp719
g158
ass(Vbuild
p720
g714
tp721
(dp722
Vimage-file
p723
Vvmlinux
p724
ss(Vimage
p725
g714
tp726
(dp727
Vinstall-stem
p728
Vvmlinux
p729
ss(Vdescription
p730
g714
NV5kc-malta
p731
tp732
(dp733
Vhardware
p734
VMIPS Malta
p735
sVhardware-long
p736
VMIPS Malta boards
p737
ss(Vimage
p738
g714
NV5kc-malta
p739
tp740
(dp741
Vconfigs
p742
(lp743
Vkernelarch-mips/config.malta
p744
aVkernelarch-mips/config.mips64r2
p745
ass(Vdescription
p746
g714
NVocteon
p747
tp748
(dp749
Vhardware
p750
VOcteon
p751
sVhardware-long
p752
VCavium Networks Octeon
p753
ss(Vimage
p754
g714
NVocteon
p755
tp756
(dp757
Vconfigs
p758
(lp759
Vkernelarch-mips/config.octeon
p760
ass(g187
g714
g158
tp761
(dp762
g190
(lp763
V5kc-malta
p764
aVocteon
p765
asg194
I01
ss(Vbase
p766
Vmips64el
p767
tp768
(dp769
Vkernel-arch
p770
Vmips
p771
sg156
(lp772
g158
ass(Vbuild
p773
g767
tp774
(dp775
Vimage-file
p776
Vvmlinux
p777
ss(Vimage
p778
g767
tp779
(dp780
Vinstall-stem
p781
Vvmlinux
p782
ss(Vdescription
p783
g767
NV5kc-malta
p784
tp785
(dp786
Vhardware
p787
VMIPS Malta
p788
sVhardware-long
p789
VMIPS Malta boards
p790
ss(Vimage
p791
g767
NV5kc-malta
p792
tp793
(dp794
Vconfigs
p795
(lp796
Vkernelarch-mips/config.malta
p797
aVkernelarch-mips/config.mips64r2
p798
ass(Vdescription
p799
g767
NVloongson-3
p800
tp801
(dp802
Vhardware
p803
VLoongson 3A/3B
p804
sVhardware-long
p805
VLoongson 3A or 3B based systems (e.g. from Loongson or Lemote)
p806
ss(Vimage
p807
g767
NVloongson-3
p808
tp809
(dp810
Vconfigs
p811
(lp812
Vkernelarch-mips/config.loongson-3
p813
ass(Vdescription
p814
g767
NVocteon
p815
tp816
(dp817
Vhardware
p818
VOcteon
p819
sVhardware-long
p820
VCavium Networks Octeon
p821
ss(Vimage
p822
g767
NVocteon
p823
tp824
(dp825
Vconfigs
p826
(lp827
Vkernelarch-mips/config.octeon
p828
ass(g187
g767
g158
tp829
(dp830
g190
(lp831
V5kc-malta
p832
aVloongson-3
p833
aVocteon
p834
asg194
I01
ss(Vbase
p835
Vmips64r6
p836
tp837
(dp838
Vkernel-arch
p839
Vmips
p840
sg156
(lp841
g158
ass(Vbuild
p842
g836
tp843
(dp844
Vimage-file
p845
Vvmlinux
p846
ss(Vimage
p847
g836
tp848
(dp849
Vinstall-stem
p850
Vvmlinux
p851
ss(Vdescription
p852
g836
NVmips64r6
p853
tp854
(dp855
Vhardware
p856
VMIPS R6 (64 bit, big endian)
p857
sVhardware-long
p858
VMIPS R6 (64 bit, big endian)
p859
ss(Vimage
p860
g836
NVmips64r6
p861
tp862
(dp863
Vconfigs
p864
(lp865
Vkernelarch-mips/config.boston
p866
aVkernelarch-mips/config.mips64r6
p867
ass(g187
g836
g158
tp868
(dp869
g190
(lp870
Vmips64r6
p871
asg194
I01
ss(Vbase
p872
Vmips64r6el
p873
tp874
(dp875
Vkernel-arch
p876
Vmips
p877
sg156
(lp878
g158
ass(Vbuild
p879
g873
tp880
(dp881
Vimage-file
p882
Vvmlinux
p883
ss(Vimage
p884
g873
tp885
(dp886
Vinstall-stem
p887
Vvmlinux
p888
ss(Vdescription
p889
g873
NVmips64r6el
p890
tp891
(dp892
Vhardware
p893
VMIPS R6 (64 bit, little endian)
p894
sVhardware-long
p895
VMIPS R6 (64 bit, little endian)
p896
ss(Vimage
p897
g873
NVmips64r6el
p898
tp899
(dp900
Vconfigs
p901
(lp902
Vkernelarch-mips/config.boston
p903
aVkernelarch-mips/config.mips64r6
p904
ass(g187
g873
g158
tp905
(dp906
g190
(lp907
Vmips64r6el
p908
asg194
I01
ss(Vbase
p909
Vmipsel
p910
tp911
(dp912
Vkernel-arch
p913
Vmips
p914
sg156
(lp915
g158
ass(Vbuild
p916
g910
tp917
(dp918
Vimage-file
p919
Vvmlinux
p920
ss(Vimage
p921
g910
tp922
(dp923
Vinstall-stem
p924
Vvmlinux
p925
ss(Vdescription
p926
g910
NV4kc-malta
p927
tp928
(dp929
Vhardware
p930
VMIPS Malta
p931
sVhardware-long
p932
VMIPS Malta boards
p933
ss(Vimage
p934
g910
NV4kc-malta
p935
tp936
(dp937
Vconfigs
p938
(lp939
Vkernelarch-mips/config.malta
p940
aVkernelarch-mips/config.mips32r2
p941
ass(Vdescription
p942
g910
NV5kc-malta
p943
tp944
(dp945
Vhardware
p946
VMIPS Malta (64-bit)
p947
sVhardware-long
p948
VMIPS Malta boards (64-bit)
p949
ss(Vimage
p950
g910
NV5kc-malta
p951
tp952
(dp953
Vconfigs
p954
(lp955
Vkernelarch-mips/config.malta
p956
aVkernelarch-mips/config.mips64r2
p957
ass(Vdescription
p958
g910
NVloongson-3
p959
tp960
(dp961
Vhardware
p962
VLoongson 3A/3B
p963
sVhardware-long
p964
VLoongson 3A or 3B based systems (e.g. from Loongson or Lemote)
p965
ss(Vimage
p966
g910
NVloongson-3
p967
tp968
(dp969
Vconfigs
p970
(lp971
Vkernelarch-mips/config.loongson-3
p972
ass(Vdescription
p973
g910
NVocteon
p974
tp975
(dp976
Vhardware
p977
VOcteon
p978
sVhardware-long
p979
VCavium Networks Octeon
p980
ss(Vimage
p981
g910
NVocteon
p982
tp983
(dp984
Vconfigs
p985
(lp986
Vkernelarch-mips/config.octeon
p987
ass(g187
g910
g158
tp988
(dp989
g190
(lp990
V4kc-malta
p991
aV5kc-malta
p992
aVloongson-3
p993
aVocteon
p994
asg194
I01
ss(Vbase
p995
Vmipsn32
p996
tp997
(dp998
Vkernel-arch
p999
Vmips
p1000
sVfeaturesets
p1001
(lp1002
ss(Vbase
p1003
Vmipsn32el
p1004
tp1005
(dp1006
Vkernel-arch
p1007
Vmips
p1008
sVfeaturesets
p1009
(lp1010
ss(Vbase
p1011
Vmipsn32r6
p1012
tp1013
(dp1014
Vkernel-arch
p1015
Vmips
p1016
sVfeaturesets
p1017
(lp1018
ss(Vbase
p1019
Vmipsn32r6el
p1020
tp1021
(dp1022
Vkernel-arch
p1023
Vmips
p1024
sVfeaturesets
p1025
(lp1026
ss(Vbase
p1027
Vmipsr6
p1028
tp1029
(dp1030
Vkernel-arch
p1031
Vmips
p1032
sg156
(lp1033
g158
ass(Vbuild
p1034
g1028
tp1035
(dp1036
Vimage-file
p1037
Vvmlinux
p1038
ss(Vimage
p1039
g1028
tp1040
(dp1041
Vinstall-stem
p1042
Vvmlinux
p1043
ss(Vdescription
p1044
g1028
NVmips32r6
p1045
tp1046
(dp1047
Vhardware
p1048
VMIPS R6 (32 bit, big endian)
p1049
sVhardware-long
p1050
VMIPS R6 (32 bit, big endian)
p1051
ss(Vimage
p1052
g1028
NVmips32r6
p1053
tp1054
(dp1055
Vconfigs
p1056
(lp1057
Vkernelarch-mips/config.boston
p1058
aVkernelarch-mips/config.mips32r6
p1059
ass(Vdescription
p1060
g1028
NVmips64r6
p1061
tp1062
(dp1063
Vhardware
p1064
VMIPS R6 (64 bit, big endian)
p1065
sVhardware-long
p1066
VMIPS R6 (64 bit, big endian)
p1067
ss(Vimage
p1068
g1028
NVmips64r6
p1069
tp1070
(dp1071
Vconfigs
p1072
(lp1073
Vkernelarch-mips/config.boston
p1074
aVkernelarch-mips/config.mips64r6
p1075
ass(g187
g1028
g158
tp1076
(dp1077
g190
(lp1078
Vmips32r6
p1079
aVmips64r6
p1080
asg194
I01
ss(Vbase
p1081
Vmipsr6el
p1082
tp1083
(dp1084
Vkernel-arch
p1085
Vmips
p1086
sg156
(lp1087
g158
ass(Vbuild
p1088
g1082
tp1089
(dp1090
Vimage-file
p1091
Vvmlinux
p1092
ss(Vimage
p1093
g1082
tp1094
(dp1095
Vinstall-stem
p1096
Vvmlinux
p1097
ss(Vdescription
p1098
g1082
NVmips32r6el
p1099
tp1100
(dp1101
Vhardware
p1102
VMIPS R6 (32 bit, little endian)
p1103
sVhardware-long
p1104
VMIPS R6 (32 bit, little endian)
p1105
ss(Vimage
p1106
g1082
NVmips32r6el
p1107
tp1108
(dp1109
Vconfigs
p1110
(lp1111
Vkernelarch-mips/config.boston
p1112
aVkernelarch-mips/config.mips32r6
p1113
ass(Vdescription
p1114
g1082
NVmips64r6el
p1115
tp1116
(dp1117
Vhardware
p1118
VMIPS R6 (64 bit, little endian)
p1119
sVhardware-long
p1120
VMIPS R6 (64 bit, little endian)
p1121
ss(Vimage
p1122
g1082
NVmips64r6el
p1123
tp1124
(dp1125
Vconfigs
p1126
(lp1127
Vkernelarch-mips/config.boston
p1128
aVkernelarch-mips/config.mips64r6
p1129
ass(g187
g1082
g158
tp1130
(dp1131
g190
(lp1132
Vmips32r6el
p1133
aVmips64r6el
p1134
asg194
I01
ss(Vbase
p1135
Vpowerpc
p1136
tp1137
(dp1138
Vkernel-arch
p1139
Vpowerpc
p1140
sg156
(lp1141
g158
ass(Vbuild
p1142
g1136
tp1143
(dp1144
Vimage-file
p1145
Vvmlinux
p1146
sVvdso
p1147
I01
ss(Vimage
p1148
g1136
tp1149
(dp1150
Vconfigs
p1151
(lp1152
sVsuggests
p1153
Vmkvmlinuz
p1154
sVinstall-stem
p1155
Vvmlinux
p1156
ss(Vdescription
p1157
g1136
NVpowerpc
p1158
tp1159
(dp1160
Vhardware
p1161
Vuniprocessor 32-bit PowerPC
p1162
ss(Vdescription
p1163
g1136
NVpowerpc-smp
p1164
tp1165
(dp1166
Vhardware
p1167
Vmultiprocessor 32-bit PowerPC
p1168
ss(Vimage
p1169
g1136
NVpowerpc-smp
p1170
tp1171
(dp1172
Vconfigs
p1173
(lp1174
Vpowerpc/config.powerpc
p1175
aVpowerpc/config.powerpc-smp
p1176
ass(Vdescription
p1177
g1136
NVpowerpc64
p1178
tp1179
(dp1180
Vhardware
p1181
V64-bit PowerPC
p1182
ss(Vimage
p1183
g1136
NVpowerpc64
p1184
tp1185
(dp1186
Vconfigs
p1187
(lp1188
Vkernelarch-powerpc/config-arch-64
p1189
aVkernelarch-powerpc/config-arch-64-be
p1190
ass(g187
g1136
g158
tp1191
(dp1192
g190
(lp1193
Vpowerpc
p1194
aVpowerpc-smp
p1195
aVpowerpc64
p1196
asg194
I01
ss(Vbase
p1197
Vpowerpcspe
p1198
tp1199
(dp1200
Vkernel-arch
p1201
Vpowerpc
p1202
sg156
(lp1203
g158
ass(Vbuild
p1204
g1198
tp1205
(dp1206
Vimage-file
p1207
Vvmlinux
p1208
sVvdso
p1209
I01
ss(Vimage
p1210
g1198
tp1211
(dp1212
Vsuggests
p1213
Vmkvmlinuz
p1214
sVinstall-stem
p1215
Vvmlinux
p1216
ss(Vdescription
p1217
g1198
tp1218
(dp1219
Vhardware
p1220
V32-bit PowerPC with SPE (instead of AltiVec) with SMP support
p1221
ss(g187
g1198
g158
tp1222
(dp1223
g190
(lp1224
Vpowerpcspe
p1225
asg194
I01
ss(Vbase
p1226
Vppc64
p1227
tp1228
(dp1229
Vkernel-arch
p1230
Vpowerpc
p1231
sg156
(lp1232
g158
ass(Vbuild
p1233
g1227
tp1234
(dp1235
Vimage-file
p1236
Vvmlinux
p1237
sVvdso
p1238
I01
ss(Vimage
p1239
g1227
tp1240
(dp1241
Vconfigs
p1242
(lp1243
sVsuggests
p1244
Vmkvmlinuz
p1245
sVinstall-stem
p1246
Vvmlinux
p1247
ss(Vdescription
p1248
g1227
NVpowerpc64
p1249
tp1250
(dp1251
Vhardware
p1252
V64-bit PowerPC
p1253
ss(Vimage
p1254
g1227
NVpowerpc64
p1255
tp1256
(dp1257
Vconfigs
p1258
(lp1259
Vkernelarch-powerpc/config-arch-64
p1260
aVkernelarch-powerpc/config-arch-64-be
p1261
ass(g187
g1227
g158
tp1262
(dp1263
g190
(lp1264
Vpowerpc64
p1265
asg194
I01
ss(Vbase
p1266
Vppc64el
p1267
tp1268
(dp1269
Vkernel-arch
p1270
Vpowerpc
p1271
sg156
(lp1272
g158
ass(Vbuild
p1273
g1267
tp1274
(dp1275
Vimage-file
p1276
Vvmlinux
p1277
sVvdso
p1278
I01
ss(Vimage
p1279
g1267
tp1280
(dp1281
Vconfigs
p1282
(lp1283
sVsuggests
p1284
Vmkvmlinuz
p1285
sVinstall-stem
p1286
Vvmlinux
p1287
ss(Vdescription
p1288
g1267
NVpowerpc64le
p1289
tp1290
(dp1291
Vhardware
p1292
VLittle-endian 64-bit PowerPC
p1293
ss(Vimage
p1294
g1267
NVpowerpc64le
p1295
tp1296
(dp1297
Vconfigs
p1298
(lp1299
Vkernelarch-powerpc/config-arch-64
p1300
aVkernelarch-powerpc/config-arch-64-le
p1301
ass(g187
g1267
g158
tp1302
(dp1303
g190
(lp1304
Vpowerpc64le
p1305
asg194
I01
ss(Vbase
p1306
Vriscv64
p1307
tp1308
(dp1309
Vkernel-arch
p1310
Vriscv
p1311
sVfeaturesets
p1312
(lp1313
ss(Vbase
p1314
Vs390
p1315
tp1316
(dp1317
Vkernel-arch
p1318
Vs390
p1319
sVfeaturesets
p1320
(lp1321
ss(Vbase
p1322
Vs390x
p1323
tp1324
(dp1325
Vkernel-arch
p1326
Vs390
p1327
sg156
(lp1328
g158
ass(Vbuild
p1329
g1323
tp1330
(dp1331
Vimage-file
p1332
Varch/s390/boot/image
p1333
sVvdso
p1334
I01
ss(Vimage
p1335
g1323
tp1336
(dp1337
Vbootloaders
p1338
(lp1339
Vs390-tools
p1340
asVinstall-stem
p1341
Vvmlinuz
p1342
ss(Vrelations
p1343
g1323
tp1344
(dp1345
Vheaders%gcc-7
p1346
Vlinux-compiler-gcc-7-s390
p1347
ss(Vbuild
p1348
g1323
NVs390x
p1349
tp1350
(dp1351
Vdebug-info
p1352
I01
ss(Vdescription
p1353
g1323
NVs390x
p1354
tp1355
(dp1356
Vhardware
p1357
VIBM zSeries
p1358
ss(g187
g1323
g158
tp1359
(dp1360
g190
(lp1361
Vs390x
p1362
asg194
I01
ss(Vbase
p1363
Vsh3
p1364
tp1365
(dp1366
Vkernel-arch
p1367
Vsh
p1368
sVfeaturesets
p1369
(lp1370
ss(Vbase
p1371
Vsh4
p1372
tp1373
(dp1374
Vkernel-arch
p1375
Vsh
p1376
sg156
(lp1377
g158
ass(Vbuild
p1378
g1372
tp1379
(dp1380
Vimage-file
p1381
Varch/sh/boot/zImage
p1382
ss(Vimage
p1383
g1372
tp1384
(dp1385
Vinstall-stem
p1386
Vvmlinuz
p1387
ss(Vdescription
p1388
g1372
NVsh7751r
p1389
tp1390
(dp1391
Vhardware
p1392
Vsh7751r
p1393
sVhardware-long
p1394
VRenesas SH7751R R2D plus board
p1395
ss(Vdescription
p1396
g1372
NVsh7785lcr
p1397
tp1398
(dp1399
Vhardware
p1400
Vsh7785lcr
p1401
sVhardware-long
p1402
VRenesas SH7785 reference board
p1403
ss(Vimage
p1404
g1372
NVsh7785lcr
p1405
tp1406
(dp1407
Vrecommends
p1408
Vu-boot-tools
p1409
sVcheck-size
p1410
L4194304L
ss(g187
g1372
g158
tp1411
(dp1412
g190
(lp1413
Vsh7751r
p1414
aVsh7785lcr
p1415
asg194
I01
ss(Vbase
p1416
Vsparc
p1417
tp1418
(dp1419
Vkernel-arch
p1420
Vsparc
p1421
sVfeaturesets
p1422
(lp1423
ss(Vbase
p1424
Vsparc64
p1425
tp1426
(dp1427
Vkernel-arch
p1428
Vsparc
p1429
sg156
(lp1430
g158
ass(Vbuild
p1431
g1425
tp1432
(dp1433
Vimage-file
p1434
Varch/sparc/boot/zImage
p1435
ss(Vimage
p1436
g1425
tp1437
(dp1438
Vconfigs
p1439
(lp1440
sVsuggests
p1441
Vsilo, fdutils
p1442
sVinstall-stem
p1443
Vvmlinuz
p1444
ss(Vdescription
p1445
g1425
NVsparc64
p1446
tp1447
(dp1448
Vhardware
p1449
Vuniprocessor 64-bit UltraSPARC
p1450
ss(Vimage
p1451
g1425
NVsparc64
p1452
tp1453
(dp1454
Vconfigs
p1455
(lp1456
Vkernelarch-sparc/config-up
p1457
ass(Vdescription
p1458
g1425
NVsparc64-smp
p1459
tp1460
(dp1461
Vhardware
p1462
Vmultiprocessor 64-bit UltraSPARC
p1463
ss(Vimage
p1464
g1425
NVsparc64-smp
p1465
tp1466
(dp1467
Vconfigs
p1468
(lp1469
Vkernelarch-sparc/config-smp
p1470
ass(g187
g1425
g158
tp1471
(dp1472
g190
(lp1473
Vsparc64
p1474
aVsparc64-smp
p1475
asg194
I01
ss(Vbase
p1476
Vx32
p1477
tp1478
(dp1479
Vkernel-arch
p1480
Vx86
p1481
sVfeaturesets
p1482
(lp1483
ss(Vabi
p1484
NVrt
p1485
tp1486
(dp1487
Vignore-changes
p1488
(lp1489
V*
p1490
ass(Vdescription
p1491
Ng1485
tp1492
(dp1493
Vpart-long-rt
p1494
VThis kernel includes the PREEMPT_RT realtime patch set.
p1495
sVpart-short-rt
p1496
VPREEMPT_RT
p1497
sVparts
p1498
(lp1499
Vrt
p1500
ass(Vversion
p1501
tp1502
(dp1503
Vsource
p1504
V4.18.8-1kali1
p1505
sVupstream
p1506
V4.18
p1507
sVabiname_base
p1508
V4.18.0
p1509
sVabiname
p1510
V4.18.0-kali1
p1511
ss.