cdebian_linux.config
ConfigCore
p0
(tRp1
(Vabi
p2
tp3
(dp4
Vabiname
p5
Vkali1
p6
sVignore-changes
p7
(lp8
V__cpuhp_*
p9
aV__xive_vm_h_*
p10
aVbpf_analyzer
p11
aVcxl_*
p12
aVdax_flush
p13
aVieee80211_nullfunc_get
p14
aVinet_add_protocol
p15
aVinet_del_protocol
p16
aViommu_device_*
p17
aVkvm_async_pf_task_wait
p18
aVkvmppc_*
p19
aVmm_iommu_*
p20
aVmv_mbus_*
p21
aVperf_*
p22
aVregister_cxl_calls
p23
aVregister_key_type
p24
aVunregister_cxl_calls
p25
aV*_hw_breakpoint
p26
aVmodule:arch/x86/kvm/*
p27
aVmodule:drivers/crypto/ccp/*
p28
aVmodule:drivers/hv/*
p29
aVmodule:drivers/iio/common/hid-sensors/*
p30
aVmodule:drivers/iio/common/st_sensors/**
p31
aVmodule:drivers/mtd/nand/*
p32
aVmodule:drivers/net/wireless/**
p33
aVmodule:drivers/nvdimm/*
p34
aVmodule:drivers/power/supply/bq27xxx_battery
p35
aVmodule:drivers/scsi/cxgbi/*
p36
aVmodule:drivers/scsi/libiscs*
p37
aVmodule:drivers/scsi/qla2xxx/qla2xxx
p38
aVmodule:drivers/scsi/ufs/*
p39
aVmodule:drivers/target/**
p40
aVmodule:drivers/usb/chipidea/**
p41
aVmodule:drivers/usb/gadget/**
p42
aVmodule:drivers/usb/host/**
p43
aVmodule:drivers/usb/musb/**
p44
aVmodule:fs/nfs/**
p45
aVmodule:net/ceph/libceph
p46
aVmodule:net/l2tp/**
p47
aVmodule:net/rxrpc/rxrpc
p48
aVmodule:sound/core/seq/**
p49
aVmodule:sound/firewire/snd-firewire-lib
p50
aVbtree_*
p51
aVvisitor*
p52
aVcan_rx_register
p53
aVip6_xmit
p54
aVmodule:net/dccp/dccp
p55
aVmodule:net/rds/rds
p56
aVdevfreq_*
p57
aVdevm_devfreq_*
p58
aVupdate_devfreq
p59
aVmodule:drivers/infiniband/**
p60
aVacpi_ec_add_query_handler
p61
aVacpi_ec_remove_query_handler
p62
aVfirst_ec
p63
aVdebugfs_create_automount
p64
aVmodule:drivers/iio/imu/inv_mpu6050/*
p65
ass(Vbase
p66
tp67
(dp68
Varches
p69
(lp70
Valpha
p71
aVamd64
p72
aVarm64
p73
aVarm64ilp32
p74
aVarmel
p75
aVarmhf
p76
aVhppa
p77
aVi386
p78
aVm68k
p79
aVmips
p80
aVmips64
p81
aVmips64el
p82
aVmips64r6
p83
aVmips64r6el
p84
aVmipsel
p85
aVmipsn32
p86
aVmipsn32el
p87
aVmipsn32r6
p88
aVmipsn32r6el
p89
aVmipsr6
p90
aVmipsr6el
p91
aVpowerpc
p92
aVpowerpcspe
p93
aVppc64
p94
aVppc64el
p95
aVs390
p96
aVs390x
p97
aVsh3
p98
aVsh4
p99
aVsparc
p100
aVsparc64
p101
aVtilegx
p102
aVx32
p103
asVcompiler
p104
Vgcc-7
p105
sVfeaturesets
p106
(lp107
Vnone
p108
aVrt
p109
ass(Vbuild
p110
tp111
(dp112
Vdebug-info
p113
I01
sVsigned-modules
p114
I00
ss(Vbase
p115
NVrt
p116
tp117
(dp118
Venabled
p119
I00
ss(Vdescription
p120
tp121
(dp122
Vpart-long-up
p123
VThis kernel is not suitable for SMP (multi-processor,\u000amulti-core or hyper-threaded) systems.
p124
sVpart-long-xen
p125
VThis kernel also runs on a Xen hypervisor.\u000aIt supports both privileged (dom0) and unprivileged (domU) operation.
p126
ss(Vimage
p127
tp128
(dp129
Vinitramfs-generators
p130
(lp131
Vinitramfs-tools
p132
aVinitramfs-fallback
p133
asVrecommends
p134
Vapparmor
p135
ss(Vrelations
p136
tp137
(dp138
Vgcc-7
p139
Vgcc-7 <!stage1 !cross>, gcc-7-@gnu-type-package@ <!stage1 cross>
p140
sVinitramfs-fallback
p141
Vlinux-initramfs-tool
p142
sVinitramfs-tools
p143
Vinitramfs-tools (>= 0.120+deb8u2)
p144
ss(Vbase
p145
Valpha
p146
tp147
(dp148
Vkernel-arch
p149
Valpha
p150
sVfeaturesets
p151
(lp152
Vnone
p153
ass(Vbuild
p154
g146
tp155
(dp156
Vimage-file
p157
Varch/alpha/boot/vmlinux.gz
p158
sVsigned-modules
p159
I00
ss(Vimage
p160
g146
tp161
(dp162
Vsuggests
p163
Vaboot, fdutils
p164
sVinstall-stem
p165
Vvmlinuz
p166
ss(Vdescription
p167
g146
NValpha-generic
p168
tp169
(dp170
Vhardware
p171
VAlpha
p172
sVhardware-long
p173
VDEC Alpha systems with extended kernel start address (Wildfire, Titan, Marvel)
p174
ss(Vdescription
p175
g146
NValpha-smp
p176
tp177
(dp178
Vhardware
p179
VAlpha SMP
p180
sVhardware-long
p181
VDEC Alpha SMP systems with extended kernel start address (Wildfire, Titan, Marvel)
p182
ss(Vbase
p183
g146
g153
tp184
(dp185
Vflavours
p186
(lp187
Valpha-generic
p188
aValpha-smp
p189
asVimplicit-flavour
p190
I01
ss(Vbase
p191
Vamd64
p192
tp193
(dp194
Vfeaturesets
p195
(lp196
Vnone
p197
aVrt
p198
asVkernel-arch
p199
Vx86
p200
ss(Vbuild
p201
g192
tp202
(dp203
Vdebug-info
p204
I01
sVimage-file
p205
Varch/x86/boot/bzImage
p206
sVvdso
p207
I01
sVsigned-modules
p208
I00
ss(Vimage
p209
g192
tp210
(dp211
Vbootloaders
p212
(lp213
Vgrub-pc
p214
aVgrub-efi-amd64
p215
aVextlinux
p216
asVinstall-stem
p217
Vvmlinuz
p218
sVbreaks
p219
Vxserver-xorg-input-vmmouse (<< 1:13.0.99)
p220
ss(Vrelations
p221
g192
tp222
(dp223
Vgcc-7
p224
Vgcc-7 (>= 7.2.0-20~) <!stage1 !cross>, gcc-7-x86-64-linux-gnu (>= 7.2.0-20~) <!stage1 cross>
p225
sVheaders%gcc-7
p226
Vlinux-compiler-gcc-7-x86 (>= 4.14.17-1~)
p227
ss(Vdescription
p228
g192
NVamd64
p229
tp230
(dp231
Vhardware
p232
V64-bit PCs
p233
sVhardware-long
p234
VPCs with AMD64, Intel 64 or VIA Nano processors
p235
ss(Vdescription
p236
g192
NVcloud-amd64
p237
tp238
(dp239
Vhardware
p240
Vx86-64 cloud
p241
sVhardware-long
p242
VAmazon EC2, Google Compute Engine and Microsoft Azure cloud platforms
p243
ss(Vbase
p244
g192
Vnone
p245
tp246
(dp247
Vflavours
p248
(lp249
Vamd64
p250
aVcloud-amd64
p251
ass(Vdescription
p252
g192
g245
Vamd64
p253
tp254
(dp255
Vparts
p256
(lp257
Vxen
p258
ass(Vbase
p259
g192
Vrt
p260
tp261
(dp262
Vflavours
p263
(lp264
Vamd64
p265
ass(Vbase
p266
Varm64
p267
tp268
(dp269
Vkernel-arch
p270
Varm64
p271
sVfeaturesets
p272
(lp273
Vnone
p274
ass(Vbuild
p275
g267
tp276
(dp277
Vdebug-info
p278
I01
sVimage-file
p279
Varch/arm64/boot/Image
p280
sVvdso
p281
I01
sVsigned-modules
p282
I00
ss(Vimage
p283
g267
tp284
(dp285
Vinstall-stem
p286
Vvmlinuz
p287
sVbreaks
p288
Vlibmozjs185-1.0, libmozjs-24-0 (<< 24.2.0-5.1~)
p289
ss(Vdescription
p290
g267
NVarm64
p291
tp292
(dp293
Vhardware
p294
V64-bit ARMv8 machines
p295
ss(Vimage
p296
g267
NVarm64
p297
tp298
(dp299
s(Vbase
p300
g267
Vnone
p301
tp302
(dp303
Vflavours
p304
(lp305
Varm64
p306
ass(Vbase
p307
Varm64ilp32
p308
tp309
(dp310
Vkernel-arch
p311
Varm64
p312
sVfeaturesets
p313
(lp314
ss(Vbase
p315
Varmel
p316
tp317
(dp318
Vflavours
p319
(lp320
sVkernel-arch
p321
Varm
p322
ss(Vbuild
p323
g316
tp324
(dp325
Vimage-file
p326
Varch/arm/boot/zImage
p327
sVsigned-modules
p328
I00
sVuncompressed-image-file
p329
Varch/arm/boot/Image
p330
ss(Vimage
p331
g316
tp332
(dp333
Vinstall-stem
p334
Vvmlinuz
p335
ss(Vrelations
p336
g316
tp337
(dp338
Vheaders%gcc-7
p339
Vlinux-compiler-gcc-7-arm
p340
ss(Vdescription
p341
g316
NVmarvell
p342
tp343
(dp344
Vhardware
p345
VMarvell Kirkwood/Orion
p346
sVhardware-long
p347
VMarvell Kirkwood based systems (SheevaPlug, QNAP TS-119/TS-219, etc)\u000aand Orion 5181, 5182 and 5281 based systems (QNAP TS-109/TS-209, etc)
p348
ss(Vimage
p349
g316
NVmarvell
p350
tp351
(dp352
Vrecommends
p353
Vu-boot-tools
p354
sVcheck-size
p355
L2097080L
sVcheck-size-with-dtb
p356
I01
sVcheck-uncompressed-size
p357
L7340032L
sVbreaks
p358
Vflash-kernel (<< 3.57~)
p359
ss(Vbase
p360
Varmhf
p361
tp362
(dp363
Vkernel-arch
p364
Varm
p365
sg151
(lp366
g153
ass(Vbuild
p367
g361
tp368
(dp369
Vimage-file
p370
Varch/arm/boot/zImage
p371
sVvdso
p372
I01
sVsigned-modules
p373
I00
ss(Vimage
p374
g361
tp375
(dp376
Vinstall-stem
p377
Vvmlinuz
p378
ss(Vrelations
p379
g361
tp380
(dp381
Vheaders%gcc-7
p382
Vlinux-compiler-gcc-7-arm
p383
ss(Vdescription
p384
g361
NVarmmp
p385
tp386
(dp387
Vhardware
p388
VARMv7 multiplatform compatible SoCs
p389
sVhardware-long
p390
VARMv7 multiplatform kernel. See\u000ahttps://wiki.debian.org/DebianKernel/ARMMP for details of supported\u000aplatforms
p391
ss(Vdescription
p392
g361
NVarmmp-lpae
p393
tp394
(dp395
Vhardware
p396
VARMv7 multiplatform compatible SoCs supporting LPAE
p397
sVhardware-long
p398
VARMv7 multiplatform kernel supporting LPAE. See\u000ahttps://wiki.debian.org/DebianKernel/ARMMP for details of supported\u000aplatforms.
p399
ss(g183
g361
g153
tp400
(dp401
g186
(lp402
Varmmp
p403
aVarmmp-lpae
p404
asg190
I01
ss(Vbase
p405
Vhppa
p406
tp407
(dp408
Vkernel-arch
p409
Vparisc
p410
sg151
(lp411
g153
ass(Vbuild
p412
g406
tp413
(dp414
Vimage-file
p415
Vvmlinux
p416
sVsigned-modules
p417
I00
ss(Vimage
p418
g406
tp419
(dp420
Vsuggests
p421
Vpalo
p422
sVinstall-stem
p423
Vvmlinux
p424
ss(Vdescription
p425
g406
NVparisc
p426
tp427
(dp428
Vhardware
p429
V32-bit PA-RISC
p430
sVhardware-long
p431
VHP PA-RISC 32-bit systems with max 4 GB RAM
p432
ss(Vbase
p433
g406
NVparisc64-smp
p434
tp435
(dp436
Vcflags
p437
V-fno-cse-follow-jumps
p438
sVoverride-host-type
p439
Vhppa64-linux-gnu
p440
ss(Vdescription
p441
g406
NVparisc64-smp
p442
tp443
(dp444
Vhardware
p445
Vmultiprocessor 64-bit PA-RISC
p446
sVhardware-long
p447
VHP PA-RISC 64-bit SMP systems with support for more than 4 GB RAM
p448
ss(Vrelations
p449
g406
tp450
(dp451
Vgcc-7
p452
Vgcc-7 <!stage1 !cross>, binutils-hppa64-linux-gnu <!stage1 !cross>, gcc-7-hppa64-linux-gnu <!stage1 !cross>, gcc-7-hppa-linux-gnu <!stage1 cross>, binutils-hppa64-linux-gnu <!stage1 cross>, gcc-7-hppa64-linux-gnu <!stage1 cross>
p453
ss(g183
g406
g153
tp454
(dp455
g186
(lp456
Vparisc
p457
aVparisc64-smp
p458
asg190
I01
ss(Vbase
p459
Vi386
p460
tp461
(dp462
Vfeaturesets
p463
(lp464
Vnone
p465
aVrt
p466
asVkernel-arch
p467
Vx86
p468
ss(Vbuild
p469
g460
tp470
(dp471
Vimage-file
p472
Varch/x86/boot/bzImage
p473
sVvdso
p474
I01
sVsigned-modules
p475
I00
ss(Vdescription
p476
g460
tp477
(dp478
Vpart-long-pae
p479
VThis kernel requires PAE (Physical Address Extension).\u000aThis feature is supported by the Intel Pentium Pro/II/III/4/4M/D, Xeon,\u000aCore and Atom; AMD Geode NX, Athlon (K7), Duron, Opteron, Sempron,\u000aTurion or Phenom; Transmeta Efficeon; VIA C7; and some other processors.
p480
ss(Vimage
p481
g460
tp482
(dp483
Vbootloaders
p484
(lp485
Vgrub-pc
p486
aVextlinux
p487
asVinstall-stem
p488
Vvmlinuz
p489
sVbreaks
p490
Vxserver-xorg-input-vmmouse (<< 1:13.0.99)
p491
ss(Vrelations
p492
g460
tp493
(dp494
Vgcc-7
p495
Vgcc-7 (>= 7.2.0-20~) <!stage1 !cross>, gcc-7-i686-linux-gnu (>= 7.2.0-20~) <!stage1 cross>
p496
sVheaders%gcc-7
p497
Vlinux-compiler-gcc-7-x86 (>= 4.14.17-1~)
p498
ss(Vdescription
p499
g460
NV686
p500
tp501
(dp502
Vhardware
p503
Volder PCs
p504
sVhardware-long
p505
VPCs with one or more processors not supporting PAE
p506
ss(Vbuild
p507
g460
NV686-pae
p508
tp509
(dp510
Vdebug-info
p511
I01
ss(Vdescription
p512
g460
NV686-pae
p513
tp514
(dp515
Vhardware
p516
Vmodern PCs
p517
sVhardware-long
p518
VPCs with one or more processors supporting PAE
p519
sVparts
p520
(lp521
Vpae
p522
ass(Vbase
p523
g460
Vnone
p524
tp525
(dp526
Vflavours
p527
(lp528
V686
p529
aV686-pae
p530
ass(Vdescription
p531
g460
g524
V686-pae
p532
tp533
(dp534
Vparts
p535
(lp536
Vxen
p537
ass(Vbase
p538
g460
Vrt
p539
tp540
(dp541
Vflavours
p542
(lp543
V686-pae
p544
ass(Vbase
p545
Vm68k
p546
tp547
(dp548
Vcflags
p549
V-ffreestanding
p550
sVkernel-arch
p551
Vm68k
p552
sg151
(lp553
g153
ass(Vbuild
p554
g546
tp555
(dp556
Vimage-file
p557
Vvmlinux
p558
sVsigned-modules
p559
I00
ss(Vimage
p560
g546
tp561
(dp562
Vsuggests
p563
Vvmelilo, fdutils
p564
sVinstall-stem
p565
Vvmlinux
p566
ss(Vdescription
p567
g546
NVm68k
p568
tp569
(dp570
Vhardware
p571
VMotorola MC68020+ family
p572
ss(g183
g546
g153
tp573
(dp574
g186
(lp575
Vm68k
p576
asg190
I01
ss(Vbase
p577
Vmips
p578
tp579
(dp580
Vkernel-arch
p581
Vmips
p582
sg151
(lp583
g153
ass(Vbuild
p584
g578
tp585
(dp586
Vimage-file
p587
Vvmlinux
p588
sVsigned-modules
p589
I00
ss(Vimage
p590
g578
tp591
(dp592
Vinstall-stem
p593
Vvmlinux
p594
ss(Vdescription
p595
g578
NV4kc-malta
p596
tp597
(dp598
Vhardware
p599
VMIPS Malta
p600
sVhardware-long
p601
VMIPS Malta boards
p602
ss(Vimage
p603
g578
NV4kc-malta
p604
tp605
(dp606
Vconfigs
p607
(lp608
Vkernelarch-mips/config.malta
p609
aVkernelarch-mips/config.mips32r2
p610
ass(Vdescription
p611
g578
NV5kc-malta
p612
tp613
(dp614
Vhardware
p615
VMIPS Malta (64-bit)
p616
sVhardware-long
p617
VMIPS Malta boards (64-bit)
p618
ss(Vimage
p619
g578
NV5kc-malta
p620
tp621
(dp622
Vconfigs
p623
(lp624
Vkernelarch-mips/config.malta
p625
aVkernelarch-mips/config.mips64r2
p626
ass(Vdescription
p627
g578
NVocteon
p628
tp629
(dp630
Vhardware
p631
VOcteon
p632
sVhardware-long
p633
VCavium Networks Octeon
p634
ss(Vimage
p635
g578
NVocteon
p636
tp637
(dp638
Vconfigs
p639
(lp640
Vkernelarch-mips/config.octeon
p641
ass(g183
g578
g153
tp642
(dp643
g186
(lp644
V4kc-malta
p645
aV5kc-malta
p646
aVocteon
p647
asg190
I01
ss(Vbase
p648
Vmips64
p649
tp650
(dp651
Vkernel-arch
p652
Vmips
p653
sg151
(lp654
g153
ass(Vbuild
p655
g649
tp656
(dp657
Vimage-file
p658
Vvmlinux
p659
sVsigned-modules
p660
I00
ss(Vimage
p661
g649
tp662
(dp663
Vinstall-stem
p664
Vvmlinux
p665
ss(Vdescription
p666
g649
NV5kc-malta
p667
tp668
(dp669
Vhardware
p670
VMIPS Malta
p671
sVhardware-long
p672
VMIPS Malta boards
p673
ss(Vimage
p674
g649
NV5kc-malta
p675
tp676
(dp677
Vconfigs
p678
(lp679
Vkernelarch-mips/config.malta
p680
aVkernelarch-mips/config.mips64r2
p681
ass(Vdescription
p682
g649
NVocteon
p683
tp684
(dp685
Vhardware
p686
VOcteon
p687
sVhardware-long
p688
VCavium Networks Octeon
p689
ss(Vimage
p690
g649
NVocteon
p691
tp692
(dp693
Vconfigs
p694
(lp695
Vkernelarch-mips/config.octeon
p696
ass(g183
g649
g153
tp697
(dp698
g186
(lp699
V5kc-malta
p700
aVocteon
p701
asg190
I01
ss(Vbase
p702
Vmips64el
p703
tp704
(dp705
Vkernel-arch
p706
Vmips
p707
sg151
(lp708
g153
ass(Vbuild
p709
g703
tp710
(dp711
Vimage-file
p712
Vvmlinux
p713
sVsigned-modules
p714
I00
ss(Vimage
p715
g703
tp716
(dp717
Vinstall-stem
p718
Vvmlinux
p719
ss(Vdescription
p720
g703
NV5kc-malta
p721
tp722
(dp723
Vhardware
p724
VMIPS Malta
p725
sVhardware-long
p726
VMIPS Malta boards
p727
ss(Vimage
p728
g703
NV5kc-malta
p729
tp730
(dp731
Vconfigs
p732
(lp733
Vkernelarch-mips/config.malta
p734
aVkernelarch-mips/config.mips64r2
p735
ass(Vdescription
p736
g703
NVloongson-3
p737
tp738
(dp739
Vhardware
p740
VLoongson 3A/3B
p741
sVhardware-long
p742
VLoongson 3A or 3B based systems (e.g. from Loongson or Lemote)
p743
ss(Vimage
p744
g703
NVloongson-3
p745
tp746
(dp747
Vconfigs
p748
(lp749
Vkernelarch-mips/config.loongson-3
p750
ass(Vdescription
p751
g703
NVocteon
p752
tp753
(dp754
Vhardware
p755
VOcteon
p756
sVhardware-long
p757
VCavium Networks Octeon
p758
ss(Vimage
p759
g703
NVocteon
p760
tp761
(dp762
Vconfigs
p763
(lp764
Vkernelarch-mips/config.octeon
p765
ass(g183
g703
g153
tp766
(dp767
g186
(lp768
V5kc-malta
p769
aVloongson-3
p770
aVocteon
p771
asg190
I01
ss(Vbase
p772
Vmips64r6
p773
tp774
(dp775
Vkernel-arch
p776
Vmips
p777
sg151
(lp778
g153
ass(Vbuild
p779
g773
tp780
(dp781
Vimage-file
p782
Vvmlinux
p783
sVsigned-modules
p784
I00
ss(Vimage
p785
g773
tp786
(dp787
Vinstall-stem
p788
Vvmlinux
p789
ss(Vdescription
p790
g773
NVmips64r6
p791
tp792
(dp793
Vhardware
p794
VMIPS R6 (64 bit, big endian)
p795
sVhardware-long
p796
VMIPS R6 (64 bit, big endian)
p797
ss(Vimage
p798
g773
NVmips64r6
p799
tp800
(dp801
Vconfigs
p802
(lp803
Vkernelarch-mips/config.malta
p804
aVkernelarch-mips/config.mips64r6
p805
ass(g183
g773
g153
tp806
(dp807
g186
(lp808
Vmips64r6
p809
asg190
I01
ss(Vbase
p810
Vmips64r6el
p811
tp812
(dp813
Vkernel-arch
p814
Vmips
p815
sg151
(lp816
g153
ass(Vbuild
p817
g811
tp818
(dp819
Vimage-file
p820
Vvmlinux
p821
sVsigned-modules
p822
I00
ss(Vimage
p823
g811
tp824
(dp825
Vinstall-stem
p826
Vvmlinux
p827
ss(Vdescription
p828
g811
NVmips64r6el
p829
tp830
(dp831
Vhardware
p832
VMIPS R6 (64 bit, little endian)
p833
sVhardware-long
p834
VMIPS R6 (64 bit, little endian)
p835
ss(Vimage
p836
g811
NVmips64r6el
p837
tp838
(dp839
Vconfigs
p840
(lp841
Vkernelarch-mips/config.malta
p842
aVkernelarch-mips/config.mips64r6
p843
ass(g183
g811
g153
tp844
(dp845
g186
(lp846
Vmips64r6el
p847
asg190
I01
ss(Vbase
p848
Vmipsel
p849
tp850
(dp851
Vkernel-arch
p852
Vmips
p853
sg151
(lp854
g153
ass(Vbuild
p855
g849
tp856
(dp857
Vimage-file
p858
Vvmlinux
p859
sVsigned-modules
p860
I00
ss(Vimage
p861
g849
tp862
(dp863
Vinstall-stem
p864
Vvmlinux
p865
ss(Vdescription
p866
g849
NV4kc-malta
p867
tp868
(dp869
Vhardware
p870
VMIPS Malta
p871
sVhardware-long
p872
VMIPS Malta boards
p873
ss(Vimage
p874
g849
NV4kc-malta
p875
tp876
(dp877
Vconfigs
p878
(lp879
Vkernelarch-mips/config.malta
p880
aVkernelarch-mips/config.mips32r2
p881
ass(Vdescription
p882
g849
NV5kc-malta
p883
tp884
(dp885
Vhardware
p886
VMIPS Malta (64-bit)
p887
sVhardware-long
p888
VMIPS Malta boards (64-bit)
p889
ss(Vimage
p890
g849
NV5kc-malta
p891
tp892
(dp893
Vconfigs
p894
(lp895
Vkernelarch-mips/config.malta
p896
aVkernelarch-mips/config.mips64r2
p897
ass(Vdescription
p898
g849
NVloongson-3
p899
tp900
(dp901
Vhardware
p902
VLoongson 3A/3B
p903
sVhardware-long
p904
VLoongson 3A or 3B based systems (e.g. from Loongson or Lemote)
p905
ss(Vimage
p906
g849
NVloongson-3
p907
tp908
(dp909
Vconfigs
p910
(lp911
Vkernelarch-mips/config.loongson-3
p912
ass(Vdescription
p913
g849
NVocteon
p914
tp915
(dp916
Vhardware
p917
VOcteon
p918
sVhardware-long
p919
VCavium Networks Octeon
p920
ss(Vimage
p921
g849
NVocteon
p922
tp923
(dp924
Vconfigs
p925
(lp926
Vkernelarch-mips/config.octeon
p927
ass(g183
g849
g153
tp928
(dp929
g186
(lp930
V4kc-malta
p931
aV5kc-malta
p932
aVloongson-3
p933
aVocteon
p934
asg190
I01
ss(Vbase
p935
Vmipsn32
p936
tp937
(dp938
Vkernel-arch
p939
Vmips
p940
sVfeaturesets
p941
(lp942
ss(Vbase
p943
Vmipsn32el
p944
tp945
(dp946
Vkernel-arch
p947
Vmips
p948
sVfeaturesets
p949
(lp950
ss(Vbase
p951
Vmipsn32r6
p952
tp953
(dp954
Vkernel-arch
p955
Vmips
p956
sVfeaturesets
p957
(lp958
ss(Vbase
p959
Vmipsn32r6el
p960
tp961
(dp962
Vkernel-arch
p963
Vmips
p964
sVfeaturesets
p965
(lp966
ss(Vbase
p967
Vmipsr6
p968
tp969
(dp970
Vkernel-arch
p971
Vmips
p972
sg151
(lp973
g153
ass(Vbuild
p974
g968
tp975
(dp976
Vimage-file
p977
Vvmlinux
p978
sVsigned-modules
p979
I00
ss(Vimage
p980
g968
tp981
(dp982
Vinstall-stem
p983
Vvmlinux
p984
ss(Vdescription
p985
g968
NVmips32r6
p986
tp987
(dp988
Vhardware
p989
VMIPS R6 (32 bit, big endian)
p990
sVhardware-long
p991
VMIPS R6 (32 bit, big endian)
p992
ss(Vimage
p993
g968
NVmips32r6
p994
tp995
(dp996
Vconfigs
p997
(lp998
Vkernelarch-mips/config.malta
p999
aVkernelarch-mips/config.mips32r6
p1000
ass(Vdescription
p1001
g968
NVmips64r6
p1002
tp1003
(dp1004
Vhardware
p1005
VMIPS R6 (64 bit, big endian)
p1006
sVhardware-long
p1007
VMIPS R6 (64 bit, big endian)
p1008
ss(Vimage
p1009
g968
NVmips64r6
p1010
tp1011
(dp1012
Vconfigs
p1013
(lp1014
Vkernelarch-mips/config.malta
p1015
aVkernelarch-mips/config.mips64r6
p1016
ass(g183
g968
g153
tp1017
(dp1018
g186
(lp1019
Vmips32r6
p1020
aVmips64r6
p1021
asg190
I01
ss(Vbase
p1022
Vmipsr6el
p1023
tp1024
(dp1025
Vkernel-arch
p1026
Vmips
p1027
sg151
(lp1028
g153
ass(Vbuild
p1029
g1023
tp1030
(dp1031
Vimage-file
p1032
Vvmlinux
p1033
sVsigned-modules
p1034
I00
ss(Vimage
p1035
g1023
tp1036
(dp1037
Vinstall-stem
p1038
Vvmlinux
p1039
ss(Vdescription
p1040
g1023
NVmips32r6el
p1041
tp1042
(dp1043
Vhardware
p1044
VMIPS R6 (32 bit, little endian)
p1045
sVhardware-long
p1046
VMIPS R6 (32 bit, little endian)
p1047
ss(Vimage
p1048
g1023
NVmips32r6el
p1049
tp1050
(dp1051
Vconfigs
p1052
(lp1053
Vkernelarch-mips/config.malta
p1054
aVkernelarch-mips/config.mips32r6
p1055
ass(Vdescription
p1056
g1023
NVmips64r6el
p1057
tp1058
(dp1059
Vhardware
p1060
VMIPS R6 (64 bit, little endian)
p1061
sVhardware-long
p1062
VMIPS R6 (64 bit, little endian)
p1063
ss(Vimage
p1064
g1023
NVmips64r6el
p1065
tp1066
(dp1067
Vconfigs
p1068
(lp1069
Vkernelarch-mips/config.malta
p1070
aVkernelarch-mips/config.mips64r6
p1071
ass(g183
g1023
g153
tp1072
(dp1073
g186
(lp1074
Vmips32r6el
p1075
aVmips64r6el
p1076
asg190
I01
ss(Vbase
p1077
Vpowerpc
p1078
tp1079
(dp1080
Vkernel-arch
p1081
Vpowerpc
p1082
sg151
(lp1083
g153
ass(Vbuild
p1084
g1078
tp1085
(dp1086
Vimage-file
p1087
Vvmlinux
p1088
sVvdso
p1089
I01
ss(Vimage
p1090
g1078
tp1091
(dp1092
Vconfigs
p1093
(lp1094
sVsuggests
p1095
Vmkvmlinuz
p1096
sVinstall-stem
p1097
Vvmlinux
p1098
ss(Vdescription
p1099
g1078
NVpowerpc
p1100
tp1101
(dp1102
Vhardware
p1103
Vuniprocessor 32-bit PowerPC
p1104
ss(Vdescription
p1105
g1078
NVpowerpc-smp
p1106
tp1107
(dp1108
Vhardware
p1109
Vmultiprocessor 32-bit PowerPC
p1110
ss(Vimage
p1111
g1078
NVpowerpc-smp
p1112
tp1113
(dp1114
Vconfigs
p1115
(lp1116
Vpowerpc/config.powerpc
p1117
aVpowerpc/config.powerpc-smp
p1118
ass(Vdescription
p1119
g1078
NVpowerpc64
p1120
tp1121
(dp1122
Vhardware
p1123
V64-bit PowerPC
p1124
ss(Vimage
p1125
g1078
NVpowerpc64
p1126
tp1127
(dp1128
Vconfigs
p1129
(lp1130
Vkernelarch-powerpc/config-arch-64
p1131
aVkernelarch-powerpc/config-arch-64-be
p1132
ass(g183
g1078
g153
tp1133
(dp1134
g186
(lp1135
Vpowerpc
p1136
aVpowerpc-smp
p1137
aVpowerpc64
p1138
asg190
I01
ss(Vbase
p1139
Vpowerpcspe
p1140
tp1141
(dp1142
Vkernel-arch
p1143
Vpowerpc
p1144
sg151
(lp1145
g153
ass(Vbuild
p1146
g1140
tp1147
(dp1148
Vimage-file
p1149
Vvmlinux
p1150
sVsigned-modules
p1151
I00
sVvdso
p1152
I01
ss(Vimage
p1153
g1140
tp1154
(dp1155
Vsuggests
p1156
Vmkvmlinuz
p1157
sVinstall-stem
p1158
Vvmlinux
p1159
ss(Vdescription
p1160
g1140
tp1161
(dp1162
Vhardware
p1163
V32-bit PowerPC with SPE (instead of AltiVec) with SMP support
p1164
ss(g183
g1140
g153
tp1165
(dp1166
g186
(lp1167
Vpowerpcspe
p1168
asg190
I01
ss(Vbase
p1169
Vppc64
p1170
tp1171
(dp1172
Vkernel-arch
p1173
Vpowerpc
p1174
sg151
(lp1175
g153
ass(Vbuild
p1176
g1170
tp1177
(dp1178
Vimage-file
p1179
Vvmlinux
p1180
sVsigned-modules
p1181
I00
sVvdso
p1182
I01
ss(Vimage
p1183
g1170
tp1184
(dp1185
Vconfigs
p1186
(lp1187
sVsuggests
p1188
Vmkvmlinuz
p1189
sVinstall-stem
p1190
Vvmlinux
p1191
ss(Vdescription
p1192
g1170
NVpowerpc64
p1193
tp1194
(dp1195
Vhardware
p1196
V64-bit PowerPC
p1197
ss(Vimage
p1198
g1170
NVpowerpc64
p1199
tp1200
(dp1201
Vconfigs
p1202
(lp1203
Vkernelarch-powerpc/config-arch-64
p1204
aVkernelarch-powerpc/config-arch-64-be
p1205
ass(g183
g1170
g153
tp1206
(dp1207
g186
(lp1208
Vpowerpc64
p1209
asg190
I01
ss(Vbase
p1210
Vppc64el
p1211
tp1212
(dp1213
Vkernel-arch
p1214
Vpowerpc
p1215
sg151
(lp1216
g153
ass(Vbuild
p1217
g1211
tp1218
(dp1219
Vimage-file
p1220
Vvmlinux
p1221
sVvdso
p1222
I01
ss(Vimage
p1223
g1211
tp1224
(dp1225
Vconfigs
p1226
(lp1227
sVsuggests
p1228
Vmkvmlinuz
p1229
sVinstall-stem
p1230
Vvmlinux
p1231
ss(Vdescription
p1232
g1211
NVpowerpc64le
p1233
tp1234
(dp1235
Vhardware
p1236
VLittle-endian 64-bit PowerPC
p1237
ss(Vimage
p1238
g1211
NVpowerpc64le
p1239
tp1240
(dp1241
Vconfigs
p1242
(lp1243
Vkernelarch-powerpc/config-arch-64
p1244
aVkernelarch-powerpc/config-arch-64-le
p1245
ass(g183
g1211
g153
tp1246
(dp1247
g186
(lp1248
Vpowerpc64le
p1249
asg190
I01
ss(Vbase
p1250
Vs390
p1251
tp1252
(dp1253
Vkernel-arch
p1254
Vs390
p1255
sVfeaturesets
p1256
(lp1257
ss(Vbase
p1258
Vs390x
p1259
tp1260
(dp1261
Vkernel-arch
p1262
Vs390
p1263
sg151
(lp1264
g153
ass(Vbuild
p1265
g1259
tp1266
(dp1267
Vimage-file
p1268
Varch/s390/boot/image
p1269
sVvdso
p1270
I01
ss(Vimage
p1271
g1259
tp1272
(dp1273
Vbootloaders
p1274
(lp1275
Vs390-tools
p1276
asVinstall-stem
p1277
Vvmlinuz
p1278
ss(Vrelations
p1279
g1259
tp1280
(dp1281
Vheaders%gcc-7
p1282
Vlinux-compiler-gcc-7-s390
p1283
ss(Vbuild
p1284
g1259
NVs390x
p1285
tp1286
(dp1287
Vdebug-info
p1288
I01
ss(Vdescription
p1289
g1259
NVs390x
p1290
tp1291
(dp1292
Vhardware
p1293
VIBM zSeries
p1294
ss(g183
g1259
g153
tp1295
(dp1296
g186
(lp1297
Vs390x
p1298
asg190
I01
ss(Vbase
p1299
Vsh3
p1300
tp1301
(dp1302
Vkernel-arch
p1303
Vsh
p1304
sVfeaturesets
p1305
(lp1306
ss(Vbase
p1307
Vsh4
p1308
tp1309
(dp1310
Vkernel-arch
p1311
Vsh
p1312
sg151
(lp1313
g153
ass(Vbuild
p1314
g1308
tp1315
(dp1316
Vimage-file
p1317
Varch/sh/boot/zImage
p1318
sVsigned-modules
p1319
I00
ss(Vimage
p1320
g1308
tp1321
(dp1322
Vinstall-stem
p1323
Vvmlinuz
p1324
ss(Vdescription
p1325
g1308
NVsh7751r
p1326
tp1327
(dp1328
Vhardware
p1329
Vsh7751r
p1330
sVhardware-long
p1331
VRenesas SH7751R R2D plus board
p1332
ss(Vdescription
p1333
g1308
NVsh7785lcr
p1334
tp1335
(dp1336
Vhardware
p1337
Vsh7785lcr
p1338
sVhardware-long
p1339
VRenesas SH7785 reference board
p1340
ss(Vimage
p1341
g1308
NVsh7785lcr
p1342
tp1343
(dp1344
Vrecommends
p1345
Vu-boot-tools
p1346
sVcheck-size
p1347
L4194304L
ss(g183
g1308
g153
tp1348
(dp1349
g186
(lp1350
Vsh7751r
p1351
aVsh7785lcr
p1352
asg190
I01
ss(Vbase
p1353
Vsparc
p1354
tp1355
(dp1356
Vkernel-arch
p1357
Vsparc
p1358
sVfeaturesets
p1359
(lp1360
ss(Vbase
p1361
Vsparc64
p1362
tp1363
(dp1364
Vkernel-arch
p1365
Vsparc
p1366
sg151
(lp1367
g153
ass(Vbuild
p1368
g1362
tp1369
(dp1370
Vimage-file
p1371
Varch/sparc/boot/zImage
p1372
sVsigned-modules
p1373
I00
ss(Vimage
p1374
g1362
tp1375
(dp1376
Vconfigs
p1377
(lp1378
sVsuggests
p1379
Vsilo, fdutils
p1380
sVinstall-stem
p1381
Vvmlinuz
p1382
ss(Vdescription
p1383
g1362
NVsparc64
p1384
tp1385
(dp1386
Vhardware
p1387
Vuniprocessor 64-bit UltraSPARC
p1388
ss(Vimage
p1389
g1362
NVsparc64
p1390
tp1391
(dp1392
Vconfigs
p1393
(lp1394
Vkernelarch-sparc/config-up
p1395
ass(Vdescription
p1396
g1362
NVsparc64-smp
p1397
tp1398
(dp1399
Vhardware
p1400
Vmultiprocessor 64-bit UltraSPARC
p1401
ss(Vimage
p1402
g1362
NVsparc64-smp
p1403
tp1404
(dp1405
Vconfigs
p1406
(lp1407
Vkernelarch-sparc/config-smp
p1408
ass(g183
g1362
g153
tp1409
(dp1410
g186
(lp1411
Vsparc64
p1412
aVsparc64-smp
p1413
asg190
I01
ss(Vbase
p1414
Vtilegx
p1415
tp1416
(dp1417
Vkernel-arch
p1418
Vtile
p1419
sVfeaturesets
p1420
(lp1421
ss(Vbase
p1422
Vx32
p1423
tp1424
(dp1425
Vkernel-arch
p1426
Vx86
p1427
sVfeaturesets
p1428
(lp1429
ss(Vabi
p1430
NVrt
p1431
tp1432
(dp1433
Vignore-changes
p1434
(lp1435
V*
p1436
ass(Vdescription
p1437
Ng1431
tp1438
(dp1439
Vpart-long-rt
p1440
VThis kernel includes the PREEMPT_RT realtime patch set.
p1441
sVpart-short-rt
p1442
VPREEMPT_RT
p1443
sVparts
p1444
(lp1445
Vrt
p1446
ass(Vversion
p1447
tp1448
(dp1449
Vsource
p1450
V4.15.4-1kali1
p1451
sVupstream
p1452
V4.15
p1453
sVabiname_base
p1454
V4.15.0
p1455
sVabiname
p1456
V4.15.0-kali1
p1457
ss.