ccopy_reg
_reconstructor
p0
(cdebian_linux.config
ConfigCore
p1
c__builtin__
dict
p2
(dp3
(Vbase
p4
Vsh4
p5
Vnone
p6
tp7
(dp8
Vflavours
p9
(lp10
Vsh7751r
p11
aVsh7785lcr
p12
asVimplicit-flavour
p13
I01
ss(Vimage
p14
Vmips64el
p15
NVloongson-3
p16
tp17
(dp18
Vconfigs
p19
(lp20
Vkernelarch-mips/config.loongson-3
p21
ass(Vdescription
p22
Vmipsel
p23
NVocteon
p24
tp25
(dp26
Vhardware
p27
VOcteon
p28
sVhardware-long
p29
VCavium Networks Octeon
p30
ss(Vrelations
p31
Vs390x
p32
tp33
(dp34
Vheaders%gcc-5
p35
Vlinux-compiler-gcc-5-s390
p36
ss(Vimage
p37
Vm68k
p38
tp39
(dp40
Vinstall-stem
p41
Vvmlinuz
p42
sVsuggests
p43
Vvmelilo, fdutils
p44
ss(Vbase
p45
Vppc64
p46
tp47
(dp48
Vfeaturesets
p49
(lp50
g6
asVkernel-arch
p51
Vpowerpc
p52
ss(Vdescription
p53
Vamd64
p54
NVamd64
p55
tp56
(dp57
Vhardware
p58
V64-bit PCs
p59
sVhardware-long
p60
VPCs with AMD64, Intel 64 or VIA Nano processors
p61
ss(Vimage
p62
g46
NVpowerpc64
p63
tp64
(dp65
Vconfigs
p66
(lp67
Vkernelarch-powerpc/config-arch-64
p68
aVkernelarch-powerpc/config-arch-64-be
p69
ass(Vrelations
p70
g54
tp71
(dp72
Vheaders%gcc-5
p73
Vlinux-compiler-gcc-5-x86
p74
ss(Vbuild
p75
g23
tp76
(dp77
Vsigned-modules
p78
I00
sVimage-file
p79
Vvmlinux
p80
ss(Vimage
p81
Vmips64
p82
NV5kc-malta
p83
tp84
(dp85
Vconfigs
p86
(lp87
Vkernelarch-mips/config.malta
p88
aVkernelarch-mips/config.mips64r2
p89
ass(Vdescription
p90
Vmips
p91
NV5kc-malta
p92
tp93
(dp94
Vhardware
p95
VMIPS Malta (64-bit)
p96
sVhardware-long
p97
VMIPS Malta boards (64-bit)
p98
ss(Vbase
p99
g82
tp100
(dp101
g49
(lp102
g6
asVkernel-arch
p103
Vmips
p104
ss(Vimage
p105
Vi386
p106
tp107
(dp108
Vbootloaders
p109
(lp110
Vgrub-pc
p111
aVextlinux
p112
asVbreaks
p113
Vxserver-xorg-input-vmmouse (<< 1:13.0.99)
p114
sVinstall-stem
p115
Vvmlinuz
p116
ss(Vimage
p117
g5
NVsh7785lcr
p118
tp119
(dp120
Vrecommends
p121
Vu-boot-tools
p122
sVcheck-size
p123
L4194304L
ss(Vbase
p124
Vor1k
p125
tp126
(dp127
Vfeaturesets
p128
(lp129
sVkernel-arch
p130
Vopenrisc
p131
ss(Vbuild
p132
Varmhf
p133
tp134
(dp135
Vvdso
p136
I01
sVsigned-modules
p137
I00
sVimage-file
p138
Varch/arm/boot/zImage
p139
ss(Vdescription
p140
Varm64
p141
NVarm64
p142
tp143
(dp144
Vhardware
p145
V64-bit ARMv8 machines
p146
ss(g4
g23
g6
tp147
(dp148
g9
(lp149
V4kc-malta
p150
aV5kc-malta
p151
aVloongson-3
p152
aVocteon
p153
asg13
I01
ss(Vbuild
p154
g15
tp155
(dp156
Vsigned-modules
p157
I00
sVimage-file
p158
Vvmlinux
p159
ss(Vdescription
p160
g23
NV5kc-malta
p161
tp162
(dp163
Vhardware
p164
VMIPS Malta (64-bit)
p165
sVhardware-long
p166
VMIPS Malta boards (64-bit)
p167
ss(Vdescription
p168
g133
NVarmmp
p169
tp170
(dp171
Vhardware
p172
VARMv7 multiplatform compatible SoCs
p173
sVhardware-long
p174
VARMv7 multiplatform kernel. See\u000ahttps://wiki.debian.org/DebianKernel/ARMMP for details of supported\u000aplatforms
p175
ss(Vdescription
p176
g106
Vnone
p177
V686-pae
p178
tp179
(dp180
Vparts
p181
(lp182
Vxen
p183
ass(Vbase
p184
g54
Vrt
p185
tp186
(dp187
Vflavours
p188
(lp189
Vamd64
p190
ass(Vdescription
p191
g82
NV5kc-malta
p192
tp193
(dp194
Vhardware
p195
VMIPS Malta
p196
sVhardware-long
p197
VMIPS Malta boards
p198
ss(Vbuild
p199
g141
tp200
(dp201
Vvdso
p202
I01
sVdebug-info
p203
I01
sVsigned-modules
p204
I00
sVimage-file
p205
Varch/arm64/boot/Image
p206
ss(Vrelations
p207
g106
tp208
(dp209
Vheaders%gcc-5
p210
Vlinux-compiler-gcc-5-x86
p211
ss(Vabi
p212
tp213
(dp214
Vabiname
p215
Vkali1
p216
ss(Vdescription
p217
Vppc64el
p218
NVpowerpc64le
p219
tp220
(dp221
Vhardware
p222
VLittle-endian 64-bit PowerPC
p223
ss(g4
Vpowerpc
p224
g6
tp225
(dp226
g9
(lp227
Vpowerpc
p228
aVpowerpc-smp
p229
aVpowerpc64
p230
asg13
I01
ss(Vimage
p231
g15
NVocteon
p232
tp233
(dp234
Vconfigs
p235
(lp236
Vkernelarch-mips/config.octeon
p237
ass(Vdescription
p238
Valpha
p239
NValpha-smp
p240
tp241
(dp242
Vhardware
p243
VAlpha SMP
p244
sVhardware-long
p245
VDEC Alpha SMP systems with extended kernel start address (Wildfire, Titan, Marvel)
p246
ss(Vdescription
p247
g224
NVpowerpc64
p248
tp249
(dp250
Vhardware
p251
V64-bit PowerPC
p252
ss(Vimage
p253
g15
NV5kc-malta
p254
tp255
(dp256
Vconfigs
p257
(lp258
Vkernelarch-mips/config.malta
p259
aVkernelarch-mips/config.mips64r2
p260
ass(Vbuild
p261
Vsparc64
p262
tp263
(dp264
Vsigned-modules
p265
I00
sVimage-file
p266
Varch/sparc/boot/zImage
p267
ss(Vbase
p268
Vpowerpcspe
p269
tp270
(dp271
g49
(lp272
g6
asVkernel-arch
p273
Vpowerpc
p274
ss(Vimage
p275
g23
tp276
(dp277
Vinstall-stem
p278
Vvmlinux
p279
ss(Vbase
p280
tp281
(dp282
Vcompiler
p283
Vgcc-5
p284
sVarches
p285
(lp286
Valpha
p287
aVamd64
p288
aVarm64
p289
aVarmel
p290
aVarmhf
p291
aVhppa
p292
aVi386
p293
aVm68k
p294
aVmips
p295
aVmipsel
p296
aVmipsn32
p297
aVmipsn32el
p298
aVmips64
p299
aVmips64el
p300
aVor1k
p301
aVpowerpc
p302
aVpowerpcspe
p303
aVppc64
p304
aVppc64el
p305
aVs390
p306
aVs390x
p307
aVsh4
p308
aVsparc
p309
aVsparc64
p310
aVtilegx
p311
aVx32
p312
asVfeaturesets
p313
(lp314
Vnone
p315
aVrt
p316
ass(Vrelations
p317
g133
tp318
(dp319
Vheaders%gcc-5
p320
Vlinux-compiler-gcc-5-arm
p321
ss(g4
g262
g6
tp322
(dp323
g9
(lp324
Vsparc64
p325
aVsparc64-smp
p326
asg13
I01
ss(Vdescription
p327
Vhppa
p328
NVparisc64-smp
p329
tp330
(dp331
Vhardware
p332
Vmultiprocessor 64-bit PA-RISC
p333
sVhardware-long
p334
VHP PA-RISC 64-bit SMP systems with support for more than 4 GB RAM
p335
ss(Vdescription
p336
Varmel
p337
NVversatile
p338
tp339
(dp340
Vhardware
p341
VVersatile
p342
sVhardware-long
p343
VVersatile systems (PB, AB, Qemu)
p344
ss(Vimage
p345
g224
NVpowerpc64
p346
tp347
(dp348
Vconfigs
p349
(lp350
Vkernelarch-powerpc/config-arch-64
p351
aVkernelarch-powerpc/config-arch-64-be
p352
ass(Vbase
p353
g23
tp354
(dp355
g49
(lp356
g6
asVkernel-arch
p357
Vmips
p358
ss(g4
g38
g6
tp359
(dp360
g9
(lp361
Vm68k
p362
asg13
I01
ss(Vimage
p363
g32
tp364
(dp365
Vbootloaders
p366
(lp367
Vs390-tools
p368
asVinstall-stem
p369
Vvmlinuz
p370
ss(Vdescription
p371
g38
NVm68k
p372
tp373
(dp374
Vhardware
p375
VMotorola MC68020+ family
p376
ss(Vdescription
p377
g239
NValpha-generic
p378
tp379
(dp380
Vhardware
p381
VAlpha
p382
sVhardware-long
p383
VDEC Alpha systems with extended kernel start address (Wildfire, Titan, Marvel)
p384
ss(Vbuild
p385
g32
NVs390x
p386
tp387
(dp388
Vdebug-info
p389
I01
ss(Vdescription
p390
g262
NVsparc64
p391
tp392
(dp393
Vhardware
p394
Vuniprocessor 64-bit UltraSPARC
p395
ss(Vbuild
p396
tp397
(dp398
Vdebug-info
p399
I01
sVsigned-modules
p400
I01
ss(Vbase
p401
Vmipsn32el
p402
tp403
(dp404
Vfeaturesets
p405
(lp406
sVkernel-arch
p407
Vmips
p408
ss(Vimage
p409
g224
tp410
(dp411
Vinstall-stem
p412
Vvmlinux
p413
sVconfigs
p414
(lp415
sVsuggests
p416
Vmkvmlinuz
p417
ss(Vimage
p418
g91
NV5kc-malta
p419
tp420
(dp421
Vconfigs
p422
(lp423
Vkernelarch-mips/config.malta
p424
aVkernelarch-mips/config.mips64r2
p425
ass(Vdescription
p426
g262
NVsparc64-smp
p427
tp428
(dp429
Vhardware
p430
Vmultiprocessor 64-bit UltraSPARC
p431
ss(Vimage
p432
g262
NVsparc64-smp
p433
tp434
(dp435
Vconfigs
p436
(lp437
Vkernelarch-sparc/config-smp
p438
ass(Vversion
p439
tp440
(dp441
Vabiname
p442
V4.7.0-kali1
p443
sVupstream
p444
V4.7
p445
sVabiname_base
p446
V4.7.0
p447
sVsource
p448
V4.7.5-1kali3
p449
ss(Vimage
p450
g141
tp451
(dp452
Vinstall-stem
p453
Vvmlinuz
p454
ss(Vimage
p455
g218
NVpowerpc64le
p456
tp457
(dp458
Vconfigs
p459
(lp460
Vkernelarch-powerpc/config-arch-64
p461
aVkernelarch-powerpc/config-arch-64-le
p462
ass(g4
g32
g6
tp463
(dp464
g9
(lp465
Vs390x
p466
asg13
I01
ss(Vdescription
p467
tp468
(dp469
Vpart-long-xen
p470
VThis kernel also runs on a Xen hypervisor.\u000aIt supports both privileged (dom0) and unprivileged (domU) operation.
p471
sVpart-long-up
p472
VThis kernel is not suitable for SMP (multi-processor,\u000amulti-core or hyper-threaded) systems.
p473
ss(Vrelations
p474
g328
tp475
(dp476
Vgcc-5
p477
Vgcc-5 <!stage1 !cross>, binutils-hppa64-linux-gnu <!stage1 !cross>, gcc-5-hppa64-linux-gnu <!stage1 !cross>, gcc-5-hppa-linux-gnu:native <!stage1 cross>, binutils-hppa64-linux-gnu:native <!stage1 cross>, gcc-5-hppa64-linux-gnu:native <!stage1 cross>
p478
ss(Vbase
p479
NVrt
p480
tp481
(dp482
Venabled
p483
I00
ss(Vbase
p484
g141
tp485
(dp486
Vfeaturesets
p487
(lp488
Vnone
p489
asVkernel-arch
p490
Varm64
p491
ss(Vimage
p492
g23
NVloongson-3
p493
tp494
(dp495
Vconfigs
p496
(lp497
Vkernelarch-mips/config.loongson-3
p498
ass(g4
g218
g6
tp499
(dp500
g9
(lp501
Vpowerpc64le
p502
asg13
I01
ss(Vdescription
p503
g5
NVsh7785lcr
p504
tp505
(dp506
Vhardware
p507
Vsh7785lcr
p508
sVhardware-long
p509
VRenesas SH7785 reference board
p510
ss(Vbase
p511
Vsparc
p512
tp513
(dp514
Vfeaturesets
p515
(lp516
sVkernel-arch
p517
Vsparc
p518
ss(Vdescription
p519
g54
Vnone
p520
Vamd64
p521
tp522
(dp523
Vparts
p524
(lp525
Vxen
p526
ass(Vimage
p527
g23
NV5kc-malta
p528
tp529
(dp530
Vconfigs
p531
(lp532
Vkernelarch-mips/config.malta
p533
aVkernelarch-mips/config.mips64r2
p534
ass(Vbase
p535
g32
tp536
(dp537
g49
(lp538
g6
asVkernel-arch
p539
Vs390
p540
ss(Vimage
p541
g337
NVmarvell
p542
tp543
(dp544
Vrecommends
p545
Vu-boot-tools
p546
sVcheck-size-with-dtb
p547
I01
sVbreaks
p548
Vflash-kernel (<< 3.57~)
p549
sVcheck-size
p550
L2097080L
ss(Vdescription
p551
g224
NVpowerpc
p552
tp553
(dp554
Vhardware
p555
Vuniprocessor 32-bit PowerPC
p556
ss(Vdescription
p557
g337
NVmarvell
p558
tp559
(dp560
Vhardware
p561
VMarvell Kirkwood/Orion
p562
sVhardware-long
p563
VMarvell Kirkwood based systems (SheevaPlug, QNAP TS-119/TS-219, etc)\u000aand Orion 5181, 5182 and 5281 based systems (QNAP TS-109/TS-209, etc)
p564
ss(Vbase
p565
g328
tp566
(dp567
g49
(lp568
g6
asVkernel-arch
p569
Vparisc
p570
ss(Vimage
p571
g337
tp572
(dp573
Vinstall-stem
p574
Vvmlinuz
p575
ss(Vrelations
p576
tp577
(dp578
Vgcc-5
p579
Vgcc-5 <!stage1 !cross>, gcc-5-@gnu-type-package@:native <!stage1 cross>
p580
sVinitramfs-tools
p581
Vinitramfs-tools (>= 0.110~)
p582
sVinitramfs-fallback
p583
Vlinux-initramfs-tool
p584
ss(Vbuild
p585
g38
tp586
(dp587
Vsigned-modules
p588
I00
sVimage-file
p589
Vvmlinux.gz
p590
ss(Vbuild
p591
g32
tp592
(dp593
Vvdso
p594
I01
sVimage-file
p595
Varch/s390/boot/image
p596
ss(Vbuild
p597
g337
tp598
(dp599
Vsigned-modules
p600
I00
sVimage-file
p601
Varch/arm/boot/zImage
p602
ss(Vdescription
p603
g5
NVsh7751r
p604
tp605
(dp606
Vhardware
p607
Vsh7751r
p608
sVhardware-long
p609
VRenesas SH7751R R2D plus board
p610
ss(Vdescription
p611
NVrt
p612
tp613
(dp614
Vpart-long-rt
p615
VThis kernel includes the PREEMPT_RT realtime patch set.
p616
sVparts
p617
(lp618
Vrt
p619
asVpart-short-rt
p620
VPREEMPT_RT
p621
ss(Vbase
p622
g239
tp623
(dp624
g49
(lp625
g6
asVkernel-arch
p626
Valpha
p627
ss(Vimage
p628
tp629
(dp630
Vinitramfs-generators
p631
(lp632
Vinitramfs-tools
p633
aVinitramfs-fallback
p634
ass(Vbuild
p635
g54
tp636
(dp637
Vvdso
p638
I01
sVdebug-info
p639
I01
sVsigned-modules
p640
I00
sVimage-file
p641
Varch/x86/boot/bzImage
p642
ss(Vbase
p643
g15
tp644
(dp645
g49
(lp646
g6
asVkernel-arch
p647
Vmips
p648
ss(g4
g337
g6
tp649
(dp650
g9
(lp651
Vmarvell
p652
aVversatile
p653
asg13
I01
ss(Vimage
p654
g91
NVocteon
p655
tp656
(dp657
Vconfigs
p658
(lp659
Vkernelarch-mips/config.octeon
p660
ass(Vimage
p661
g82
NVocteon
p662
tp663
(dp664
Vconfigs
p665
(lp666
Vkernelarch-mips/config.octeon
p667
ass(Vdescription
p668
g91
NVocteon
p669
tp670
(dp671
Vhardware
p672
VOcteon
p673
sVhardware-long
p674
VCavium Networks Octeon
p675
ss(g4
g269
g6
tp676
(dp677
g9
(lp678
Vpowerpcspe
p679
asg13
I01
ss(Vimage
p680
g91
tp681
(dp682
Vinstall-stem
p683
Vvmlinux
p684
ss(Vimage
p685
g15
tp686
(dp687
Vinstall-stem
p688
Vvmlinux
p689
ss(Vdescription
p690
g269
tp691
(dp692
Vhardware
p693
V32-bit PowerPC with SPE (instead of AltiVec) with SMP support
p694
ss(Vimage
p695
g23
NV4kc-malta
p696
tp697
(dp698
Vconfigs
p699
(lp700
Vkernelarch-mips/config.malta
p701
aVkernelarch-mips/config.mips32r2
p702
ass(g4
g328
g6
tp703
(dp704
g9
(lp705
Vparisc
p706
aVparisc64-smp
p707
asg13
I01
ss(Vdescription
p708
g15
NVloongson-3
p709
tp710
(dp711
Vhardware
p712
VLoongson 3A/3B
p713
sVhardware-long
p714
VLoongson 3A or 3B based systems (e.g. from Loongson or Lemote)
p715
ss(Vimage
p716
g5
tp717
(dp718
Vinstall-stem
p719
Vvmlinuz
p720
ss(Vbase
p721
g91
tp722
(dp723
g49
(lp724
g6
asVkernel-arch
p725
Vmips
p726
ss(g4
g133
g6
tp727
(dp728
g9
(lp729
Varmmp
p730
aVarmmp-lpae
p731
asg13
I01
ss(Vbase
p732
g54
g520
tp733
(dp734
Vflavours
p735
(lp736
Vamd64
p737
ass(Vrelations
p738
g337
tp739
(dp740
Vheaders%gcc-5
p741
Vlinux-compiler-gcc-5-arm
p742
ss(Vbuild
p743
g224
tp744
(dp745
Vvdso
p746
I01
sVimage-file
p747
Vvmlinux
p748
ss(g4
g91
g6
tp749
(dp750
g9
(lp751
V4kc-malta
p752
aV5kc-malta
p753
aVocteon
p754
asg13
I01
ss(Vbuild
p755
g269
tp756
(dp757
Vvdso
p758
I01
sVsigned-modules
p759
I00
sVimage-file
p760
Vvmlinux
p761
ss(Vbuild
p762
g106
tp763
(dp764
Vvdso
p765
I01
sVsigned-modules
p766
I00
sVimage-file
p767
Varch/x86/boot/bzImage
p768
ss(Vdescription
p769
g23
NV4kc-malta
p770
tp771
(dp772
Vhardware
p773
VMIPS Malta
p774
sVhardware-long
p775
VMIPS Malta boards
p776
ss(Vimage
p777
g133
tp778
(dp779
Vinstall-stem
p780
Vvmlinuz
p781
ss(Vbuild
p782
g106
NV686-pae
p783
tp784
(dp785
Vdebug-info
p786
I01
ss(Vbase
p787
Vtilegx
p788
tp789
(dp790
Vfeaturesets
p791
(lp792
sVkernel-arch
p793
Vtile
p794
ss(Vbase
p795
g224
tp796
(dp797
g49
(lp798
g6
asVkernel-arch
p799
Vpowerpc
p800
ss(Vimage
p801
g328
tp802
(dp803
Vinstall-stem
p804
Vvmlinux
p805
sVsuggests
p806
Vpalo
p807
ss(Vimage
p808
g269
tp809
(dp810
Vinstall-stem
p811
Vvmlinux
p812
sVsuggests
p813
Vmkvmlinuz
p814
ss(Vdescription
p815
g32
NVs390x
p816
tp817
(dp818
Vhardware
p819
VIBM zSeries
p820
ss(Vbase
p821
g133
tp822
(dp823
g49
(lp824
g6
asVkernel-arch
p825
Varm
p826
ss(Vimage
p827
g23
NVocteon
p828
tp829
(dp830
Vconfigs
p831
(lp832
Vkernelarch-mips/config.octeon
p833
ass(Vbase
p834
g262
tp835
(dp836
g49
(lp837
g6
asVkernel-arch
p838
Vsparc
p839
ss(Vbase
p840
g337
tp841
(dp842
g49
(lp843
g6
asVkernel-arch
p844
Varm
p845
ss(Vdescription
p846
g106
NV686
p847
tp848
(dp849
Vhardware
p850
Volder PCs
p851
sVhardware-long
p852
VPCs with one or more processors not supporting PAE
p853
ss(g4
g82
g6
tp854
(dp855
g9
(lp856
V5kc-malta
p857
aVocteon
p858
asg13
I01
ss(Vbase
p859
g218
tp860
(dp861
g49
(lp862
g6
asVkernel-arch
p863
Vpowerpc
p864
ss(Vimage
p865
g54
tp866
(dp867
Vbootloaders
p868
(lp869
Vgrub-pc
p870
aVgrub-efi-amd64
p871
aVextlinux
p872
asVbreaks
p873
Vxserver-xorg-input-vmmouse (<< 1:13.0.99)
p874
sVinstall-stem
p875
Vvmlinuz
p876
ss(Vimage
p877
g262
tp878
(dp879
Vinstall-stem
p880
Vvmlinuz
p881
sVconfigs
p882
(lp883
sVsuggests
p884
Vsilo, fdutils
p885
ss(Vdescription
p886
g15
NV5kc-malta
p887
tp888
(dp889
Vhardware
p890
VMIPS Malta
p891
sVhardware-long
p892
VMIPS Malta boards
p893
ss(Vimage
p894
g218
tp895
(dp896
Vinstall-stem
p897
Vvmlinux
p898
sVconfigs
p899
(lp900
sVsuggests
p901
Vmkvmlinuz
p902
ss(Vbase
p903
g106
tp904
(dp905
Vkernel-arch
p906
Vx86
p907
sVfeaturesets
p908
(lp909
Vnone
p910
aVrt
p911
ass(Vdescription
p912
g106
NV686-pae
p913
tp914
(dp915
Vhardware
p916
Vmodern PCs
p917
sVparts
p918
(lp919
Vpae
p920
asVhardware-long
p921
VPCs with one or more processors supporting PAE
p922
ss(Vbase
p923
g5
tp924
(dp925
g49
(lp926
g6
asVkernel-arch
p927
Vsh
p928
ss(Vbase
p929
Vmipsn32
p930
tp931
(dp932
Vfeaturesets
p933
(lp934
sVkernel-arch
p935
Vmips
p936
ss(Vabi
p937
Ng612
tp938
(dp939
Vignore-changes
p940
(lp941
V*
p942
ass(Vdescription
p943
g46
NVpowerpc64
p944
tp945
(dp946
Vhardware
p947
V64-bit PowerPC
p948
ss(Vbase
p949
g54
tp950
(dp951
Vkernel-arch
p952
Vx86
p953
sVfeaturesets
p954
(lp955
Vnone
p956
aVrt
p957
ass(Vdescription
p958
g106
tp959
(dp960
Vpart-long-pae
p961
VThis kernel requires PAE (Physical Address Extension).\u000aThis feature is supported by the Intel Pentium Pro/II/III/4/4M/D, Xeon,\u000aCore and Atom; AMD Geode NX, Athlon (K7), Duron, Opteron, Sempron,\u000aTurion or Phenom; Transmeta Efficeon; VIA C7; and some other processors.
p962
ss(Vbuild
p963
g5
tp964
(dp965
Vsigned-modules
p966
I00
sVimage-file
p967
Varch/sh/boot/zImage
p968
ss(Vimage
p969
g262
NVsparc64
p970
tp971
(dp972
Vconfigs
p973
(lp974
Vkernelarch-sparc/config-up
p975
ass(Vimage
p976
g91
NV4kc-malta
p977
tp978
(dp979
Vconfigs
p980
(lp981
Vkernelarch-mips/config.malta
p982
aVkernelarch-mips/config.mips32r2
p983
ass(g4
g239
g6
tp984
(dp985
g9
(lp986
Valpha-generic
p987
aValpha-smp
p988
asg13
I01
ss(Vbase
p989
g141
Vnone
p990
tp991
(dp992
Vflavours
p993
(lp994
Varm64
p995
ass(g4
g46
g6
tp996
(dp997
g9
(lp998
Vpowerpc64
p999
asg13
I01
ss(Vbase
p1000
g106
Vrt
p1001
tp1002
(dp1003
Vflavours
p1004
(lp1005
V686-pae
p1006
ass(Vbuild
p1007
g82
tp1008
(dp1009
Vsigned-modules
p1010
I00
sVimage-file
p1011
Vvmlinux
p1012
ss(Vxen
p1013
g54
g520
Vamd64
p1014
tp1015
(dp1016
Vflavours
p1017
(lp1018
Vamd64
p1019
ass(Vbase
p1020
Vx32
p1021
tp1022
(dp1023
Vfeaturesets
p1024
(lp1025
sVkernel-arch
p1026
Vx86
p1027
ss(Vbase
p1028
Vs390
p1029
tp1030
(dp1031
Vfeaturesets
p1032
(lp1033
sVkernel-arch
p1034
Vs390
p1035
ss(Vbuild
p1036
g328
tp1037
(dp1038
Vsigned-modules
p1039
I00
sVimage-file
p1040
Vvmlinux
p1041
ss(Vimage
p1042
g46
tp1043
(dp1044
Vinstall-stem
p1045
Vvmlinux
p1046
sVconfigs
p1047
(lp1048
sVsuggests
p1049
Vmkvmlinuz
p1050
ss(Vbuild
p1051
g239
tp1052
(dp1053
Vsigned-modules
p1054
I00
sVimage-file
p1055
Varch/alpha/boot/vmlinux.gz
p1056
ss(Vbase
p1057
g328
NVparisc64-smp
p1058
tp1059
(dp1060
Voverride-host-type
p1061
Vhppa64-linux-gnu
p1062
sVcflags
p1063
V-fno-cse-follow-jumps
p1064
ss(Vimage
p1065
g239
tp1066
(dp1067
Vinstall-stem
p1068
Vvmlinuz
p1069
sVsuggests
p1070
Vaboot, fdutils
p1071
ss(Vdescription
p1072
g15
NVocteon
p1073
tp1074
(dp1075
Vhardware
p1076
VOcteon
p1077
sVhardware-long
p1078
VCavium Networks Octeon
p1079
ss(Vbuild
p1080
g46
tp1081
(dp1082
Vvdso
p1083
I01
sVsigned-modules
p1084
I00
sVimage-file
p1085
Vvmlinux
p1086
ss(Vimage
p1087
g224
NVpowerpc-smp
p1088
tp1089
(dp1090
Vconfigs
p1091
(lp1092
Vpowerpc/config.powerpc
p1093
aVpowerpc/config.powerpc-smp
p1094
ass(Vdescription
p1095
g91
NV4kc-malta
p1096
tp1097
(dp1098
Vhardware
p1099
VMIPS Malta
p1100
sVhardware-long
p1101
VMIPS Malta boards
p1102
ss(g4
g15
g6
tp1103
(dp1104
g9
(lp1105
V5kc-malta
p1106
aVloongson-3
p1107
aVocteon
p1108
asg13
I01
ss(Vdescription
p1109
g133
NVarmmp-lpae
p1110
tp1111
(dp1112
Vhardware
p1113
VARMv7 multiplatform compatible SoCs supporting LPAE
p1114
sVhardware-long
p1115
VARMv7 multiplatform kernel supporting LPAE. See\u000ahttps://wiki.debian.org/DebianKernel/ARMMP for details of supported\u000aplatforms.
p1116
ss(Vimage
p1117
g82
tp1118
(dp1119
Vinstall-stem
p1120
Vvmlinux
p1121
ss(Vdescription
p1122
g224
NVpowerpc-smp
p1123
tp1124
(dp1125
Vhardware
p1126
Vmultiprocessor 32-bit PowerPC
p1127
ss(Vdescription
p1128
g23
NVloongson-3
p1129
tp1130
(dp1131
Vhardware
p1132
VLoongson 3A/3B
p1133
sVhardware-long
p1134
VLoongson 3A or 3B based systems (e.g. from Loongson or Lemote)
p1135
ss(Vbuild
p1136
g91
tp1137
(dp1138
Vsigned-modules
p1139
I00
sVimage-file
p1140
Vvmlinux
p1141
ss(Vdescription
p1142
g328
NVparisc
p1143
tp1144
(dp1145
Vhardware
p1146
V32-bit PA-RISC
p1147
sVhardware-long
p1148
VHP PA-RISC 32-bit systems with max 4 GB RAM
p1149
ss(Vbase
p1150
g106
g177
tp1151
(dp1152
Vflavours
p1153
(lp1154
V686
p1155
aV686-pae
p1156
ass(Vbuild
p1157
g218
tp1158
(dp1159
Vvdso
p1160
I01
sVimage-file
p1161
Vvmlinux
p1162
ss(Vimage
p1163
g141
NVarm64
p1164
tp1165
(dp1166
s(Vdescription
p1167
g82
NVocteon
p1168
tp1169
(dp1170
Vhardware
p1171
VOcteon
p1172
sVhardware-long
p1173
VCavium Networks Octeon
p1174
ss(Vbase
p1175
g38
tp1176
(dp1177
g49
(lp1178
g6
asVcflags
p1179
V-ffreestanding
p1180
sVkernel-arch
p1181
Vm68k
p1182
sstp1183
Rp1184
.