ccopy_reg
_reconstructor
p0
(cdebian_linux.config
ConfigCore
p1
c__builtin__
dict
p2
(dp3
(Vdescription
p4
Vamd64
p5
Vnone
p6
Vamd64
p7
tp8
(dp9
Vparts
p10
(lp11
Vxen
p12
ass(Vimage
p13
Vmips64el
p14
tp15
(dp16
Vinstall-stem
p17
Vvmlinux
p18
ss(Vimage
p19
Vmips
p20
tp21
(dp22
Vinstall-stem
p23
Vvmlinux
p24
ss(Vimage
p25
Vi386
p26
NV686-pae
p27
tp28
(dp29
Vconfigs
p30
(lp31
Vkernelarch-x86/config-arch-32
p32
aVi386/config.686-pae
p33
ass(Vbuild
p34
Vppc64
p35
tp36
(dp37
Vsigned-modules
p38
I00
sVimage-file
p39
Vvmlinux
p40
sVvdso
p41
I01
ss(Vbuild
p42
Vmips64
p43
tp44
(dp45
Vsigned-modules
p46
I00
sVimage-file
p47
Vvmlinux
p48
ss(Vimage
p49
g14
NVloongson-3
p50
tp51
(dp52
Vconfigs
p53
(lp54
Vkernelarch-mips/config.loongson-3
p55
ass(Vdescription
p56
g20
NVocteon
p57
tp58
(dp59
Vhardware-long
p60
VCavium Networks Octeon
p61
sVhardware
p62
VOcteon
p63
ss(Vbase
p64
g5
g6
tp65
(dp66
Vflavours
p67
(lp68
Vamd64
p69
ass(Vimage
p70
g43
tp71
(dp72
Vinstall-stem
p73
Vvmlinux
p74
ss(Vdescription
p75
Varmhf
p76
NVarmmp-lpae
p77
tp78
(dp79
Vhardware-long
p80
VARMv7 multiplatform kernel supporting LPAE. See\u000ahttps://wiki.debian.org/DebianKernel/ARMMP for details of supported\u000aplatforms.
p81
sVhardware
p82
VARMv7 multiplatform compatible SoCs supporting LPAE
p83
ss(Vbase
p84
g26
tp85
(dp86
Vfeaturesets
p87
(lp88
Vnone
p89
aVrt
p90
asVkernel-arch
p91
Vx86
p92
ss(Vdescription
p93
g76
NVarmmp
p94
tp95
(dp96
Vhardware-long
p97
VARMv7 multiplatform kernel. See\u000ahttps://wiki.debian.org/DebianKernel/ARMMP for details of supported\u000aplatforms
p98
sVhardware
p99
VARMv7 multiplatform compatible SoCs
p100
ss(Vdescription
p101
g26
NV686-pae
p102
tp103
(dp104
Vhardware-long
p105
VPCs with one or more processors supporting PAE
p106
sVparts
p107
(lp108
Vpae
p109
asVhardware
p110
Vmodern PCs
p111
ss(Vbase
p112
Vmipsel
p113
tp114
(dp115
Vfeaturesets
p116
(lp117
Vnone
p118
asVkernel-arch
p119
Vmips
p120
ss(Vbase
p121
g5
Vrt
p122
tp123
(dp124
Vflavours
p125
(lp126
Vamd64
p127
ass(Vimage
p128
Varm64
p129
NVarm64
p130
tp131
(dp132
s(Vbuild
p133
Vsparc64
p134
tp135
(dp136
Vsigned-modules
p137
I00
sVimage-file
p138
Varch/sparc/boot/zImage
p139
ss(Vbase
p140
Vpowerpc
p141
tp142
(dp143
g116
(lp144
g118
asVkernel-arch
p145
Vpowerpc
p146
ss(Vversion
p147
tp148
(dp149
Vupstream
p150
V4.5
p151
sVsource
p152
V4.5.5-1
p153
sVabiname_base
p154
V4.5.0
p155
sVabiname
p156
V4.5.0-2
p157
ss(Vrelations
p158
Vs390x
p159
tp160
(dp161
Vheaders%gcc-5
p162
Vlinux-compiler-gcc-5-s390
p163
ss(Vbase
p164
Vsparc
p165
tp166
(dp167
Vfeaturesets
p168
(lp169
sVkernel-arch
p170
Vsparc
p171
ss(Vdescription
p172
Varmel
p173
NVmarvell
p174
tp175
(dp176
Vhardware-long
p177
VMarvell Kirkwood based systems (SheevaPlug, QNAP TS-119/TS-219, etc)\u000aand Orion 5181, 5182 and 5281 based systems (QNAP TS-109/TS-209, etc)
p178
sVhardware
p179
VMarvell Kirkwood/Orion
p180
ss(Vbase
p181
Vm68k
p182
g118
tp183
(dp184
Vimplicit-flavour
p185
I01
sVflavours
p186
(lp187
Vm68k
p188
ass(Vbase
p189
g182
tp190
(dp191
g116
(lp192
g118
asVkernel-arch
p193
Vm68k
p194
sVcflags
p195
V-ffreestanding
p196
ss(Vbuild
p197
g26
NV686-pae
p198
tp199
(dp200
Vdebug-info
p201
I01
ss(Vbase
p202
g173
tp203
(dp204
g116
(lp205
g118
asVkernel-arch
p206
Varm
p207
ss(Vdescription
p208
g141
NVpowerpc-smp
p209
tp210
(dp211
Vhardware
p212
Vmultiprocessor 32-bit PowerPC
p213
ss(Vdescription
p214
g26
tp215
(dp216
Vpart-long-pae
p217
VThis kernel requires PAE (Physical Address Extension).\u000aThis feature is supported by the Intel Pentium Pro/II/III/4/4M/D, Xeon,\u000aCore and Atom; AMD Geode NX, Athlon (K7), Duron, Opteron, Sempron,\u000aTurion or Phenom; Transmeta Efficeon; VIA C7; and some other processors.
p218
ss(Vimage
p219
Valpha
p220
tp221
(dp222
Vsuggests
p223
Vaboot, fdutils
p224
sVinstall-stem
p225
Vvmlinuz
p226
ss(Vdescription
p227
g220
NValpha-generic
p228
tp229
(dp230
Vhardware-long
p231
VDEC Alpha systems with extended kernel start address (Wildfire, Titan, Marvel)
p232
sVhardware
p233
VAlpha
p234
ss(Vbuild
p235
g220
tp236
(dp237
Vsigned-modules
p238
I00
sVimage-file
p239
Varch/alpha/boot/vmlinux.gz
p240
ss(Vbuild
p241
g182
tp242
(dp243
Vsigned-modules
p244
I00
sVimage-file
p245
Vvmlinux.gz
p246
ss(Vdescription
p247
g141
NVpowerpc
p248
tp249
(dp250
Vhardware
p251
Vuniprocessor 32-bit PowerPC
p252
ss(Vimage
p253
g141
tp254
(dp255
Vconfigs
p256
(lp257
sVinstall-stem
p258
Vvmlinux
p259
sVsuggests
p260
Vmkvmlinuz
p261
ss(Vimage
p262
g159
NVs390x
p263
tp264
(dp265
Vconfigs
p266
(lp267
Vkernelarch-s390/config-arch-64
p268
ass(Vdescription
p269
g14
NVloongson-3
p270
tp271
(dp272
Vhardware-long
p273
VLoongson 3A or 3B based systems (e.g. from Loongson or Lemote)
p274
sVhardware
p275
VLoongson 3A/3B
p276
ss(Vimage
p277
g43
NVocteon
p278
tp279
(dp280
Vconfigs
p281
(lp282
Vkernelarch-mips/config.octeon
p283
ass(Vimage
p284
g173
NVmarvell
p285
tp286
(dp287
Vcheck-size
p288
L2097080L
sVbreaks
p289
Vflash-kernel (<< 3.57~)
p290
sVcheck-size-with-dtb
p291
I01
sVrecommends
p292
Vu-boot-tools
p293
ss(Vimage
p294
g182
tp295
(dp296
Vsuggests
p297
Vvmelilo, fdutils
p298
sVinstall-stem
p299
Vvmlinuz
p300
ss(Vbase
p301
NVrt
p302
tp303
(dp304
Venabled
p305
I00
ss(g181
g113
g118
tp306
(dp307
g185
I01
sg186
(lp308
V4kc-malta
p309
aV5kc-malta
p310
aVloongson-2e
p311
aVloongson-2f
p312
aVloongson-3
p313
aVocteon
p314
ass(Vdescription
p315
Vhppa
p316
NVparisc
p317
tp318
(dp319
Vhardware-long
p320
VHP PA-RISC 32-bit systems with max 4 GB RAM
p321
sVhardware
p322
V32-bit PA-RISC
p323
ss(Vdescription
p324
g134
NVsparc64
p325
tp326
(dp327
Vhardware
p328
Vuniprocessor 64-bit UltraSPARC
p329
ss(Vimage
p330
g113
NV4kc-malta
p331
tp332
(dp333
Vconfigs
p334
(lp335
Vkernelarch-mips/config.4kc-malta
p336
ass(Vdescription
p337
g5
NVamd64
p338
tp339
(dp340
Vhardware-long
p341
VPCs with AMD64, Intel 64 or VIA Nano processors
p342
sVhardware
p343
V64-bit PCs
p344
ss(Vbase
p345
g316
tp346
(dp347
g116
(lp348
g118
asVkernel-arch
p349
Vparisc
p350
ss(Vrelations
p351
g26
tp352
(dp353
Vheaders%gcc-5
p354
Vlinux-compiler-gcc-5-x86
p355
ss(Vbuild
p356
g173
tp357
(dp358
Vimage-file
p359
Varch/arm/boot/zImage
p360
ss(Vimage
p361
g5
tp362
(dp363
Vbootloaders
p364
(lp365
Vgrub-pc
p366
aVgrub-efi
p367
aVextlinux
p368
asVconfigs
p369
(lp370
sVinstall-stem
p371
Vvmlinuz
p372
sVbreaks
p373
Vxserver-xorg-input-vmmouse (<< 1:13.0.99)
p374
ss(Vimage
p375
g316
tp376
(dp377
Vsuggests
p378
Vpalo
p379
sVinstall-stem
p380
Vvmlinux
p381
ss(Vdescription
p382
Vpowerpcspe
p383
tp384
(dp385
Vhardware
p386
V32-bit PowerPC with SPE (instead of AltiVec) with SMP support
p387
ss(Vdescription
p388
g113
NVloongson-3
p389
tp390
(dp391
Vhardware-long
p392
VLoongson 3A or 3B based systems (e.g. from Loongson or Lemote)
p393
sVhardware
p394
VLoongson 3A/3B
p395
ss(g181
g173
g118
tp396
(dp397
g185
I01
sg186
(lp398
Vmarvell
p399
aVversatile
p400
ass(Vimage
p401
Vppc64el
p402
tp403
(dp404
Vconfigs
p405
(lp406
sVinstall-stem
p407
Vvmlinux
p408
sVsuggests
p409
Vmkvmlinuz
p410
ss(Vdescription
p411
g113
NVloongson-2f
p412
tp413
(dp414
Vhardware-long
p415
VLemote Loongson 2F systems
p416
sVhardware
p417
VLoongson 2F
p418
ss(Vimage
p419
g20
NV4kc-malta
p420
tp421
(dp422
Vconfigs
p423
(lp424
Vkernelarch-mips/config.4kc-malta
p425
ass(Vdescription
p426
g113
NVocteon
p427
tp428
(dp429
Vhardware-long
p430
VCavium Networks Octeon
p431
sVhardware
p432
VOcteon
p433
ss(g181
g159
g118
tp434
(dp435
g185
I01
sg186
(lp436
Vs390x
p437
ass(g181
g402
g118
tp438
(dp439
g185
I01
sg186
(lp440
Vpowerpc64le
p441
ass(Vdescription
p442
g129
NVarm64
p443
tp444
(dp445
Vhardware
p446
V64-bit ARMv8 machines
p447
ss(Vbase
p448
g159
tp449
(dp450
g116
(lp451
g118
asVkernel-arch
p452
Vs390
p453
ss(Vimage
p454
tp455
(dp456
Vinitramfs-generators
p457
(lp458
Vinitramfs-tools
p459
aVinitramfs-fallback
p460
ass(Vimage
p461
g113
NV5kc-malta
p462
tp463
(dp464
Vconfigs
p465
(lp466
Vkernelarch-mips/config.5kc-malta
p467
ass(Vbuild
p468
g316
tp469
(dp470
Vsigned-modules
p471
I00
sVimage-file
p472
Vvmlinux
p473
ss(Vdescription
p474
g35
NVpowerpc64
p475
tp476
(dp477
Vhardware
p478
V64-bit PowerPC
p479
ss(Vbuild
p480
g383
tp481
(dp482
Vsigned-modules
p483
I00
sVimage-file
p484
Vvmlinux
p485
sVvdso
p486
I01
ss(Vdescription
p487
g43
NV5kc-malta
p488
tp489
(dp490
Vhardware-long
p491
VMIPS Malta boards
p492
sVhardware
p493
VMIPS Malta
p494
ss(Vimage
p495
g113
NVloongson-2f
p496
tp497
(dp498
Vconfigs
p499
(lp500
Vkernelarch-mips/config.loongson-2f
p501
asVrecommends
p502
Vlibc6-loongson2f
p503
ss(Vdescription
p504
g113
NV5kc-malta
p505
tp506
(dp507
Vhardware-long
p508
VMIPS Malta boards (64-bit)
p509
sVhardware
p510
VMIPS Malta (64-bit)
p511
ss(Vdescription
p512
g141
NVpowerpc64
p513
tp514
(dp515
Vhardware
p516
V64-bit PowerPC
p517
ss(Vimage
p518
Vsh4
p519
tp520
(dp521
Vsuggests
p522
Vfdutils
p523
sVinstall-stem
p524
Vvmlinuz
p525
ss(Vdescription
p526
g220
NValpha-smp
p527
tp528
(dp529
Vhardware-long
p530
VDEC Alpha SMP systems with extended kernel start address (Wildfire, Titan, Marvel)
p531
sVhardware
p532
VAlpha SMP
p533
ss(Vbase
p534
Vor1k
p535
tp536
(dp537
Vfeaturesets
p538
(lp539
sVkernel-arch
p540
Vopenrisc
p541
ss(Vbase
p542
g76
tp543
(dp544
g116
(lp545
g118
asVkernel-arch
p546
Varm
p547
ss(Vimage
p548
g76
tp549
(dp550
Vconfigs
p551
(lp552
Vkernelarch-arm/config
p553
asVinstall-stem
p554
Vvmlinuz
p555
sVsuggests
p556
Vfdutils
p557
ss(Vimage
p558
g35
NVpowerpc64
p559
tp560
(dp561
Vconfigs
p562
(lp563
Vkernelarch-powerpc/config-arch-64
p564
aVkernelarch-powerpc/config-arch-64-be
p565
ass(Vimage
p566
g113
NVocteon
p567
tp568
(dp569
Vconfigs
p570
(lp571
Vkernelarch-mips/config.octeon
p572
ass(Vimage
p573
g134
tp574
(dp575
Vconfigs
p576
(lp577
sVinstall-stem
p578
Vvmlinuz
p579
sVsuggests
p580
Vsilo, fdutils
p581
ss(g181
g76
g118
tp582
(dp583
g185
I01
sg186
(lp584
Varmmp
p585
aVarmmp-lpae
p586
ass(Vimage
p587
g113
NVloongson-3
p588
tp589
(dp590
Vconfigs
p591
(lp592
Vkernelarch-mips/config.loongson-3
p593
ass(Vbase
p594
g519
tp595
(dp596
g116
(lp597
g118
asVkernel-arch
p598
Vsh
p599
ss(Vrelations
p600
g5
tp601
(dp602
Vheaders%gcc-5
p603
Vlinux-compiler-gcc-5-x86
p604
ss(Vdescription
p605
g519
NVsh7785lcr
p606
tp607
(dp608
Vhardware-long
p609
VRenesas SH7785 reference board
p610
sVhardware
p611
Vsh7785lcr
p612
ss(Vbuild
p613
g159
NVs390x
p614
tp615
(dp616
Vdebug-info
p617
I01
ss(Vrelations
p618
g316
tp619
(dp620
Vgcc-5
p621
Vgcc-5 <!stage1>, binutils-hppa64-linux-gnu <!stage1>, gcc-5-hppa64-linux-gnu <!stage1>
p622
ss(Vimage
p623
g113
NVloongson-2e
p624
tp625
(dp626
Vconfigs
p627
(lp628
Vkernelarch-mips/config.loongson-2e
p629
ass(Vbase
p630
Vs390
p631
tp632
(dp633
Vfeaturesets
p634
(lp635
sVkernel-arch
p636
Vs390
p637
ss(Vimage
p638
g5
NVamd64
p639
tp640
(dp641
Vconfigs
p642
(lp643
Vkernelarch-x86/config-arch-64
p644
ass(Vabi
p645
NVrt
p646
tp647
(dp648
Vignore-changes
p649
(lp650
V*
p651
ass(g181
g316
g118
tp652
(dp653
g185
I01
sg186
(lp654
Vparisc
p655
aVparisc64-smp
p656
ass(Vbase
p657
g134
tp658
(dp659
g116
(lp660
g118
asVkernel-arch
p661
Vsparc
p662
ss(Vdescription
p663
g402
NVpowerpc64le
p664
tp665
(dp666
Vhardware
p667
VLittle-endian 64-bit PowerPC
p668
ss(Vbase
p669
Vx32
p670
tp671
(dp672
Vfeaturesets
p673
(lp674
sVkernel-arch
p675
Vx86
p676
ss(g181
g519
g118
tp677
(dp678
g185
I01
sg186
(lp679
Vsh7751r
p680
aVsh7785lcr
p681
ass(Vimage
p682
g383
tp683
(dp684
Vsuggests
p685
Vmkvmlinuz
p686
sVinstall-stem
p687
Vvmlinux
p688
ss(Vbase
p689
g14
tp690
(dp691
g116
(lp692
g118
asVkernel-arch
p693
Vmips
p694
ss(Vbase
p695
g220
tp696
(dp697
g116
(lp698
g118
asVkernel-arch
p699
Valpha
p700
ss(Vbuild
p701
g159
tp702
(dp703
Vimage-file
p704
Varch/s390/boot/image
p705
sVvdso
p706
I01
ss(Vdescription
p707
g519
NVsh7751r
p708
tp709
(dp710
Vhardware-long
p711
VRenesas SH7751R R2D plus board
p712
sVhardware
p713
Vsh7751r
p714
ss(g181
g14
g118
tp715
(dp716
g185
I01
sg186
(lp717
V5kc-malta
p718
aVloongson-3
p719
aVocteon
p720
ass(Vdescription
p721
g14
NV5kc-malta
p722
tp723
(dp724
Vhardware-long
p725
VMIPS Malta boards
p726
sVhardware
p727
VMIPS Malta
p728
ss(Vdescription
p729
g182
NVm68k
p730
tp731
(dp732
Vhardware
p733
VMotorola MC68020+ family
p734
ss(Vimage
p735
g134
NVsparc64
p736
tp737
(dp738
Vconfigs
p739
(lp740
Vkernelarch-sparc/config-up
p741
ass(Vbase
p742
tp743
(dp744
Varches
p745
(lp746
Valpha
p747
aVamd64
p748
aVarm64
p749
aVarmel
p750
aVarmhf
p751
aVhppa
p752
aVi386
p753
aVm68k
p754
aVmips
p755
aVmipsel
p756
aVmips64
p757
aVmips64el
p758
aVor1k
p759
aVpowerpc
p760
aVpowerpcspe
p761
aVppc64
p762
aVppc64el
p763
aVs390
p764
aVs390x
p765
aVsh4
p766
aVsparc
p767
aVsparc64
p768
aVx32
p769
asVcompiler
p770
Vgcc-5
p771
sVfeaturesets
p772
(lp773
Vnone
p774
aVrt
p775
ass(Vbuild
p776
g129
tp777
(dp778
Vimage-file
p779
Varch/arm64/boot/Image
p780
sVdebug-info
p781
I01
sVvdso
p782
I01
ss(Vbase
p783
g129
tp784
(dp785
Vfeaturesets
p786
(lp787
Vnone
p788
asVkernel-arch
p789
Varm64
p790
ss(Vbuild
p791
g5
tp792
(dp793
Vimage-file
p794
Varch/x86/boot/bzImage
p795
sVdebug-info
p796
I01
sVvdso
p797
I01
ss(Vimage
p798
g76
NVarmmp-lpae
p799
tp800
(dp801
Vconfigs
p802
(lp803
Varmhf/config.armmp
p804
aVarmhf/config.lpae
p805
ass(Vbase
p806
g26
Vrt
p807
tp808
(dp809
Vflavours
p810
(lp811
V686-pae
p812
ass(Vdescription
p813
tp814
(dp815
Vpart-long-xen
p816
VThis kernel also runs on a Xen hypervisor.\u000aIt supports both privileged (dom0) and unprivileged (domU) operation.
p817
sVpart-long-up
p818
VThis kernel is not suitable for SMP (multi-processor,\u000amulti-core or hyper-threaded) systems.
p819
ss(Vimage
p820
g35
tp821
(dp822
Vconfigs
p823
(lp824
sVinstall-stem
p825
Vvmlinux
p826
sVsuggests
p827
Vmkvmlinuz
p828
ss(Vbase
p829
g20
tp830
(dp831
g116
(lp832
g118
asVkernel-arch
p833
Vmips
p834
ss(Vimage
p835
g141
NVpowerpc-smp
p836
tp837
(dp838
Vconfigs
p839
(lp840
Vpowerpc/config.powerpc
p841
aVpowerpc/config.powerpc-smp
p842
ass(Vbuild
p843
g141
tp844
(dp845
Vimage-file
p846
Vvmlinux
p847
sVvdso
p848
I01
ss(Vimage
p849
g113
tp850
(dp851
Vinstall-stem
p852
Vvmlinux
p853
ss(Vdescription
p854
g14
NVocteon
p855
tp856
(dp857
Vhardware-long
p858
VCavium Networks Octeon
p859
sVhardware
p860
VOcteon
p861
ss(Vdescription
p862
g43
NVocteon
p863
tp864
(dp865
Vhardware-long
p866
VCavium Networks Octeon
p867
sVhardware
p868
VOcteon
p869
ss(Vbase
p870
g316
NVparisc64-smp
p871
tp872
(dp873
Voverride-host-type
p874
Vhppa64-linux-gnu
p875
sVcflags
p876
V-fno-cse-follow-jumps
p877
ss(Vdescription
p878
g26
Vnone
p879
V686-pae
p880
tp881
(dp882
Vparts
p883
(lp884
Vxen
p885
ass(Vdescription
p886
g173
NVversatile
p887
tp888
(dp889
Vhardware-long
p890
VVersatile systems (PB, AB, Qemu)
p891
sVhardware
p892
VVersatile
p893
ss(Vrelations
p894
tp895
(dp896
Vgcc-5
p897
Vgcc-5 <!stage1>
p898
sVinitramfs-tools
p899
Vinitramfs-tools (>= 0.110~)
p900
sVinitramfs-fallback
p901
Vlinux-initramfs-tool
p902
ss(Vdescription
p903
g316
NVparisc64-smp
p904
tp905
(dp906
Vhardware-long
p907
VHP PA-RISC 64-bit SMP systems with support for more than 4 GB RAM
p908
sVhardware
p909
Vmultiprocessor 64-bit PA-RISC
p910
ss(Vdescription
p911
g26
NV686
p912
tp913
(dp914
Vhardware-long
p915
VPCs with one or more processors not supporting PAE
p916
sVhardware
p917
Volder PCs
p918
ss(Vdescription
p919
g20
NV4kc-malta
p920
tp921
(dp922
Vhardware-long
p923
VMIPS Malta boards
p924
sVhardware
p925
VMIPS Malta
p926
ss(Vimage
p927
g129
tp928
(dp929
Vinstall-stem
p930
Vvmlinuz
p931
ss(Vrelations
p932
g173
tp933
(dp934
Vheaders%gcc-5
p935
Vlinux-compiler-gcc-5-arm
p936
ss(Vimage
p937
g141
NVpowerpc64
p938
tp939
(dp940
Vconfigs
p941
(lp942
Vkernelarch-powerpc/config-arch-64
p943
aVkernelarch-powerpc/config-arch-64-be
p944
ass(Vimage
p945
g173
tp946
(dp947
Vconfigs
p948
(lp949
Vkernelarch-arm/config
p950
aVarmel/config
p951
asVinstall-stem
p952
Vvmlinuz
p953
sVsuggests
p954
Vfdutils
p955
ss(Vimage
p956
g402
NVpowerpc64le
p957
tp958
(dp959
Vconfigs
p960
(lp961
Vkernelarch-powerpc/config-arch-64
p962
aVkernelarch-powerpc/config-arch-64-le
p963
ass(Vbuild
p964
g26
tp965
(dp966
Vimage-file
p967
Varch/x86/boot/bzImage
p968
sVvdso
p969
I01
ss(Vbuild
p970
g402
tp971
(dp972
Vimage-file
p973
Vvmlinux
p974
sVvdso
p975
I01
ss(Vimage
p976
g43
NV5kc-malta
p977
tp978
(dp979
Vconfigs
p980
(lp981
Vkernelarch-mips/config.5kc-malta
p982
ass(Vbase
p983
g383
tp984
(dp985
g116
(lp986
g118
asVkernel-arch
p987
Vpowerpc
p988
ss(Vdescription
p989
g113
NV4kc-malta
p990
tp991
(dp992
Vhardware-long
p993
VMIPS Malta boards
p994
sVhardware
p995
VMIPS Malta
p996
ss(Vbuild
p997
g14
tp998
(dp999
Vsigned-modules
p1000
I00
sVimage-file
p1001
Vvmlinux
p1002
ss(Vimage
p1003
g20
NVocteon
p1004
tp1005
(dp1006
Vconfigs
p1007
(lp1008
Vkernelarch-mips/config.octeon
p1009
ass(Vbuild
p1010
g173
NVmarvell
p1011
tp1012
(dp1013
Vsigned-modules
p1014
I00
ss(Vbuild
p1015
g113
tp1016
(dp1017
Vsigned-modules
p1018
I00
sVimage-file
p1019
Vvmlinux
p1020
ss(Vbuild
p1021
g519
tp1022
(dp1023
Vsigned-modules
p1024
I00
sVimage-file
p1025
Varch/sh/boot/zImage
p1026
ss(Vimage
p1027
g26
NV686
p1028
tp1029
(dp1030
Vconfigs
p1031
(lp1032
Vkernelarch-x86/config-arch-32
p1033
aVi386/config.686
p1034
ass(g181
g141
g118
tp1035
(dp1036
g185
I01
sg186
(lp1037
Vpowerpc
p1038
aVpowerpc-smp
p1039
aVpowerpc64
p1040
ass(Vdescription
p1041
Ng646
tp1042
(dp1043
Vpart-short-rt
p1044
VPREEMPT_RT
p1045
sVparts
p1046
(lp1047
Vrt
p1048
asVpart-long-rt
p1049
VThis kernel includes the PREEMPT_RT realtime patch set.
p1050
ss(Vimage
p1051
g26
tp1052
(dp1053
Vbootloaders
p1054
(lp1055
Vgrub-pc
p1056
aVextlinux
p1057
asVconfigs
p1058
(lp1059
sVinstall-stem
p1060
Vvmlinuz
p1061
sVbreaks
p1062
Vxserver-xorg-input-vmmouse (<< 1:13.0.99)
p1063
ss(Vimage
p1064
g159
tp1065
(dp1066
Vbootloaders
p1067
(lp1068
Vs390-tools
p1069
asVconfigs
p1070
(lp1071
sVinstall-stem
p1072
Vvmlinuz
p1073
ss(g181
g35
g118
tp1074
(dp1075
g185
I01
sg186
(lp1076
Vpowerpc64
p1077
ass(Vbase
p1078
g402
tp1079
(dp1080
g116
(lp1081
g118
asVkernel-arch
p1082
Vpowerpc
p1083
ss(g181
g43
g118
tp1084
(dp1085
g185
I01
sg186
(lp1086
V5kc-malta
p1087
aVocteon
p1088
ass(Vdescription
p1089
g113
NVloongson-2e
p1090
tp1091
(dp1092
Vhardware-long
p1093
VLemote Loongson 2E systems
p1094
sVhardware
p1095
VLoongson 2E
p1096
ss(Vbuild
p1097
tp1098
(dp1099
Vsigned-modules
p1100
I01
ss(Vdescription
p1101
g20
NV5kc-malta
p1102
tp1103
(dp1104
Vhardware-long
p1105
VMIPS Malta boards (64-bit)
p1106
sVhardware
p1107
VMIPS Malta (64-bit)
p1108
ss(Vimage
p1109
g14
NVocteon
p1110
tp1111
(dp1112
Vconfigs
p1113
(lp1114
Vkernelarch-mips/config.octeon
p1115
ass(g181
g220
g118
tp1116
(dp1117
g185
I01
sg186
(lp1118
Valpha-generic
p1119
aValpha-smp
p1120
ass(g181
g20
g118
tp1121
(dp1122
g185
I01
sg186
(lp1123
V4kc-malta
p1124
aV5kc-malta
p1125
aVocteon
p1126
ass(Vimage
p1127
g14
NV5kc-malta
p1128
tp1129
(dp1130
Vconfigs
p1131
(lp1132
Vkernelarch-mips/config.5kc-malta
p1133
ass(Vimage
p1134
g134
NVsparc64-smp
p1135
tp1136
(dp1137
Vconfigs
p1138
(lp1139
Vkernelarch-sparc/config-smp
p1140
ass(Vrelations
p1141
g76
tp1142
(dp1143
Vheaders%gcc-5
p1144
Vlinux-compiler-gcc-5-arm
p1145
ss(Vbase
p1146
g5
tp1147
(dp1148
Vfeaturesets
p1149
(lp1150
Vnone
p1151
aVrt
p1152
asVkernel-arch
p1153
Vx86
p1154
ss(Vbase
p1155
g129
Vnone
p1156
tp1157
(dp1158
Vflavours
p1159
(lp1160
Varm64
p1161
ass(Vimage
p1162
g20
NV5kc-malta
p1163
tp1164
(dp1165
Vconfigs
p1166
(lp1167
Vkernelarch-mips/config.5kc-malta
p1168
ass(Vbase
p1169
g35
tp1170
(dp1171
g116
(lp1172
g118
asVkernel-arch
p1173
Vpowerpc
p1174
ss(g181
g134
g118
tp1175
(dp1176
g185
I01
sg186
(lp1177
Vsparc64
p1178
aVsparc64-smp
p1179
ass(g181
g383
g118
tp1180
(dp1181
g185
I01
sg186
(lp1182
Vpowerpcspe
p1183
ass(Vimage
p1184
g519
NVsh7785lcr
p1185
tp1186
(dp1187
Vcheck-size
p1188
L4194304L
sVrecommends
p1189
Vu-boot-tools
p1190
ss(Vabi
p1191
tp1192
(dp1193
Vignore-changes
p1194
(lp1195
Vmodule:drivers/net/ethernet/*
p1196
aVmodule:sound/hda/*
p1197
aVzpci_disable_device
p1198
aVzpci_enable_device
p1199
aVzpci_stop_device
p1200
asVabiname
p1201
V2
p1202
ss(Vdescription
p1203
g134
NVsparc64-smp
p1204
tp1205
(dp1206
Vhardware
p1207
Vmultiprocessor 64-bit UltraSPARC
p1208
ss(Vbase
p1209
g26
g879
tp1210
(dp1211
Vflavours
p1212
(lp1213
V686
p1214
aV686-pae
p1215
ass(Vdescription
p1216
g159
NVs390x
p1217
tp1218
(dp1219
Vhardware
p1220
VIBM zSeries
p1221
ss(Vxen
p1222
g5
g6
Vamd64
p1223
tp1224
(dp1225
Vflavours
p1226
(lp1227
Vamd64
p1228
ass(Vbuild
p1229
g76
tp1230
(dp1231
Vimage-file
p1232
Varch/arm/boot/zImage
p1233
sVvdso
p1234
I01
ss(Vbase
p1235
g43
tp1236
(dp1237
g116
(lp1238
g118
asVkernel-arch
p1239
Vmips
p1240
ss(Vbuild
p1241
g20
tp1242
(dp1243
Vsigned-modules
p1244
I00
sVimage-file
p1245
Vvmlinux
p1246
sstp1247
Rp1248
.