cdebian_linux.config
ConfigCore
p0
(tRp1
(Vabi
p2
tp3
(dp4
Vabiname
p5
Vkali2
p6
sVignore-changes
p7
(lp8
V__cpuhp_*
p9
aV__xive_vm_h_*
p10
aVbpf_analyzer
p11
aVcxl_*
p12
aVdax_flush
p13
aVieee80211_nullfunc_get
p14
aVinet_add_protocol
p15
aVinet_del_protocol
p16
aViommu_device_*
p17
aVkvm_async_pf_task_wait
p18
aVkvmppc_*
p19
aVmm_iommu_*
p20
aVmv_mbus_*
p21
aVperf_*
p22
aVregister_cxl_calls
p23
aVregister_key_type
p24
aVunregister_cxl_calls
p25
aV*_hw_breakpoint
p26
aVmodule:arch/x86/kvm/*
p27
aVmodule:drivers/crypto/ccp/*
p28
aVmodule:drivers/hv/*
p29
aVmodule:drivers/gpu/drm/sun4i/*
p30
aVmodule:drivers/iio/**
p31
aVmodule:drivers/misc/cxl/*
p32
aVmodule:drivers/mtd/nand/*
p33
aVmodule:drivers/net/ethernet/**
p34
aVmodule:drivers/net/wireless/**
p35
aVmodule:drivers/nvdimm/*
p36
aVmodule:drivers/power/supply/bq27xxx_battery
p37
aVmodule:drivers/scsi/cxgbi/*
p38
aVmodule:drivers/scsi/libiscs*
p39
aVmodule:drivers/scsi/qla2xxx/qla2xxx
p40
aVmodule:drivers/scsi/ufs/*
p41
aVmodule:drivers/target/**
p42
aVmodule:drivers/usb/chipidea/**
p43
aVmodule:drivers/usb/gadget/**
p44
aVmodule:drivers/usb/host/**
p45
aVmodule:drivers/usb/musb/**
p46
aVmodule:fs/nfs/**
p47
aVmodule:net/ceph/libceph
p48
aVmodule:net/l2tp/**
p49
aVmodule:net/rxrpc/rxrpc
p50
aVmodule:net/sctp/**
p51
aVmodule:sound/core/seq/**
p52
aVmodule:sound/firewire/snd-firewire-lib
p53
aVmodule:sound/pci/hda/*
p54
aVbtree_*
p55
aVvisitor*
p56
aVcan_rx_register
p57
aVip6_xmit
p58
aVmodule:net/dccp/dccp
p59
aVmodule:net/rds/rds
p60
aVdevfreq_*
p61
aVdevm_devfreq_*
p62
aVupdate_devfreq
p63
aVmodule:drivers/infiniband/**
p64
aVacpi_ec_add_query_handler
p65
aVacpi_ec_remove_query_handler
p66
aVfirst_ec
p67
aVdebugfs_create_automount
p68
aVmodule:drivers/iio/imu/inv_mpu6050/*
p69
aVdrm_crtc_accurate_vblank_count
p70
aVacpi_nfit_desc_init
p71
aVacpi_nfit_init
p72
aVloop_register_transfer
p73
aVxen_xlate_*
p74
aVnf_nat_masquerade_ipv4_register_notifier
p75
aVnf_nat_masquerade_ipv6_register_notifier
p76
aVmodule:drivers/scsi/hisi_sas/*
p77
ass(Vbase
p78
tp79
(dp80
Varches
p81
(lp82
Valpha
p83
aVamd64
p84
aVarm64
p85
aVarm64ilp32
p86
aVarmel
p87
aVarmhf
p88
aVhppa
p89
aVi386
p90
aVia64
p91
aVm68k
p92
aVmips
p93
aVmips64
p94
aVmips64el
p95
aVmips64r6
p96
aVmips64r6el
p97
aVmipsel
p98
aVmipsn32
p99
aVmipsn32el
p100
aVmipsn32r6
p101
aVmipsn32r6el
p102
aVmipsr6
p103
aVmipsr6el
p104
aVpowerpc
p105
aVppc64
p106
aVppc64el
p107
aVriscv64
p108
aVs390
p109
aVs390x
p110
aVsh3
p111
aVsh4
p112
aVsparc
p113
aVsparc64
p114
aVx32
p115
asVcompiler
p116
Vgcc-9
p117
sVfeaturesets
p118
(lp119
Vnone
p120
aVrt
p121
ass(Vbuild
p122
tp123
(dp124
Vdebug-info
p125
I01
sVsigned-code
p126
I00
ss(Vbase
p127
NVrt
p128
tp129
(dp130
Venabled
p131
I00
ss(Vdescription
p132
tp133
(dp134
Vpart-long-up
p135
VThis kernel is not suitable for SMP (multi-processor,\u000amulti-core or hyper-threaded) systems.
p136
ss(Vimage
p137
tp138
(dp139
Vinitramfs-generators
p140
(lp141
Vinitramfs-tools
p142
aVinitramfs-fallback
p143
asVrecommends
p144
(lp145
Vapparmor
p146
ass(Vrelations
p147
tp148
(dp149
Vgcc-9
p150
Vgcc-9 <!stage1 !cross !pkg.linux.nokernel>, gcc-9-@gnu-type-package@ <!stage1 cross !pkg.linux.nokernel>
p151
sVinitramfs-fallback
p152
Vlinux-initramfs-tool
p153
sVinitramfs-tools
p154
Vinitramfs-tools (>= 0.120+deb8u2)
p155
ss(Vbase
p156
Valpha
p157
tp158
(dp159
Vkernel-arch
p160
Valpha
p161
sVfeaturesets
p162
(lp163
Vnone
p164
ass(Vbuild
p165
g157
tp166
(dp167
Vimage-file
p168
Varch/alpha/boot/vmlinux.gz
p169
ss(Vimage
p170
g157
tp171
(dp172
Vsuggests
p173
(lp174
Vaboot
p175
aVfdutils
p176
asVinstall-stem
p177
Vvmlinuz
p178
ss(Vdescription
p179
g157
NValpha-generic
p180
tp181
(dp182
Vhardware
p183
VAlpha
p184
sVhardware-long
p185
VDEC Alpha systems with extended kernel start address (Wildfire, Titan, Marvel)
p186
ss(Vdescription
p187
g157
NValpha-smp
p188
tp189
(dp190
Vhardware
p191
VAlpha SMP
p192
sVhardware-long
p193
VDEC Alpha SMP systems with extended kernel start address (Wildfire, Titan, Marvel)
p194
ss(Vbase
p195
g157
g164
tp196
(dp197
Vflavours
p198
(lp199
Valpha-generic
p200
aValpha-smp
p201
asVimplicit-flavour
p202
I01
ss(Vbase
p203
Vamd64
p204
tp205
(dp206
Vfeaturesets
p207
(lp208
Vnone
p209
aVrt
p210
asVkernel-arch
p211
Vx86
p212
ss(Vbuild
p213
g204
tp214
(dp215
Vdebug-info
p216
I01
sVimage-file
p217
Varch/x86/boot/bzImage
p218
sVsigned-code
p219
I00
sVvdso
p220
I01
ss(Vimage
p221
g204
tp222
(dp223
Vbootloaders
p224
(lp225
Vgrub-pc
p226
aVgrub-efi-amd64
p227
aVextlinux
p228
asVinstall-stem
p229
Vvmlinuz
p230
sVbreaks
p231
(lp232
Vxserver-xorg-input-vmmouse (<< 1:13.0.99)
p233
ass(Vrelations
p234
g204
tp235
(dp236
Vheaders%gcc-9
p237
Vlinux-compiler-gcc-9-x86
p238
ss(Vdescription
p239
g204
NVamd64
p240
tp241
(dp242
Vhardware
p243
V64-bit PCs
p244
sVhardware-long
p245
VPCs with AMD64, Intel 64 or VIA Nano processors
p246
ss(Vdescription
p247
g204
NVcloud-amd64
p248
tp249
(dp250
Vhardware
p251
Vx86-64 cloud
p252
sVhardware-long
p253
VAmazon EC2, Google Compute Engine and Microsoft Azure cloud platforms
p254
ss(Vbase
p255
g204
Vnone
p256
tp257
(dp258
Vflavours
p259
(lp260
Vamd64
p261
aVcloud-amd64
p262
ass(Vbase
p263
g204
Vrt
p264
tp265
(dp266
Vflavours
p267
(lp268
Vamd64
p269
ass(Vbase
p270
Varm64
p271
tp272
(dp273
Vcross-compile-compat
p274
Varm-linux-gnueabihf-
p275
sVkernel-arch
p276
Varm64
p277
sVfeaturesets
p278
(lp279
Vnone
p280
aVrt
p281
ass(Vbuild
p282
g271
tp283
(dp284
Vdebug-info
p285
I01
sVimage-file
p286
Varch/arm64/boot/Image
p287
sVsigned-code
p288
I00
sVvdso
p289
I01
ss(Vimage
p290
g271
tp291
(dp292
Vinstall-stem
p293
Vvmlinuz
p294
sVbreaks
p295
(lp296
Vlibmozjs185-1.0
p297
aVlibmozjs-24-0 (<< 24.2.0-5.1~)
p298
ass(Vdescription
p299
g271
NVarm64
p300
tp301
(dp302
Vhardware
p303
V64-bit ARMv8 machines
p304
ss(Vimage
p305
g271
NVarm64
p306
tp307
(dp308
s(Vrelations
p309
g271
tp310
(dp311
Vgcc-9
p312
Vgcc-9 <!stage1 !cross !pkg.linux.nokernel>, gcc-9-aarch64-linux-gnu <!stage1 cross !pkg.linux.nokernel>, gcc-arm-linux-gnueabihf <!stage1 !pkg.linux.nokernel>
p313
sVheaders%gcc-9
p314
Vgcc-9
p315
ss(Vbase
p316
g271
Vnone
p317
tp318
(dp319
Vflavours
p320
(lp321
Varm64
p322
ass(Vbase
p323
g271
Vrt
p324
tp325
(dp326
Vflavours
p327
(lp328
Varm64
p329
ass(Vbase
p330
Varm64ilp32
p331
tp332
(dp333
Vkernel-arch
p334
Varm64
p335
sVfeaturesets
p336
(lp337
ss(Vbase
p338
Varmel
p339
tp340
(dp341
Vkernel-arch
p342
Varm
p343
sg162
(lp344
g164
ass(Vbuild
p345
g339
tp346
(dp347
Vimage-file
p348
Varch/arm/boot/zImage
p349
sVuncompressed-image-file
p350
Varch/arm/boot/Image
p351
sVsigned-code
p352
I00
ss(Vimage
p353
g339
tp354
(dp355
Vinstall-stem
p356
Vvmlinuz
p357
ss(Vrelations
p358
g339
tp359
(dp360
Vheaders%gcc-9
p361
Vlinux-compiler-gcc-9-arm
p362
ss(Vdescription
p363
g339
NVmarvell
p364
tp365
(dp366
Vhardware
p367
VMarvell Kirkwood/Orion
p368
sVhardware-long
p369
VMarvell Kirkwood and Orion based systems (https://wiki.debian.org/ArmEabiPort#Supported_hardware)
p370
ss(Vdescription
p371
g339
NVrpi
p372
tp373
(dp374
Vhardware
p375
VRaspberry Pi and Pi Zero
p376
sVhardware-long
p377
VRaspberry Pi, Raspberry Pi Zero based systems
p378
ss(Vimage
p379
g339
NVmarvell
p380
tp381
(dp382
Vrecommends
p383
(lp384
Vu-boot-tools
p385
asVcheck-size
p386
I2729712
sVcheck-size-with-dtb
p387
I01
sVcheck-uncompressed-size
p388
I7340032
sVbreaks
p389
(lp390
Vflash-kernel (<< 3.57~)
p391
ass(g195
g339
g164
tp392
(dp393
g198
(lp394
Vmarvell
p395
aVrpi
p396
asg202
I01
ss(Vbase
p397
Varmhf
p398
tp399
(dp400
Vfeaturesets
p401
(lp402
Vnone
p403
aVrt
p404
asVkernel-arch
p405
Varm
p406
ss(Vbuild
p407
g398
tp408
(dp409
Vimage-file
p410
Varch/arm/boot/zImage
p411
sVvdso
p412
I01
sVsigned-code
p413
I00
ss(Vimage
p414
g398
tp415
(dp416
Vinstall-stem
p417
Vvmlinuz
p418
ss(Vrelations
p419
g398
tp420
(dp421
Vheaders%gcc-9
p422
Vlinux-compiler-gcc-9-arm
p423
ss(Vdescription
p424
g398
NVarmmp
p425
tp426
(dp427
Vhardware
p428
VARMv7 multiplatform compatible SoCs
p429
sVhardware-long
p430
VARMv7 multiplatform kernel. See\u000ahttps://wiki.debian.org/DebianKernel/ARMMP for details of supported\u000aplatforms
p431
ss(Vdescription
p432
g398
NVarmmp-lpae
p433
tp434
(dp435
Vhardware
p436
VARMv7 multiplatform compatible SoCs supporting LPAE
p437
sVhardware-long
p438
VARMv7 multiplatform kernel supporting LPAE. See\u000ahttps://wiki.debian.org/DebianKernel/ARMMP for details of supported\u000aplatforms.
p439
ss(Vbase
p440
g398
Vnone
p441
tp442
(dp443
Vflavours
p444
(lp445
Varmmp
p446
aVarmmp-lpae
p447
ass(Vbase
p448
g398
Vrt
p449
tp450
(dp451
Vflavours
p452
(lp453
Varmmp
p454
ass(Vbase
p455
Vhppa
p456
tp457
(dp458
Vkernel-arch
p459
Vparisc
p460
sg162
(lp461
g164
ass(Vbuild
p462
g456
tp463
(dp464
Vimage-file
p465
Varch/parisc/boot/bzImage
p466
sVdebug-info
p467
I00
ss(Vimage
p468
g456
tp469
(dp470
Vsuggests
p471
(lp472
Vpalo
p473
asVinstall-stem
p474
Vvmlinuz
p475
ss(Vdescription
p476
g456
NVparisc
p477
tp478
(dp479
Vhardware
p480
V32-bit PA-RISC
p481
sVhardware-long
p482
VHP PA-RISC 32-bit systems with max 4 GB RAM
p483
ss(Vbase
p484
g456
NVparisc64
p485
tp486
(dp487
Vcflags
p488
V-fno-cse-follow-jumps
p489
sVoverride-host-type
p490
Vhppa64-linux-gnu
p491
ss(Vdescription
p492
g456
NVparisc64
p493
tp494
(dp495
Vhardware
p496
V64-bit PA-RISC
p497
sVhardware-long
p498
VHP PA-RISC 64-bit systems with support for more than 4 GB RAM
p499
ss(Vrelations
p500
g456
tp501
(dp502
Vgcc-9
p503
Vgcc-9 <!stage1 !cross !pkg.linux.nokernel>, gcc-9-hppa-linux-gnu <!stage1 cross !pkg.linux.nokernel>, binutils-hppa64-linux-gnu <!stage1 !pkg.linux.nokernel>, gcc-9-hppa64-linux-gnu <!stage1 !pkg.linux.nokernel>
p504
ss(g195
g456
g164
tp505
(dp506
g198
(lp507
Vparisc
p508
aVparisc64
p509
asg202
I01
ss(Vbase
p510
Vi386
p511
tp512
(dp513
Vfeaturesets
p514
(lp515
Vnone
p516
aVrt
p517
asVkernel-arch
p518
Vx86
p519
ss(Vbuild
p520
g511
tp521
(dp522
Vimage-file
p523
Varch/x86/boot/bzImage
p524
sVsigned-code
p525
I00
sVvdso
p526
I01
ss(Vdescription
p527
g511
tp528
(dp529
Vpart-long-pae
p530
VThis kernel requires PAE (Physical Address Extension).\u000aThis feature is supported by the Intel Pentium Pro/II/III/4/4M/D, Xeon,\u000aCore and Atom; AMD Geode NX, Athlon (K7), Duron, Opteron, Sempron,\u000aTurion or Phenom; Transmeta Efficeon; VIA C7; and some other processors.
p531
ss(Vimage
p532
g511
tp533
(dp534
Vbootloaders
p535
(lp536
Vgrub-pc
p537
aVgrub-efi-ia32
p538
aVextlinux
p539
asVinstall-stem
p540
Vvmlinuz
p541
sVbreaks
p542
(lp543
Vxserver-xorg-input-vmmouse (<< 1:13.0.99)
p544
ass(Vrelations
p545
g511
tp546
(dp547
Vheaders%gcc-9
p548
Vlinux-compiler-gcc-9-x86
p549
ss(Vdescription
p550
g511
NV686
p551
tp552
(dp553
Vhardware
p554
Volder PCs
p555
sVhardware-long
p556
VPCs with one or more processors not supporting PAE
p557
ss(Vbuild
p558
g511
NV686-pae
p559
tp560
(dp561
Vdebug-info
p562
I01
ss(Vdescription
p563
g511
NV686-pae
p564
tp565
(dp566
Vhardware
p567
Vmodern PCs
p568
sVhardware-long
p569
VPCs with one or more processors supporting PAE
p570
sVparts
p571
(lp572
Vpae
p573
ass(Vbase
p574
g511
Vnone
p575
tp576
(dp577
Vflavours
p578
(lp579
V686
p580
aV686-pae
p581
ass(Vbase
p582
g511
Vrt
p583
tp584
(dp585
Vflavours
p586
(lp587
V686-pae
p588
ass(Vbase
p589
Via64
p590
tp591
(dp592
Vkernel-arch
p593
Via64
p594
sg162
(lp595
g164
ass(Vbuild
p596
g590
tp597
(dp598
Vimage-file
p599
Vvmlinux.gz
p600
ss(Vimage
p601
g590
tp602
(dp603
Vbootloaders
p604
(lp605
Vgrub-efi-ia64
p606
asVinstall-stem
p607
Vvmlinuz
p608
ss(Vdescription
p609
g590
NVitanium
p610
tp611
(dp612
Vhardware
p613
VItanium (Merced)
p614
sVhardware-long
p615
Vsystems with original Itanium (Merced) processors
p616
ss(Vdescription
p617
g590
NVmckinley
p618
tp619
(dp620
Vhardware
p621
VItanium 2+
p622
sVhardware-long
p623
Vsystems with Itanium 2 or 9300/9500/9700-series processors
p624
ss(g195
g590
g164
tp625
(dp626
g198
(lp627
Vitanium
p628
aVmckinley
p629
asg202
I01
ss(Vbase
p630
Vm68k
p631
tp632
(dp633
Vcflags
p634
V-ffreestanding
p635
sVkernel-arch
p636
Vm68k
p637
sg162
(lp638
g164
ass(Vbuild
p639
g631
tp640
(dp641
Vimage-file
p642
Vvmlinux
p643
ss(Vimage
p644
g631
tp645
(dp646
Vsuggests
p647
(lp648
Vvmelilo
p649
aVfdutils
p650
asVinstall-stem
p651
Vvmlinux
p652
ss(Vdescription
p653
g631
NVm68k
p654
tp655
(dp656
Vhardware
p657
VMotorola MC68020+ family
p658
ss(g195
g631
g164
tp659
(dp660
g198
(lp661
Vm68k
p662
asg202
I01
ss(Vbase
p663
Vmips
p664
tp665
(dp666
Vkernel-arch
p667
Vmips
p668
sg162
(lp669
g164
ass(Vbuild
p670
g664
tp671
(dp672
Vimage-file
p673
Vvmlinux
p674
ss(Vimage
p675
g664
tp676
(dp677
Vinstall-stem
p678
Vvmlinux
p679
ss(Vdescription
p680
g664
NV4kc-malta
p681
tp682
(dp683
Vhardware
p684
VMIPS Malta
p685
sVhardware-long
p686
VMIPS Malta boards
p687
ss(Vimage
p688
g664
NV4kc-malta
p689
tp690
(dp691
Vconfigs
p692
(lp693
Vkernelarch-mips/config.malta
p694
aVkernelarch-mips/config.mips32r2
p695
ass(Vdescription
p696
g664
NV5kc-malta
p697
tp698
(dp699
Vhardware
p700
VMIPS Malta (64-bit)
p701
sVhardware-long
p702
VMIPS Malta boards (64-bit)
p703
ss(Vimage
p704
g664
NV5kc-malta
p705
tp706
(dp707
Vconfigs
p708
(lp709
Vkernelarch-mips/config.malta
p710
aVkernelarch-mips/config.mips64r2
p711
ass(Vdescription
p712
g664
NVocteon
p713
tp714
(dp715
Vhardware
p716
VOcteon
p717
sVhardware-long
p718
VCavium Networks Octeon
p719
ss(Vimage
p720
g664
NVocteon
p721
tp722
(dp723
Vconfigs
p724
(lp725
Vkernelarch-mips/config.octeon
p726
ass(g195
g664
g164
tp727
(dp728
g198
(lp729
V4kc-malta
p730
aV5kc-malta
p731
aVocteon
p732
asg202
I01
ss(Vbase
p733
Vmips64
p734
tp735
(dp736
Vkernel-arch
p737
Vmips
p738
sg162
(lp739
g164
ass(Vbuild
p740
g734
tp741
(dp742
Vimage-file
p743
Vvmlinux
p744
ss(Vimage
p745
g734
tp746
(dp747
Vinstall-stem
p748
Vvmlinux
p749
ss(Vdescription
p750
g734
NV5kc-malta
p751
tp752
(dp753
Vhardware
p754
VMIPS Malta
p755
sVhardware-long
p756
VMIPS Malta boards
p757
ss(Vimage
p758
g734
NV5kc-malta
p759
tp760
(dp761
Vconfigs
p762
(lp763
Vkernelarch-mips/config.malta
p764
aVkernelarch-mips/config.mips64r2
p765
ass(Vdescription
p766
g734
NVocteon
p767
tp768
(dp769
Vhardware
p770
VOcteon
p771
sVhardware-long
p772
VCavium Networks Octeon
p773
ss(Vimage
p774
g734
NVocteon
p775
tp776
(dp777
Vconfigs
p778
(lp779
Vkernelarch-mips/config.octeon
p780
ass(g195
g734
g164
tp781
(dp782
g198
(lp783
V5kc-malta
p784
aVocteon
p785
asg202
I01
ss(Vbase
p786
Vmips64el
p787
tp788
(dp789
Vkernel-arch
p790
Vmips
p791
sg162
(lp792
g164
ass(Vbuild
p793
g787
tp794
(dp795
Vimage-file
p796
Vvmlinux
p797
ss(Vimage
p798
g787
tp799
(dp800
Vinstall-stem
p801
Vvmlinux
p802
ss(Vdescription
p803
g787
NV5kc-malta
p804
tp805
(dp806
Vhardware
p807
VMIPS Malta
p808
sVhardware-long
p809
VMIPS Malta boards
p810
ss(Vimage
p811
g787
NV5kc-malta
p812
tp813
(dp814
Vconfigs
p815
(lp816
Vkernelarch-mips/config.malta
p817
aVkernelarch-mips/config.mips64r2
p818
ass(Vdescription
p819
g787
NVloongson-3
p820
tp821
(dp822
Vhardware
p823
VLoongson 3A/3B
p824
sVhardware-long
p825
VLoongson 3A or 3B based systems (e.g. from Loongson or Lemote)
p826
ss(Vimage
p827
g787
NVloongson-3
p828
tp829
(dp830
Vconfigs
p831
(lp832
Vkernelarch-mips/config.loongson-3
p833
ass(Vdescription
p834
g787
NVocteon
p835
tp836
(dp837
Vhardware
p838
VOcteon
p839
sVhardware-long
p840
VCavium Networks Octeon
p841
ss(Vimage
p842
g787
NVocteon
p843
tp844
(dp845
Vconfigs
p846
(lp847
Vkernelarch-mips/config.octeon
p848
ass(g195
g787
g164
tp849
(dp850
g198
(lp851
V5kc-malta
p852
aVloongson-3
p853
aVocteon
p854
asg202
I01
ss(Vbase
p855
Vmips64r6
p856
tp857
(dp858
Vkernel-arch
p859
Vmips
p860
sg162
(lp861
g164
ass(Vbuild
p862
g856
tp863
(dp864
Vimage-file
p865
Vvmlinux
p866
ss(Vimage
p867
g856
tp868
(dp869
Vinstall-stem
p870
Vvmlinux
p871
ss(Vdescription
p872
g856
NVmips64r6
p873
tp874
(dp875
Vhardware
p876
VMIPS R6 (64 bit, big endian)
p877
sVhardware-long
p878
VMIPS R6 (64 bit, big endian)
p879
ss(Vimage
p880
g856
NVmips64r6
p881
tp882
(dp883
Vconfigs
p884
(lp885
Vkernelarch-mips/config.boston
p886
aVkernelarch-mips/config.mips64r6
p887
ass(g195
g856
g164
tp888
(dp889
g198
(lp890
Vmips64r6
p891
asg202
I01
ss(Vbase
p892
Vmips64r6el
p893
tp894
(dp895
Vkernel-arch
p896
Vmips
p897
sg162
(lp898
g164
ass(Vbuild
p899
g893
tp900
(dp901
Vimage-file
p902
Vvmlinux
p903
ss(Vimage
p904
g893
tp905
(dp906
Vinstall-stem
p907
Vvmlinux
p908
ss(Vdescription
p909
g893
NVmips64r6el
p910
tp911
(dp912
Vhardware
p913
VMIPS R6 (64 bit, little endian)
p914
sVhardware-long
p915
VMIPS R6 (64 bit, little endian)
p916
ss(Vimage
p917
g893
NVmips64r6el
p918
tp919
(dp920
Vconfigs
p921
(lp922
Vkernelarch-mips/config.boston
p923
aVkernelarch-mips/config.mips64r6
p924
ass(g195
g893
g164
tp925
(dp926
g198
(lp927
Vmips64r6el
p928
asg202
I01
ss(Vbase
p929
Vmipsel
p930
tp931
(dp932
Vkernel-arch
p933
Vmips
p934
sg162
(lp935
g164
ass(Vbuild
p936
g930
tp937
(dp938
Vimage-file
p939
Vvmlinux
p940
ss(Vimage
p941
g930
tp942
(dp943
Vinstall-stem
p944
Vvmlinux
p945
ss(Vdescription
p946
g930
NV4kc-malta
p947
tp948
(dp949
Vhardware
p950
VMIPS Malta
p951
sVhardware-long
p952
VMIPS Malta boards
p953
ss(Vimage
p954
g930
NV4kc-malta
p955
tp956
(dp957
Vconfigs
p958
(lp959
Vkernelarch-mips/config.malta
p960
aVkernelarch-mips/config.mips32r2
p961
ass(Vdescription
p962
g930
NV5kc-malta
p963
tp964
(dp965
Vhardware
p966
VMIPS Malta (64-bit)
p967
sVhardware-long
p968
VMIPS Malta boards (64-bit)
p969
ss(Vimage
p970
g930
NV5kc-malta
p971
tp972
(dp973
Vconfigs
p974
(lp975
Vkernelarch-mips/config.malta
p976
aVkernelarch-mips/config.mips64r2
p977
ass(Vdescription
p978
g930
NVloongson-3
p979
tp980
(dp981
Vhardware
p982
VLoongson 3A/3B
p983
sVhardware-long
p984
VLoongson 3A or 3B based systems (e.g. from Loongson or Lemote)
p985
ss(Vimage
p986
g930
NVloongson-3
p987
tp988
(dp989
Vconfigs
p990
(lp991
Vkernelarch-mips/config.loongson-3
p992
ass(Vdescription
p993
g930
NVocteon
p994
tp995
(dp996
Vhardware
p997
VOcteon
p998
sVhardware-long
p999
VCavium Networks Octeon
p1000
ss(Vimage
p1001
g930
NVocteon
p1002
tp1003
(dp1004
Vconfigs
p1005
(lp1006
Vkernelarch-mips/config.octeon
p1007
ass(g195
g930
g164
tp1008
(dp1009
g198
(lp1010
V4kc-malta
p1011
aV5kc-malta
p1012
aVloongson-3
p1013
aVocteon
p1014
asg202
I01
ss(Vbase
p1015
Vmipsn32
p1016
tp1017
(dp1018
Vkernel-arch
p1019
Vmips
p1020
sVfeaturesets
p1021
(lp1022
ss(Vbase
p1023
Vmipsn32el
p1024
tp1025
(dp1026
Vkernel-arch
p1027
Vmips
p1028
sVfeaturesets
p1029
(lp1030
ss(Vbase
p1031
Vmipsn32r6
p1032
tp1033
(dp1034
Vkernel-arch
p1035
Vmips
p1036
sVfeaturesets
p1037
(lp1038
ss(Vbase
p1039
Vmipsn32r6el
p1040
tp1041
(dp1042
Vkernel-arch
p1043
Vmips
p1044
sVfeaturesets
p1045
(lp1046
ss(Vbase
p1047
Vmipsr6
p1048
tp1049
(dp1050
Vkernel-arch
p1051
Vmips
p1052
sg162
(lp1053
g164
ass(Vbuild
p1054
g1048
tp1055
(dp1056
Vimage-file
p1057
Vvmlinux
p1058
ss(Vimage
p1059
g1048
tp1060
(dp1061
Vinstall-stem
p1062
Vvmlinux
p1063
ss(Vdescription
p1064
g1048
NVmips32r6
p1065
tp1066
(dp1067
Vhardware
p1068
VMIPS R6 (32 bit, big endian)
p1069
sVhardware-long
p1070
VMIPS R6 (32 bit, big endian)
p1071
ss(Vimage
p1072
g1048
NVmips32r6
p1073
tp1074
(dp1075
Vconfigs
p1076
(lp1077
Vkernelarch-mips/config.boston
p1078
aVkernelarch-mips/config.mips32r6
p1079
ass(Vdescription
p1080
g1048
NVmips64r6
p1081
tp1082
(dp1083
Vhardware
p1084
VMIPS R6 (64 bit, big endian)
p1085
sVhardware-long
p1086
VMIPS R6 (64 bit, big endian)
p1087
ss(Vimage
p1088
g1048
NVmips64r6
p1089
tp1090
(dp1091
Vconfigs
p1092
(lp1093
Vkernelarch-mips/config.boston
p1094
aVkernelarch-mips/config.mips64r6
p1095
ass(g195
g1048
g164
tp1096
(dp1097
g198
(lp1098
Vmips32r6
p1099
aVmips64r6
p1100
asg202
I01
ss(Vbase
p1101
Vmipsr6el
p1102
tp1103
(dp1104
Vkernel-arch
p1105
Vmips
p1106
sg162
(lp1107
g164
ass(Vbuild
p1108
g1102
tp1109
(dp1110
Vimage-file
p1111
Vvmlinux
p1112
ss(Vimage
p1113
g1102
tp1114
(dp1115
Vinstall-stem
p1116
Vvmlinux
p1117
ss(Vdescription
p1118
g1102
NVmips32r6el
p1119
tp1120
(dp1121
Vhardware
p1122
VMIPS R6 (32 bit, little endian)
p1123
sVhardware-long
p1124
VMIPS R6 (32 bit, little endian)
p1125
ss(Vimage
p1126
g1102
NVmips32r6el
p1127
tp1128
(dp1129
Vconfigs
p1130
(lp1131
Vkernelarch-mips/config.boston
p1132
aVkernelarch-mips/config.mips32r6
p1133
ass(Vdescription
p1134
g1102
NVmips64r6el
p1135
tp1136
(dp1137
Vhardware
p1138
VMIPS R6 (64 bit, little endian)
p1139
sVhardware-long
p1140
VMIPS R6 (64 bit, little endian)
p1141
ss(Vimage
p1142
g1102
NVmips64r6el
p1143
tp1144
(dp1145
Vconfigs
p1146
(lp1147
Vkernelarch-mips/config.boston
p1148
aVkernelarch-mips/config.mips64r6
p1149
ass(g195
g1102
g164
tp1150
(dp1151
g198
(lp1152
Vmips32r6el
p1153
aVmips64r6el
p1154
asg202
I01
ss(Vbase
p1155
Vpowerpc
p1156
tp1157
(dp1158
Vkernel-arch
p1159
Vpowerpc
p1160
sg162
(lp1161
g164
ass(Vbuild
p1162
g1156
tp1163
(dp1164
Vimage-file
p1165
Vvmlinux
p1166
sVvdso
p1167
I01
ss(Vimage
p1168
g1156
tp1169
(dp1170
Vconfigs
p1171
(lp1172
sVbootloaders
p1173
(lp1174
Vgrub-ieee1275
p1175
asVsuggests
p1176
(lp1177
Vmkvmlinuz
p1178
asVinstall-stem
p1179
Vvmlinux
p1180
ss(Vdescription
p1181
g1156
NVpowerpc
p1182
tp1183
(dp1184
Vhardware
p1185
Vuniprocessor 32-bit PowerPC
p1186
ss(Vdescription
p1187
g1156
NVpowerpc-smp
p1188
tp1189
(dp1190
Vhardware
p1191
Vmultiprocessor 32-bit PowerPC
p1192
ss(Vimage
p1193
g1156
NVpowerpc-smp
p1194
tp1195
(dp1196
Vconfigs
p1197
(lp1198
Vpowerpc/config.powerpc
p1199
aVpowerpc/config.powerpc-smp
p1200
ass(Vdescription
p1201
g1156
NVpowerpc64
p1202
tp1203
(dp1204
Vhardware
p1205
V64-bit PowerPC
p1206
ss(Vimage
p1207
g1156
NVpowerpc64
p1208
tp1209
(dp1210
Vconfigs
p1211
(lp1212
Vkernelarch-powerpc/config-arch-64
p1213
aVkernelarch-powerpc/config-arch-64-be
p1214
ass(g195
g1156
g164
tp1215
(dp1216
g198
(lp1217
Vpowerpc
p1218
aVpowerpc-smp
p1219
aVpowerpc64
p1220
asg202
I01
ss(Vbase
p1221
Vppc64
p1222
tp1223
(dp1224
Vkernel-arch
p1225
Vpowerpc
p1226
sg162
(lp1227
g164
ass(Vbuild
p1228
g1222
tp1229
(dp1230
Vimage-file
p1231
Vvmlinux
p1232
sVvdso
p1233
I01
ss(Vimage
p1234
g1222
tp1235
(dp1236
Vconfigs
p1237
(lp1238
sVbootloaders
p1239
(lp1240
Vgrub-ieee1275
p1241
asVsuggests
p1242
(lp1243
Vmkvmlinuz
p1244
asVinstall-stem
p1245
Vvmlinux
p1246
ss(Vdescription
p1247
g1222
NVpowerpc64
p1248
tp1249
(dp1250
Vhardware
p1251
V64-bit PowerPC
p1252
ss(Vimage
p1253
g1222
NVpowerpc64
p1254
tp1255
(dp1256
Vconfigs
p1257
(lp1258
Vkernelarch-powerpc/config-arch-64
p1259
aVkernelarch-powerpc/config-arch-64-be
p1260
ass(g195
g1222
g164
tp1261
(dp1262
g198
(lp1263
Vpowerpc64
p1264
asg202
I01
ss(Vbase
p1265
Vppc64el
p1266
tp1267
(dp1268
Vkernel-arch
p1269
Vpowerpc
p1270
sg162
(lp1271
g164
ass(Vbuild
p1272
g1266
tp1273
(dp1274
Vimage-file
p1275
Vvmlinux
p1276
sVvdso
p1277
I01
ss(Vimage
p1278
g1266
tp1279
(dp1280
Vconfigs
p1281
(lp1282
sVbootloaders
p1283
(lp1284
Vgrub-ieee1275
p1285
asVsuggests
p1286
(lp1287
Vmkvmlinuz
p1288
asVinstall-stem
p1289
Vvmlinux
p1290
ss(Vdescription
p1291
g1266
NVpowerpc64le
p1292
tp1293
(dp1294
Vhardware
p1295
VLittle-endian 64-bit PowerPC
p1296
ss(Vimage
p1297
g1266
NVpowerpc64le
p1298
tp1299
(dp1300
Vconfigs
p1301
(lp1302
Vkernelarch-powerpc/config-arch-64
p1303
aVkernelarch-powerpc/config-arch-64-le
p1304
ass(g195
g1266
g164
tp1305
(dp1306
g198
(lp1307
Vpowerpc64le
p1308
asg202
I01
ss(Vbase
p1309
Vriscv64
p1310
tp1311
(dp1312
Vkernel-arch
p1313
Vriscv
p1314
sVfeaturesets
p1315
(lp1316
Vnone
p1317
ass(Vbuild
p1318
g1310
tp1319
(dp1320
Vimage-file
p1321
Varch/riscv/boot/Image
p1322
sVvdso
p1323
I01
ss(Vimage
p1324
g1310
tp1325
(dp1326
Vinstall-stem
p1327
Vvmlinux
p1328
ss(Vdescription
p1329
g1310
NVriscv64
p1330
tp1331
(dp1332
Vhardware
p1333
V64-bit RISC-V platforms
p1334
sVhardware-long
p1335
V64-bit RISC-V platforms
p1336
ss(Vbase
p1337
g1310
Vnone
p1338
tp1339
(dp1340
Vflavours
p1341
(lp1342
Vriscv64
p1343
ass(Vbase
p1344
Vs390
p1345
tp1346
(dp1347
Vkernel-arch
p1348
Vs390
p1349
sVfeaturesets
p1350
(lp1351
ss(Vbase
p1352
Vs390x
p1353
tp1354
(dp1355
Vkernel-arch
p1356
Vs390
p1357
sg162
(lp1358
g164
ass(Vbuild
p1359
g1353
tp1360
(dp1361
Vimage-file
p1362
Varch/s390/boot/bzImage
p1363
sVvdso
p1364
I01
ss(Vimage
p1365
g1353
tp1366
(dp1367
Vbootloaders
p1368
(lp1369
Vs390-tools
p1370
asVinstall-stem
p1371
Vvmlinuz
p1372
ss(Vrelations
p1373
g1353
tp1374
(dp1375
Vheaders%gcc-9
p1376
Vlinux-compiler-gcc-9-s390
p1377
ss(Vbuild
p1378
g1353
NVs390x
p1379
tp1380
(dp1381
Vdebug-info
p1382
I01
ss(Vdescription
p1383
g1353
NVs390x
p1384
tp1385
(dp1386
Vhardware
p1387
VIBM zSeries
p1388
ss(g195
g1353
g164
tp1389
(dp1390
g198
(lp1391
Vs390x
p1392
asg202
I01
ss(Vbase
p1393
Vsh3
p1394
tp1395
(dp1396
Vkernel-arch
p1397
Vsh
p1398
sVfeaturesets
p1399
(lp1400
ss(Vbase
p1401
Vsh4
p1402
tp1403
(dp1404
Vkernel-arch
p1405
Vsh
p1406
sg162
(lp1407
g164
ass(Vbuild
p1408
g1402
tp1409
(dp1410
Vimage-file
p1411
Varch/sh/boot/zImage
p1412
ss(Vimage
p1413
g1402
tp1414
(dp1415
Vinstall-stem
p1416
Vvmlinuz
p1417
ss(Vdescription
p1418
g1402
NVsh7751r
p1419
tp1420
(dp1421
Vhardware
p1422
Vsh7751r
p1423
sVhardware-long
p1424
VRenesas SH7751R R2D plus board
p1425
ss(Vdescription
p1426
g1402
NVsh7785lcr
p1427
tp1428
(dp1429
Vhardware
p1430
Vsh7785lcr
p1431
sVhardware-long
p1432
VRenesas SH7785 reference board
p1433
ss(Vimage
p1434
g1402
NVsh7785lcr
p1435
tp1436
(dp1437
Vrecommends
p1438
(lp1439
Vu-boot-tools
p1440
asVcheck-size
p1441
I4194304
ss(g195
g1402
g164
tp1442
(dp1443
g198
(lp1444
Vsh7751r
p1445
aVsh7785lcr
p1446
asg202
I01
ss(Vbase
p1447
Vsparc
p1448
tp1449
(dp1450
Vkernel-arch
p1451
Vsparc
p1452
sVfeaturesets
p1453
(lp1454
ss(Vbase
p1455
Vsparc64
p1456
tp1457
(dp1458
Vkernel-arch
p1459
Vsparc
p1460
sg162
(lp1461
g164
ass(Vbuild
p1462
g1456
tp1463
(dp1464
Vimage-file
p1465
Vvmlinux
p1466
ss(Vimage
p1467
g1456
tp1468
(dp1469
Vconfigs
p1470
(lp1471
sVbootloaders
p1472
(lp1473
Vgrub-ieee1275
p1474
asVsuggests
p1475
(lp1476
Vfdutils
p1477
asVinstall-stem
p1478
Vvmlinux
p1479
ss(Vdescription
p1480
g1456
NVsparc64
p1481
tp1482
(dp1483
Vhardware
p1484
Vuniprocessor 64-bit UltraSPARC
p1485
ss(Vimage
p1486
g1456
NVsparc64
p1487
tp1488
(dp1489
Vconfigs
p1490
(lp1491
Vkernelarch-sparc/config-up
p1492
ass(Vdescription
p1493
g1456
NVsparc64-smp
p1494
tp1495
(dp1496
Vhardware
p1497
Vmultiprocessor 64-bit UltraSPARC
p1498
ss(Vimage
p1499
g1456
NVsparc64-smp
p1500
tp1501
(dp1502
Vconfigs
p1503
(lp1504
Vkernelarch-sparc/config-smp
p1505
ass(g195
g1456
g164
tp1506
(dp1507
g198
(lp1508
Vsparc64
p1509
aVsparc64-smp
p1510
asg202
I01
ss(Vbase
p1511
Vx32
p1512
tp1513
(dp1514
Vkernel-arch
p1515
Vx86
p1516
sVfeaturesets
p1517
(lp1518
ss(Vabi
p1519
NVrt
p1520
tp1521
(dp1522
Vignore-changes
p1523
(lp1524
V*
p1525
ass(Vdescription
p1526
Ng1520
tp1527
(dp1528
Vpart-long-rt
p1529
VThis kernel includes the PREEMPT_RT realtime patch set.
p1530
sVpart-short-rt
p1531
VPREEMPT_RT
p1532
sVparts
p1533
(lp1534
Vrt
p1535
ass(Vversion
p1536
tp1537
(dp1538
Vsource
p1539
V5.3.9-1kali1
p1540
sVupstream
p1541
V5.3
p1542
sVabiname_base
p1543
V5.3.0
p1544
sVabiname
p1545
V5.3.0-kali2
p1546
ss.