cdebian_linux.config
ConfigCore
p0
(tRp1
(Vabi
p2
tp3
(dp4
Vabiname
p5
Vkali2
p6
sVignore-changes
p7
(lp8
V__cpuhp_*
p9
aV__udp_gso_segment
p10
aVbpf_analyzer
p11
aVbpf_offload_dev_create
p12
aVbpf_verifier_log_write
p13
aVcxl_*
p14
aVdax_flush
p15
aVieee80211_nullfunc_get
p16
aVinet_add_protocol
p17
aVinet_del_protocol
p18
aViommu_device_*
p19
aVmm_iommu_*
p20
aVmv_mbus_*
p21
aVperf_*
p22
aVregister_cxl_calls
p23
aVregister_key_type
p24
aVunregister_cxl_calls
p25
aV*_hw_breakpoint
p26
aVmodule:drivers/crypto/ccp/*
p27
aVmodule:drivers/hv/*
p28
aVmodule:drivers/gpu/drm/sun4i/*
p29
aVmodule:drivers/iio/**
p30
aVmodule:drivers/misc/cxl/*
p31
aVmodule:drivers/misc/lis3lv02d/*
p32
aVmodule:drivers/mtd/nand/*
p33
aVmodule:drivers/net/ethernet/**
p34
aVmodule:drivers/net/wireless/**
p35
aVmodule:drivers/nvdimm/*
p36
aVmodule:drivers/nvme/**
p37
aVmodule:drivers/power/supply/bq27xxx_battery
p38
aVmodule:drivers/scsi/cxgbi/*
p39
aVmodule:drivers/scsi/libiscs*
p40
aVmodule:drivers/scsi/qla2xxx/qla2xxx
p41
aVmodule:drivers/scsi/ufs/*
p42
aVmodule:drivers/target/**
p43
aVmodule:drivers/usb/chipidea/**
p44
aVmodule:drivers/usb/gadget/**
p45
aVmodule:drivers/usb/host/**
p46
aVmodule:drivers/usb/musb/**
p47
aVmodule:fs/nfs/**
p48
aVmodule:net/ceph/libceph
p49
aVmodule:net/l2tp/**
p50
aVmodule:net/openvswitch/**
p51
aVmodule:net/rxrpc/rxrpc
p52
aVmodule:net/sctp/**
p53
aVmodule:sound/core/seq/**
p54
aVmodule:sound/firewire/snd-firewire-lib
p55
aVmodule:sound/pci/hda/*
p56
aVbtree_*
p57
aVvisitor*
p58
aVcan_rx_register
p59
aVip6_xmit
p60
aVmodule:net/dccp/dccp
p61
aVmodule:net/rds/rds
p62
aVdevfreq_*
p63
aVdevm_devfreq_*
p64
aVupdate_devfreq
p65
aVmodule:drivers/infiniband/**
p66
aVacpi_ec_add_query_handler
p67
aVacpi_ec_remove_query_handler
p68
aVfirst_ec
p69
aVdebugfs_create_automount
p70
aVmodule:drivers/iio/imu/inv_mpu6050/*
p71
aVdrm_crtc_accurate_vblank_count
p72
aVacpi_nfit_desc_init
p73
aVacpi_nfit_init
p74
aVloop_register_transfer
p75
aVxen_xlate_*
p76
aVnf_nat_masquerade_ipv4_register_notifier
p77
aVnf_nat_masquerade_ipv6_register_notifier
p78
aVdfltcc_*
p79
aVmodule:drivers/scsi/hisi_sas/*
p80
aV__gfn_*
p81
aV__kvmhv_*
p82
aV__kvm_*
p83
aV__xive_vm_h_*
p84
aVgfn_*
p85
aVh_ipi_redirect
p86
aVhalt_poll_ns*
p87
aVkvm_*
p88
aVkvmhv_*
p89
aVkvmppc_*
p90
aVmark_page_dirty
p91
aVvcpu_*
p92
aVmodule:arch/powerpc/kvm/*
p93
aVmodule:arch/s390/kvm/*
p94
aVmodule:arch/x86/kvm/*
p95
aVuv_info
p96
aVxhci_init_driver
p97
ass(Vbase
p98
tp99
(dp100
Varches
p101
(lp102
Valpha
p103
aVamd64
p104
aVarm64
p105
aVarm64ilp32
p106
aVarmel
p107
aVarmhf
p108
aVhppa
p109
aVi386
p110
aVia64
p111
aVm68k
p112
aVmips
p113
aVmips64
p114
aVmips64el
p115
aVmips64r6
p116
aVmips64r6el
p117
aVmipsel
p118
aVmipsn32
p119
aVmipsn32el
p120
aVmipsn32r6
p121
aVmipsn32r6el
p122
aVmipsr6
p123
aVmipsr6el
p124
aVpowerpc
p125
aVppc64
p126
aVppc64el
p127
aVriscv64
p128
aVs390
p129
aVs390x
p130
aVsh3
p131
aVsh4
p132
aVsparc
p133
aVsparc64
p134
aVx32
p135
asVcompiler
p136
Vgcc-11
p137
sVfeaturesets
p138
(lp139
Vnone
p140
aVrt
p141
ass(Vbuild
p142
tp143
(dp144
Vdebug-info
p145
I01
sVsigned-code
p146
I00
sVtrusted-certs
p147
Vdebian/certs/debian-uefi-certs.pem
p148
ss(Vbase
p149
NVrt
p150
tp151
(dp152
Venabled
p153
I01
ss(Vdescription
p154
tp155
(dp156
Vpart-long-up
p157
VThis kernel is not suitable for SMP (multi-processor,\u000amulti-core or hyper-threaded) systems.
p158
ss(Vimage
p159
tp160
(dp161
Vinitramfs-generators
p162
(lp163
Vinitramfs-tools
p164
aVinitramfs-fallback
p165
asVbreaks
p166
(lp167
Vfwupdate (<< 12-7)
p168
aVwireless-regdb (<< 2019.06.03-1~)
p169
asVrecommends
p170
(lp171
Vapparmor
p172
ass(Vrelations
p173
tp174
(dp175
Vgcc-11
p176
Vgcc-11 <!stage1 !cross !pkg.linux.nokernel>, gcc-11-@gnu-type-package@ <!stage1 cross !pkg.linux.nokernel>
p177
sVinitramfs-fallback
p178
Vlinux-initramfs-tool
p179
sVinitramfs-tools
p180
Vinitramfs-tools (>= 0.120+deb8u2)
p181
ss(Vbase
p182
Valpha
p183
tp184
(dp185
Vdefault-flavour
p186
Valpha-smp
p187
sVkernel-arch
p188
Valpha
p189
sVfeaturesets
p190
(lp191
Vnone
p192
ass(Vbuild
p193
g183
tp194
(dp195
Vimage-file
p196
Varch/alpha/boot/vmlinux.gz
p197
ss(Vimage
p198
g183
tp199
(dp200
Vsuggests
p201
(lp202
Vaboot
p203
aVfdutils
p204
asVinstall-stem
p205
Vvmlinuz
p206
ss(Vdescription
p207
g183
NValpha-generic
p208
tp209
(dp210
Vhardware
p211
VAlpha
p212
sVhardware-long
p213
VDEC Alpha systems with extended kernel start address (Wildfire, Titan, Marvel)
p214
ss(Vdescription
p215
g183
NValpha-smp
p216
tp217
(dp218
Vhardware
p219
VAlpha SMP
p220
sVhardware-long
p221
VDEC Alpha SMP systems with extended kernel start address (Wildfire, Titan, Marvel)
p222
ss(Vbase
p223
g183
g192
tp224
(dp225
Vflavours
p226
(lp227
Valpha-generic
p228
aValpha-smp
p229
asVimplicit-flavour
p230
I01
ss(Vbase
p231
Vamd64
p232
tp233
(dp234
Vfeaturesets
p235
(lp236
Vnone
p237
aVrt
p238
asVkernel-arch
p239
Vx86
p240
ss(Vbuild
p241
g232
tp242
(dp243
Vimage-file
p244
Varch/x86/boot/bzImage
p245
sVsigned-code
p246
I00
sVvdso
p247
I01
ss(Vimage
p248
g232
tp249
(dp250
Vbootloaders
p251
(lp252
Vgrub-pc
p253
aVgrub-efi-amd64
p254
aVextlinux
p255
asVinstall-stem
p256
Vvmlinuz
p257
sVbreaks
p258
(lp259
Vxserver-xorg-input-vmmouse (<< 1:13.0.99)
p260
ass(Vrelations
p261
g232
tp262
(dp263
Vheaders%gcc-11
p264
Vlinux-compiler-gcc-11-x86
p265
ss(Vdescription
p266
g232
NVamd64
p267
tp268
(dp269
Vhardware
p270
V64-bit PCs
p271
sVhardware-long
p272
VPCs with AMD64, Intel 64 or VIA Nano processors
p273
ss(Vdescription
p274
g232
NVcloud-amd64
p275
tp276
(dp277
Vhardware
p278
Vx86-64 cloud
p279
sVhardware-long
p280
Vcloud platforms including Amazon EC2, Microsoft Azure, and Google Compute Engine
p281
ss(Vbase
p282
g232
Vnone
p283
tp284
(dp285
Vflavours
p286
(lp287
Vamd64
p288
aVcloud-amd64
p289
asVdefault-flavour
p290
Vamd64
p291
ss(Vimage
p292
g232
g283
Vcloud-amd64
p293
tp294
(dp295
Vconfigs
p296
(lp297
Vconfig.cloud
p298
aVamd64/config.cloud-amd64
p299
ass(Vbase
p300
g232
Vrt
p301
tp302
(dp303
Vflavours
p304
(lp305
Vamd64
p306
ass(Vbase
p307
Varm64
p308
tp309
(dp310
Vcross-compile-compat
p311
Varm-linux-gnueabihf-
p312
sVkernel-arch
p313
Varm64
p314
sVfeaturesets
p315
(lp316
Vnone
p317
aVrt
p318
ass(Vbuild
p319
g308
tp320
(dp321
Vimage-file
p322
Varch/arm64/boot/Image
p323
sVsigned-code
p324
I00
sVvdso
p325
I01
ss(Vimage
p326
g308
tp327
(dp328
Vinstall-stem
p329
Vvmlinuz
p330
sVbreaks
p331
(lp332
Vlibmozjs185-1.0
p333
aVlibmozjs-24-0 (<< 24.2.0-5.1~)
p334
ass(Vdescription
p335
g308
NVarm64
p336
tp337
(dp338
Vhardware
p339
V64-bit ARMv8 machines
p340
ss(Vdescription
p341
g308
NVcloud-arm64
p342
tp343
(dp344
Vhardware
p345
Varm64 cloud
p346
sVhardware-long
p347
Vcloud platforms supporting arm64 virtual machines
p348
ss(Vimage
p349
g308
NVarm64
p350
tp351
(dp352
s(Vrelations
p353
g308
tp354
(dp355
Vgcc-11
p356
Vgcc-11 <!stage1 !cross !pkg.linux.nokernel>, gcc-11-aarch64-linux-gnu <!stage1 cross !pkg.linux.nokernel>, gcc-arm-linux-gnueabihf <!stage1 !pkg.linux.nokernel>
p357
sVheaders%gcc-11
p358
Vgcc-11
p359
ss(Vbase
p360
g308
Vnone
p361
tp362
(dp363
Vflavours
p364
(lp365
Varm64
p366
aVcloud-arm64
p367
asVdefault-flavour
p368
Varm64
p369
ss(Vimage
p370
g308
g361
Vcloud-arm64
p371
tp372
(dp373
Vconfigs
p374
(lp375
Vconfig.cloud
p376
aVarm64/config.cloud-arm64
p377
ass(Vbase
p378
g308
Vrt
p379
tp380
(dp381
Vflavours
p382
(lp383
Varm64
p384
ass(Vbase
p385
Varm64ilp32
p386
tp387
(dp388
Vkernel-arch
p389
Varm64
p390
sVfeaturesets
p391
(lp392
ss(Vbase
p393
Varmel
p394
tp395
(dp396
Vkernel-arch
p397
Varm
p398
sg190
(lp399
g192
ass(Vbuild
p400
g394
tp401
(dp402
Vimage-file
p403
Varch/arm/boot/zImage
p404
sVuncompressed-image-file
p405
Varch/arm/boot/Image
p406
sVsigned-code
p407
I00
ss(Vimage
p408
g394
tp409
(dp410
Vinstall-stem
p411
Vvmlinuz
p412
ss(Vrelations
p413
g394
tp414
(dp415
Vheaders%gcc-11
p416
Vlinux-compiler-gcc-11-arm
p417
ss(Vdescription
p418
g394
NVmarvell
p419
tp420
(dp421
Vhardware
p422
VMarvell Kirkwood/Orion
p423
sVhardware-long
p424
VMarvell Kirkwood and Orion based systems (https://wiki.debian.org/ArmEabiPort#Supported_hardware)
p425
ss(Vdescription
p426
g394
NVrpi
p427
tp428
(dp429
Vhardware
p430
VRaspberry Pi Zero, Zero W and 1
p431
sVhardware-long
p432
VRaspberry Pi Zero, Zero W and 1 based systems
p433
ss(Vimage
p434
g394
NVmarvell
p435
tp436
(dp437
Vrecommends
p438
(lp439
Vu-boot-tools
p440
asVcheck-size
p441
I2729712
sVcheck-size-with-dtb
p442
I01
sVbreaks
p443
(lp444
Vflash-kernel (<< 3.57~)
p445
ass(g223
g394
g192
tp446
(dp447
g226
(lp448
Vmarvell
p449
aVrpi
p450
asg230
I01
ss(Vbase
p451
Varmhf
p452
tp453
(dp454
Vfeaturesets
p455
(lp456
Vnone
p457
aVrt
p458
asVkernel-arch
p459
Varm
p460
ss(Vbuild
p461
g452
tp462
(dp463
Vimage-file
p464
Varch/arm/boot/zImage
p465
sVvdso
p466
I01
sVsigned-code
p467
I00
ss(Vimage
p468
g452
tp469
(dp470
Vinstall-stem
p471
Vvmlinuz
p472
ss(Vrelations
p473
g452
tp474
(dp475
Vheaders%gcc-11
p476
Vlinux-compiler-gcc-11-arm
p477
ss(Vdescription
p478
g452
NVarmmp
p479
tp480
(dp481
Vhardware
p482
VARMv7 multiplatform compatible SoCs
p483
sVhardware-long
p484
VARMv7 multiplatform kernel. See\u000ahttps://wiki.debian.org/DebianKernel/ARMMP for details of supported\u000aplatforms
p485
ss(Vdescription
p486
g452
NVarmmp-lpae
p487
tp488
(dp489
Vhardware
p490
VARMv7 multiplatform compatible SoCs supporting LPAE
p491
sVhardware-long
p492
VARMv7 multiplatform kernel supporting LPAE. See\u000ahttps://wiki.debian.org/DebianKernel/ARMMP for details of supported\u000aplatforms.
p493
ss(Vbase
p494
g452
Vnone
p495
tp496
(dp497
Vflavours
p498
(lp499
Varmmp
p500
aVarmmp-lpae
p501
asVdefault-flavour
p502
Varmmp
p503
ss(Vbase
p504
g452
Vrt
p505
tp506
(dp507
Vflavours
p508
(lp509
Varmmp
p510
ass(Vbase
p511
Vhppa
p512
tp513
(dp514
Vdefault-flavour
p515
Vparisc
p516
sVkernel-arch
p517
Vparisc
p518
sg190
(lp519
g192
ass(Vbuild
p520
g512
tp521
(dp522
Vimage-file
p523
Varch/parisc/boot/bzImage
p524
sVdebug-info
p525
I00
ss(Vimage
p526
g512
tp527
(dp528
Vsuggests
p529
(lp530
Vpalo
p531
asVinstall-stem
p532
Vvmlinuz
p533
ss(Vdescription
p534
g512
NVparisc
p535
tp536
(dp537
Vhardware
p538
V32-bit PA-RISC
p539
sVhardware-long
p540
VHP PA-RISC 32-bit systems with max 4 GB RAM
p541
ss(Vbase
p542
g512
NVparisc64
p543
tp544
(dp545
Vcflags
p546
V-fno-cse-follow-jumps
p547
sVoverride-host-type
p548
Vhppa64-linux-gnu
p549
ss(Vdescription
p550
g512
NVparisc64
p551
tp552
(dp553
Vhardware
p554
V64-bit PA-RISC
p555
sVhardware-long
p556
VHP PA-RISC 64-bit systems with support for more than 4 GB RAM
p557
ss(Vrelations
p558
g512
tp559
(dp560
Vgcc-11
p561
Vgcc-11 <!stage1 !cross !pkg.linux.nokernel>, gcc-11-hppa-linux-gnu <!stage1 cross !pkg.linux.nokernel>, binutils-hppa64-linux-gnu <!stage1 !pkg.linux.nokernel>, gcc-11-hppa64-linux-gnu <!stage1 !pkg.linux.nokernel>
p562
ss(g223
g512
g192
tp563
(dp564
g226
(lp565
Vparisc
p566
aVparisc64
p567
asg230
I01
ss(Vbase
p568
Vi386
p569
tp570
(dp571
Vfeaturesets
p572
(lp573
Vnone
p574
aVrt
p575
asVkernel-arch
p576
Vx86
p577
ss(Vbuild
p578
g569
tp579
(dp580
Vimage-file
p581
Varch/x86/boot/bzImage
p582
sVsigned-code
p583
I00
sVvdso
p584
I01
ss(Vdescription
p585
g569
tp586
(dp587
Vpart-long-pae
p588
VThis kernel requires PAE (Physical Address Extension).\u000aThis feature is supported by the Intel Pentium Pro/II/III/4/4M/D, Xeon,\u000aCore and Atom; AMD Geode NX, Athlon (K7), Duron, Opteron, Sempron,\u000aTurion or Phenom; Transmeta Efficeon; VIA C7; and some other processors.
p589
ss(Vimage
p590
g569
tp591
(dp592
Vbootloaders
p593
(lp594
Vgrub-pc
p595
aVgrub-efi-ia32
p596
aVextlinux
p597
asVinstall-stem
p598
Vvmlinuz
p599
sVbreaks
p600
(lp601
Vxserver-xorg-input-vmmouse (<< 1:13.0.99)
p602
ass(Vrelations
p603
g569
tp604
(dp605
Vheaders%gcc-11
p606
Vlinux-compiler-gcc-11-x86
p607
ss(Vdescription
p608
g569
NV686
p609
tp610
(dp611
Vhardware
p612
Volder PCs
p613
sVhardware-long
p614
VPCs with one or more processors not supporting PAE
p615
ss(Vdescription
p616
g569
NV686-pae
p617
tp618
(dp619
Vhardware
p620
Vmodern PCs
p621
sVhardware-long
p622
VPCs with one or more processors supporting PAE
p623
sVparts
p624
(lp625
Vpae
p626
ass(Vbase
p627
g569
Vnone
p628
tp629
(dp630
Vflavours
p631
(lp632
V686
p633
aV686-pae
p634
asVdefault-flavour
p635
V686-pae
p636
ss(Vbase
p637
g569
Vrt
p638
tp639
(dp640
Vflavours
p641
(lp642
V686-pae
p643
ass(Vbase
p644
Via64
p645
tp646
(dp647
Vdefault-flavour
p648
Vitanium
p649
sVkernel-arch
p650
Via64
p651
sg190
(lp652
g192
ass(Vbuild
p653
g645
tp654
(dp655
Vimage-file
p656
Vvmlinux.gz
p657
ss(Vimage
p658
g645
tp659
(dp660
Vbootloaders
p661
(lp662
Vgrub-efi-ia64
p663
asVinstall-stem
p664
Vvmlinuz
p665
ss(Vdescription
p666
g645
NVitanium
p667
tp668
(dp669
Vhardware
p670
VItanium (Merced)
p671
sVhardware-long
p672
Vsystems with original Itanium (Merced) processors
p673
ss(Vdescription
p674
g645
NVmckinley
p675
tp676
(dp677
Vhardware
p678
VItanium 2+
p679
sVhardware-long
p680
Vsystems with Itanium 2 or 9300/9500/9700-series processors
p681
ss(g223
g645
g192
tp682
(dp683
g226
(lp684
Vitanium
p685
aVmckinley
p686
asg230
I01
ss(Vbase
p687
Vm68k
p688
tp689
(dp690
Vcflags
p691
V-ffreestanding
p692
sVdefault-flavour
p693
Vm68k
p694
sVkernel-arch
p695
Vm68k
p696
sg190
(lp697
g192
ass(Vbuild
p698
g688
tp699
(dp700
Vimage-file
p701
Vvmlinux
p702
ss(Vimage
p703
g688
tp704
(dp705
Vsuggests
p706
(lp707
Vvmelilo
p708
aVfdutils
p709
asVinstall-stem
p710
Vvmlinux
p711
ss(Vdescription
p712
g688
NVm68k
p713
tp714
(dp715
Vhardware
p716
VMotorola MC68020+ family
p717
ss(g223
g688
g192
tp718
(dp719
g226
(lp720
Vm68k
p721
asg230
I01
ss(Vbase
p722
Vmips
p723
tp724
(dp725
Vkernel-arch
p726
Vmips
p727
sg190
(lp728
g192
ass(Vbuild
p729
g723
tp730
(dp731
Vimage-file
p732
Vvmlinuz
p733
ss(Vimage
p734
g723
tp735
(dp736
Vinstall-stem
p737
Vvmlinuz
p738
ss(Vdescription
p739
g723
NV4kc-malta
p740
tp741
(dp742
Vhardware
p743
VMIPS Malta
p744
sVhardware-long
p745
VMIPS Malta boards
p746
ss(Vimage
p747
g723
NV4kc-malta
p748
tp749
(dp750
Vconfigs
p751
(lp752
Vkernelarch-mips/config.malta
p753
aVkernelarch-mips/config.mips32r2
p754
ass(Vdescription
p755
g723
NV5kc-malta
p756
tp757
(dp758
Vhardware
p759
VMIPS Malta (64-bit)
p760
sVhardware-long
p761
VMIPS Malta boards (64-bit)
p762
ss(Vimage
p763
g723
NV5kc-malta
p764
tp765
(dp766
Vconfigs
p767
(lp768
Vkernelarch-mips/config.malta
p769
aVkernelarch-mips/config.mips64r2
p770
ass(Vdescription
p771
g723
NVocteon
p772
tp773
(dp774
Vhardware
p775
VOcteon
p776
sVhardware-long
p777
VCavium Networks Octeon
p778
ss(Vbuild
p779
g723
NVocteon
p780
tp781
(dp782
Vimage-file
p783
Vvmlinux
p784
ss(Vimage
p785
g723
NVocteon
p786
tp787
(dp788
Vinstall-stem
p789
Vvmlinux
p790
sVconfigs
p791
(lp792
Vkernelarch-mips/config.octeon
p793
ass(g223
g723
g192
tp794
(dp795
g226
(lp796
V4kc-malta
p797
aV5kc-malta
p798
aVocteon
p799
asg230
I01
ss(Vbase
p800
Vmips64
p801
tp802
(dp803
Vkernel-arch
p804
Vmips
p805
sg190
(lp806
g192
ass(Vbuild
p807
g801
tp808
(dp809
Vimage-file
p810
Vvmlinuz
p811
ss(Vimage
p812
g801
tp813
(dp814
Vinstall-stem
p815
Vvmlinuz
p816
ss(Vdescription
p817
g801
NV5kc-malta
p818
tp819
(dp820
Vhardware
p821
VMIPS Malta
p822
sVhardware-long
p823
VMIPS Malta boards
p824
ss(Vimage
p825
g801
NV5kc-malta
p826
tp827
(dp828
Vconfigs
p829
(lp830
Vkernelarch-mips/config.malta
p831
aVkernelarch-mips/config.mips64r2
p832
ass(Vdescription
p833
g801
NVocteon
p834
tp835
(dp836
Vhardware
p837
VOcteon
p838
sVhardware-long
p839
VCavium Networks Octeon
p840
ss(Vbuild
p841
g801
NVocteon
p842
tp843
(dp844
Vimage-file
p845
Vvmlinux
p846
ss(Vimage
p847
g801
NVocteon
p848
tp849
(dp850
Vinstall-stem
p851
Vvmlinux
p852
sVconfigs
p853
(lp854
Vkernelarch-mips/config.octeon
p855
ass(g223
g801
g192
tp856
(dp857
g226
(lp858
V5kc-malta
p859
aVocteon
p860
asg230
I01
ss(Vbase
p861
Vmips64el
p862
tp863
(dp864
Vkernel-arch
p865
Vmips
p866
sg190
(lp867
g192
ass(Vbuild
p868
g862
tp869
(dp870
Vimage-file
p871
Vvmlinuz
p872
ss(Vimage
p873
g862
tp874
(dp875
Vinstall-stem
p876
Vvmlinuz
p877
ss(Vdescription
p878
g862
NV5kc-malta
p879
tp880
(dp881
Vhardware
p882
VMIPS Malta
p883
sVhardware-long
p884
VMIPS Malta boards
p885
ss(Vimage
p886
g862
NV5kc-malta
p887
tp888
(dp889
Vconfigs
p890
(lp891
Vkernelarch-mips/config.malta
p892
aVkernelarch-mips/config.mips64r2
p893
ass(Vdescription
p894
g862
NVloongson-3
p895
tp896
(dp897
Vhardware
p898
VLoongson 3A/3B
p899
sVhardware-long
p900
VLoongson 3A or 3B based systems (e.g. from Loongson or Lemote)
p901
ss(Vimage
p902
g862
NVloongson-3
p903
tp904
(dp905
Vrecommends
p906
(lp907
Vpmon-update
p908
asVconfigs
p909
(lp910
Vkernelarch-mips/config.loongson-3
p911
ass(Vdescription
p912
g862
NVocteon
p913
tp914
(dp915
Vhardware
p916
VOcteon
p917
sVhardware-long
p918
VCavium Networks Octeon
p919
ss(Vbuild
p920
g862
NVocteon
p921
tp922
(dp923
Vimage-file
p924
Vvmlinux
p925
ss(Vimage
p926
g862
NVocteon
p927
tp928
(dp929
Vinstall-stem
p930
Vvmlinux
p931
sVconfigs
p932
(lp933
Vkernelarch-mips/config.octeon
p934
ass(g223
g862
g192
tp935
(dp936
g226
(lp937
V5kc-malta
p938
aVloongson-3
p939
aVocteon
p940
asg230
I01
ss(Vbase
p941
Vmips64r6
p942
tp943
(dp944
Vdefault-flavour
p945
Vmips64r6
p946
sVkernel-arch
p947
Vmips
p948
sg190
(lp949
g192
ass(Vbuild
p950
g942
tp951
(dp952
Vimage-file
p953
Vvmlinux
p954
ss(Vimage
p955
g942
tp956
(dp957
Vinstall-stem
p958
Vvmlinux
p959
ss(Vdescription
p960
g942
NVmips64r6
p961
tp962
(dp963
Vhardware
p964
VMIPS R6 (64 bit, big endian)
p965
sVhardware-long
p966
VMIPS R6 (64 bit, big endian)
p967
ss(Vimage
p968
g942
NVmips64r6
p969
tp970
(dp971
Vconfigs
p972
(lp973
Vkernelarch-mips/config.boston
p974
aVkernelarch-mips/config.mips64r6
p975
ass(g223
g942
g192
tp976
(dp977
g226
(lp978
Vmips64r6
p979
asg230
I01
ss(Vbase
p980
Vmips64r6el
p981
tp982
(dp983
Vdefault-flavour
p984
Vmips64r6el
p985
sVkernel-arch
p986
Vmips
p987
sg190
(lp988
g192
ass(Vbuild
p989
g981
tp990
(dp991
Vimage-file
p992
Vvmlinux
p993
ss(Vimage
p994
g981
tp995
(dp996
Vinstall-stem
p997
Vvmlinux
p998
ss(Vdescription
p999
g981
NVmips64r6el
p1000
tp1001
(dp1002
Vhardware
p1003
VMIPS R6 (64 bit, little endian)
p1004
sVhardware-long
p1005
VMIPS R6 (64 bit, little endian)
p1006
ss(Vimage
p1007
g981
NVmips64r6el
p1008
tp1009
(dp1010
Vconfigs
p1011
(lp1012
Vkernelarch-mips/config.boston
p1013
aVkernelarch-mips/config.mips64r6
p1014
ass(g223
g981
g192
tp1015
(dp1016
g226
(lp1017
Vmips64r6el
p1018
asg230
I01
ss(Vbase
p1019
Vmipsel
p1020
tp1021
(dp1022
Vkernel-arch
p1023
Vmips
p1024
sg190
(lp1025
g192
ass(Vbuild
p1026
g1020
tp1027
(dp1028
Vimage-file
p1029
Vvmlinuz
p1030
ss(Vimage
p1031
g1020
tp1032
(dp1033
Vinstall-stem
p1034
Vvmlinuz
p1035
ss(Vdescription
p1036
g1020
NV4kc-malta
p1037
tp1038
(dp1039
Vhardware
p1040
VMIPS Malta
p1041
sVhardware-long
p1042
VMIPS Malta boards
p1043
ss(Vimage
p1044
g1020
NV4kc-malta
p1045
tp1046
(dp1047
Vconfigs
p1048
(lp1049
Vkernelarch-mips/config.malta
p1050
aVkernelarch-mips/config.mips32r2
p1051
ass(Vdescription
p1052
g1020
NV5kc-malta
p1053
tp1054
(dp1055
Vhardware
p1056
VMIPS Malta (64-bit)
p1057
sVhardware-long
p1058
VMIPS Malta boards (64-bit)
p1059
ss(Vimage
p1060
g1020
NV5kc-malta
p1061
tp1062
(dp1063
Vconfigs
p1064
(lp1065
Vkernelarch-mips/config.malta
p1066
aVkernelarch-mips/config.mips64r2
p1067
ass(Vdescription
p1068
g1020
NVloongson-3
p1069
tp1070
(dp1071
Vhardware
p1072
VLoongson 3A/3B
p1073
sVhardware-long
p1074
VLoongson 3A or 3B based systems (e.g. from Loongson or Lemote)
p1075
ss(Vimage
p1076
g1020
NVloongson-3
p1077
tp1078
(dp1079
Vrecommends
p1080
(lp1081
Vpmon-update
p1082
asVconfigs
p1083
(lp1084
Vkernelarch-mips/config.loongson-3
p1085
ass(Vdescription
p1086
g1020
NVocteon
p1087
tp1088
(dp1089
Vhardware
p1090
VOcteon
p1091
sVhardware-long
p1092
VCavium Networks Octeon
p1093
ss(Vbuild
p1094
g1020
NVocteon
p1095
tp1096
(dp1097
Vimage-file
p1098
Vvmlinux
p1099
ss(Vimage
p1100
g1020
NVocteon
p1101
tp1102
(dp1103
Vinstall-stem
p1104
Vvmlinux
p1105
sVconfigs
p1106
(lp1107
Vkernelarch-mips/config.octeon
p1108
ass(g223
g1020
g192
tp1109
(dp1110
g226
(lp1111
V4kc-malta
p1112
aV5kc-malta
p1113
aVloongson-3
p1114
aVocteon
p1115
asg230
I01
ss(Vbase
p1116
Vmipsn32
p1117
tp1118
(dp1119
Vkernel-arch
p1120
Vmips
p1121
sVfeaturesets
p1122
(lp1123
ss(Vbase
p1124
Vmipsn32el
p1125
tp1126
(dp1127
Vkernel-arch
p1128
Vmips
p1129
sVfeaturesets
p1130
(lp1131
ss(Vbase
p1132
Vmipsn32r6
p1133
tp1134
(dp1135
Vkernel-arch
p1136
Vmips
p1137
sVfeaturesets
p1138
(lp1139
ss(Vbase
p1140
Vmipsn32r6el
p1141
tp1142
(dp1143
Vkernel-arch
p1144
Vmips
p1145
sVfeaturesets
p1146
(lp1147
ss(Vbase
p1148
Vmipsr6
p1149
tp1150
(dp1151
Vdefault-flavour
p1152
Vmips32r6
p1153
sVkernel-arch
p1154
Vmips
p1155
sg190
(lp1156
g192
ass(Vbuild
p1157
g1149
tp1158
(dp1159
Vimage-file
p1160
Vvmlinux
p1161
ss(Vimage
p1162
g1149
tp1163
(dp1164
Vinstall-stem
p1165
Vvmlinux
p1166
ss(Vdescription
p1167
g1149
NVmips32r6
p1168
tp1169
(dp1170
Vhardware
p1171
VMIPS R6 (32 bit, big endian)
p1172
sVhardware-long
p1173
VMIPS R6 (32 bit, big endian)
p1174
ss(Vimage
p1175
g1149
NVmips32r6
p1176
tp1177
(dp1178
Vconfigs
p1179
(lp1180
Vkernelarch-mips/config.boston
p1181
aVkernelarch-mips/config.mips32r6
p1182
ass(Vdescription
p1183
g1149
NVmips64r6
p1184
tp1185
(dp1186
Vhardware
p1187
VMIPS R6 (64 bit, big endian)
p1188
sVhardware-long
p1189
VMIPS R6 (64 bit, big endian)
p1190
ss(Vimage
p1191
g1149
NVmips64r6
p1192
tp1193
(dp1194
Vconfigs
p1195
(lp1196
Vkernelarch-mips/config.boston
p1197
aVkernelarch-mips/config.mips64r6
p1198
ass(g223
g1149
g192
tp1199
(dp1200
g226
(lp1201
Vmips32r6
p1202
aVmips64r6
p1203
asg230
I01
ss(Vbase
p1204
Vmipsr6el
p1205
tp1206
(dp1207
Vdefault-flavour
p1208
Vmips32r6el
p1209
sVkernel-arch
p1210
Vmips
p1211
sg190
(lp1212
g192
ass(Vbuild
p1213
g1205
tp1214
(dp1215
Vimage-file
p1216
Vvmlinux
p1217
ss(Vimage
p1218
g1205
tp1219
(dp1220
Vinstall-stem
p1221
Vvmlinux
p1222
ss(Vdescription
p1223
g1205
NVmips32r6el
p1224
tp1225
(dp1226
Vhardware
p1227
VMIPS R6 (32 bit, little endian)
p1228
sVhardware-long
p1229
VMIPS R6 (32 bit, little endian)
p1230
ss(Vimage
p1231
g1205
NVmips32r6el
p1232
tp1233
(dp1234
Vconfigs
p1235
(lp1236
Vkernelarch-mips/config.boston
p1237
aVkernelarch-mips/config.mips32r6
p1238
ass(Vdescription
p1239
g1205
NVmips64r6el
p1240
tp1241
(dp1242
Vhardware
p1243
VMIPS R6 (64 bit, little endian)
p1244
sVhardware-long
p1245
VMIPS R6 (64 bit, little endian)
p1246
ss(Vimage
p1247
g1205
NVmips64r6el
p1248
tp1249
(dp1250
Vconfigs
p1251
(lp1252
Vkernelarch-mips/config.boston
p1253
aVkernelarch-mips/config.mips64r6
p1254
ass(g223
g1205
g192
tp1255
(dp1256
g226
(lp1257
Vmips32r6el
p1258
aVmips64r6el
p1259
asg230
I01
ss(Vbase
p1260
Vpowerpc
p1261
tp1262
(dp1263
Vkernel-arch
p1264
Vpowerpc
p1265
sg190
(lp1266
g192
ass(Vbuild
p1267
g1261
tp1268
(dp1269
Vimage-file
p1270
Vvmlinux
p1271
ss(Vimage
p1272
g1261
tp1273
(dp1274
Vconfigs
p1275
(lp1276
sVbootloaders
p1277
(lp1278
Vgrub-ieee1275
p1279
asVsuggests
p1280
(lp1281
Vmkvmlinuz
p1282
asVinstall-stem
p1283
Vvmlinux
p1284
ss(Vdescription
p1285
g1261
NVpowerpc
p1286
tp1287
(dp1288
Vhardware
p1289
Vuniprocessor 32-bit PowerPC
p1290
ss(Vdescription
p1291
g1261
NVpowerpc-smp
p1292
tp1293
(dp1294
Vhardware
p1295
Vmultiprocessor 32-bit PowerPC
p1296
ss(Vimage
p1297
g1261
NVpowerpc-smp
p1298
tp1299
(dp1300
Vconfigs
p1301
(lp1302
Vpowerpc/config.powerpc
p1303
aVpowerpc/config.powerpc-smp
p1304
ass(Vdescription
p1305
g1261
NVpowerpc64
p1306
tp1307
(dp1308
Vhardware
p1309
V64-bit PowerPC
p1310
ss(Vimage
p1311
g1261
NVpowerpc64
p1312
tp1313
(dp1314
Vconfigs
p1315
(lp1316
Vkernelarch-powerpc/config-arch-64
p1317
aVkernelarch-powerpc/config-arch-64-be
p1318
ass(g223
g1261
g192
tp1319
(dp1320
g226
(lp1321
Vpowerpc
p1322
aVpowerpc-smp
p1323
aVpowerpc64
p1324
asg230
I01
ss(Vbase
p1325
Vppc64
p1326
tp1327
(dp1328
Vdefault-flavour
p1329
Vpowerpc64
p1330
sVkernel-arch
p1331
Vpowerpc
p1332
sg190
(lp1333
g192
ass(Vbuild
p1334
g1326
tp1335
(dp1336
Vimage-file
p1337
Vvmlinux
p1338
ss(Vimage
p1339
g1326
tp1340
(dp1341
Vconfigs
p1342
(lp1343
sVbootloaders
p1344
(lp1345
Vgrub-ieee1275
p1346
asVsuggests
p1347
(lp1348
Vmkvmlinuz
p1349
asVinstall-stem
p1350
Vvmlinux
p1351
ss(Vdescription
p1352
g1326
NVpowerpc64
p1353
tp1354
(dp1355
Vhardware
p1356
V64-bit PowerPC
p1357
ss(Vimage
p1358
g1326
NVpowerpc64
p1359
tp1360
(dp1361
Vconfigs
p1362
(lp1363
Vkernelarch-powerpc/config-arch-64
p1364
aVkernelarch-powerpc/config-arch-64-be
p1365
ass(g223
g1326
g192
tp1366
(dp1367
g226
(lp1368
Vpowerpc64
p1369
asg230
I01
ss(Vbase
p1370
Vppc64el
p1371
tp1372
(dp1373
Vdefault-flavour
p1374
Vpowerpc64le
p1375
sVkernel-arch
p1376
Vpowerpc
p1377
sg190
(lp1378
g192
ass(Vbuild
p1379
g1371
tp1380
(dp1381
Vimage-file
p1382
Vvmlinux
p1383
ss(Vimage
p1384
g1371
tp1385
(dp1386
Vconfigs
p1387
(lp1388
sVbootloaders
p1389
(lp1390
Vgrub-ieee1275
p1391
asVsuggests
p1392
(lp1393
Vmkvmlinuz
p1394
asVinstall-stem
p1395
Vvmlinux
p1396
ss(Vdescription
p1397
g1371
NVpowerpc64le
p1398
tp1399
(dp1400
Vhardware
p1401
VLittle-endian 64-bit PowerPC
p1402
ss(Vimage
p1403
g1371
NVpowerpc64le
p1404
tp1405
(dp1406
Vconfigs
p1407
(lp1408
Vkernelarch-powerpc/config-arch-64
p1409
aVkernelarch-powerpc/config-arch-64-le
p1410
ass(g223
g1371
g192
tp1411
(dp1412
g226
(lp1413
Vpowerpc64le
p1414
asg230
I01
ss(Vbase
p1415
Vriscv64
p1416
tp1417
(dp1418
Vkernel-arch
p1419
Vriscv
p1420
sVfeaturesets
p1421
(lp1422
Vnone
p1423
ass(Vbuild
p1424
g1416
tp1425
(dp1426
Vimage-file
p1427
Varch/riscv/boot/Image
p1428
sVvdso
p1429
I01
ss(Vimage
p1430
g1416
tp1431
(dp1432
Vinstall-stem
p1433
Vvmlinux
p1434
ss(Vdescription
p1435
g1416
NVriscv64
p1436
tp1437
(dp1438
Vhardware
p1439
V64-bit RISC-V platforms
p1440
sVhardware-long
p1441
V64-bit RISC-V platforms
p1442
ss(Vbase
p1443
g1416
Vnone
p1444
tp1445
(dp1446
Vflavours
p1447
(lp1448
Vriscv64
p1449
asVdefault-flavour
p1450
Vriscv64
p1451
ss(Vbase
p1452
Vs390
p1453
tp1454
(dp1455
Vkernel-arch
p1456
Vs390
p1457
sVfeaturesets
p1458
(lp1459
ss(Vbase
p1460
Vs390x
p1461
tp1462
(dp1463
Vdefault-flavour
p1464
Vs390x
p1465
sVkernel-arch
p1466
Vs390
p1467
sg190
(lp1468
g192
ass(Vbuild
p1469
g1461
tp1470
(dp1471
Vimage-file
p1472
Varch/s390/boot/bzImage
p1473
sVvdso
p1474
I01
ss(Vimage
p1475
g1461
tp1476
(dp1477
Vbootloaders
p1478
(lp1479
Vs390-tools
p1480
asVinstall-stem
p1481
Vvmlinuz
p1482
ss(Vrelations
p1483
g1461
tp1484
(dp1485
Vheaders%gcc-11
p1486
Vlinux-compiler-gcc-11-s390
p1487
ss(Vdescription
p1488
g1461
NVs390x
p1489
tp1490
(dp1491
Vhardware
p1492
VIBM zSeries
p1493
ss(g223
g1461
g192
tp1494
(dp1495
g226
(lp1496
Vs390x
p1497
asg230
I01
ss(Vbase
p1498
Vsh3
p1499
tp1500
(dp1501
Vkernel-arch
p1502
Vsh
p1503
sVfeaturesets
p1504
(lp1505
ss(Vbase
p1506
Vsh4
p1507
tp1508
(dp1509
Vkernel-arch
p1510
Vsh
p1511
sg190
(lp1512
g192
ass(Vbuild
p1513
g1507
tp1514
(dp1515
Vimage-file
p1516
Varch/sh/boot/zImage
p1517
ss(Vimage
p1518
g1507
tp1519
(dp1520
Vinstall-stem
p1521
Vvmlinuz
p1522
ss(Vdescription
p1523
g1507
NVsh7751r
p1524
tp1525
(dp1526
Vhardware
p1527
Vsh7751r
p1528
sVhardware-long
p1529
VRenesas SH7751R R2D plus board
p1530
ss(Vdescription
p1531
g1507
NVsh7785lcr
p1532
tp1533
(dp1534
Vhardware
p1535
Vsh7785lcr
p1536
sVhardware-long
p1537
VRenesas SH7785 reference board
p1538
ss(Vimage
p1539
g1507
NVsh7785lcr
p1540
tp1541
(dp1542
Vrecommends
p1543
(lp1544
Vu-boot-tools
p1545
asVcheck-size
p1546
I4194304
ss(g223
g1507
g192
tp1547
(dp1548
g226
(lp1549
Vsh7751r
p1550
aVsh7785lcr
p1551
asg230
I01
ss(Vbase
p1552
Vsparc
p1553
tp1554
(dp1555
Vkernel-arch
p1556
Vsparc
p1557
sVfeaturesets
p1558
(lp1559
ss(Vbase
p1560
Vsparc64
p1561
tp1562
(dp1563
Vdefault-flavour
p1564
Vsparc64-smp
p1565
sVkernel-arch
p1566
Vsparc
p1567
sg190
(lp1568
g192
ass(Vbuild
p1569
g1561
tp1570
(dp1571
Vimage-file
p1572
Vvmlinux
p1573
ss(Vimage
p1574
g1561
tp1575
(dp1576
Vconfigs
p1577
(lp1578
sVbootloaders
p1579
(lp1580
Vgrub-ieee1275
p1581
asVsuggests
p1582
(lp1583
Vfdutils
p1584
asVinstall-stem
p1585
Vvmlinux
p1586
ss(Vdescription
p1587
g1561
NVsparc64
p1588
tp1589
(dp1590
Vhardware
p1591
Vuniprocessor 64-bit UltraSPARC
p1592
ss(Vimage
p1593
g1561
NVsparc64
p1594
tp1595
(dp1596
Vconfigs
p1597
(lp1598
Vkernelarch-sparc/config-up
p1599
ass(Vdescription
p1600
g1561
NVsparc64-smp
p1601
tp1602
(dp1603
Vhardware
p1604
Vmultiprocessor 64-bit UltraSPARC
p1605
ss(Vimage
p1606
g1561
NVsparc64-smp
p1607
tp1608
(dp1609
Vconfigs
p1610
(lp1611
Vkernelarch-sparc/config-smp
p1612
ass(g223
g1561
g192
tp1613
(dp1614
g226
(lp1615
Vsparc64
p1616
aVsparc64-smp
p1617
asg230
I01
ss(Vbase
p1618
Vx32
p1619
tp1620
(dp1621
Vkernel-arch
p1622
Vx86
p1623
sVfeaturesets
p1624
(lp1625
ss(Vabi
p1626
NVrt
p1627
tp1628
(dp1629
Vignore-changes
p1630
(lp1631
V*
p1632
ass(Vdescription
p1633
Ng1627
tp1634
(dp1635
Vpart-long-rt
p1636
VThis kernel includes the PREEMPT_RT realtime patch set.
p1637
sVpart-short-rt
p1638
VPREEMPT_RT
p1639
sVparts
p1640
(lp1641
Vrt
p1642
ass(Vversion
p1643
tp1644
(dp1645
Vsource
p1646
V5.15.5-2kali2
p1647
sVupstream
p1648
V5.15
p1649
sVabiname_base
p1650
V5.15.0
p1651
sVabiname
p1652
V5.15.0-kali2
p1653
ss.