ccopy_reg
_reconstructor
p0
(cdebian_linux.config
ConfigCore
p1
c__builtin__
dict
p2
(dp3
(Vbase
p4
Varmel
p5
tp6
(dp7
Vkernel-arch
p8
Varm
p9
sVfeaturesets
p10
(lp11
Vnone
p12
ass(Vrelations
p13
g5
tp14
(dp15
Vheaders%gcc-5
p16
Vlinux-compiler-gcc-5-arm
p17
ss(Vimage
p18
Vsparc64
p19
NVsparc64
p20
tp21
(dp22
Vconfigs
p23
(lp24
Vkernelarch-sparc/config-up
p25
ass(Vbase
p26
Vtilegx
p27
tp28
(dp29
Vkernel-arch
p30
Vtile
p31
sVfeaturesets
p32
(lp33
ss(Vdescription
p34
Vppc64el
p35
NVpowerpc64le
p36
tp37
(dp38
Vhardware
p39
VLittle-endian 64-bit PowerPC
p40
ss(Vimage
p41
Vmips64
p42
NV5kc-malta
p43
tp44
(dp45
Vconfigs
p46
(lp47
Vkernelarch-mips/config.malta
p48
aVkernelarch-mips/config.mips64r2
p49
ass(Vbase
p50
Vx32
p51
tp52
(dp53
Vkernel-arch
p54
Vx86
p55
sVfeaturesets
p56
(lp57
ss(Vbase
p58
g19
g12
tp59
(dp60
Vflavours
p61
(lp62
Vsparc64
p63
aVsparc64-smp
p64
asVimplicit-flavour
p65
I01
ss(Vimage
p66
Vmips64el
p67
NV5kc-malta
p68
tp69
(dp70
Vconfigs
p71
(lp72
Vkernelarch-mips/config.malta
p73
aVkernelarch-mips/config.mips64r2
p74
ass(Vbuild
p75
Vamd64
p76
tp77
(dp78
Vdebug-info
p79
I01
sVsigned-modules
p80
I00
sVvdso
p81
I01
sVimage-file
p82
Varch/x86/boot/bzImage
p83
ss(Vimage
p84
Vmipsel
p85
tp86
(dp87
Vinstall-stem
p88
Vvmlinux
p89
ss(Vdescription
p90
Vhppa
p91
NVparisc64-smp
p92
tp93
(dp94
Vhardware
p95
Vmultiprocessor 64-bit PA-RISC
p96
sVhardware-long
p97
VHP PA-RISC 64-bit SMP systems with support for more than 4 GB RAM
p98
ss(Vimage
p99
Vpowerpc
p100
NVpowerpc-smp
p101
tp102
(dp103
Vconfigs
p104
(lp105
Vpowerpc/config.powerpc
p106
aVpowerpc/config.powerpc-smp
p107
ass(Vdescription
p108
g76
NVamd64
p109
tp110
(dp111
Vhardware
p112
V64-bit PCs
p113
sVhardware-long
p114
VPCs with AMD64, Intel 64 or VIA Nano processors
p115
ss(Vimage
p116
g35
tp117
(dp118
Vconfigs
p119
(lp120
sVsuggests
p121
Vmkvmlinuz
p122
sVinstall-stem
p123
Vvmlinux
p124
ss(Vbuild
p125
Varmhf
p126
tp127
(dp128
Vsigned-modules
p129
I00
sVvdso
p130
I01
sVimage-file
p131
Varch/arm/boot/zImage
p132
ss(Vdescription
p133
g76
Vnone
p134
Vamd64
p135
tp136
(dp137
Vparts
p138
(lp139
Vxen
p140
ass(Vimage
p141
Vmips
p142
NV5kc-malta
p143
tp144
(dp145
Vconfigs
p146
(lp147
Vkernelarch-mips/config.malta
p148
aVkernelarch-mips/config.mips64r2
p149
ass(Vimage
p150
g35
NVpowerpc64le
p151
tp152
(dp153
Vconfigs
p154
(lp155
Vkernelarch-powerpc/config-arch-64
p156
aVkernelarch-powerpc/config-arch-64-le
p157
ass(Vbase
p158
g126
tp159
(dp160
Vkernel-arch
p161
Varm
p162
sg10
(lp163
g12
ass(Vbase
p164
Vmipsn32
p165
tp166
(dp167
Vkernel-arch
p168
Vmips
p169
sVfeaturesets
p170
(lp171
ss(Vbuild
p172
g67
tp173
(dp174
Vsigned-modules
p175
I00
sVimage-file
p176
Vvmlinux
p177
ss(g58
Vpowerpcspe
p178
g12
tp179
(dp180
g61
(lp181
Vpowerpcspe
p182
asg65
I01
ss(Vdescription
p183
g67
NV5kc-malta
p184
tp185
(dp186
Vhardware
p187
VMIPS Malta
p188
sVhardware-long
p189
VMIPS Malta boards
p190
ss(Vimage
p191
Varm64
p192
NVarm64
p193
tp194
(dp195
s(Vdescription
p196
g126
NVarmmp
p197
tp198
(dp199
Vhardware
p200
VARMv7 multiplatform compatible SoCs
p201
sVhardware-long
p202
VARMv7 multiplatform kernel. See\u000ahttps://wiki.debian.org/DebianKernel/ARMMP for details of supported\u000aplatforms
p203
ss(Vbase
p204
g35
tp205
(dp206
Vkernel-arch
p207
Vpowerpc
p208
sg10
(lp209
g12
ass(Vdescription
p210
g85
NVloongson-3
p211
tp212
(dp213
Vhardware
p214
VLoongson 3A/3B
p215
sVhardware-long
p216
VLoongson 3A or 3B based systems (e.g. from Loongson or Lemote)
p217
ss(Vimage
p218
g67
tp219
(dp220
Vinstall-stem
p221
Vvmlinux
p222
ss(Vdescription
p223
Valpha
p224
NValpha-smp
p225
tp226
(dp227
Vhardware
p228
VAlpha SMP
p229
sVhardware-long
p230
VDEC Alpha SMP systems with extended kernel start address (Wildfire, Titan, Marvel)
p231
ss(Vbase
p232
NVrt
p233
tp234
(dp235
Venabled
p236
I00
ss(Vdescription
p237
NVrt
p238
tp239
(dp240
Vpart-short-rt
p241
VPREEMPT_RT
p242
sVpart-long-rt
p243
VThis kernel includes the PREEMPT_RT realtime patch set.
p244
sVparts
p245
(lp246
Vrt
p247
ass(Vdescription
p248
g142
NVocteon
p249
tp250
(dp251
Vhardware
p252
VOcteon
p253
sVhardware-long
p254
VCavium Networks Octeon
p255
ss(Vbuild
p256
g35
tp257
(dp258
Vvdso
p259
I01
sVimage-file
p260
Vvmlinux
p261
ss(Vxen
p262
g76
g134
Vamd64
p263
tp264
(dp265
Vflavours
p266
(lp267
Vamd64
p268
ass(Vbase
p269
g224
tp270
(dp271
Vkernel-arch
p272
Valpha
p273
sg10
(lp274
g12
ass(Vbase
p275
Vsh4
p276
tp277
(dp278
Vkernel-arch
p279
Vsh
p280
sg10
(lp281
g12
ass(Vimage
p282
g142
NVocteon
p283
tp284
(dp285
Vconfigs
p286
(lp287
Vkernelarch-mips/config.octeon
p288
ass(Vbase
p289
g178
tp290
(dp291
Vkernel-arch
p292
Vpowerpc
p293
sg10
(lp294
g12
ass(Vbuild
p295
Vs390x
p296
NVs390x
p297
tp298
(dp299
Vdebug-info
p300
I01
ss(Vbuild
p301
g178
tp302
(dp303
Vsigned-modules
p304
I00
sVvdso
p305
I01
sVimage-file
p306
Vvmlinux
p307
ss(Vbase
p308
Vm68k
p309
tp310
(dp311
Vcflags
p312
V-ffreestanding
p313
sVkernel-arch
p314
Vm68k
p315
sg10
(lp316
g12
ass(Vimage
p317
g178
tp318
(dp319
Vsuggests
p320
Vmkvmlinuz
p321
sVinstall-stem
p322
Vvmlinux
p323
ss(Vdescription
p324
g142
NV4kc-malta
p325
tp326
(dp327
Vhardware
p328
VMIPS Malta
p329
sVhardware-long
p330
VMIPS Malta boards
p331
ss(Vbuild
p332
g224
tp333
(dp334
Vsigned-modules
p335
I00
sVimage-file
p336
Varch/alpha/boot/vmlinux.gz
p337
ss(Vbuild
p338
g100
tp339
(dp340
Vvdso
p341
I01
sVimage-file
p342
Vvmlinux
p343
ss(Vdescription
p344
g85
NVocteon
p345
tp346
(dp347
Vhardware
p348
VOcteon
p349
sVhardware-long
p350
VCavium Networks Octeon
p351
ss(Vbuild
p352
tp353
(dp354
Vdebug-info
p355
I01
sVsigned-modules
p356
I01
ss(Vdescription
p357
g126
NVarmmp-lpae
p358
tp359
(dp360
Vhardware
p361
VARMv7 multiplatform compatible SoCs supporting LPAE
p362
sVhardware-long
p363
VARMv7 multiplatform kernel supporting LPAE. See\u000ahttps://wiki.debian.org/DebianKernel/ARMMP for details of supported\u000aplatforms.
p364
ss(Vbuild
p365
g142
tp366
(dp367
Vsigned-modules
p368
I00
sVimage-file
p369
Vvmlinux
p370
ss(g58
g309
g12
tp371
(dp372
g61
(lp373
Vm68k
p374
asg65
I01
ss(Vbase
p375
Vor1k
p376
tp377
(dp378
Vkernel-arch
p379
Vopenrisc
p380
sVfeaturesets
p381
(lp382
ss(Vbase
p383
g76
tp384
(dp385
Vkernel-arch
p386
Vx86
p387
sVfeaturesets
p388
(lp389
Vnone
p390
aVrt
p391
ass(g58
g91
g12
tp392
(dp393
g61
(lp394
Vparisc
p395
aVparisc64-smp
p396
asg65
I01
ss(Vimage
p397
g309
tp398
(dp399
Vsuggests
p400
Vvmelilo, fdutils
p401
sVinstall-stem
p402
Vvmlinuz
p403
ss(Vbase
p404
Vsparc
p405
tp406
(dp407
Vkernel-arch
p408
Vsparc
p409
sVfeaturesets
p410
(lp411
ss(Vbase
p412
Vs390
p413
tp414
(dp415
Vkernel-arch
p416
Vs390
p417
sVfeaturesets
p418
(lp419
ss(g58
g276
g12
tp420
(dp421
g61
(lp422
Vsh7751r
p423
aVsh7785lcr
p424
asg65
I01
ss(Vdescription
p425
g142
NV5kc-malta
p426
tp427
(dp428
Vhardware
p429
VMIPS Malta (64-bit)
p430
sVhardware-long
p431
VMIPS Malta boards (64-bit)
p432
ss(Vdescription
p433
g19
NVsparc64
p434
tp435
(dp436
Vhardware
p437
Vuniprocessor 64-bit UltraSPARC
p438
ss(Vbuild
p439
g5
tp440
(dp441
Vsigned-modules
p442
I00
sVimage-file
p443
Varch/arm/boot/zImage
p444
ss(Vdescription
p445
Vi386
p446
NV686-pae
p447
tp448
(dp449
Vhardware
p450
Vmodern PCs
p451
sVparts
p452
(lp453
Vpae
p454
asVhardware-long
p455
VPCs with one or more processors supporting PAE
p456
ss(Vdescription
p457
g5
NVmarvell
p458
tp459
(dp460
Vhardware
p461
VMarvell Kirkwood/Orion
p462
sVhardware-long
p463
VMarvell Kirkwood based systems (SheevaPlug, QNAP TS-119/TS-219, etc)\u000aand Orion 5181, 5182 and 5281 based systems (QNAP TS-109/TS-209, etc)
p464
ss(Vbase
p465
g192
Vnone
p466
tp467
(dp468
Vflavours
p469
(lp470
Varm64
p471
ass(Vdescription
p472
g296
NVs390x
p473
tp474
(dp475
Vhardware
p476
VIBM zSeries
p477
ss(Vimage
p478
g100
NVpowerpc64
p479
tp480
(dp481
Vconfigs
p482
(lp483
Vkernelarch-powerpc/config-arch-64
p484
aVkernelarch-powerpc/config-arch-64-be
p485
ass(g58
g142
g12
tp486
(dp487
g61
(lp488
V4kc-malta
p489
aV5kc-malta
p490
aVocteon
p491
asg65
I01
ss(Vimage
p492
g42
NVocteon
p493
tp494
(dp495
Vconfigs
p496
(lp497
Vkernelarch-mips/config.octeon
p498
ass(Vdescription
p499
tp500
(dp501
Vpart-long-up
p502
VThis kernel is not suitable for SMP (multi-processor,\u000amulti-core or hyper-threaded) systems.
p503
sVpart-long-xen
p504
VThis kernel also runs on a Xen hypervisor.\u000aIt supports both privileged (dom0) and unprivileged (domU) operation.
p505
ss(Vdescription
p506
g42
NVocteon
p507
tp508
(dp509
Vhardware
p510
VOcteon
p511
sVhardware-long
p512
VCavium Networks Octeon
p513
ss(Vdescription
p514
g5
NVversatile
p515
tp516
(dp517
Vhardware
p518
VVersatile
p519
sVhardware-long
p520
VVersatile systems (PB, AB, Qemu)
p521
ss(Vbase
p522
g67
tp523
(dp524
Vkernel-arch
p525
Vmips
p526
sg10
(lp527
g12
ass(Vimage
p528
g19
NVsparc64-smp
p529
tp530
(dp531
Vconfigs
p532
(lp533
Vkernelarch-sparc/config-smp
p534
ass(Vimage
p535
g19
tp536
(dp537
Vconfigs
p538
(lp539
sVsuggests
p540
Vsilo, fdutils
p541
sVinstall-stem
p542
Vvmlinuz
p543
ss(Vdescription
p544
g85
NV5kc-malta
p545
tp546
(dp547
Vhardware
p548
VMIPS Malta (64-bit)
p549
sVhardware-long
p550
VMIPS Malta boards (64-bit)
p551
ss(Vbase
p552
g91
tp553
(dp554
Vkernel-arch
p555
Vparisc
p556
sg10
(lp557
g12
ass(Vimage
p558
g276
NVsh7785lcr
p559
tp560
(dp561
Vrecommends
p562
Vu-boot-tools
p563
sVcheck-size
p564
L4194304L
ss(Vbase
p565
g142
tp566
(dp567
Vkernel-arch
p568
Vmips
p569
sg10
(lp570
g12
ass(Vdescription
p571
g67
NVloongson-3
p572
tp573
(dp574
Vhardware
p575
VLoongson 3A/3B
p576
sVhardware-long
p577
VLoongson 3A or 3B based systems (e.g. from Loongson or Lemote)
p578
ss(Vimage
p579
g142
NV4kc-malta
p580
tp581
(dp582
Vconfigs
p583
(lp584
Vkernelarch-mips/config.malta
p585
aVkernelarch-mips/config.mips32r2
p586
ass(Vimage
p587
g276
tp588
(dp589
Vinstall-stem
p590
Vvmlinuz
p591
ss(Vimage
p592
g446
tp593
(dp594
Vbootloaders
p595
(lp596
Vgrub-pc
p597
aVextlinux
p598
asVbreaks
p599
Vxserver-xorg-input-vmmouse (<< 1:13.0.99)
p600
sVinstall-stem
p601
Vvmlinuz
p602
ss(Vbase
p603
Vmipsn32el
p604
tp605
(dp606
Vkernel-arch
p607
Vmips
p608
sVfeaturesets
p609
(lp610
ss(Vdescription
p611
g446
NV686
p612
tp613
(dp614
Vhardware
p615
Volder PCs
p616
sVhardware-long
p617
VPCs with one or more processors not supporting PAE
p618
ss(Vbuild
p619
g19
tp620
(dp621
Vsigned-modules
p622
I00
sVimage-file
p623
Varch/sparc/boot/zImage
p624
ss(Vdescription
p625
g100
NVpowerpc-smp
p626
tp627
(dp628
Vhardware
p629
Vmultiprocessor 32-bit PowerPC
p630
ss(Vbuild
p631
g42
tp632
(dp633
Vsigned-modules
p634
I00
sVimage-file
p635
Vvmlinux
p636
ss(Vbuild
p637
g446
NV686-pae
p638
tp639
(dp640
Vdebug-info
p641
I01
ss(Vdescription
p642
g192
NVarm64
p643
tp644
(dp645
Vhardware
p646
V64-bit ARMv8 machines
p647
ss(Vversion
p648
tp649
(dp650
Vabiname
p651
V4.7.0-kali1
p652
sVabiname_base
p653
V4.7.0
p654
sVsource
p655
V4.7.8-1kali1
p656
sVupstream
p657
V4.7
p658
ss(Vimage
p659
g142
tp660
(dp661
Vinstall-stem
p662
Vvmlinux
p663
ss(Vdescription
p664
g446
Vnone
p665
V686-pae
p666
tp667
(dp668
Vparts
p669
(lp670
Vxen
p671
ass(Vrelations
p672
g296
tp673
(dp674
Vheaders%gcc-5
p675
Vlinux-compiler-gcc-5-s390
p676
ss(Vimage
p677
g67
NVloongson-3
p678
tp679
(dp680
Vconfigs
p681
(lp682
Vkernelarch-mips/config.loongson-3
p683
ass(Vimage
p684
g85
NV4kc-malta
p685
tp686
(dp687
Vconfigs
p688
(lp689
Vkernelarch-mips/config.malta
p690
aVkernelarch-mips/config.mips32r2
p691
ass(g58
g67
g12
tp692
(dp693
g61
(lp694
V5kc-malta
p695
aVloongson-3
p696
aVocteon
p697
asg65
I01
ss(Vbase
p698
g446
Vrt
p699
tp700
(dp701
Vflavours
p702
(lp703
V686-pae
p704
ass(Vrelations
p705
g446
tp706
(dp707
Vheaders%gcc-5
p708
Vlinux-compiler-gcc-5-x86
p709
ss(Vdescription
p710
g100
NVpowerpc64
p711
tp712
(dp713
Vhardware
p714
V64-bit PowerPC
p715
ss(Vdescription
p716
g42
NV5kc-malta
p717
tp718
(dp719
Vhardware
p720
VMIPS Malta
p721
sVhardware-long
p722
VMIPS Malta boards
p723
ss(Vimage
p724
g85
NVocteon
p725
tp726
(dp727
Vconfigs
p728
(lp729
Vkernelarch-mips/config.octeon
p730
ass(Vbuild
p731
g446
tp732
(dp733
Vsigned-modules
p734
I00
sVvdso
p735
I01
sVimage-file
p736
Varch/x86/boot/bzImage
p737
ss(g58
g126
g12
tp738
(dp739
g61
(lp740
Varmmp
p741
aVarmmp-lpae
p742
asg65
I01
ss(Vdescription
p743
g309
NVm68k
p744
tp745
(dp746
Vhardware
p747
VMotorola MC68020+ family
p748
ss(Vbase
p749
Vppc64
p750
tp751
(dp752
Vkernel-arch
p753
Vpowerpc
p754
sg10
(lp755
g12
ass(Vimage
p756
g750
tp757
(dp758
Vconfigs
p759
(lp760
sVsuggests
p761
Vmkvmlinuz
p762
sVinstall-stem
p763
Vvmlinux
p764
ss(g58
g100
g12
tp765
(dp766
g61
(lp767
Vpowerpc
p768
aVpowerpc-smp
p769
aVpowerpc64
p770
asg65
I01
ss(g58
g296
g12
tp771
(dp772
g61
(lp773
Vs390x
p774
asg65
I01
ss(Vimage
p775
g91
tp776
(dp777
Vsuggests
p778
Vpalo
p779
sVinstall-stem
p780
Vvmlinux
p781
ss(Vbase
p782
tp783
(dp784
Varches
p785
(lp786
Valpha
p787
aVamd64
p788
aVarm64
p789
aVarmel
p790
aVarmhf
p791
aVhppa
p792
aVi386
p793
aVm68k
p794
aVmips
p795
aVmipsel
p796
aVmipsn32
p797
aVmipsn32el
p798
aVmips64
p799
aVmips64el
p800
aVor1k
p801
aVpowerpc
p802
aVpowerpcspe
p803
aVppc64
p804
aVppc64el
p805
aVs390
p806
aVs390x
p807
aVsh4
p808
aVsparc
p809
aVsparc64
p810
aVtilegx
p811
aVx32
p812
asVcompiler
p813
Vgcc-5
p814
sVfeaturesets
p815
(lp816
Vnone
p817
aVrt
p818
ass(Vbuild
p819
g85
tp820
(dp821
Vsigned-modules
p822
I00
sVimage-file
p823
Vvmlinux
p824
ss(Vbuild
p825
g192
tp826
(dp827
Vdebug-info
p828
I01
sVsigned-modules
p829
I00
sVvdso
p830
I01
sVimage-file
p831
Varch/arm64/boot/Image
p832
ss(Vimage
p833
g750
NVpowerpc64
p834
tp835
(dp836
Vconfigs
p837
(lp838
Vkernelarch-powerpc/config-arch-64
p839
aVkernelarch-powerpc/config-arch-64-be
p840
ass(g58
g42
g12
tp841
(dp842
g61
(lp843
V5kc-malta
p844
aVocteon
p845
asg65
I01
ss(Vrelations
p846
tp847
(dp848
Vinitramfs-fallback
p849
Vlinux-initramfs-tool
p850
sVinitramfs-tools
p851
Vinitramfs-tools (>= 0.110~)
p852
sVgcc-5
p853
Vgcc-5 <!stage1 !cross>, gcc-5-@gnu-type-package@:native <!stage1 cross>
p854
ss(Vbase
p855
g100
tp856
(dp857
Vkernel-arch
p858
Vpowerpc
p859
sg10
(lp860
g12
ass(Vimage
p861
g85
NV5kc-malta
p862
tp863
(dp864
Vconfigs
p865
(lp866
Vkernelarch-mips/config.malta
p867
aVkernelarch-mips/config.mips64r2
p868
ass(Vrelations
p869
g91
tp870
(dp871
Vgcc-5
p872
Vgcc-5 <!stage1 !cross>, binutils-hppa64-linux-gnu <!stage1 !cross>, gcc-5-hppa64-linux-gnu <!stage1 !cross>, gcc-5-hppa-linux-gnu:native <!stage1 cross>, binutils-hppa64-linux-gnu:native <!stage1 cross>, gcc-5-hppa64-linux-gnu:native <!stage1 cross>
p873
ss(Vbase
p874
g76
Vrt
p875
tp876
(dp877
Vflavours
p878
(lp879
Vamd64
p880
ass(Vabi
p881
tp882
(dp883
Vignore-changes
p884
(lp885
Vceph_monc_do_statfs
p886
aVfsnotify_*_group
p887
aVfsnotify_*_mark
p888
aVmodule:drivers/net/can/*
p889
asVabiname
p890
Vkali1
p891
ss(Vimage
p892
g42
tp893
(dp894
Vinstall-stem
p895
Vvmlinux
p896
ss(Vdescription
p897
g178
tp898
(dp899
Vhardware
p900
V32-bit PowerPC with SPE (instead of AltiVec) with SMP support
p901
ss(Vbase
p902
g446
g665
tp903
(dp904
Vflavours
p905
(lp906
V686
p907
aV686-pae
p908
ass(Vdescription
p909
g224
NValpha-generic
p910
tp911
(dp912
Vhardware
p913
VAlpha
p914
sVhardware-long
p915
VDEC Alpha systems with extended kernel start address (Wildfire, Titan, Marvel)
p916
ss(Vbuild
p917
g296
tp918
(dp919
Vvdso
p920
I01
sVimage-file
p921
Varch/s390/boot/image
p922
ss(Vimage
p923
g76
tp924
(dp925
Vbootloaders
p926
(lp927
Vgrub-pc
p928
aVgrub-efi-amd64
p929
aVextlinux
p930
asVbreaks
p931
Vxserver-xorg-input-vmmouse (<< 1:13.0.99)
p932
sVinstall-stem
p933
Vvmlinuz
p934
ss(Vimage
p935
g5
NVmarvell
p936
tp937
(dp938
Vrecommends
p939
Vu-boot-tools
p940
sVcheck-size
p941
L2097080L
sVbreaks
p942
Vflash-kernel (<< 3.57~)
p943
sVcheck-size-with-dtb
p944
I01
ss(Vdescription
p945
g91
NVparisc
p946
tp947
(dp948
Vhardware
p949
V32-bit PA-RISC
p950
sVhardware-long
p951
VHP PA-RISC 32-bit systems with max 4 GB RAM
p952
ss(g58
g224
g12
tp953
(dp954
g61
(lp955
Valpha-generic
p956
aValpha-smp
p957
asg65
I01
ss(Vdescription
p958
g276
NVsh7751r
p959
tp960
(dp961
Vhardware
p962
Vsh7751r
p963
sVhardware-long
p964
VRenesas SH7751R R2D plus board
p965
ss(Vbase
p966
g296
tp967
(dp968
Vkernel-arch
p969
Vs390
p970
sg10
(lp971
g12
ass(g58
g5
g12
tp972
(dp973
g61
(lp974
Vmarvell
p975
aVversatile
p976
asg65
I01
ss(Vabi
p977
Ng238
tp978
(dp979
Vignore-changes
p980
(lp981
V*
p982
ass(Vbase
p983
g85
tp984
(dp985
Vkernel-arch
p986
Vmips
p987
sg10
(lp988
g12
ass(Vbuild
p989
g309
tp990
(dp991
Vsigned-modules
p992
I00
sVimage-file
p993
Vvmlinux.gz
p994
ss(Vimage
p995
tp996
(dp997
Vinitramfs-generators
p998
(lp999
Vinitramfs-tools
p1000
aVinitramfs-fallback
p1001
ass(Vimage
p1002
g224
tp1003
(dp1004
Vsuggests
p1005
Vaboot, fdutils
p1006
sVinstall-stem
p1007
Vvmlinuz
p1008
ss(Vdescription
p1009
g85
NV4kc-malta
p1010
tp1011
(dp1012
Vhardware
p1013
VMIPS Malta
p1014
sVhardware-long
p1015
VMIPS Malta boards
p1016
ss(Vimage
p1017
g5
tp1018
(dp1019
Vinstall-stem
p1020
Vvmlinuz
p1021
ss(Vbuild
p1022
g750
tp1023
(dp1024
Vsigned-modules
p1025
I00
sVvdso
p1026
I01
sVimage-file
p1027
Vvmlinux
p1028
ss(Vbase
p1029
g446
tp1030
(dp1031
Vkernel-arch
p1032
Vx86
p1033
sVfeaturesets
p1034
(lp1035
Vnone
p1036
aVrt
p1037
ass(Vbase
p1038
g192
tp1039
(dp1040
Vkernel-arch
p1041
Varm64
p1042
sVfeaturesets
p1043
(lp1044
Vnone
p1045
ass(Vbase
p1046
g76
g134
tp1047
(dp1048
Vflavours
p1049
(lp1050
Vamd64
p1051
ass(Vrelations
p1052
g126
tp1053
(dp1054
Vheaders%gcc-5
p1055
Vlinux-compiler-gcc-5-arm
p1056
ss(Vdescription
p1057
g100
NVpowerpc
p1058
tp1059
(dp1060
Vhardware
p1061
Vuniprocessor 32-bit PowerPC
p1062
ss(Vdescription
p1063
g750
NVpowerpc64
p1064
tp1065
(dp1066
Vhardware
p1067
V64-bit PowerPC
p1068
ss(Vbase
p1069
g42
tp1070
(dp1071
Vkernel-arch
p1072
Vmips
p1073
sg10
(lp1074
g12
ass(Vimage
p1075
g85
NVloongson-3
p1076
tp1077
(dp1078
Vconfigs
p1079
(lp1080
Vkernelarch-mips/config.loongson-3
p1081
ass(Vdescription
p1082
g19
NVsparc64-smp
p1083
tp1084
(dp1085
Vhardware
p1086
Vmultiprocessor 64-bit UltraSPARC
p1087
ss(Vdescription
p1088
g276
NVsh7785lcr
p1089
tp1090
(dp1091
Vhardware
p1092
Vsh7785lcr
p1093
sVhardware-long
p1094
VRenesas SH7785 reference board
p1095
ss(Vimage
p1096
g126
tp1097
(dp1098
Vinstall-stem
p1099
Vvmlinuz
p1100
ss(Vimage
p1101
g67
NVocteon
p1102
tp1103
(dp1104
Vconfigs
p1105
(lp1106
Vkernelarch-mips/config.octeon
p1107
ass(Vimage
p1108
g192
tp1109
(dp1110
Vinstall-stem
p1111
Vvmlinuz
p1112
ss(Vbuild
p1113
g276
tp1114
(dp1115
Vsigned-modules
p1116
I00
sVimage-file
p1117
Varch/sh/boot/zImage
p1118
ss(Vrelations
p1119
g76
tp1120
(dp1121
Vheaders%gcc-5
p1122
Vlinux-compiler-gcc-5-x86
p1123
ss(Vimage
p1124
g100
tp1125
(dp1126
Vconfigs
p1127
(lp1128
sVsuggests
p1129
Vmkvmlinuz
p1130
sVinstall-stem
p1131
Vvmlinux
p1132
ss(Vbuild
p1133
g91
tp1134
(dp1135
Vsigned-modules
p1136
I00
sVimage-file
p1137
Vvmlinux
p1138
ss(g58
g35
g12
tp1139
(dp1140
g61
(lp1141
Vpowerpc64le
p1142
asg65
I01
ss(Vimage
p1143
g296
tp1144
(dp1145
Vbootloaders
p1146
(lp1147
Vs390-tools
p1148
asVinstall-stem
p1149
Vvmlinuz
p1150
ss(g58
g750
g12
tp1151
(dp1152
g61
(lp1153
Vpowerpc64
p1154
asg65
I01
ss(Vbase
p1155
g19
tp1156
(dp1157
Vkernel-arch
p1158
Vsparc
p1159
sg10
(lp1160
g12
ass(Vdescription
p1161
g67
NVocteon
p1162
tp1163
(dp1164
Vhardware
p1165
VOcteon
p1166
sVhardware-long
p1167
VCavium Networks Octeon
p1168
ss(Vbase
p1169
g91
NVparisc64-smp
p1170
tp1171
(dp1172
Vcflags
p1173
V-fno-cse-follow-jumps
p1174
sVoverride-host-type
p1175
Vhppa64-linux-gnu
p1176
ss(Vdescription
p1177
g446
tp1178
(dp1179
Vpart-long-pae
p1180
VThis kernel requires PAE (Physical Address Extension).\u000aThis feature is supported by the Intel Pentium Pro/II/III/4/4M/D, Xeon,\u000aCore and Atom; AMD Geode NX, Athlon (K7), Duron, Opteron, Sempron,\u000aTurion or Phenom; Transmeta Efficeon; VIA C7; and some other processors.
p1181
ss(g58
g85
g12
tp1182
(dp1183
g61
(lp1184
V4kc-malta
p1185
aV5kc-malta
p1186
aVloongson-3
p1187
aVocteon
p1188
asg65
I01
sstp1189
Rp1190
.