ccopy_reg
_reconstructor
p0
(cdebian_linux.config
ConfigCore
p1
c__builtin__
dict
p2
(dp3
(Vbuild
p4
Valpha
p5
tp6
(dp7
Vimage-file
p8
Varch/alpha/boot/vmlinux.gz
p9
ss(Vimage
p10
Vsh4
p11
tp12
(dp13
Vinstall-stem
p14
Vvmlinuz
p15
sVsuggests
p16
Vfdutils
p17
ss(Vdescription
p18
Varmel
p19
NVversatile
p20
tp21
(dp22
Vhardware-long
p23
VVersatile systems (PB, AB, Qemu)
p24
sVhardware
p25
VVersatile
p26
ss(Vimage
p27
Vmipsel
p28
NVloongson-2f
p29
tp30
(dp31
Vconfigs
p32
(lp33
Vkernelarch-mips/config.loongson-2f
p34
asVrecommends
p35
Vlibc6-loongson2f
p36
ss(Vbase
p37
NVrt
p38
tp39
(dp40
Venabled
p41
I01
ss(Vdescription
p42
Vamd64
p43
NVamd64
p44
tp45
(dp46
Vhardware-long
p47
VPCs with AMD64, Intel 64 or VIA Nano processors
p48
sVhardware
p49
V64-bit PCs
p50
ss(Vimage
p51
Vppc64
p52
NVpowerpc64
p53
tp54
(dp55
Vconfigs
p56
(lp57
Vkernelarch-powerpc/config-arch-64
p58
aVkernelarch-powerpc/config-arch-64-be
p59
ass(Vimage
p60
Vpowerpc
p61
NVpowerpc64
p62
tp63
(dp64
Vconfigs
p65
(lp66
Vkernelarch-powerpc/config-arch-64
p67
aVkernelarch-powerpc/config-arch-64-be
p68
ass(Vimage
p69
Vi386
p70
tp71
(dp72
Vinstall-stem
p73
Vvmlinuz
p74
sVbreaks
p75
Vxserver-xorg-input-vmmouse (<< 1:13.0.99)
p76
sVconfigs
p77
(lp78
sVbootloaders
p79
(lp80
Vgrub-pc
p81
aVextlinux
p82
ass(Vxen
p83
g43
Vnone
p84
Vamd64
p85
tp86
(dp87
Vflavours
p88
(lp89
Vamd64
p90
ass(Vimage
p91
Vs390x
p92
NVs390x
p93
tp94
(dp95
Vconfigs
p96
(lp97
Vkernelarch-s390/config-arch-64
p98
ass(Vbuild
p99
g61
tp100
(dp101
Vimage-file
p102
Vvmlinux
p103
sVvdso
p104
I01
ss(Vbase
p105
Vhppa
p106
tp107
(dp108
Vfeaturesets
p109
(lp110
Vnone
p111
asVkernel-arch
p112
Vparisc
p113
ss(Vbase
p114
g5
g111
tp115
(dp116
Vflavours
p117
(lp118
Valpha-generic
p119
aValpha-smp
p120
asVimplicit-flavour
p121
I01
ss(Vimage
p122
g28
NVloongson-2e
p123
tp124
(dp125
Vconfigs
p126
(lp127
Vkernelarch-mips/config.loongson-2e
p128
ass(Vimage
p129
Vmips
p130
NV4kc-malta
p131
tp132
(dp133
Vconfigs
p134
(lp135
Vkernelarch-mips/config.4kc-malta
p136
ass(Vimage
p137
g11
NVsh7785lcr
p138
tp139
(dp140
Vcheck-size
p141
L4194304L
sVrecommends
p142
Vu-boot-tools
p143
ss(Vbase
p144
g92
tp145
(dp146
g109
(lp147
g111
asVkernel-arch
p148
Vs390
p149
ss(Vdescription
p150
g61
NVpowerpc
p151
tp152
(dp153
Vhardware
p154
Vuniprocessor 32-bit PowerPC
p155
ss(g114
Vmips64el
p156
g111
tp157
(dp158
g117
(lp159
V5kc-malta
p160
aVloongson-3
p161
aVocteon
p162
asg121
I01
ss(Vdescription
p163
g28
NVloongson-2e
p164
tp165
(dp166
Vhardware-long
p167
VLemote Loongson 2E systems
p168
sVhardware
p169
VLoongson 2E
p170
ss(Vdescription
p171
Varmhf
p172
NVarmmp
p173
tp174
(dp175
Vhardware-long
p176
VARMv7 multiplatform kernel. See\u000ahttps://wiki.debian.org/DebianKernel/ARMMP for details of supported\u000aplatforms
p177
sVhardware
p178
VARMv7 multiplatform compatible SoCs
p179
ss(Vabi
p180
tp181
(dp182
Vabiname
p183
V1
p184
sVignore-changes
p185
(lp186
V__scm_destroy
p187
aV__scm_send
p188
aVscm_detach_fds
p189
aVscm_fp_dup
p190
aVefivar_validate
p191
aVget_thermal_instance
p192
aVinet_csk_reqsk_queue_add
p193
aVtcp_req_err
p194
aVmodule:drivers/gpu/drm/drm_kms_helper
p195
aVmodule:drivers/hv/hv_vmbus
p196
aVmodule:drivers/md/dm-snapshot
p197
aVmodule:drivers/mmc/host/sdhci
p198
aVmodule:net/ceph/libceph
p199
ass(Vrelations
p200
g43
tp201
(dp202
Vheaders%gcc-5
p203
Vlinux-compiler-gcc-5-x86
p204
ss(Vimage
p205
g19
tp206
(dp207
Vconfigs
p208
(lp209
Vkernelarch-arm/config
p210
aVarmel/config
p211
asVinstall-stem
p212
Vvmlinuz
p213
sVsuggests
p214
Vfdutils
p215
ss(Vbase
p216
g130
tp217
(dp218
g109
(lp219
g111
asVkernel-arch
p220
Vmips
p221
ss(Vdescription
p222
g156
NV5kc-malta
p223
tp224
(dp225
Vhardware-long
p226
VMIPS Malta boards
p227
sVhardware
p228
VMIPS Malta
p229
ss(Vdescription
p230
g130
NVocteon
p231
tp232
(dp233
Vhardware-long
p234
VCavium Networks Octeon
p235
sVhardware
p236
VOcteon
p237
ss(Vrelations
p238
g92
tp239
(dp240
Vheaders%gcc-4.9
p241
Vlinux-compiler-gcc-4.9-s390
p242
ss(Vbuild
p243
g11
tp244
(dp245
Vimage-file
p246
Varch/sh/boot/zImage
p247
ss(Vbuild
p248
g19
tp249
(dp250
Vimage-file
p251
Varch/arm/boot/zImage
p252
ss(g114
g11
g111
tp253
(dp254
g117
(lp255
Vsh7751r
p256
aVsh7785lcr
p257
asg121
I01
ss(g114
g61
g111
tp258
(dp259
g117
(lp260
Vpowerpc
p261
aVpowerpc-smp
p262
aVpowerpc64
p263
asg121
I01
ss(Vbuild
p264
g52
tp265
(dp266
Vimage-file
p267
Vvmlinux
p268
sVvdso
p269
I01
ss(Vbase
p270
Vsparc64
p271
tp272
(dp273
g109
(lp274
g111
asVkernel-arch
p275
Vsparc
p276
ss(Vbase
p277
g70
tp278
(dp279
Vfeaturesets
p280
(lp281
Vnone
p282
aVrt
p283
asVkernel-arch
p284
Vx86
p285
sVcompiler
p286
Vgcc-5
p287
ss(g114
g52
g111
tp288
(dp289
g117
(lp290
Vpowerpc64
p291
asg121
I01
ss(Vimage
p292
Vmips64
p293
NV5kc-malta
p294
tp295
(dp296
Vconfigs
p297
(lp298
Vkernelarch-mips/config.5kc-malta
p299
ass(g114
g130
g111
tp300
(dp301
g117
(lp302
V4kc-malta
p303
aV5kc-malta
p304
aVocteon
p305
asg121
I01
ss(Vbase
p306
Vpowerpcspe
p307
tp308
(dp309
g109
(lp310
g111
asVkernel-arch
p311
Vpowerpc
p312
ss(g114
g271
g111
tp313
(dp314
g117
(lp315
Vsparc64
p316
aVsparc64-smp
p317
asg121
I01
ss(Vdescription
p318
g293
NV5kc-malta
p319
tp320
(dp321
Vhardware-long
p322
VMIPS Malta boards
p323
sVhardware
p324
VMIPS Malta
p325
ss(Vbuild
p326
Vppc64el
p327
tp328
(dp329
Vimage-file
p330
Vvmlinux
p331
sVvdso
p332
I01
ss(Vbase
p333
g43
g84
tp334
(dp335
Vflavours
p336
(lp337
Vamd64
p338
ass(Vimage
p339
g307
tp340
(dp341
Vinstall-stem
p342
Vvmlinux
p343
sVsuggests
p344
Vmkvmlinuz
p345
ss(Vdescription
p346
g28
NV5kc-malta
p347
tp348
(dp349
Vhardware-long
p350
VMIPS Malta boards (64-bit)
p351
sVhardware
p352
VMIPS Malta (64-bit)
p353
ss(Vbase
p354
g70
Vrt
p355
tp356
(dp357
Vflavours
p358
(lp359
V686-pae
p360
ass(Vdescription
p361
g70
NV686-pae
p362
tp363
(dp364
Vhardware-long
p365
VPCs with one or more processors supporting PAE
p366
sVparts
p367
(lp368
Vpae
p369
asVhardware
p370
Vmodern PCs
p371
ss(g114
g172
g111
tp372
(dp373
g117
(lp374
Varmmp
p375
aVarmmp-lpae
p376
asg121
I01
ss(Vimage
p377
g19
NVmarvell
p378
tp379
(dp380
Vcheck-size
p381
L2097080L
sVbreaks
p382
Vflash-kernel (<< 3.57~)
p383
sVcheck-size-with-dtb
p384
I01
sVrecommends
p385
Vu-boot-tools
p386
ss(Vimage
p387
g172
NVarmmp-lpae
p388
tp389
(dp390
Vconfigs
p391
(lp392
Varmhf/config.armmp
p393
aVarmhf/config.lpae
p394
ass(Vimage
p395
g271
NVsparc64
p396
tp397
(dp398
Vconfigs
p399
(lp400
Vkernelarch-sparc/config-up
p401
ass(Vdescription
p402
g28
NV4kc-malta
p403
tp404
(dp405
Vhardware-long
p406
VMIPS Malta boards
p407
sVhardware
p408
VMIPS Malta
p409
ss(Vdescription
p410
g327
NVpowerpc64le
p411
tp412
(dp413
Vhardware
p414
VLittle-endian 64-bit PowerPC
p415
ss(Vbase
p416
Vor1k
p417
tp418
(dp419
Vfeaturesets
p420
(lp421
sVkernel-arch
p422
Vopenrisc
p423
ss(g114
g327
g111
tp424
(dp425
g117
(lp426
Vpowerpc64le
p427
asg121
I01
ss(Vimage
p428
g61
tp429
(dp430
Vconfigs
p431
(lp432
sVinstall-stem
p433
Vvmlinux
p434
sVsuggests
p435
Vmkvmlinuz
p436
ss(Vimage
p437
g327
NVpowerpc64le
p438
tp439
(dp440
Vconfigs
p441
(lp442
Vkernelarch-powerpc/config-arch-64
p443
aVkernelarch-powerpc/config-arch-64-le
p444
ass(g114
g307
g111
tp445
(dp446
g117
(lp447
Vpowerpcspe
p448
asg121
I01
ss(Vbase
p449
tp450
(dp451
Vfeaturesets
p452
(lp453
Vnone
p454
aVrt
p455
asVarches
p456
(lp457
Valpha
p458
aVamd64
p459
aVarm64
p460
aVarmel
p461
aVarmhf
p462
aVhppa
p463
aVi386
p464
aVm68k
p465
aVmips
p466
aVmipsel
p467
aVmips64
p468
aVmips64el
p469
aVor1k
p470
aVpowerpc
p471
aVpowerpcspe
p472
aVppc64
p473
aVppc64el
p474
aVs390
p475
aVs390x
p476
aVsh4
p477
aVsparc
p478
aVsparc64
p479
aVx32
p480
asVcompiler
p481
Vgcc-4.9
p482
ss(Vrelations
p483
tp484
(dp485
Vinitramfs-fallback
p486
Vlinux-initramfs-tool
p487
sVgcc-4.8
p488
Vgcc-4.8 <!stage1>
p489
sVgcc-4.9
p490
Vgcc-4.9 <!stage1>
p491
sVinitramfs-tools
p492
Vinitramfs-tools (>= 0.110~)
p493
sVgcc-5
p494
Vgcc-5 <!stage1>
p495
ss(Vabi
p496
NVrt
p497
tp498
(dp499
Vignore-changes
p500
(lp501
V*
p502
ass(Vdescription
p503
g92
NVs390x
p504
tp505
(dp506
Vhardware
p507
VIBM zSeries
p508
ss(Vimage
p509
g130
tp510
(dp511
Vinstall-stem
p512
Vvmlinux
p513
ss(Vbase
p514
Vs390
p515
tp516
(dp517
Vfeaturesets
p518
(lp519
sVkernel-arch
p520
Vs390
p521
ss(Vdescription
p522
g28
NVloongson-3
p523
tp524
(dp525
Vhardware-long
p526
VLoongson 3A or 3B based systems (e.g. from Loongson or Lemote)
p527
sVhardware
p528
VLoongson 3A/3B
p529
ss(Vbase
p530
g61
tp531
(dp532
g109
(lp533
g111
asVkernel-arch
p534
Vpowerpc
p535
ss(Vdescription
p536
g28
NVloongson-2f
p537
tp538
(dp539
Vhardware-long
p540
VLemote Loongson 2F systems
p541
sVhardware
p542
VLoongson 2F
p543
ss(Vimage
p544
g327
tp545
(dp546
Vconfigs
p547
(lp548
sVinstall-stem
p549
Vvmlinux
p550
sVsuggests
p551
Vmkvmlinuz
p552
ss(Vbuild
p553
g70
NV686-pae
p554
tp555
(dp556
Vdebug-info
p557
I01
ss(Vdescription
p558
g156
NVocteon
p559
tp560
(dp561
Vhardware-long
p562
VCavium Networks Octeon
p563
sVhardware
p564
VOcteon
p565
ss(Vimage
p566
g92
tp567
(dp568
Vinstall-stem
p569
Vvmlinuz
p570
sVconfigs
p571
(lp572
sVbootloaders
p573
(lp574
Vs390-tools
p575
ass(Vbase
p576
g172
tp577
(dp578
g109
(lp579
g111
asVkernel-arch
p580
Varm
p581
ss(Vdescription
p582
g293
NVocteon
p583
tp584
(dp585
Vhardware-long
p586
VCavium Networks Octeon
p587
sVhardware
p588
VOcteon
p589
ss(Vbase
p590
g5
tp591
(dp592
g109
(lp593
g111
asVkernel-arch
p594
Valpha
p595
ss(Vbuild
p596
g156
tp597
(dp598
Vimage-file
p599
Vvmlinux
p600
ss(Vbuild
p601
Vm68k
p602
tp603
(dp604
Vimage-file
p605
Vvmlinux.gz
p606
ss(Vdescription
p607
g43
g84
Vamd64
p608
tp609
(dp610
Vparts
p611
(lp612
Vxen
p613
ass(g114
g106
g111
tp614
(dp615
g117
(lp616
Vparisc
p617
aVparisc64-smp
p618
asg121
I01
ss(Vdescription
p619
g5
NValpha-smp
p620
tp621
(dp622
Vhardware-long
p623
VDEC Alpha SMP systems with extended kernel start address (Wildfire, Titan, Marvel)
p624
sVhardware
p625
VAlpha SMP
p626
ss(Vdescription
p627
g271
NVsparc64
p628
tp629
(dp630
Vhardware
p631
Vuniprocessor 64-bit UltraSPARC
p632
ss(Vimage
p633
Varm64
p634
NVarm64
p635
tp636
(dp637
s(Vimage
p638
g52
tp639
(dp640
Vconfigs
p641
(lp642
sVinstall-stem
p643
Vvmlinux
p644
sVsuggests
p645
Vmkvmlinuz
p646
ss(Vdescription
p647
g602
NVm68k
p648
tp649
(dp650
Vhardware
p651
VMotorola MC68020+ family
p652
ss(Vdescription
p653
g70
Vnone
p654
V686-pae
p655
tp656
(dp657
Vparts
p658
(lp659
Vxen
p660
ass(Vbuild
p661
g634
tp662
(dp663
Vimage-file
p664
Varch/arm64/boot/Image
p665
sVdebug-info
p666
I01
sVvdso
p667
I01
ss(Vbuild
p668
g307
tp669
(dp670
Vimage-file
p671
Vvmlinux
p672
sVvdso
p673
I01
ss(g114
g602
g111
tp674
(dp675
g117
(lp676
Vm68k
p677
asg121
I01
ss(Vbase
p678
g43
Vrt
p679
tp680
(dp681
Vflavours
p682
(lp683
Vamd64
p684
ass(Vbase
p685
g28
tp686
(dp687
g109
(lp688
g111
asVkernel-arch
p689
Vmips
p690
ss(Vdescription
p691
g634
NVarm64
p692
tp693
(dp694
Vhardware
p695
V64-bit ARMv8 machines
p696
ss(Vbuild
p697
g293
tp698
(dp699
Vimage-file
p700
Vvmlinux
p701
ss(Vimage
p702
g271
NVsparc64-smp
p703
tp704
(dp705
Vconfigs
p706
(lp707
Vkernelarch-sparc/config-smp
p708
ass(Vbase
p709
g602
tp710
(dp711
g109
(lp712
g111
asVcflags
p713
V-ffreestanding
p714
sVkernel-arch
p715
Vm68k
p716
sVcompiler
p717
Vgcc-4.8
p718
ss(Vdescription
p719
g11
NVsh7751r
p720
tp721
(dp722
Vhardware-long
p723
VRenesas SH7751R R2D plus board
p724
sVhardware
p725
Vsh7751r
p726
ss(Vdescription
p727
g130
NV4kc-malta
p728
tp729
(dp730
Vhardware-long
p731
VMIPS Malta boards
p732
sVhardware
p733
VMIPS Malta
p734
ss(Vimage
p735
g43
tp736
(dp737
Vinstall-stem
p738
Vvmlinuz
p739
sVbreaks
p740
Vxserver-xorg-input-vmmouse (<< 1:13.0.99)
p741
sVconfigs
p742
(lp743
sVbootloaders
p744
(lp745
Vgrub-pc
p746
aVgrub-efi
p747
aVextlinux
p748
ass(Vbase
p749
g52
tp750
(dp751
g109
(lp752
g111
asVkernel-arch
p753
Vpowerpc
p754
ss(Vimage
p755
g271
tp756
(dp757
Vconfigs
p758
(lp759
sVinstall-stem
p760
Vvmlinuz
p761
sVsuggests
p762
Vsilo, fdutils
p763
ss(g114
g92
g111
tp764
(dp765
g117
(lp766
Vs390x
p767
asg121
I01
ss(Vdescription
p768
g19
NVmarvell
p769
tp770
(dp771
Vhardware-long
p772
VMarvell Kirkwood based systems (SheevaPlug, QNAP TS-119/TS-219, etc)\u000aand Orion 5181, 5182 and 5281 based systems (QNAP TS-109/TS-209, etc)
p773
sVhardware
p774
VMarvell Kirkwood/Orion
p775
ss(Vdescription
p776
g5
NValpha-generic
p777
tp778
(dp779
Vhardware-long
p780
VDEC Alpha systems with extended kernel start address (Wildfire, Titan, Marvel)
p781
sVhardware
p782
VAlpha
p783
ss(Vimage
p784
g156
NV5kc-malta
p785
tp786
(dp787
Vconfigs
p788
(lp789
Vkernelarch-mips/config.5kc-malta
p790
ass(Vbuild
p791
g43
tp792
(dp793
Vimage-file
p794
Varch/x86/boot/bzImage
p795
sVdebug-info
p796
I01
sVvdso
p797
I01
ss(Vbase
p798
g327
tp799
(dp800
g109
(lp801
g111
asVkernel-arch
p802
Vpowerpc
p803
ss(Vabi
p804
g92
tp805
(dp806
Vignore-changes
p807
(lp808
Vmodule:arch/s390/kvm/kvm
p809
ass(Vbase
p810
g293
tp811
(dp812
g109
(lp813
g111
asVkernel-arch
p814
Vmips
p815
ss(Vimage
p816
g602
tp817
(dp818
Vinstall-stem
p819
Vvmlinuz
p820
sVsuggests
p821
Vvmelilo, fdutils
p822
ss(Vimage
p823
g28
NVloongson-3
p824
tp825
(dp826
Vconfigs
p827
(lp828
Vkernelarch-mips/config.loongson-3
p829
ass(Vimage
p830
tp831
(dp832
Vinitramfs-generators
p833
(lp834
Vinitramfs-tools
p835
aVinitramfs-fallback
p836
ass(Vbase
p837
g19
tp838
(dp839
g109
(lp840
g111
asVkernel-arch
p841
Varm
p842
ss(Vimage
p843
g130
NVocteon
p844
tp845
(dp846
Vconfigs
p847
(lp848
Vkernelarch-mips/config.octeon
p849
ass(Vimage
p850
g43
NVamd64
p851
tp852
(dp853
Vconfigs
p854
(lp855
Vkernelarch-x86/config-arch-64
p856
ass(Vbase
p857
g70
g654
tp858
(dp859
Vflavours
p860
(lp861
V686
p862
aV686-pae
p863
ass(Vrelations
p864
g70
tp865
(dp866
Vheaders%gcc-5
p867
Vlinux-compiler-gcc-5-x86
p868
ss(Vbase
p869
g634
Vnone
p870
tp871
(dp872
Vflavours
p873
(lp874
Varm64
p875
ass(Vdescription
p876
g61
NVpowerpc64
p877
tp878
(dp879
Vhardware
p880
V64-bit PowerPC
p881
ss(Vbuild
p882
g130
tp883
(dp884
Vimage-file
p885
Vvmlinux
p886
ss(Vimage
p887
g5
tp888
(dp889
Vinstall-stem
p890
Vvmlinuz
p891
sVsuggests
p892
Vaboot, fdutils
p893
ss(Vimage
p894
g61
NVpowerpc-smp
p895
tp896
(dp897
Vconfigs
p898
(lp899
Vpowerpc/config.powerpc
p900
aVpowerpc/config.powerpc-smp
p901
ass(Vbase
p902
g156
tp903
(dp904
g109
(lp905
g111
asVkernel-arch
p906
Vmips
p907
ss(Vrelations
p908
g106
tp909
(dp910
Vgcc-4.9
p911
Vgcc-4.9 <!stage1>, binutils-hppa64 <!stage1>, gcc-4.9-hppa64 <!stage1>
p912
ss(Vdescription
p913
g70
tp914
(dp915
Vpart-long-pae
p916
VThis kernel requires PAE (Physical Address Extension).\u000aThis feature is supported by the Intel Pentium Pro/II/III/4/4M/D, Xeon,\u000aCore and Atom; AMD Geode NX, Athlon (K7), Duron, Opteron, Sempron,\u000aTurion or Phenom; Transmeta Efficeon; VIA C7; and some other processors.
p917
ss(Vbuild
p918
g172
tp919
(dp920
Vimage-file
p921
Varch/arm/boot/zImage
p922
sVvdso
p923
I01
ss(Vdescription
p924
g106
NVparisc
p925
tp926
(dp927
Vhardware-long
p928
VHP PA-RISC 32-bit systems with max 4 GB RAM
p929
sVhardware
p930
V32-bit PA-RISC
p931
ss(Vrelations
p932
g172
tp933
(dp934
Vheaders%gcc-4.9
p935
Vlinux-compiler-gcc-4.9-arm
p936
ss(Vimage
p937
g28
NV4kc-malta
p938
tp939
(dp940
Vconfigs
p941
(lp942
Vkernelarch-mips/config.4kc-malta
p943
ass(Vbuild
p944
g92
tp945
(dp946
Vimage-file
p947
Varch/s390/boot/image
p948
sVvdso
p949
I01
ss(Vdescription
p950
g106
NVparisc64-smp
p951
tp952
(dp953
Vhardware-long
p954
VHP PA-RISC 64-bit SMP systems with support for more than 4 GB RAM
p955
sVhardware
p956
Vmultiprocessor 64-bit PA-RISC
p957
ss(Vdescription
p958
g156
NVloongson-3
p959
tp960
(dp961
Vhardware-long
p962
VLoongson 3A or 3B based systems (e.g. from Loongson or Lemote)
p963
sVhardware
p964
VLoongson 3A/3B
p965
ss(Vbase
p966
Vx32
p967
tp968
(dp969
Vfeaturesets
p970
(lp971
sVkernel-arch
p972
Vx86
p973
ss(Vimage
p974
g156
NVloongson-3
p975
tp976
(dp977
Vconfigs
p978
(lp979
Vkernelarch-mips/config.loongson-3
p980
ass(Vbuild
p981
g106
tp982
(dp983
Vimage-file
p984
Vvmlinux
p985
ss(Vbuild
p986
g28
tp987
(dp988
Vimage-file
p989
Vvmlinux
p990
ss(Vimage
p991
g293
NVocteon
p992
tp993
(dp994
Vconfigs
p995
(lp996
Vkernelarch-mips/config.octeon
p997
ass(g114
g19
g111
tp998
(dp999
g117
(lp1000
Vmarvell
p1001
aVversatile
p1002
asg121
I01
ss(Vimage
p1003
g70
NV686
p1004
tp1005
(dp1006
Vconfigs
p1007
(lp1008
Vkernelarch-x86/config-arch-32
p1009
aVi386/config.686
p1010
asVrecommends
p1011
Vlibc6-i686
p1012
ss(Vimage
p1013
g156
NVocteon
p1014
tp1015
(dp1016
Vconfigs
p1017
(lp1018
Vkernelarch-mips/config.octeon
p1019
ass(Vimage
p1020
g156
tp1021
(dp1022
Vinstall-stem
p1023
Vvmlinux
p1024
ss(Vimage
p1025
g172
tp1026
(dp1027
Vconfigs
p1028
(lp1029
Vkernelarch-arm/config
p1030
asVinstall-stem
p1031
Vvmlinuz
p1032
sVsuggests
p1033
Vfdutils
p1034
ss(Vbuild
p1035
g92
NVs390x
p1036
tp1037
(dp1038
Vdebug-info
p1039
I01
ss(Vbase
p1040
g11
tp1041
(dp1042
g109
(lp1043
g111
asVkernel-arch
p1044
Vsh
p1045
ss(Vimage
p1046
g634
tp1047
(dp1048
Vinstall-stem
p1049
Vvmlinuz
p1050
ss(Vdescription
p1051
g70
NV686
p1052
tp1053
(dp1054
Vhardware-long
p1055
VPCs with one or more processors not supporting PAE
p1056
sVhardware
p1057
Volder PCs
p1058
ss(Vimage
p1059
g130
NV5kc-malta
p1060
tp1061
(dp1062
Vconfigs
p1063
(lp1064
Vkernelarch-mips/config.5kc-malta
p1065
ass(Vbuild
p1066
g70
tp1067
(dp1068
Vimage-file
p1069
Varch/x86/boot/bzImage
p1070
sVvdso
p1071
I01
ss(Vdescription
p1072
Ng497
tp1073
(dp1074
Vpart-long-rt
p1075
VThis kernel includes the PREEMPT_RT realtime patch set.
p1076
sVpart-short-rt
p1077
VPREEMPT_RT
p1078
sVparts
p1079
(lp1080
Vrt
p1081
ass(g114
g293
g111
tp1082
(dp1083
g117
(lp1084
V5kc-malta
p1085
aVocteon
p1086
asg121
I01
ss(Vbuild
p1087
g271
tp1088
(dp1089
Vimage-file
p1090
Varch/sparc/boot/zImage
p1091
ss(Vdescription
p1092
g130
NV5kc-malta
p1093
tp1094
(dp1095
Vhardware-long
p1096
VMIPS Malta boards (64-bit)
p1097
sVhardware
p1098
VMIPS Malta (64-bit)
p1099
ss(Vimage
p1100
g70
NV686-pae
p1101
tp1102
(dp1103
Vconfigs
p1104
(lp1105
Vkernelarch-x86/config-arch-32
p1106
aVi386/config.686-pae
p1107
asVrecommends
p1108
Vlibc6-i686
p1109
ss(Vbase
p1110
g634
tp1111
(dp1112
Vfeaturesets
p1113
(lp1114
Vnone
p1115
asVkernel-arch
p1116
Varm64
p1117
ss(Vdescription
p1118
g11
NVsh7785lcr
p1119
tp1120
(dp1121
Vhardware-long
p1122
VRenesas SH7785 reference board
p1123
sVhardware
p1124
Vsh7785lcr
p1125
ss(Vimage
p1126
g293
tp1127
(dp1128
Vinstall-stem
p1129
Vvmlinux
p1130
ss(Vdescription
p1131
tp1132
(dp1133
Vpart-long-xen
p1134
VThis kernel also runs on a Xen hypervisor.\u000aIt supports both privileged (dom0) and unprivileged (domU) operation.
p1135
sVpart-long-up
p1136
VThis kernel is not suitable for SMP (multi-processor,\u000amulti-core or hyper-threaded) systems.
p1137
ss(Vdescription
p1138
g52
NVpowerpc64
p1139
tp1140
(dp1141
Vhardware
p1142
V64-bit PowerPC
p1143
ss(Vdescription
p1144
g271
NVsparc64-smp
p1145
tp1146
(dp1147
Vhardware
p1148
Vmultiprocessor 64-bit UltraSPARC
p1149
ss(Vimage
p1150
g28
tp1151
(dp1152
Vinstall-stem
p1153
Vvmlinux
p1154
ss(Vversion
p1155
tp1156
(dp1157
Vabiname
p1158
V4.4.0-1
p1159
sVabiname_base
p1160
V4.4.0
p1161
sVupstream
p1162
V4.4
p1163
sVsource
p1164
V4.4.4-1
p1165
ss(Vimage
p1166
g28
NV5kc-malta
p1167
tp1168
(dp1169
Vconfigs
p1170
(lp1171
Vkernelarch-mips/config.5kc-malta
p1172
ass(Vbase
p1173
Vsparc
p1174
tp1175
(dp1176
Vfeaturesets
p1177
(lp1178
sVkernel-arch
p1179
Vsparc
p1180
ss(Vdescription
p1181
g172
NVarmmp-lpae
p1182
tp1183
(dp1184
Vhardware-long
p1185
VARMv7 multiplatform kernel supporting LPAE. See\u000ahttps://wiki.debian.org/DebianKernel/ARMMP for details of supported\u000aplatforms.
p1186
sVhardware
p1187
VARMv7 multiplatform compatible SoCs supporting LPAE
p1188
ss(Vbase
p1189
g106
NVparisc64-smp
p1190
tp1191
(dp1192
Vcflags
p1193
V-fno-cse-follow-jumps
p1194
sVoverride-host-type
p1195
Vhppa64-linux-gnu
p1196
ss(g114
g28
g111
tp1197
(dp1198
g117
(lp1199
V4kc-malta
p1200
aV5kc-malta
p1201
aVloongson-2e
p1202
aVloongson-2f
p1203
aVloongson-3
p1204
asg121
I01
ss(Vbase
p1205
g43
tp1206
(dp1207
Vfeaturesets
p1208
(lp1209
Vnone
p1210
aVrt
p1211
asVkernel-arch
p1212
Vx86
p1213
sVcompiler
p1214
Vgcc-5
p1215
ss(Vimage
p1216
g106
tp1217
(dp1218
Vinstall-stem
p1219
Vvmlinux
p1220
sVsuggests
p1221
Vpalo
p1222
ss(Vrelations
p1223
g19
tp1224
(dp1225
Vheaders%gcc-4.9
p1226
Vlinux-compiler-gcc-4.9-arm
p1227
ss(Vdescription
p1228
g307
tp1229
(dp1230
Vhardware
p1231
V32-bit PowerPC with SPE (instead of AltiVec) with SMP support
p1232
ss(Vdescription
p1233
g61
NVpowerpc-smp
p1234
tp1235
(dp1236
Vhardware
p1237
Vmultiprocessor 32-bit PowerPC
p1238
sstp1239
Rp1240
.