ccopy_reg
_reconstructor
p0
(cdebian_linux.config
ConfigCore
p1
c__builtin__
dict
p2
(dp3
(Vdescription
p4
tp5
(dp6
Vpart-long-xen
p7
VThis kernel also runs on a Xen hypervisor.\u000aIt supports both privileged (dom0) and unprivileged (domU) operation.
p8
sVpart-long-up
p9
VThis kernel is not suitable for SMP (multi-processor,\u000amulti-core or hyper-threaded) systems.
p10
ss(Vbase
p11
Vsh4
p12
Vnone
p13
tp14
(dp15
Vimplicit-flavour
p16
I01
sVflavours
p17
(lp18
Vsh7751r
p19
aVsh7785lcr
p20
ass(Vimage
p21
Vm68k
p22
tp23
(dp24
Vsuggests
p25
Vvmelilo, fdutils
p26
sVinstall-stem
p27
Vvmlinuz
p28
ss(Vimage
p29
Vmipsel
p30
NV5kc-malta
p31
tp32
(dp33
Vconfigs
p34
(lp35
Vkernelarch-mips/config.5kc-malta
p36
ass(Vimage
p37
g12
tp38
(dp39
Vsuggests
p40
Vfdutils
p41
sVinstall-stem
p42
Vvmlinuz
p43
ss(Vimage
p44
g30
NVloongson-3
p45
tp46
(dp47
Vconfigs
p48
(lp49
Vkernelarch-mips/config.loongson-3
p50
ass(Vimage
p51
Vpowerpc
p52
tp53
(dp54
Vsuggests
p55
Vmkvmlinuz
p56
sVinstall-stem
p57
Vvmlinux
p58
sVconfigs
p59
(lp60
ss(Vdescription
p61
Vmips64
p62
NVocteon
p63
tp64
(dp65
Vhardware-long
p66
VCavium Networks Octeon
p67
sVhardware
p68
VOcteon
p69
ss(g11
g52
g13
tp70
(dp71
g16
I01
sg17
(lp72
Vpowerpc
p73
aVpowerpc-smp
p74
aVpowerpc64
p75
ass(g11
g62
g13
tp76
(dp77
g16
I01
sg17
(lp78
V5kc-malta
p79
aVocteon
p80
ass(Vdescription
p81
Varmhf
p82
NVarmmp
p83
tp84
(dp85
Vhardware-long
p86
VARMv7 multiplatform kernel. See\u000ahttps://wiki.debian.org/DebianKernel/ARMMP for details of supported\u000aplatforms
p87
sVhardware
p88
VARMv7 multiplatform compatible SoCs
p89
ss(g11
Valpha
p90
g13
tp91
(dp92
g16
I01
sg17
(lp93
Valpha-generic
p94
aValpha-smp
p95
ass(Vbase
p96
Vor1k
p97
tp98
(dp99
Vkernel-arch
p100
Vopenrisc
p101
sVfeaturesets
p102
(lp103
ss(Vxen
p104
Vamd64
p105
Vnone
p106
Vamd64
p107
tp108
(dp109
Vflavours
p110
(lp111
Vamd64
p112
ass(Vdescription
p113
g90
NValpha-generic
p114
tp115
(dp116
Vhardware-long
p117
VDEC Alpha systems with extended kernel start address (Wildfire, Titan, Marvel)
p118
sVhardware
p119
VAlpha
p120
ss(Vbase
p121
Vpowerpcspe
p122
tp123
(dp124
Vkernel-arch
p125
Vpowerpc
p126
sVfeaturesets
p127
(lp128
g13
ass(Vimage
p129
Vmips64el
p130
NV5kc-malta
p131
tp132
(dp133
Vconfigs
p134
(lp135
Vkernelarch-mips/config.5kc-malta
p136
ass(Vbuild
p137
Vi386
p138
tp139
(dp140
Vvdso
p141
I01
sVimage-file
p142
Varch/x86/boot/bzImage
p143
ss(Vbuild
p144
Varmel
p145
tp146
(dp147
Vimage-file
p148
Varch/arm/boot/zImage
p149
ss(Vrelations
p150
g105
tp151
(dp152
Vheaders%gcc-5
p153
Vlinux-compiler-gcc-5-x86
p154
ss(Vimage
p155
g62
tp156
(dp157
Vinstall-stem
p158
Vvmlinux
p159
ss(Vdescription
p160
Vppc64el
p161
NVpowerpc64le
p162
tp163
(dp164
Vhardware
p165
VLittle-endian 64-bit PowerPC
p166
ss(Vrelations
p167
Vhppa
p168
tp169
(dp170
Vgcc-4.9
p171
Vgcc-4.9 <!stage1>, binutils-hppa64 <!stage1>, gcc-4.9-hppa64 <!stage1>
p172
ss(g11
g82
g13
tp173
(dp174
g16
I01
sg17
(lp175
Varmmp
p176
aVarmmp-lpae
p177
ass(Vdescription
p178
g168
NVparisc
p179
tp180
(dp181
Vhardware-long
p182
VHP PA-RISC 32-bit systems with max 4 GB RAM
p183
sVhardware
p184
V32-bit PA-RISC
p185
ss(Vdescription
p186
Vppc64
p187
NVpowerpc64
p188
tp189
(dp190
Vhardware
p191
V64-bit PowerPC
p192
ss(Vrelations
p193
Vs390x
p194
tp195
(dp196
Vheaders%gcc-4.9
p197
Vlinux-compiler-gcc-4.9-s390
p198
ss(Vimage
p199
Vsparc64
p200
NVsparc64-smp
p201
tp202
(dp203
Vconfigs
p204
(lp205
Vkernelarch-sparc/config-smp
p206
ass(Vbuild
p207
g130
tp208
(dp209
Vimage-file
p210
Vvmlinux
p211
ss(Vimage
p212
g105
tp213
(dp214
Vbreaks
p215
Vxserver-xorg-input-vmmouse (<< 1:13.0.99)
p216
sVinstall-stem
p217
Vvmlinuz
p218
sVbootloaders
p219
(lp220
Vgrub-pc
p221
aVgrub-efi
p222
aVextlinux
p223
asVconfigs
p224
(lp225
ss(Vbuild
p226
g62
tp227
(dp228
Vimage-file
p229
Vvmlinux
p230
ss(Vimage
p231
g105
NVamd64
p232
tp233
(dp234
Vconfigs
p235
(lp236
Vkernelarch-x86/config-arch-64
p237
ass(Vimage
p238
g82
tp239
(dp240
Vsuggests
p241
Vfdutils
p242
sVinstall-stem
p243
Vvmlinuz
p244
sVconfigs
p245
(lp246
Vkernelarch-arm/config
p247
ass(Vbase
p248
g12
tp249
(dp250
Vkernel-arch
p251
Vsh
p252
sg127
(lp253
g13
ass(Vimage
p254
g30
tp255
(dp256
Vinstall-stem
p257
Vvmlinux
p258
ss(Vdescription
p259
g12
NVsh7751r
p260
tp261
(dp262
Vhardware-long
p263
VRenesas SH7751R R2D plus board
p264
sVhardware
p265
Vsh7751r
p266
ss(Vdescription
p267
g105
NVamd64
p268
tp269
(dp270
Vhardware-long
p271
VPCs with AMD64, Intel 64 or VIA Nano processors
p272
sVhardware
p273
V64-bit PCs
p274
ss(Vdescription
p275
g52
NVpowerpc
p276
tp277
(dp278
Vhardware
p279
Vuniprocessor 32-bit PowerPC
p280
ss(Vbuild
p281
g12
tp282
(dp283
Vimage-file
p284
Varch/sh/boot/zImage
p285
ss(Vrelations
p286
tp287
(dp288
Vgcc-4.8
p289
Vgcc-4.8 <!stage1>
p290
sVgcc-5
p291
Vgcc-5 <!stage1>
p292
sVinitramfs-tools
p293
Vinitramfs-tools (>= 0.110~)
p294
sVgcc-4.9
p295
Vgcc-4.9 <!stage1>
p296
sVinitramfs-fallback
p297
Vlinux-initramfs-tool
p298
ss(g11
g30
g13
tp299
(dp300
g16
I01
sg17
(lp301
V4kc-malta
p302
aV5kc-malta
p303
aVloongson-2e
p304
aVloongson-2f
p305
aVloongson-3
p306
ass(Vimage
p307
g145
NVmarvell
p308
tp309
(dp310
Vbreaks
p311
Vflash-kernel (<< 3.57~)
p312
sVcheck-size
p313
L2097080L
sVrecommends
p314
Vu-boot-tools
p315
sVcheck-size-with-dtb
p316
I01
ss(Vdescription
p317
g200
NVsparc64-smp
p318
tp319
(dp320
Vhardware
p321
Vmultiprocessor 64-bit UltraSPARC
p322
ss(Vabi
p323
tp324
(dp325
Vabiname
p326
Vkali1
p327
ss(Vdescription
p328
g30
NV4kc-malta
p329
tp330
(dp331
Vhardware-long
p332
VMIPS Malta boards
p333
sVhardware
p334
VMIPS Malta
p335
ss(Vbase
p336
Vx32
p337
tp338
(dp339
Vkernel-arch
p340
Vx86
p341
sVfeaturesets
p342
(lp343
ss(Vimage
p344
g52
NVpowerpc-smp
p345
tp346
(dp347
Vconfigs
p348
(lp349
Vpowerpc/config.powerpc
p350
aVpowerpc/config.powerpc-smp
p351
ass(Vdescription
p352
g52
NVpowerpc64
p353
tp354
(dp355
Vhardware
p356
V64-bit PowerPC
p357
ss(Vimage
p358
g194
tp359
(dp360
Vinstall-stem
p361
Vvmlinuz
p362
sVbootloaders
p363
(lp364
Vs390-tools
p365
asVconfigs
p366
(lp367
ss(Vbase
p368
Varm64
p369
tp370
(dp371
Vkernel-arch
p372
Varm64
p373
sVfeaturesets
p374
(lp375
Vnone
p376
ass(Vimage
p377
Vmips
p378
tp379
(dp380
Vinstall-stem
p381
Vvmlinux
p382
ss(Vbuild
p383
g187
tp384
(dp385
Vvdso
p386
I01
sVimage-file
p387
Vvmlinux
p388
ss(Vimage
p389
g30
NVloongson-2f
p390
tp391
(dp392
Vrecommends
p393
Vlibc6-loongson2f
p394
sVconfigs
p395
(lp396
Vkernelarch-mips/config.loongson-2f
p397
ass(Vbuild
p398
g122
tp399
(dp400
Vvdso
p401
I01
sVimage-file
p402
Vvmlinux
p403
ss(Vbuild
p404
g22
tp405
(dp406
Vimage-file
p407
Vvmlinux.gz
p408
ss(Vdescription
p409
g82
NVarmmp-lpae
p410
tp411
(dp412
Vhardware-long
p413
VARMv7 multiplatform kernel supporting LPAE. See\u000ahttps://wiki.debian.org/DebianKernel/ARMMP for details of supported\u000aplatforms.
p414
sVhardware
p415
VARMv7 multiplatform compatible SoCs supporting LPAE
p416
ss(Vbase
p417
g130
tp418
(dp419
Vkernel-arch
p420
Vmips
p421
sg127
(lp422
g13
ass(Vbase
p423
g369
Vnone
p424
tp425
(dp426
Vflavours
p427
(lp428
Varm64
p429
ass(Vdescription
p430
g30
NV5kc-malta
p431
tp432
(dp433
Vhardware-long
p434
VMIPS Malta boards (64-bit)
p435
sVhardware
p436
VMIPS Malta (64-bit)
p437
ss(Vbase
p438
g82
tp439
(dp440
Vkernel-arch
p441
Varm
p442
sg127
(lp443
g13
ass(Vrelations
p444
g138
tp445
(dp446
Vheaders%gcc-5
p447
Vlinux-compiler-gcc-5-x86
p448
ss(Vdescription
p449
g378
NVocteon
p450
tp451
(dp452
Vhardware-long
p453
VCavium Networks Octeon
p454
sVhardware
p455
VOcteon
p456
ss(Vbuild
p457
g90
tp458
(dp459
Vimage-file
p460
Varch/alpha/boot/vmlinux.gz
p461
ss(Vbuild
p462
g52
tp463
(dp464
Vvdso
p465
I01
sVimage-file
p466
Vvmlinux
p467
ss(Vbase
p468
g378
tp469
(dp470
Vkernel-arch
p471
Vmips
p472
sg127
(lp473
g13
ass(Vimage
p474
g200
tp475
(dp476
Vsuggests
p477
Vsilo, fdutils
p478
sVinstall-stem
p479
Vvmlinuz
p480
sVconfigs
p481
(lp482
ss(Vbuild
p483
g161
tp484
(dp485
Vvdso
p486
I01
sVimage-file
p487
Vvmlinux
p488
ss(Vimage
p489
g138
tp490
(dp491
Vbreaks
p492
Vxserver-xorg-input-vmmouse (<< 1:13.0.99)
p493
sVinstall-stem
p494
Vvmlinuz
p495
sVbootloaders
p496
(lp497
Vgrub-pc
p498
aVextlinux
p499
asVconfigs
p500
(lp501
ss(Vimage
p502
g145
tp503
(dp504
Vsuggests
p505
Vfdutils
p506
sVinstall-stem
p507
Vvmlinuz
p508
sVconfigs
p509
(lp510
Vkernelarch-arm/config
p511
aVarmel/config
p512
ass(Vrelations
p513
g82
tp514
(dp515
Vheaders%gcc-4.9
p516
Vlinux-compiler-gcc-4.9-arm
p517
ss(Vimage
p518
g12
NVsh7785lcr
p519
tp520
(dp521
Vcheck-size
p522
L4194304L
sVrecommends
p523
Vu-boot-tools
p524
ss(Vdescription
p525
g145
NVmarvell
p526
tp527
(dp528
Vhardware-long
p529
VMarvell Kirkwood based systems (SheevaPlug, QNAP TS-119/TS-219, etc)\u000aand Orion 5181, 5182 and 5281 based systems (QNAP TS-109/TS-209, etc)
p530
sVhardware
p531
VMarvell Kirkwood/Orion
p532
ss(Vimage
p533
g90
tp534
(dp535
Vsuggests
p536
Vaboot, fdutils
p537
sVinstall-stem
p538
Vvmlinuz
p539
ss(Vdescription
p540
g130
NVloongson-3
p541
tp542
(dp543
Vhardware-long
p544
VLoongson 3A or 3B based systems (e.g. from Loongson or Lemote)
p545
sVhardware
p546
VLoongson 3A/3B
p547
ss(Vimage
p548
g52
NVpowerpc64
p549
tp550
(dp551
Vconfigs
p552
(lp553
Vkernelarch-powerpc/config-arch-64
p554
aVkernelarch-powerpc/config-arch-64-be
p555
ass(Vbase
p556
g161
tp557
(dp558
Vkernel-arch
p559
Vpowerpc
p560
sg127
(lp561
g13
ass(Vdescription
p562
g122
tp563
(dp564
Vhardware
p565
V32-bit PowerPC with SPE (instead of AltiVec) with SMP support
p566
ss(Vbase
p567
g187
tp568
(dp569
Vkernel-arch
p570
Vpowerpc
p571
sg127
(lp572
g13
ass(Vbase
p573
g52
tp574
(dp575
Vkernel-arch
p576
Vpowerpc
p577
sg127
(lp578
g13
ass(Vbuild
p579
g82
tp580
(dp581
Vvdso
p582
I01
sVimage-file
p583
Varch/arm/boot/zImage
p584
ss(Vbuild
p585
g30
tp586
(dp587
Vimage-file
p588
Vvmlinux
p589
ss(Vbuild
p590
g168
tp591
(dp592
Vimage-file
p593
Vvmlinux
p594
ss(g11
g145
g13
tp595
(dp596
g16
I01
sg17
(lp597
Vmarvell
p598
aVversatile
p599
ass(g11
g187
g13
tp600
(dp601
g16
I01
sg17
(lp602
Vpowerpc64
p603
ass(Vimage
p604
g200
NVsparc64
p605
tp606
(dp607
Vconfigs
p608
(lp609
Vkernelarch-sparc/config-up
p610
ass(Vimage
p611
g187
NVpowerpc64
p612
tp613
(dp614
Vconfigs
p615
(lp616
Vkernelarch-powerpc/config-arch-64
p617
aVkernelarch-powerpc/config-arch-64-be
p618
ass(Vbase
p619
g105
Vrt
p620
tp621
(dp622
Vflavours
p623
(lp624
Vamd64
p625
ass(Vbase
p626
g22
tp627
(dp628
Vcflags
p629
V-ffreestanding
p630
sg127
(lp631
g13
asVkernel-arch
p632
Vm68k
p633
sVcompiler
p634
Vgcc-4.8
p635
ss(Vdescription
p636
g52
NVpowerpc-smp
p637
tp638
(dp639
Vhardware
p640
Vmultiprocessor 32-bit PowerPC
p641
ss(Vimage
p642
g30
NV4kc-malta
p643
tp644
(dp645
Vconfigs
p646
(lp647
Vkernelarch-mips/config.4kc-malta
p648
ass(Vdescription
p649
g194
NVs390x
p650
tp651
(dp652
Vhardware
p653
VIBM zSeries
p654
ss(Vrelations
p655
g145
tp656
(dp657
Vheaders%gcc-4.9
p658
Vlinux-compiler-gcc-4.9-arm
p659
ss(Vbuild
p660
g369
tp661
(dp662
Vvdso
p663
I01
sVimage-file
p664
Varch/arm64/boot/Image
p665
sVdebug-info
p666
I01
ss(Vimage
p667
g30
NVloongson-2e
p668
tp669
(dp670
Vconfigs
p671
(lp672
Vkernelarch-mips/config.loongson-2e
p673
ass(Vdescription
p674
g12
NVsh7785lcr
p675
tp676
(dp677
Vhardware-long
p678
VRenesas SH7785 reference board
p679
sVhardware
p680
Vsh7785lcr
p681
ss(Vdescription
p682
g138
NV686-pae
p683
tp684
(dp685
Vhardware-long
p686
VPCs with one or more processors supporting PAE
p687
sVhardware
p688
Vmodern PCs
p689
sVparts
p690
(lp691
Vpae
p692
ass(Vbuild
p693
g194
tp694
(dp695
Vvdso
p696
I01
sVimage-file
p697
Varch/s390/boot/image
p698
ss(Vbuild
p699
g378
tp700
(dp701
Vimage-file
p702
Vvmlinux
p703
ss(Vimage
p704
g122
tp705
(dp706
Vsuggests
p707
Vmkvmlinuz
p708
sVinstall-stem
p709
Vvmlinux
p710
ss(Vbase
p711
tp712
(dp713
Vcompiler
p714
Vgcc-4.9
p715
sVfeaturesets
p716
(lp717
Vnone
p718
aVrt
p719
asVarches
p720
(lp721
Valpha
p722
aVamd64
p723
aVarm64
p724
aVarmel
p725
aVarmhf
p726
aVhppa
p727
aVi386
p728
aVm68k
p729
aVmips
p730
aVmipsel
p731
aVmips64
p732
aVmips64el
p733
aVor1k
p734
aVpowerpc
p735
aVpowerpcspe
p736
aVppc64
p737
aVppc64el
p738
aVs390
p739
aVs390x
p740
aVsh4
p741
aVsparc
p742
aVsparc64
p743
aVx32
p744
ass(g11
g161
g13
tp745
(dp746
g16
I01
sg17
(lp747
Vpowerpc64le
p748
ass(Vdescription
p749
g138
Vnone
p750
V686-pae
p751
tp752
(dp753
Vparts
p754
(lp755
Vxen
p756
ass(Vbase
p757
g90
tp758
(dp759
Vkernel-arch
p760
Valpha
p761
sg127
(lp762
g13
ass(Vbase
p763
Vsparc
p764
tp765
(dp766
Vkernel-arch
p767
Vsparc
p768
sVfeaturesets
p769
(lp770
ss(Vdescription
p771
g130
NV5kc-malta
p772
tp773
(dp774
Vhardware-long
p775
VMIPS Malta boards
p776
sVhardware
p777
VMIPS Malta
p778
ss(Vabi
p779
NVrt
p780
tp781
(dp782
Vignore-changes
p783
(lp784
V*
p785
ass(Vbuild
p786
g138
NV686-pae
p787
tp788
(dp789
Vdebug-info
p790
I01
ss(Vdescription
p791
g145
NVversatile
p792
tp793
(dp794
Vhardware-long
p795
VVersatile systems (PB, AB, Qemu)
p796
sVhardware
p797
VVersatile
p798
ss(Vimage
p799
tp800
(dp801
Vinitramfs-generators
p802
(lp803
Vinitramfs-tools
p804
aVinitramfs-fallback
p805
ass(Vbase
p806
g138
tp807
(dp808
Vcompiler
p809
Vgcc-5
p810
sVfeaturesets
p811
(lp812
Vnone
p813
aVrt
p814
asVkernel-arch
p815
Vx86
p816
ss(Vbase
p817
g30
tp818
(dp819
Vkernel-arch
p820
Vmips
p821
sg127
(lp822
g13
ass(Vdescription
p823
g378
NV5kc-malta
p824
tp825
(dp826
Vhardware-long
p827
VMIPS Malta boards (64-bit)
p828
sVhardware
p829
VMIPS Malta (64-bit)
p830
ss(Vbuild
p831
g200
tp832
(dp833
Vimage-file
p834
Varch/sparc/boot/zImage
p835
ss(Vbuild
p836
g194
NVs390x
p837
tp838
(dp839
Vdebug-info
p840
I01
ss(g11
g130
g13
tp841
(dp842
g16
I01
sg17
(lp843
V5kc-malta
p844
aVloongson-3
p845
aVocteon
p846
ass(Vimage
p847
g161
tp848
(dp849
Vsuggests
p850
Vmkvmlinuz
p851
sVinstall-stem
p852
Vvmlinux
p853
sVconfigs
p854
(lp855
ss(Vdescription
p856
Ng780
tp857
(dp858
Vparts
p859
(lp860
Vrt
p861
asVpart-short-rt
p862
VPREEMPT_RT
p863
sVpart-long-rt
p864
VThis kernel includes the PREEMPT_RT realtime patch set.
p865
ss(Vdescription
p866
g30
NVloongson-2f
p867
tp868
(dp869
Vhardware-long
p870
VLemote Loongson 2F systems
p871
sVhardware
p872
VLoongson 2F
p873
ss(Vimage
p874
g130
tp875
(dp876
Vinstall-stem
p877
Vvmlinux
p878
ss(Vimage
p879
g138
NV686
p880
tp881
(dp882
Vrecommends
p883
Vlibc6-i686
p884
sVconfigs
p885
(lp886
Vkernelarch-x86/config-arch-32
p887
aVi386/config.686
p888
ass(Vimage
p889
g62
NVocteon
p890
tp891
(dp892
Vconfigs
p893
(lp894
Vkernelarch-mips/config.octeon
p895
ass(Vdescription
p896
g130
NVocteon
p897
tp898
(dp899
Vhardware-long
p900
VCavium Networks Octeon
p901
sVhardware
p902
VOcteon
p903
ss(Vbase
p904
g138
g750
tp905
(dp906
Vflavours
p907
(lp908
V686
p909
aV686-pae
p910
ass(Vdescription
p911
g30
NVloongson-3
p912
tp913
(dp914
Vhardware-long
p915
VLoongson 3A or 3B based systems (e.g. from Loongson or Lemote)
p916
sVhardware
p917
VLoongson 3A/3B
p918
ss(Vimage
p919
g138
NV686-pae
p920
tp921
(dp922
Vrecommends
p923
Vlibc6-i686
p924
sVconfigs
p925
(lp926
Vkernelarch-x86/config-arch-32
p927
aVi386/config.686-pae
p928
ass(g11
g168
g13
tp929
(dp930
g16
I01
sg17
(lp931
Vparisc
p932
aVparisc64-smp
p933
ass(Vbase
p934
g145
tp935
(dp936
Vkernel-arch
p937
Varm
p938
sg127
(lp939
g13
ass(Vdescription
p940
g138
tp941
(dp942
Vpart-long-pae
p943
VThis kernel requires PAE (Physical Address Extension).\u000aThis feature is supported by the Intel Pentium Pro/II/III/4/4M/D, Xeon,\u000aCore and Atom; AMD Geode NX, Athlon (K7), Duron, Opteron, Sempron,\u000aTurion or Phenom; Transmeta Efficeon; VIA C7; and some other processors.
p944
ss(Vdescription
p945
g90
NValpha-smp
p946
tp947
(dp948
Vhardware-long
p949
VDEC Alpha SMP systems with extended kernel start address (Wildfire, Titan, Marvel)
p950
sVhardware
p951
VAlpha SMP
p952
ss(Vbase
p953
g168
tp954
(dp955
Vkernel-arch
p956
Vparisc
p957
sg127
(lp958
g13
ass(Vbase
p959
g138
Vrt
p960
tp961
(dp962
Vflavours
p963
(lp964
V686-pae
p965
ass(g11
g200
g13
tp966
(dp967
g16
I01
sg17
(lp968
Vsparc64
p969
aVsparc64-smp
p970
ass(Vimage
p971
g168
tp972
(dp973
Vsuggests
p974
Vpalo
p975
sVinstall-stem
p976
Vvmlinux
p977
ss(Vimage
p978
g62
NV5kc-malta
p979
tp980
(dp981
Vconfigs
p982
(lp983
Vkernelarch-mips/config.5kc-malta
p984
ass(Vdescription
p985
g378
NV4kc-malta
p986
tp987
(dp988
Vhardware-long
p989
VMIPS Malta boards
p990
sVhardware
p991
VMIPS Malta
p992
ss(Vdescription
p993
g105
g106
Vamd64
p994
tp995
(dp996
Vparts
p997
(lp998
Vxen
p999
ass(g11
g122
g13
tp1000
(dp1001
g16
I01
sg17
(lp1002
Vpowerpcspe
p1003
ass(Vdescription
p1004
g30
NVloongson-2e
p1005
tp1006
(dp1007
Vhardware-long
p1008
VLemote Loongson 2E systems
p1009
sVhardware
p1010
VLoongson 2E
p1011
ss(Vdescription
p1012
g369
NVarm64
p1013
tp1014
(dp1015
Vhardware
p1016
V64-bit ARMv8 machines
p1017
ss(Vbase
p1018
Vs390
p1019
tp1020
(dp1021
Vkernel-arch
p1022
Vs390
p1023
sVfeaturesets
p1024
(lp1025
ss(Vbuild
p1026
g105
tp1027
(dp1028
Vvdso
p1029
I01
sVimage-file
p1030
Varch/x86/boot/bzImage
p1031
sVdebug-info
p1032
I01
ss(Vdescription
p1033
g168
NVparisc64-smp
p1034
tp1035
(dp1036
Vhardware-long
p1037
VHP PA-RISC 64-bit SMP systems with support for more than 4 GB RAM
p1038
sVhardware
p1039
Vmultiprocessor 64-bit PA-RISC
p1040
ss(Vbase
p1041
g200
tp1042
(dp1043
Vkernel-arch
p1044
Vsparc
p1045
sg127
(lp1046
g13
ass(Vimage
p1047
g369
tp1048
(dp1049
Vinstall-stem
p1050
Vvmlinuz
p1051
ss(Vdescription
p1052
g138
NV686
p1053
tp1054
(dp1055
Vhardware-long
p1056
VPCs with one or more processors not supporting PAE
p1057
sVhardware
p1058
Volder PCs
p1059
ss(Vimage
p1060
g130
NVocteon
p1061
tp1062
(dp1063
Vconfigs
p1064
(lp1065
Vkernelarch-mips/config.octeon
p1066
ass(Vimage
p1067
g161
NVpowerpc64le
p1068
tp1069
(dp1070
Vconfigs
p1071
(lp1072
Vkernelarch-powerpc/config-arch-64
p1073
aVkernelarch-powerpc/config-arch-64-le
p1074
ass(Vbase
p1075
g168
NVparisc64-smp
p1076
tp1077
(dp1078
Vcflags
p1079
V-fno-cse-follow-jumps
p1080
sVoverride-host-type
p1081
Vhppa64-linux-gnu
p1082
ss(Vbase
p1083
g105
tp1084
(dp1085
Vcompiler
p1086
Vgcc-5
p1087
sVfeaturesets
p1088
(lp1089
Vnone
p1090
aVrt
p1091
asVkernel-arch
p1092
Vx86
p1093
ss(Vimage
p1094
g378
NV5kc-malta
p1095
tp1096
(dp1097
Vconfigs
p1098
(lp1099
Vkernelarch-mips/config.5kc-malta
p1100
ass(Vversion
p1101
tp1102
(dp1103
Vsource
p1104
V4.4.2-1kali1
p1105
sVabiname_base
p1106
V4.4.0
p1107
sVupstream
p1108
V4.4
p1109
sVabiname
p1110
V4.4.0-kali1
p1111
ss(Vbase
p1112
NVrt
p1113
tp1114
(dp1115
Venabled
p1116
I01
ss(Vbase
p1117
g62
tp1118
(dp1119
Vkernel-arch
p1120
Vmips
p1121
sg127
(lp1122
g13
ass(Vbase
p1123
g194
tp1124
(dp1125
Vkernel-arch
p1126
Vs390
p1127
sg127
(lp1128
g13
ass(Vimage
p1129
g194
NVs390x
p1130
tp1131
(dp1132
Vconfigs
p1133
(lp1134
Vkernelarch-s390/config-arch-64
p1135
ass(g11
g22
g13
tp1136
(dp1137
g16
I01
sg17
(lp1138
Vm68k
p1139
ass(Vdescription
p1140
g62
NV5kc-malta
p1141
tp1142
(dp1143
Vhardware-long
p1144
VMIPS Malta boards
p1145
sVhardware
p1146
VMIPS Malta
p1147
ss(Vimage
p1148
g82
NVarmmp-lpae
p1149
tp1150
(dp1151
Vconfigs
p1152
(lp1153
Varmhf/config.armmp
p1154
aVarmhf/config.lpae
p1155
ass(Vbase
p1156
g105
g106
tp1157
(dp1158
Vflavours
p1159
(lp1160
Vamd64
p1161
ass(g11
g378
g13
tp1162
(dp1163
g16
I01
sg17
(lp1164
V4kc-malta
p1165
aV5kc-malta
p1166
aVocteon
p1167
ass(Vimage
p1168
g369
NVarm64
p1169
tp1170
(dp1171
s(Vdescription
p1172
g200
NVsparc64
p1173
tp1174
(dp1175
Vhardware
p1176
Vuniprocessor 64-bit UltraSPARC
p1177
ss(Vimage
p1178
g130
NVloongson-3
p1179
tp1180
(dp1181
Vconfigs
p1182
(lp1183
Vkernelarch-mips/config.loongson-3
p1184
ass(Vimage
p1185
g187
tp1186
(dp1187
Vsuggests
p1188
Vmkvmlinuz
p1189
sVinstall-stem
p1190
Vvmlinux
p1191
sVconfigs
p1192
(lp1193
ss(g11
g194
g13
tp1194
(dp1195
g16
I01
sg17
(lp1196
Vs390x
p1197
ass(Vimage
p1198
g378
NVocteon
p1199
tp1200
(dp1201
Vconfigs
p1202
(lp1203
Vkernelarch-mips/config.octeon
p1204
ass(Vimage
p1205
g378
NV4kc-malta
p1206
tp1207
(dp1208
Vconfigs
p1209
(lp1210
Vkernelarch-mips/config.4kc-malta
p1211
ass(Vdescription
p1212
g22
NVm68k
p1213
tp1214
(dp1215
Vhardware
p1216
VMotorola MC68020+ family
p1217
sstp1218
Rp1219
.