ccopy_reg
_reconstructor
p0
(cdebian_linux.config
ConfigCore
p1
c__builtin__
dict
p2
(dp3
(Vdescription
p4
Vpowerpc
p5
NVpowerpc
p6
tp7
(dp8
Vhardware
p9
Vuniprocessor 32-bit PowerPC
p10
ss(Vimage
p11
Vmipsel
p12
NV5kc-malta
p13
tp14
(dp15
Vconfigs
p16
(lp17
Vkernelarch-mips/config.5kc-malta
p18
ass(Vimage
p19
Vsh4
p20
tp21
(dp22
Vsuggests
p23
Vfdutils
p24
sVinstall-stem
p25
Vvmlinuz
p26
ss(Vimage
p27
Vppc64
p28
NVpowerpc64
p29
tp30
(dp31
Vconfigs
p32
(lp33
Vkernelarch-powerpc/config-arch-64
p34
aVkernelarch-powerpc/config-arch-64-be
p35
ass(Vbase
p36
Vi386
p37
Vnone
p38
tp39
(dp40
Vflavours
p41
(lp42
V686
p43
aV686-pae
p44
ass(Vdescription
p45
Vhppa
p46
NVparisc64-smp
p47
tp48
(dp49
Vhardware-long
p50
VHP PA-RISC 64-bit SMP systems with support for more than 4 GB RAM
p51
sVhardware
p52
Vmultiprocessor 64-bit PA-RISC
p53
ss(Vbase
p54
Vsparc64
p55
tp56
(dp57
Vfeaturesets
p58
(lp59
Vnone
p60
asVkernel-arch
p61
Vsparc
p62
ss(Vimage
p63
g37
NV686-pae
p64
tp65
(dp66
Vconfigs
p67
(lp68
Vkernelarch-x86/config-arch-32
p69
aVi386/config.686-pae
p70
asVrecommends
p71
Vlibc6-i686
p72
ss(Vdescription
p73
tp74
(dp75
Vpart-long-xen
p76
VThis kernel also runs on a Xen hypervisor.\u000aIt supports both privileged (dom0) and unprivileged (domU) operation.
p77
sVpart-long-up
p78
VThis kernel is not suitable for SMP (multi-processor,\u000amulti-core or hyper-threaded) systems.
p79
ss(Vbase
p80
Vm68k
p81
g60
tp82
(dp83
Vimplicit-flavour
p84
I01
sVflavours
p85
(lp86
Vm68k
p87
ass(Vdescription
p88
g81
NVm68k
p89
tp90
(dp91
Vhardware
p92
VMotorola MC68020+ family
p93
ss(Vimage
p94
g12
NVloongson-3
p95
tp96
(dp97
Vconfigs
p98
(lp99
Vkernelarch-mips/config.loongson-3
p100
ass(Vbuild
p101
Vpowerpcspe
p102
tp103
(dp104
Vimage-file
p105
Vvmlinux
p106
sVvdso
p107
I01
ss(g80
g5
g60
tp108
(dp109
g84
I01
sg85
(lp110
Vpowerpc
p111
aVpowerpc-smp
p112
aVpowerpc64
p113
ass(Vrelations
p114
tp115
(dp116
Vgcc-5
p117
Vgcc-5 <!stage1>
p118
sVinitramfs-fallback
p119
Vlinux-initramfs-tool
p120
sVgcc-4.9
p121
Vgcc-4.9 <!stage1>
p122
sVinitramfs-tools
p123
Vinitramfs-tools (>= 0.110~)
p124
sVgcc-4.8
p125
Vgcc-4.8 <!stage1>
p126
ss(Vrelations
p127
Vs390x
p128
tp129
(dp130
Vheaders%gcc-4.9
p131
Vlinux-compiler-gcc-4.9-s390
p132
ss(Vbase
p133
Vmips64el
p134
tp135
(dp136
g58
(lp137
g60
asVkernel-arch
p138
Vmips
p139
ss(Vrelations
p140
Varmel
p141
tp142
(dp143
Vheaders%gcc-4.9
p144
Vlinux-compiler-gcc-4.9-arm
p145
ss(Vimage
p146
g55
NVsparc64-smp
p147
tp148
(dp149
Vconfigs
p150
(lp151
Vkernelarch-sparc/config-smp
p152
ass(Vimage
p153
Varm64
p154
NVarm64
p155
tp156
(dp157
s(Vbase
p158
g12
tp159
(dp160
g58
(lp161
g60
asVkernel-arch
p162
Vmips
p163
ss(Vimage
p164
Vamd64
p165
NVamd64
p166
tp167
(dp168
Vconfigs
p169
(lp170
Vkernelarch-x86/config-arch-64
p171
ass(Vimage
p172
g141
tp173
(dp174
Vconfigs
p175
(lp176
Vkernelarch-arm/config
p177
aVarmel/config
p178
asVsuggests
p179
Vfdutils
p180
sVinstall-stem
p181
Vvmlinuz
p182
ss(Vimage
p183
g12
NVloongson-2e
p184
tp185
(dp186
Vconfigs
p187
(lp188
Vkernelarch-mips/config.loongson-2e
p189
ass(Vbase
p190
g128
tp191
(dp192
g58
(lp193
g60
asVkernel-arch
p194
Vs390
p195
ss(Vimage
p196
g128
tp197
(dp198
Vconfigs
p199
(lp200
sVbootloaders
p201
(lp202
Vs390-tools
p203
asVinstall-stem
p204
Vvmlinuz
p205
ss(Vbase
p206
g20
tp207
(dp208
g58
(lp209
g60
asVkernel-arch
p210
Vsh
p211
ss(Vdescription
p212
Vmips
p213
NVocteon
p214
tp215
(dp216
Vhardware-long
p217
VCavium Networks Octeon
p218
sVhardware
p219
VOcteon
p220
ss(Vdescription
p221
g28
NVpowerpc64
p222
tp223
(dp224
Vhardware
p225
V64-bit PowerPC
p226
ss(Vbuild
p227
Vmips64
p228
tp229
(dp230
Vimage-file
p231
Vvmlinux
p232
ss(g80
g141
g60
tp233
(dp234
g84
I01
sg85
(lp235
Vkirkwood
p236
aVorion5x
p237
aVversatile
p238
ass(Vbase
p239
g46
tp240
(dp241
g58
(lp242
g60
asVkernel-arch
p243
Vparisc
p244
ss(Vbase
p245
g5
tp246
(dp247
g58
(lp248
g60
asVkernel-arch
p249
Vpowerpc
p250
ss(Vrelations
p251
g46
tp252
(dp253
Vgcc-4.9
p254
Vgcc-4.9 <!stage1>, binutils-hppa64 <!stage1>, gcc-4.9-hppa64 <!stage1>
p255
ss(Vbase
p256
NVrt
p257
tp258
(dp259
Venabled
p260
I00
ss(Vimage
p261
g128
NVs390x
p262
tp263
(dp264
Vconfigs
p265
(lp266
Vkernelarch-s390/config-arch-64
p267
ass(Vimage
p268
Varmhf
p269
tp270
(dp271
Vconfigs
p272
(lp273
Vkernelarch-arm/config
p274
asVsuggests
p275
Vfdutils
p276
sVinstall-stem
p277
Vvmlinuz
p278
ss(Vxen
p279
g165
Vnone
p280
Vamd64
p281
tp282
(dp283
Vflavours
p284
(lp285
Vamd64
p286
ass(Vimage
p287
g165
tp288
(dp289
Vconfigs
p290
(lp291
sVbootloaders
p292
(lp293
Vgrub-pc
p294
aVgrub-efi
p295
aVextlinux
p296
asVbreaks
p297
Vxserver-xorg-input-vmmouse (<< 1:13.0.99)
p298
sVinstall-stem
p299
Vvmlinuz
p300
ss(Vdescription
p301
g213
NV5kc-malta
p302
tp303
(dp304
Vhardware-long
p305
VMIPS Malta boards (64-bit)
p306
sVhardware
p307
VMIPS Malta (64-bit)
p308
ss(Vbase
p309
Vs390
p310
tp311
(dp312
Vfeaturesets
p313
(lp314
sVkernel-arch
p315
Vs390
p316
ss(Vbase
p317
g28
tp318
(dp319
g58
(lp320
g60
asVkernel-arch
p321
Vpowerpc
p322
ss(Vimage
p323
g228
tp324
(dp325
Vinstall-stem
p326
Vvmlinux
p327
ss(Vbuild
p328
g154
tp329
(dp330
Vimage-file
p331
Varch/arm64/boot/Image
p332
sVdebug-info
p333
I01
sVvdso
p334
I01
ss(Vbuild
p335
g213
tp336
(dp337
Vimage-file
p338
Vvmlinux
p339
ss(Vdescription
p340
g134
NV5kc-malta
p341
tp342
(dp343
Vhardware-long
p344
VMIPS Malta boards
p345
sVhardware
p346
VMIPS Malta
p347
ss(g80
g213
g60
tp348
(dp349
g84
I01
sg85
(lp350
V4kc-malta
p351
aV5kc-malta
p352
aVocteon
p353
ass(Vimage
p354
tp355
(dp356
Vinitramfs-generators
p357
(lp358
Vinitramfs-tools
p359
aVinitramfs-fallback
p360
asVtype
p361
Vplain
p362
ss(g80
g20
g60
tp363
(dp364
g84
I01
sg85
(lp365
Vsh7751r
p366
aVsh7785lcr
p367
ass(Vbuild
p368
g37
NV686-pae
p369
tp370
(dp371
Vdebug-info
p372
I01
ss(Vimage
p373
g141
NVorion5x
p374
tp375
(dp376
Vconfigs
p377
(lp378
Varmel/config-reduced
p379
aVarmel/config.orion5x
p380
asVrecommends
p381
Vu-boot-tools
p382
sVcheck-size-with-dtb
p383
I01
sVcheck-size
p384
L2097080L
ss(Vdescription
p385
g269
NVarmmp-lpae
p386
tp387
(dp388
Vhardware-long
p389
VARMv7 multiplatform kernel supporting LPAE. See\u000ahttps://wiki.debian.org/DebianKernel/ARMMP for details of supported\u000aplatforms.
p390
sVhardware
p391
VARMv7 multiplatform compatible SoCs supporting LPAE
p392
ss(Vimage
p393
g12
tp394
(dp395
Vinstall-stem
p396
Vvmlinux
p397
ss(Vbase
p398
Vsparc
p399
tp400
(dp401
Vfeaturesets
p402
(lp403
sVkernel-arch
p404
Vsparc
p405
ss(Vimage
p406
g12
NV4kc-malta
p407
tp408
(dp409
Vconfigs
p410
(lp411
Vkernelarch-mips/config.4kc-malta
p412
ass(Vbuild
p413
g12
tp414
(dp415
Vimage-file
p416
Vvmlinux
p417
ss(Vdescription
p418
g141
NVversatile
p419
tp420
(dp421
Vhardware-long
p422
VVersatile systems (PB, AB, Qemu)
p423
sVhardware
p424
VVersatile
p425
ss(Vdescription
p426
g228
NVocteon
p427
tp428
(dp429
Vhardware-long
p430
VCavium Networks Octeon
p431
sVhardware
p432
VOcteon
p433
ss(Vimage
p434
g37
tp435
(dp436
Vconfigs
p437
(lp438
sVbootloaders
p439
(lp440
Vgrub-pc
p441
aVextlinux
p442
asVbreaks
p443
Vxserver-xorg-input-vmmouse (<< 1:13.0.99)
p444
sVinstall-stem
p445
Vvmlinuz
p446
ss(Vdescription
p447
g20
NVsh7751r
p448
tp449
(dp450
Vhardware-long
p451
VRenesas SH7751R R2D plus board
p452
sVhardware
p453
Vsh7751r
p454
ss(Vimage
p455
g141
NVkirkwood
p456
tp457
(dp458
Vconfigs
p459
(lp460
Varmel/config-reduced
p461
aVarmel/config.kirkwood
p462
asVrecommends
p463
Vu-boot-tools
p464
sVbreaks
p465
Vflash-kernel (<< 3.37~)
p466
sVcheck-size-with-dtb
p467
I01
sVcheck-size
p468
L2097080L
ss(g80
g128
g60
tp469
(dp470
g84
I01
sg85
(lp471
Vs390x
p472
ass(Vdescription
p473
g12
NV5kc-malta
p474
tp475
(dp476
Vhardware-long
p477
VMIPS Malta boards (64-bit)
p478
sVhardware
p479
VMIPS Malta (64-bit)
p480
ss(Vimage
p481
g269
NVarmmp-lpae
p482
tp483
(dp484
Vconfigs
p485
(lp486
Varmhf/config.armmp
p487
aVarmhf/config.lpae
p488
ass(Vimage
p489
g213
NV4kc-malta
p490
tp491
(dp492
Vconfigs
p493
(lp494
Vkernelarch-mips/config.4kc-malta
p495
ass(Vdescription
p496
g12
NVloongson-2f
p497
tp498
(dp499
Vhardware-long
p500
VLemote Loongson 2F systems
p501
sVhardware
p502
VLoongson 2F
p503
ss(Vimage
p504
g5
NVpowerpc64
p505
tp506
(dp507
Vconfigs
p508
(lp509
Vkernelarch-powerpc/config-arch-64
p510
aVkernelarch-powerpc/config-arch-64-be
p511
ass(Vimage
p512
g228
NVocteon
p513
tp514
(dp515
Vconfigs
p516
(lp517
Vkernelarch-mips/config.octeon
p518
ass(Vimage
p519
g213
NV5kc-malta
p520
tp521
(dp522
Vconfigs
p523
(lp524
Vkernelarch-mips/config.5kc-malta
p525
ass(Vbuild
p526
g165
tp527
(dp528
Vimage-file
p529
Varch/x86/boot/bzImage
p530
sVdebug-info
p531
I01
sVvdso
p532
I01
ss(Vbase
p533
g37
tp534
(dp535
Vkernel-arch
p536
Vx86
p537
sVcompiler
p538
Vgcc-5
p539
sVfeaturesets
p540
(lp541
Vnone
p542
aVrt
p543
ass(Vdescription
p544
g37
NV686-pae
p545
tp546
(dp547
Vhardware-long
p548
VPCs with one or more processors supporting PAE
p549
sVparts
p550
(lp551
Vpae
p552
asVhardware
p553
Vmodern PCs
p554
ss(Vbuild
p555
Vppc64el
p556
tp557
(dp558
Vimage-file
p559
Vvmlinux
p560
sVvdso
p561
I01
ss(Vbuild
p562
g55
tp563
(dp564
Vimage-file
p565
Varch/sparc/boot/zImage
p566
ss(Vbase
p567
g269
tp568
(dp569
g58
(lp570
g60
asVkernel-arch
p571
Varm
p572
ss(Vbase
p573
g102
tp574
(dp575
g58
(lp576
g60
asVkernel-arch
p577
Vpowerpc
p578
ss(Vimage
p579
g134
tp580
(dp581
Vinstall-stem
p582
Vvmlinux
p583
ss(g80
g102
g60
tp584
(dp585
g84
I01
sg85
(lp586
Vpowerpcspe
p587
ass(Vimage
p588
g213
tp589
(dp590
Vinstall-stem
p591
Vvmlinux
p592
ss(Vimage
p593
g20
NVsh7785lcr
p594
tp595
(dp596
Vrecommends
p597
Vu-boot-tools
p598
sVcheck-size
p599
L4194304L
ss(Vversion
p600
tp601
(dp602
Vsource
p603
V4.3.5-1
p604
sVabiname
p605
V4.3.0-1
p606
sVupstream
p607
V4.3
p608
sVabiname_base
p609
V4.3.0
p610
ss(Vbuild
p611
g134
tp612
(dp613
Vimage-file
p614
Vvmlinux
p615
ss(Vdescription
p616
g134
NVloongson-3
p617
tp618
(dp619
Vhardware-long
p620
VLoongson 3A or 3B based systems (e.g. from Loongson or Lemote)
p621
sVhardware
p622
VLoongson 3A/3B
p623
ss(g80
g28
g60
tp624
(dp625
g84
I01
sg85
(lp626
Vpowerpc64
p627
ass(Vbuild
p628
Valpha
p629
tp630
(dp631
Vimage-file
p632
Varch/alpha/boot/vmlinux.gz
p633
ss(Vimage
p634
g556
NVpowerpc64le
p635
tp636
(dp637
Vconfigs
p638
(lp639
Vkernelarch-powerpc/config-arch-64
p640
aVkernelarch-powerpc/config-arch-64-le
p641
ass(Vdescription
p642
g128
NVs390x
p643
tp644
(dp645
Vhardware
p646
VIBM zSeries
p647
ss(Vdescription
p648
g12
NVloongson-2e
p649
tp650
(dp651
Vhardware-long
p652
VLemote Loongson 2E systems
p653
sVhardware
p654
VLoongson 2E
p655
ss(Vimage
p656
g12
NVloongson-2f
p657
tp658
(dp659
Vconfigs
p660
(lp661
Vkernelarch-mips/config.loongson-2f
p662
asVrecommends
p663
Vlibc6-loongson2f
p664
ss(Vimage
p665
g55
NVsparc64
p666
tp667
(dp668
Vconfigs
p669
(lp670
Vkernelarch-sparc/config-up
p671
ass(Vbase
p672
g165
Vrt
p673
tp674
(dp675
Vflavours
p676
(lp677
Vamd64
p678
ass(Vdescription
p679
g269
NVarmmp
p680
tp681
(dp682
Vhardware-long
p683
VARMv7 multiplatform kernel. See\u000ahttps://wiki.debian.org/DebianKernel/ARMMP for details of supported\u000aplatforms
p684
sVhardware
p685
VARMv7 multiplatform compatible SoCs
p686
ss(Vbuild
p687
g81
tp688
(dp689
Vimage-file
p690
Vvmlinux.gz
p691
ss(Vdescription
p692
g165
NVamd64
p693
tp694
(dp695
Vhardware-long
p696
VPCs with AMD64, Intel 64 or VIA Nano processors
p697
sVhardware
p698
V64-bit PCs
p699
ss(Vimage
p700
g228
NV5kc-malta
p701
tp702
(dp703
Vconfigs
p704
(lp705
Vkernelarch-mips/config.5kc-malta
p706
ass(Vdescription
p707
g55
NVsparc64-smp
p708
tp709
(dp710
Vhardware
p711
Vmultiprocessor 64-bit UltraSPARC
p712
ss(Vbuild
p713
g128
tp714
(dp715
Vimage-file
p716
Varch/s390/boot/image
p717
sVvdso
p718
I01
ss(Vbase
p719
g141
tp720
(dp721
g58
(lp722
g60
asVkernel-arch
p723
Varm
p724
ss(Vbase
p725
g37
Vrt
p726
tp727
(dp728
Vflavours
p729
(lp730
V686-pae
p731
ass(Vdescription
p732
g228
NV5kc-malta
p733
tp734
(dp735
Vhardware-long
p736
VMIPS Malta boards
p737
sVhardware
p738
VMIPS Malta
p739
ss(Vdescription
p740
g629
NValpha-generic
p741
tp742
(dp743
Vhardware-long
p744
VDEC Alpha systems with extended kernel start address (Wildfire, Titan, Marvel)
p745
sVhardware
p746
VAlpha
p747
ss(Vdescription
p748
g12
NVloongson-3
p749
tp750
(dp751
Vhardware-long
p752
VLoongson 3A or 3B based systems (e.g. from Loongson or Lemote)
p753
sVhardware
p754
VLoongson 3A/3B
p755
ss(Vdescription
p756
g154
NVarm64
p757
tp758
(dp759
Vhardware
p760
V64-bit ARMv8 machines
p761
ss(g80
g629
g60
tp762
(dp763
g84
I01
sg85
(lp764
Valpha-generic
p765
aValpha-smp
p766
ass(Vimage
p767
g28
tp768
(dp769
Vconfigs
p770
(lp771
sVsuggests
p772
Vmkvmlinuz
p773
sVinstall-stem
p774
Vvmlinux
p775
ss(Vdescription
p776
g37
g38
V686-pae
p777
tp778
(dp779
Vparts
p780
(lp781
Vxen
p782
ass(Vrelations
p783
g269
tp784
(dp785
Vheaders%gcc-4.9
p786
Vlinux-compiler-gcc-4.9-arm
p787
ss(g80
g556
g60
tp788
(dp789
g84
I01
sg85
(lp790
Vpowerpc64le
p791
ass(Vbuild
p792
g28
tp793
(dp794
Vimage-file
p795
Vvmlinux
p796
sVvdso
p797
I01
ss(g80
g12
g60
tp798
(dp799
g84
I01
sg85
(lp800
V4kc-malta
p801
aV5kc-malta
p802
aVloongson-2e
p803
aVloongson-2f
p804
aVloongson-3
p805
ass(Vimage
p806
g55
tp807
(dp808
Vconfigs
p809
(lp810
sVsuggests
p811
Vsilo, fdutils
p812
sVinstall-stem
p813
Vvmlinuz
p814
ss(Vimage
p815
g5
tp816
(dp817
Vconfigs
p818
(lp819
sVsuggests
p820
Vmkvmlinuz
p821
sVinstall-stem
p822
Vvmlinux
p823
ss(Vdescription
p824
NVrt
p825
tp826
(dp827
Vpart-long-rt
p828
VThis kernel includes the PREEMPT_RT realtime patch set.
p829
sVparts
p830
(lp831
Vrt
p832
asVpart-short-rt
p833
VPREEMPT_RT
p834
ss(Vimage
p835
g46
tp836
(dp837
Vsuggests
p838
Vpalo
p839
sVinstall-stem
p840
Vvmlinux
p841
ss(g80
g55
g60
tp842
(dp843
g84
I01
sg85
(lp844
Vsparc64
p845
aVsparc64-smp
p846
ass(Vbuild
p847
g5
tp848
(dp849
Vimage-file
p850
Vvmlinux
p851
sVvdso
p852
I01
ss(Vbase
p853
g81
tp854
(dp855
Vcflags
p856
V-ffreestanding
p857
sVkernel-arch
p858
Vm68k
p859
sg58
(lp860
g60
asVcompiler
p861
Vgcc-4.8
p862
ss(Vdescription
p863
g556
NVpowerpc64le
p864
tp865
(dp866
Vhardware
p867
VLittle-endian 64-bit PowerPC
p868
ss(Vimage
p869
g154
tp870
(dp871
Vinstall-stem
p872
Vvmlinuz
p873
ss(Vdescription
p874
g37
NV686
p875
tp876
(dp877
Vhardware-long
p878
VPCs with one or more processors not supporting PAE
p879
sVhardware
p880
Volder PCs
p881
ss(Vimage
p882
g134
NVloongson-3
p883
tp884
(dp885
Vconfigs
p886
(lp887
Vkernelarch-mips/config.loongson-3
p888
ass(g80
g228
g60
tp889
(dp890
g84
I01
sg85
(lp891
V5kc-malta
p892
aVocteon
p893
ass(Vdescription
p894
g213
NV4kc-malta
p895
tp896
(dp897
Vhardware-long
p898
VMIPS Malta boards
p899
sVhardware
p900
VMIPS Malta
p901
ss(Vimage
p902
g37
NV686
p903
tp904
(dp905
Vconfigs
p906
(lp907
Vkernelarch-x86/config-arch-32
p908
aVi386/config.686
p909
asVrecommends
p910
Vlibc6-i686
p911
ss(Vdescription
p912
g141
NVkirkwood
p913
tp914
(dp915
Vhardware-long
p916
VMarvell Kirkwood based systems (SheevaPlug, QNAP TS-119/TS-219, etc)
p917
sVhardware
p918
VMarvell Kirkwood
p919
ss(Vbuild
p920
g37
tp921
(dp922
Vimage-file
p923
Varch/x86/boot/bzImage
p924
sVvdso
p925
I01
ss(Vbase
p926
tp927
(dp928
Varches
p929
(lp930
Valpha
p931
aVamd64
p932
aVarm64
p933
aVarmel
p934
aVarmhf
p935
aVhppa
p936
aVi386
p937
aVm68k
p938
aVmips
p939
aVmipsel
p940
aVmips64
p941
aVmips64el
p942
aVor1k
p943
aVpowerpc
p944
aVpowerpcspe
p945
aVppc64
p946
aVppc64el
p947
aVs390
p948
aVs390x
p949
aVsh4
p950
aVsparc
p951
aVsparc64
p952
aVx32
p953
asVcompiler
p954
Vgcc-4.9
p955
sVfeaturesets
p956
(lp957
Vnone
p958
aVrt
p959
ass(Vbuild
p960
g46
tp961
(dp962
Vimage-file
p963
Vvmlinux
p964
ss(Vimage
p965
g5
NVpowerpc-smp
p966
tp967
(dp968
Vconfigs
p969
(lp970
Vpowerpc/config.powerpc
p971
aVpowerpc/config.powerpc-smp
p972
ass(Vdescription
p973
g629
NValpha-smp
p974
tp975
(dp976
Vhardware-long
p977
VDEC Alpha SMP systems with extended kernel start address (Wildfire, Titan, Marvel)
p978
sVhardware
p979
VAlpha SMP
p980
ss(Vdescription
p981
g5
NVpowerpc-smp
p982
tp983
(dp984
Vhardware
p985
Vmultiprocessor 32-bit PowerPC
p986
ss(Vimage
p987
g134
NVocteon
p988
tp989
(dp990
Vconfigs
p991
(lp992
Vkernelarch-mips/config.octeon
p993
ass(Vimage
p994
g213
NVocteon
p995
tp996
(dp997
Vconfigs
p998
(lp999
Vkernelarch-mips/config.octeon
p1000
ass(Vimage
p1001
g102
tp1002
(dp1003
Vsuggests
p1004
Vmkvmlinuz
p1005
sVinstall-stem
p1006
Vvmlinux
p1007
ss(Vdescription
p1008
g46
NVparisc
p1009
tp1010
(dp1011
Vhardware-long
p1012
VHP PA-RISC 32-bit systems with max 4 GB RAM
p1013
sVhardware
p1014
V32-bit PA-RISC
p1015
ss(Vbuild
p1016
g269
tp1017
(dp1018
Vimage-file
p1019
Varch/arm/boot/zImage
p1020
sVvdso
p1021
I01
ss(Vabi
p1022
Ng825
tp1023
(dp1024
Vignore-changes
p1025
(lp1026
V*
p1027
ass(Vbase
p1028
g629
tp1029
(dp1030
g58
(lp1031
g60
asVkernel-arch
p1032
Valpha
p1033
ss(Vimage
p1034
g81
tp1035
(dp1036
Vsuggests
p1037
Vvmelilo, fdutils
p1038
sVinstall-stem
p1039
Vvmlinuz
p1040
ss(Vbase
p1041
g165
tp1042
(dp1043
Vkernel-arch
p1044
Vx86
p1045
sVcompiler
p1046
Vgcc-5
p1047
sVfeaturesets
p1048
(lp1049
Vnone
p1050
aVrt
p1051
ass(Vimage
p1052
g556
tp1053
(dp1054
Vconfigs
p1055
(lp1056
sVsuggests
p1057
Vmkvmlinuz
p1058
sVinstall-stem
p1059
Vvmlinux
p1060
ss(Vbase
p1061
g154
Vnone
p1062
tp1063
(dp1064
Vflavours
p1065
(lp1066
Varm64
p1067
ass(Vbase
p1068
g556
tp1069
(dp1070
g58
(lp1071
g60
asVkernel-arch
p1072
Vpowerpc
p1073
ss(Vdescription
p1074
g5
NVpowerpc64
p1075
tp1076
(dp1077
Vhardware
p1078
V64-bit PowerPC
p1079
ss(Vbase
p1080
g213
tp1081
(dp1082
g58
(lp1083
g60
asVkernel-arch
p1084
Vmips
p1085
ss(g80
g46
g60
tp1086
(dp1087
g84
I01
sg85
(lp1088
Vparisc
p1089
aVparisc64-smp
p1090
ass(Vabi
p1091
tp1092
(dp1093
Vignore-changes
p1094
(lp1095
Vmodule:net/dccp/dccp
p1096
aVfl6_*
p1097
aVinet_sk_diag_fill
p1098
aVip6_append_data
p1099
aVip6_datagram_send_ctl
p1100
aVip6_xmit
p1101
aVipv6_dup_options
p1102
aVipv6_fixup_options
p1103
aVipv6_push_nfrag_opts
p1104
aVtcp_cong_avoid_ai
p1105
aVtcp_slow_start
p1106
aVpin_is_valid
p1107
aVpinctrl_*
p1108
aVmodule:drivers/net/ethernet/mellanox/**
p1109
aVpv_info
p1110
asVabiname
p1111
V1
p1112
ss(Vdescription
p1113
g12
NV4kc-malta
p1114
tp1115
(dp1116
Vhardware-long
p1117
VMIPS Malta boards
p1118
sVhardware
p1119
VMIPS Malta
p1120
ss(Vdescription
p1121
g102
tp1122
(dp1123
Vhardware
p1124
V32-bit PowerPC with SPE (instead of AltiVec) with SMP support
p1125
ss(Vrelations
p1126
g165
tp1127
(dp1128
Vheaders%gcc-5
p1129
Vlinux-compiler-gcc-5-x86
p1130
ss(Vdescription
p1131
g55
NVsparc64
p1132
tp1133
(dp1134
Vhardware
p1135
Vuniprocessor 64-bit UltraSPARC
p1136
ss(Vbase
p1137
Vor1k
p1138
tp1139
(dp1140
Vfeaturesets
p1141
(lp1142
sVkernel-arch
p1143
Vopenrisc
p1144
ss(Vdescription
p1145
g20
NVsh7785lcr
p1146
tp1147
(dp1148
Vhardware-long
p1149
VRenesas SH7785 reference board
p1150
sVhardware
p1151
Vsh7785lcr
p1152
ss(Vimage
p1153
g134
NV5kc-malta
p1154
tp1155
(dp1156
Vconfigs
p1157
(lp1158
Vkernelarch-mips/config.5kc-malta
p1159
ass(Vrelations
p1160
g37
tp1161
(dp1162
Vheaders%gcc-5
p1163
Vlinux-compiler-gcc-5-x86
p1164
ss(Vimage
p1165
g629
tp1166
(dp1167
Vsuggests
p1168
Vaboot, fdutils
p1169
sVinstall-stem
p1170
Vvmlinuz
p1171
ss(Vbase
p1172
g46
NVparisc64-smp
p1173
tp1174
(dp1175
Vcflags
p1176
V-fno-cse-follow-jumps
p1177
sVoverride-host-type
p1178
Vhppa64-linux-gnu
p1179
ss(Vbase
p1180
g154
tp1181
(dp1182
Vfeaturesets
p1183
(lp1184
Vnone
p1185
asVkernel-arch
p1186
Varm64
p1187
ss(g80
g269
g60
tp1188
(dp1189
g84
I01
sg85
(lp1190
Varmmp
p1191
aVarmmp-lpae
p1192
ass(Vbuild
p1193
g128
NVs390x
p1194
tp1195
(dp1196
Vdebug-info
p1197
I01
ss(Vdescription
p1198
g165
g280
Vamd64
p1199
tp1200
(dp1201
Vparts
p1202
(lp1203
Vxen
p1204
ass(Vbase
p1205
Vx32
p1206
tp1207
(dp1208
Vfeaturesets
p1209
(lp1210
sVkernel-arch
p1211
Vx86
p1212
ss(Vbuild
p1213
g141
tp1214
(dp1215
Vimage-file
p1216
Varch/arm/boot/zImage
p1217
ss(Vbase
p1218
g165
g280
tp1219
(dp1220
Vflavours
p1221
(lp1222
Vamd64
p1223
ass(Vdescription
p1224
g134
NVocteon
p1225
tp1226
(dp1227
Vhardware-long
p1228
VCavium Networks Octeon
p1229
sVhardware
p1230
VOcteon
p1231
ss(Vdescription
p1232
g37
tp1233
(dp1234
Vpart-long-pae
p1235
VThis kernel requires PAE (Physical Address Extension).\u000aThis feature is supported by the Intel Pentium Pro/II/III/4/4M/D, Xeon,\u000aCore and Atom; AMD Geode NX, Athlon (K7), Duron, Opteron, Sempron,\u000aTurion or Phenom; Transmeta Efficeon; VIA C7; and some other processors.
p1236
ss(g80
g134
g60
tp1237
(dp1238
g84
I01
sg85
(lp1239
V5kc-malta
p1240
aVloongson-3
p1241
aVocteon
p1242
ass(Vbuild
p1243
g20
tp1244
(dp1245
Vimage-file
p1246
Varch/sh/boot/zImage
p1247
ss(Vbase
p1248
g228
tp1249
(dp1250
g58
(lp1251
g60
asVkernel-arch
p1252
Vmips
p1253
ss(Vdescription
p1254
g141
NVorion5x
p1255
tp1256
(dp1257
Vhardware-long
p1258
VMarvell Orion 5181, 5182 and 5281 based systems (QNAP TS-109/TS-209, etc)
p1259
sVhardware
p1260
VMarvell Orion
p1261
sstp1262
Rp1263
.