ccopy_reg
_reconstructor
p0
(cdebian_linux.config
ConfigCore
p1
c__builtin__
dict
p2
(dp3
(S'image'
p4
S'amd64'
p5
tp6
(dp7
S'configs'
p8
(lp9
sS'bootloaders'
p10
(lp11
S'grub-pc'
p12
aS'extlinux'
p13
aS'lilo'
p14
ass(S'description'
p15
S'sparc64'
p16
NS'sparc64'
p17
tp18
(dp19
S'hardware'
p20
S'uniprocessor 64-bit UltraSPARC'
p21
ss(S'base'
p22
g5
S'none'
p23
tp24
(dp25
S'flavours'
p26
(lp27
S'amd64'
p28
ass(S'image'
p29
S'armhf'
p30
NS'armmp-lpae'
p31
tp32
(dp33
S'configs'
p34
(lp35
S'armhf/config.armmp'
p36
aS'armhf/config.lpae'
p37
ass(S'description'
p38
g30
NS'armmp-lpae'
p39
tp40
(dp41
S'hardware'
p42
S'ARMv7 multiplatform compatible SoCs supporting LPAE'
p43
sS'hardware-long'
p44
S'ARMv7 multiplatform kernel supporting LPAE'
p45
ss(S'image'
p46
S'ia64'
p47
tp48
(dp49
S'suggests'
p50
S'fdutils'
p51
sS'bootloaders'
p52
(lp53
S'elilo'
p54
ass(S'version'
p55
tp56
(dp57
S'abiname'
p58
S'3.12-trunk'
p59
sS'source'
p60
V3.12.3-1~exp1
p61
sS'upstream'
p62
S'3.12'
p63
ss(S'description'
p64
g5
g23
S'amd64'
p65
tp66
(dp67
S'parts'
p68
(lp69
S'xen'
p70
ass(S'description'
p71
S'hppa'
p72
NS'parisc64'
p73
tp74
(dp75
S'hardware'
p76
S'64-bit PA-RISC'
p77
ss(S'base'
p78
S'ppc64'
p79
S'none'
p80
tp81
(dp82
S'implicit-flavour'
p83
I01
sS'flavours'
p84
(lp85
S'powerpc64'
p86
ass(S'description'
p87
S'sparc'
p88
NS'sparc32'
p89
tp90
(dp91
S'hardware'
p92
S'uniprocessor sparc32 (sun4m)'
p93
ss(S'description'
p94
S'alpha'
p95
NS'alpha-smp'
p96
tp97
(dp98
S'hardware'
p99
S'Alpha SMP'
p100
sS'hardware-long'
p101
S'DEC Alpha SMP systems with extended kernel start address (Wildfire, Titan, Marvel)'
p102
ss(g78
g30
g80
tp103
(dp104
g83
I01
sg84
(lp105
S'armmp'
p106
aS'armmp-lpae'
p107
ass(S'description'
p108
g72
NS'parisc-smp'
p109
tp110
(dp111
S'hardware'
p112
S'multiprocessor 32-bit PA-RISC'
p113
ss(S'image'
p114
S'i386'
p115
NS'486'
p116
tp117
(dp118
S'configs'
p119
(lp120
S'kernelarch-x86/config-arch-32'
p121
aS'i386/config.486'
p122
ass(S'build'
p123
g5
tp124
(dp125
S'debug-info'
p126
I01
ss(S'base'
p127
g115
S'rt'
p128
tp129
(dp130
S'flavours'
p131
(lp132
S'686-pae'
p133
ass(S'relations'
p134
g115
tp135
(dp136
S'headers%gcc-4.8'
p137
S'linux-compiler-gcc-4.8-x86'
p138
ss(S'description'
p139
S'armel'
p140
NS'ixp4xx'
p141
tp142
(dp143
S'hardware'
p144
S'IXP4xx'
p145
sS'hardware-long'
p146
S'IXP4xx based systems (Linksys NSLU2, etc)'
p147
ss(S'image'
p148
S'powerpc'
p149
tp150
(dp151
S'suggests'
p152
S'mkvmlinuz'
p153
ss(S'description'
p154
S'mips'
p155
NS'sb1a-bcm91480b'
p156
tp157
(dp158
S'hardware'
p159
S'BCM91480B'
p160
sS'hardware-long'
p161
S'Broadcom BCM91480B systems (aka BigSur)'
p162
ss(S'base'
p163
g5
S'rt'
p164
tp165
(dp166
S'flavours'
p167
(lp168
S'amd64'
p169
ass(S'description'
p170
g149
NS'powerpc-smp'
p171
tp172
(dp173
S'hardware'
p174
S'multiprocessor 32-bit PowerPC'
p175
ss(S'description'
p176
g115
S'none'
p177
S'amd64'
p178
tp179
(dp180
S'parts'
p181
(lp182
S'xen'
p183
ass(S'description'
p184
S'mipsel'
p185
NS'5kc-malta'
p186
tp187
(dp188
S'hardware'
p189
S'MIPS Malta (64-bit)'
p190
sS'hardware-long'
p191
S'MIPS Malta boards (64-bit)'
p192
ss(S'base'
p193
S'arm64'
p194
tp195
(dp196
S'kernel-arch'
p197
S'arm64'
p198
sS'featuresets'
p199
(lp200
ss(S'image'
p201
g140
NS'ixp4xx'
p202
tp203
(dp204
S'check-size'
p205
S'1441760'
p206
sS'configs'
p207
(lp208
S'armel/config-reduced'
p209
aS'armel/config-tiny'
p210
aS'armel/config.ixp4xx'
p211
ass(S'base'
p212
g115
tp213
(dp214
S'kernel-arch'
p215
S'x86'
p216
sS'featuresets'
p217
(lp218
S'none'
p219
aS'rt'
p220
ass(S'image'
p221
g185
NS'5kc-malta'
p222
tp223
(dp224
S'configs'
p225
(lp226
S'mips/config.5kc-malta'
p227
ass(S'base'
p228
g185
tp229
(dp230
S'kernel-arch'
p231
S'mips'
p232
sS'featuresets'
p233
(lp234
g80
ass(S'relations'
p235
g5
tp236
(dp237
S'headers%gcc-4.8'
p238
S'linux-compiler-gcc-4.8-x86'
p239
ss(S'image'
p240
g115
NS'686-pae'
p241
tp242
(dp243
S'configs'
p244
(lp245
S'kernelarch-x86/config-arch-32'
p246
aS'i386/config.686-pae'
p247
asS'recommends'
p248
S'libc6-i686'
p249
ss(S'image'
p250
g140
NS'iop32x'
p251
tp252
(dp253
S'check-size'
p254
S'1441784'
p255
sS'configs'
p256
(lp257
S'armel/config-reduced'
p258
aS'armel/config-tiny'
p259
aS'armel/config.iop32x'
p260
ass(S'build'
p261
g140
NS'mv78xx0'
p262
tp263
(dp264
S'image-file'
p265
S'arch/arm/boot/zImage'
p266
ss(S'relations'
p267
S's390'
p268
tp269
(dp270
S'headers%gcc-4.8'
p271
S'linux-compiler-gcc-4.8-s390'
p272
ss(g78
g185
g80
tp273
(dp274
g83
I01
sg84
(lp275
S'r5k-cobalt'
p276
aS'sb1-bcm91250a'
p277
aS'sb1a-bcm91480b'
p278
aS'4kc-malta'
p279
aS'5kc-malta'
p280
aS'loongson-2e'
p281
aS'loongson-2f'
p282
ass(S'description'
p283
g185
NS'sb1-bcm91250a'
p284
tp285
(dp286
S'hardware'
p287
S'BCM91250A'
p288
sS'hardware-long'
p289
S'Broadcom BCM91250A systems (aka SWARM)'
p290
ss(S'build'
p291
g30
NS'armmp'
p292
tp293
(dp294
S'image-file'
p295
S'arch/arm/boot/zImage'
p296
ss(S'description'
p297
S'powerpcspe'
p298
tp299
(dp300
S'hardware'
p301
S'32-bit PowerPC with SPE (instead of AltiVec) with SMP support'
p302
ss(S'relations'
p303
tp304
(dp305
S'gcc-4.8'
p306
S'gcc-4.8'
p307
sS'initramfs-fallback'
p308
S'linux-initramfs-tool'
p309
sS'gcc-4.7'
p310
S'gcc-4.7'
p311
sS'gcc-4.6'
p312
S'gcc-4.6'
p313
sS'gcc-4.4'
p314
S'gcc-4.4'
p315
sS'initramfs-tools'
p316
S'initramfs-tools (>= 0.110~)'
p317
ss(S'description'
p318
g88
NS'sparc64'
p319
tp320
(dp321
S'hardware'
p322
S'uniprocessor 64-bit UltraSPARC'
p323
ss(S'description'
p324
g115
NS'686-pae'
p325
tp326
(dp327
S'hardware'
p328
S'modern PCs'
p329
sS'parts'
p330
(lp331
S'pae'
p332
asS'hardware-long'
p333
S'PCs with one or more processors supporting PAE'
p334
ss(S'description'
p335
g140
NS'mv78xx0'
p336
tp337
(dp338
S'hardware'
p339
S'Marvell 78xx0'
p340
sS'hardware-long'
p341
S'Marvell DB-78xx0-BP Development Board'
p342
ss(g78
S'sh4'
p343
g80
tp344
(dp345
g83
I01
sg84
(lp346
S'sh7751r'
p347
aS'sh7785lcr'
p348
ass(S'description'
p349
g343
NS'sh7751r'
p350
tp351
(dp352
S'hardware'
p353
S'sh7751r'
p354
sS'hardware-long'
p355
S'Renesas SH7751R R2D plus board'
p356
ss(S'base'
p357
g140
tp358
(dp359
S'kernel-arch'
p360
S'arm'
p361
sg233
(lp362
g80
ass(S'base'
p363
g88
tp364
(dp365
S'kernel-arch'
p366
S'sparc'
p367
sg233
(lp368
g80
ass(S'base'
p369
g298
tp370
(dp371
S'kernel-arch'
p372
S'powerpc'
p373
sg233
(lp374
g80
ass(S'description'
p375
g140
NS'versatile'
p376
tp377
(dp378
S'hardware'
p379
S'Versatile'
p380
sS'hardware-long'
p381
S'Versatile systems (PB, AB, Qemu)'
p382
ss(S'build'
p383
g140
NS'kirkwood'
p384
tp385
(dp386
S'image-file'
p387
S'arch/arm/boot/zImage'
p388
ss(g78
g268
g80
tp389
(dp390
g83
I01
sg84
(lp391
S's390x'
p392
ass(g78
S's390x'
p393
g80
tp394
(dp395
g83
I01
sg84
(lp396
S's390x'
p397
ass(S'base'
p398
g95
tp399
(dp400
S'kernel-arch'
p401
S'alpha'
p402
sg233
(lp403
g80
ass(S'description'
p404
g185
NS'loongson-2f'
p405
tp406
(dp407
S'hardware'
p408
S'Loongson 2F'
p409
sS'hardware-long'
p410
S'Lemote Loongson 2F systems'
p411
ss(S'description'
p412
g155
NS'sb1-bcm91250a'
p413
tp414
(dp415
S'hardware'
p416
S'BCM91250A'
p417
sS'hardware-long'
p418
S'Broadcom BCM91250A systems (aka SWARM)'
p419
ss(S'image'
p420
g185
tp421
(dp422
S'initramfs'
p423
I00
ss(S'description'
p424
g393
NS's390x'
p425
tp426
(dp427
S'hardware'
p428
S'IBM zSeries'
p429
ss(S'base'
p430
g5
tp431
(dp432
S'kernel-arch'
p433
S'x86'
p434
sS'featuresets'
p435
(lp436
S'none'
p437
aS'rt'
p438
ass(S'base'
p439
g47
tp440
(dp441
S'kernel-arch'
p442
S'ia64'
p443
sg233
(lp444
g80
asS'compiler'
p445
S'gcc-4.6'
p446
ss(S'base'
p447
g72
NS'parisc64-smp'
p448
tp449
(dp450
S'override-host-type'
p451
S'hppa64-linux-gnu'
p452
sS'cflags'
p453
S'-fno-cse-follow-jumps'
p454
ss(S'description'
p455
g95
NS'alpha-generic'
p456
tp457
(dp458
S'hardware'
p459
S'Alpha'
p460
sS'hardware-long'
p461
S'DEC Alpha systems with extended kernel start address (Wildfire, Titan, Marvel)'
p462
ss(S'base'
p463
g155
tp464
(dp465
S'kernel-arch'
p466
S'mips'
p467
sg233
(lp468
g80
ass(S'image'
p469
g140
NS'orion5x'
p470
tp471
(dp472
S'check-size'
p473
S'1572792'
p474
sS'configs'
p475
(lp476
S'armel/config-reduced'
p477
aS'armel/config.orion5x'
p478
asS'recommends'
p479
S'uboot-mkimage'
p480
ss(S'base'
p481
g268
tp482
(dp483
S'kernel-arch'
p484
S's390'
p485
sg233
(lp486
g80
ass(g78
g140
g80
tp487
(dp488
g83
I01
sg84
(lp489
S'iop32x'
p490
aS'ixp4xx'
p491
aS'kirkwood'
p492
aS'mv78xx0'
p493
aS'orion5x'
p494
aS'versatile'
p495
ass(S'description'
p496
g140
NS'iop32x'
p497
tp498
(dp499
S'hardware'
p500
S'IOP32x'
p501
sS'hardware-long'
p502
S'IOP32x based systems (Thecus N2100, etc)'
p503
ss(S'base'
p504
NS'rt'
p505
tp506
(dp507
S'enabled'
p508
I01
ss(S'description'
p509
g115
tp510
(dp511
S'part-long-pae'
p512
S'This kernel requires PAE (Physical Address Extension).\nThis feature is supported by the Intel Pentium Pro/II/III/4/4M/D, Xeon,\nCore and Atom; AMD Geode NX, Athlon (K7), Duron, Opteron, Sempron,\nTurion or Phenom; Transmeta Efficeon; VIA C7; and some other processors.'
p513
ss(S'image'
p514
g5
NS'amd64'
p515
tp516
(dp517
S'configs'
p518
(lp519
S'kernelarch-x86/config-arch-64'
p520
ass(S'base'
p521
g115
g177
tp522
(dp523
S'flavours'
p524
(lp525
S'486'
p526
aS'686-pae'
p527
aS'amd64'
p528
ass(S'xen'
p529
g5
g23
S'amd64'
p530
tp531
(dp532
S'flavours'
p533
(lp534
S'amd64'
p535
ass(S'build'
p536
g115
NS'686-pae'
p537
tp538
(dp539
S'debug-info'
p540
I01
ss(S'image'
p541
g140
tp542
(dp543
S'suggests'
p544
S'fdutils'
p545
ss(S'image'
p546
g268
tp547
(dp548
S'configs'
p549
(lp550
S's390x/config'
p551
asS'bootloaders'
p552
(lp553
S's390-tools'
p554
ass(S'relations'
p555
g140
tp556
(dp557
S'headers%gcc-4.8'
p558
S'linux-compiler-gcc-4.8-arm'
p559
ss(S'image'
p560
g72
tp561
(dp562
S'suggests'
p563
S'palo'
p564
ss(S'build'
p565
g140
NS'ixp4xx'
p566
tp567
(dp568
S'image-file'
p569
S'arch/arm/boot/zImage'
p570
ss(S'relations'
p571
g72
tp572
(dp573
S'gcc-4.4'
p574
S'gcc-4.4, binutils-hppa64, gcc-4.4-hppa64'
p575
ss(S'build'
p576
g30
NS'armmp-lpae'
p577
tp578
(dp579
S'image-file'
p580
S'arch/arm/boot/zImage'
p581
ss(S'description'
p582
g155
NS'r4k-ip22'
p583
tp584
(dp585
S'hardware'
p586
S'SGI IP22'
p587
sS'hardware-long'
p588
S'SGI IP22 systems (Indy, Indigo2)'
p589
ss(S'image'
p590
g88
NS'sparc32'
p591
tp592
(dp593
S'image-postproc'
p594
S'sparc32-image-postproc'
p595
ss(S'image'
p596
g115
NS'amd64'
p597
tp598
(dp599
S'configs'
p600
(lp601
S'kernelarch-x86/config-arch-64'
p602
asS'recommends'
p603
S'libc6-i686'
p604
ss(S'build'
p605
g140
NS'orion5x'
p606
tp607
(dp608
S'image-file'
p609
S'arch/arm/boot/zImage'
p610
ss(S'description'
p611
g343
NS'sh7785lcr'
p612
tp613
(dp614
S'hardware'
p615
S'sh7785lcr'
p616
sS'hardware-long'
p617
S'Renesas SH7785 reference board'
p618
ss(S'image'
p619
g16
NS'sparc64'
p620
tp621
(dp622
S'configs'
p623
(lp624
S'sparc/config.sparc64'
p625
ass(g78
g72
g80
tp626
(dp627
g83
I01
sg84
(lp628
S'parisc'
p629
aS'parisc-smp'
p630
aS'parisc64'
p631
aS'parisc64-smp'
p632
ass(S'image'
p633
g95
tp634
(dp635
S'suggests'
p636
S'aboot, fdutils'
p637
ss(S'description'
p638
g268
NS's390x'
p639
tp640
(dp641
S'hardware'
p642
S'IBM zSeries'
p643
ss(S'description'
p644
NS'rt'
p645
tp646
(dp647
S'part-long-rt'
p648
S'This kernel includes the PREEMPT_RT realtime patch set.'
p649
sS'parts'
p650
(lp651
S'rt'
p652
asS'part-short-rt'
p653
S'PREEMPT_RT'
p654
ss(S'base'
p655
g16
tp656
(dp657
S'kernel-arch'
p658
S'sparc'
p659
sg233
(lp660
g80
ass(S'description'
p661
g155
NS'5kc-malta'
p662
tp663
(dp664
S'hardware'
p665
S'MIPS Malta (64-bit)'
p666
sS'hardware-long'
p667
S'MIPS Malta boards (64-bit)'
p668
ss(S'base'
p669
g393
tp670
(dp671
S'kernel-arch'
p672
S's390'
p673
sg233
(lp674
g80
ass(S'abi'
p675
Ng645
tp676
(dp677
S'ignore-changes'
p678
(lp679
S'*'
p680
ass(S'image'
p681
g79
tp682
(dp683
S'suggests'
p684
S'mkvmlinuz'
p685
sS'configs'
p686
(lp687
S'powerpc/config'
p688
ass(S'image'
p689
g155
tp690
(dp691
S'initramfs'
p692
I00
ss(S'image'
p693
g115
tp694
(dp695
S'configs'
p696
(lp697
sS'bootloaders'
p698
(lp699
S'grub-pc'
p700
aS'extlinux'
p701
aS'lilo'
p702
ass(g78
g88
g80
tp703
(dp704
g83
I01
sg84
(lp705
S'sparc64'
p706
aS'sparc64-smp'
p707
ass(S'description'
p708
g72
NS'parisc'
p709
tp710
(dp711
S'hardware'
p712
S'32-bit PA-RISC'
p713
ss(S'description'
p714
g185
NS'r5k-cobalt'
p715
tp716
(dp717
S'hardware'
p718
S'Cobalt'
p719
sS'hardware-long'
p720
S'Cobalt systems (Qube, RaQ, Qube2, RaQ2)'
p721
ss(g78
g95
g80
tp722
(dp723
g83
I01
sg84
(lp724
S'alpha-generic'
p725
aS'alpha-smp'
p726
aS'alpha-legacy'
p727
ass(S'description'
p728
g115
g177
S'686-pae'
p729
tp730
(dp731
S'parts'
p732
(lp733
S'xen'
p734
ass(g78
g47
g80
tp735
(dp736
g83
I01
sg84
(lp737
S'itanium'
p738
aS'mckinley'
p739
ass(S'base'
p740
g79
tp741
(dp742
S'kernel-arch'
p743
S'powerpc'
p744
sg233
(lp745
g80
ass(S'build'
p746
g343
NS'sh7785lcr'
p747
tp748
(dp749
S'image-file'
p750
S'arch/sh/boot/zImage'
p751
ss(g78
g155
g80
tp752
(dp753
g83
I01
sg84
(lp754
S'r4k-ip22'
p755
aS'r5k-ip32'
p756
aS'sb1-bcm91250a'
p757
aS'sb1a-bcm91480b'
p758
aS'4kc-malta'
p759
aS'5kc-malta'
p760
aS'octeon'
p761
ass(S'description'
p762
g47
NS'mckinley'
p763
tp764
(dp765
S'hardware'
p766
S'Itanium II'
p767
ss(S'description'
p768
g72
NS'parisc64-smp'
p769
tp770
(dp771
S'hardware'
p772
S'multiprocessor 64-bit PA-RISC'
p773
ss(S'base'
p774
g72
NS'parisc64'
p775
tp776
(dp777
S'override-host-type'
p778
S'hppa64-linux-gnu'
p779
sS'cflags'
p780
S'-fno-cse-follow-jumps'
p781
ss(S'description'
p782
g115
NS'486'
p783
tp784
(dp785
S'hardware'
p786
S'older PCs'
p787
sS'parts'
p788
(lp789
S'up'
p790
asS'hardware-long'
p791
S'PCs with a single processor not supporting PAE'
p792
ss(S'description'
p793
g115
NS'amd64'
p794
tp795
(dp796
S'hardware'
p797
S'64-bit PCs'
p798
sS'parts'
p799
(lp800
S'xen'
p801
asS'hardware-long'
p802
S'PCs with AMD64, Intel 64 or VIA Nano processors'
p803
ss(S'base'
p804
S'x32'
p805
tp806
(dp807
S'kernel-arch'
p808
S'x86'
p809
sS'featuresets'
p810
(lp811
ss(S'image'
p812
S'm68k'
p813
tp814
(dp815
S'suggests'
p816
S'vmelilo, fdutils'
p817
ss(S'image'
p818
g149
NS'powerpc-smp'
p819
tp820
(dp821
S'configs'
p822
(lp823
S'powerpc/config.powerpc'
p824
aS'powerpc/config.powerpc-smp'
p825
ass(S'image'
p826
g140
NS'kirkwood'
p827
tp828
(dp829
S'check-size'
p830
S'2097080'
p831
sS'recommends'
p832
S'uboot-mkimage'
p833
ss(S'description'
p834
g5
NS'amd64'
p835
tp836
(dp837
S'hardware'
p838
S'64-bit PCs'
p839
sS'hardware-long'
p840
S'PCs with AMD64, Intel 64 or VIA Nano processors'
p841
ss(S'description'
p842
g185
NS'loongson-2e'
p843
tp844
(dp845
S'hardware'
p846
S'Loongson 2E'
p847
sS'hardware-long'
p848
S'Lemote Loongson 2E systems'
p849
ss(S'base'
p850
g30
tp851
(dp852
S'kernel-arch'
p853
S'arm'
p854
sg233
(lp855
g80
ass(S'image'
p856
g343
tp857
(dp858
S'suggests'
p859
S'fdutils'
p860
ss(S'base'
p861
g72
tp862
(dp863
S'kernel-arch'
p864
S'parisc'
p865
sg233
(lp866
g80
asS'compiler'
p867
S'gcc-4.4'
p868
ss(S'image'
p869
g185
NS'loongson-2f'
p870
tp871
(dp872
S'recommends'
p873
S'libc6-loongson2f'
p874
ss(S'description'
p875
g185
NS'4kc-malta'
p876
tp877
(dp878
S'hardware'
p879
S'MIPS Malta'
p880
sS'hardware-long'
p881
S'MIPS Malta boards'
p882
ss(S'base'
p883
g343
tp884
(dp885
S'kernel-arch'
p886
S'sh'
p887
sg233
(lp888
g80
asS'compiler'
p889
S'gcc-4.7'
p890
ss(S'image'
p891
g88
tp892
(dp893
S'suggests'
p894
S'silo, fdutils'
p895
ss(S'description'
p896
tp897
(dp898
S'part-long-up'
p899
S'This kernel is not suitable for SMP (multi-processor,\nmulti-core or hyper-threaded) systems.'
p900
sS'part-long-xen'
p901
S'This kernel also runs on a Xen hypervisor.\nIt supports both privileged (dom0) and unprivileged (domU) operation.'
p902
ss(S'relations'
p903
g30
tp904
(dp905
S'headers%gcc-4.8'
p906
S'linux-compiler-gcc-4.8--arm'
p907
ss(S'description'
p908
g155
NS'4kc-malta'
p909
tp910
(dp911
S'hardware'
p912
S'MIPS Malta'
p913
sS'hardware-long'
p914
S'MIPS Malta boards'
p915
ss(S'image'
p916
g185
NS'sb1a-bcm91480b'
p917
tp918
(dp919
S'configs'
p920
(lp921
S'mips/config.sb1a-bcm91480b'
p922
ass(S'description'
p923
g185
NS'sb1a-bcm91480b'
p924
tp925
(dp926
S'hardware'
p927
S'BCM91480B'
p928
sS'hardware-long'
p929
S'Broadcom BCM91480B systems (aka BigSur)'
p930
ss(S'image'
p931
g16
tp932
(dp933
S'suggests'
p934
S'silo, fdutils'
p935
sS'configs'
p936
(lp937
S'sparc/config'
p938
ass(S'description'
p939
g30
NS'armmp'
p940
tp941
(dp942
S'hardware'
p943
S'ARMv7 multiplatform compatible SoCs'
p944
sS'hardware-long'
p945
S'ARMv7 multiplatform kernel for Marvell Armada 370/xp, Freescale iMX5x/iMX6'
p946
ss(S'relations'
p947
g393
tp948
(dp949
S'headers%gcc-4.8'
p950
S'linux-compiler-gcc-4.8-s390'
p951
ss(S'description'
p952
g155
NS'r5k-ip32'
p953
tp954
(dp955
S'hardware'
p956
S'SGI IP32'
p957
sS'hardware-long'
p958
S'SGI IP32 systems (O2)'
p959
ss(S'description'
p960
g88
NS'sparc64-smp'
p961
tp962
(dp963
S'hardware'
p964
S'multiprocessor 64-bit UltraSPARC'
p965
ss(S'base'
p966
g149
tp967
(dp968
S'kernel-arch'
p969
S'powerpc'
p970
sg233
(lp971
g80
ass(S'build'
p972
g140
NS'iop32x'
p973
tp974
(dp975
S'image-file'
p976
S'arch/arm/boot/zImage'
p977
ss(S'image'
p978
g185
NS'4kc-malta'
p979
tp980
(dp981
S'configs'
p982
(lp983
S'mips/config.4kc-malta'
p984
ass(S'description'
p985
g95
NS'alpha-legacy'
p986
tp987
(dp988
S'hardware'
p989
S'Alpha Legacy'
p990
sS'hardware-long'
p991
S'DEC Alpha systems with legacy kernel start address'
p992
ss(S'description'
p993
g16
NS'sparc64-smp'
p994
tp995
(dp996
S'hardware'
p997
S'multiprocessor 64-bit UltraSPARC'
p998
ss(S'image'
p999
g298
tp1000
(dp1001
S'suggests'
p1002
S'mkvmlinuz'
p1003
sS'configs'
p1004
(lp1005
S'powerpc/config'
p1006
aS'powerpcspe/config.powerpcspe'
p1007
ass(S'image'
p1008
g30
tp1009
(dp1010
S'suggests'
p1011
S'fdutils'
p1012
sS'configs'
p1013
(lp1014
S'armel/config'
p1015
aS'armhf/config'
p1016
ass(S'abi'
p1017
tp1018
(dp1019
S'abiname'
p1020
S'trunk'
p1021
ss(S'description'
p1022
g47
NS'itanium'
p1023
tp1024
(dp1025
S'hardware'
p1026
S'Itanium'
p1027
ss(g78
g298
g80
tp1028
(dp1029
g83
I01
sg84
(lp1030
S'powerpcspe'
p1031
ass(g78
g813
g80
tp1032
(dp1033
g83
I01
sg84
(lp1034
S'm68k'
p1035
ass(S'description'
p1036
g140
NS'orion5x'
p1037
tp1038
(dp1039
S'hardware'
p1040
S'Marvell Orion'
p1041
sS'hardware-long'
p1042
S'Marvell Orion 5181, 5182 and 5281 based systems (QNAP TS-109/TS-209, etc)'
p1043
ss(S'base'
p1044
tp1045
(dp1046
S'arches'
p1047
(lp1048
S'alpha'
p1049
aS'amd64'
p1050
aS'arm64'
p1051
aS'armel'
p1052
aS'armhf'
p1053
aS'hppa'
p1054
aS'i386'
p1055
aS'ia64'
p1056
aS'm68k'
p1057
aS'mips'
p1058
aS'mipsel'
p1059
aS'powerpc'
p1060
aS'powerpcspe'
p1061
aS'ppc64'
p1062
aS's390'
p1063
aS's390x'
p1064
aS'sh4'
p1065
aS'sparc'
p1066
aS'sparc64'
p1067
aS'x32'
p1068
asS'featuresets'
p1069
(lp1070
S'none'
p1071
aS'rt'
p1072
asS'compiler'
p1073
S'gcc-4.8'
p1074
ss(S'image'
p1075
g343
NS'sh7785lcr'
p1076
tp1077
(dp1078
S'check-size'
p1079
S'4194304'
p1080
sS'recommends'
p1081
S'uboot-mkimage'
p1082
ss(g78
g149
g80
tp1083
(dp1084
g83
I01
sg84
(lp1085
S'powerpc'
p1086
aS'powerpc-smp'
p1087
aS'powerpc64'
p1088
ass(S'image'
p1089
g185
NS'sb1-bcm91250a'
p1090
tp1091
(dp1092
S'configs'
p1093
(lp1094
S'mips/config.sb1-bcm91250a'
p1095
ass(S'build'
p1096
g343
NS'sh7751r'
p1097
tp1098
(dp1099
S'image-file'
p1100
S'arch/sh/boot/zImage'
p1101
ss(S'description'
p1102
g149
NS'powerpc64'
p1103
tp1104
(dp1105
S'hardware'
p1106
S'64-bit PowerPC'
p1107
ss(S'image'
p1108
g16
NS'sparc64-smp'
p1109
tp1110
(dp1111
S'configs'
p1112
(lp1113
S'sparc/config.sparc64-smp'
p1114
ass(S'base'
p1115
g813
tp1116
(dp1117
S'kernel-arch'
p1118
S'm68k'
p1119
sg233
(lp1120
g80
asS'cflags'
p1121
S'-ffreestanding'
p1122
sS'compiler'
p1123
S'gcc-4.8'
p1124
ss(S'description'
p1125
g813
NS'm68k'
p1126
tp1127
(dp1128
S'hardware'
p1129
S'Motorola MC68020+ family'
p1130
ss(S'image'
p1131
tp1132
(dp1133
S'initramfs-generators'
p1134
(lp1135
S'initramfs-tools'
p1136
aS'initramfs-fallback'
p1137
asS'type'
p1138
S'plain'
p1139
ss(S'image'
p1140
g268
NS's390x'
p1141
tp1142
(dp1143
S'configs'
p1144
(lp1145
S's390x/config.s390x'
p1146
ass(g78
g16
g80
tp1147
(dp1148
g83
I01
sg84
(lp1149
S'sparc64'
p1150
aS'sparc64-smp'
p1151
ass(S'description'
p1152
g155
NS'octeon'
p1153
tp1154
(dp1155
S'hardware'
p1156
S'Octeon'
p1157
sS'hardware-long'
p1158
S'Cavium Networks Octeon'
p1159
ss(S'image'
p1160
g79
NS'powerpc64'
p1161
tp1162
(dp1163
S'configs'
p1164
(lp1165
S'powerpc/config.powerpc64'
p1166
ass(S'build'
p1167
g268
NS's390x'
p1168
tp1169
(dp1170
S'debug-info'
p1171
I01
ss(S'image'
p1172
g393
tp1173
(dp1174
S'bootloaders'
p1175
(lp1176
S's390-tools'
p1177
ass(S'description'
p1178
g149
NS'powerpc'
p1179
tp1180
(dp1181
S'hardware'
p1182
S'uniprocessor 32-bit PowerPC'
p1183
ss(S'description'
p1184
g140
NS'kirkwood'
p1185
tp1186
(dp1187
S'hardware'
p1188
S'Marvell Kirkwood'
p1189
sS'hardware-long'
p1190
S'Marvell Kirkwood based systems (SheevaPlug, QNAP TS-119/TS-219, etc)'
p1191
ss(S'build'
p1192
g393
NS's390x'
p1193
tp1194
(dp1195
S'debug-info'
p1196
I01
ss(S'description'
p1197
g79
NS'powerpc64'
p1198
tp1199
(dp1200
S'hardware'
p1201
S'64-bit PowerPC'
p1202
sstp1203
Rp1204
.