cdebian_linux.config
ConfigCore
p0
(tRp1
(Vabi
p2
tp3
(dp4
Vabiname
p5
V1
p6
sVignore-changes
p7
(lp8
V__cpuhp_*
p9
aV__xive_vm_h_*
p10
aVbpf_analyzer
p11
aVcxl_*
p12
aVdax_flush
p13
aVieee80211_nullfunc_get
p14
aVinet_add_protocol
p15
aVinet_del_protocol
p16
aViommu_device_*
p17
aVkvm_async_pf_task_wait
p18
aVkvmppc_*
p19
aVmm_iommu_*
p20
aVmv_mbus_*
p21
aVperf_*
p22
aVregister_cxl_calls
p23
aVregister_key_type
p24
aVunregister_cxl_calls
p25
aV*_hw_breakpoint
p26
aVmodule:arch/x86/kvm/*
p27
aVmodule:drivers/crypto/ccp/*
p28
aVmodule:drivers/hv/*
p29
aVmodule:drivers/gpu/drm/sun4i/*
p30
aVmodule:drivers/iio/**
p31
aVmodule:drivers/misc/cxl/*
p32
aVmodule:drivers/mtd/nand/*
p33
aVmodule:drivers/net/wireless/**
p34
aVmodule:drivers/nvdimm/*
p35
aVmodule:drivers/power/supply/bq27xxx_battery
p36
aVmodule:drivers/scsi/cxgbi/*
p37
aVmodule:drivers/scsi/libiscs*
p38
aVmodule:drivers/scsi/qla2xxx/qla2xxx
p39
aVmodule:drivers/scsi/ufs/*
p40
aVmodule:drivers/target/**
p41
aVmodule:drivers/usb/chipidea/**
p42
aVmodule:drivers/usb/gadget/**
p43
aVmodule:drivers/usb/host/**
p44
aVmodule:drivers/usb/musb/**
p45
aVmodule:fs/nfs/**
p46
aVmodule:net/ceph/libceph
p47
aVmodule:net/l2tp/**
p48
aVmodule:net/rxrpc/rxrpc
p49
aVmodule:sound/core/seq/**
p50
aVmodule:sound/firewire/snd-firewire-lib
p51
aVmodule:sound/pci/hda/*
p52
aVbtree_*
p53
aVvisitor*
p54
aVcan_rx_register
p55
aVip6_xmit
p56
aVmodule:net/dccp/dccp
p57
aVmodule:net/rds/rds
p58
aVdevfreq_*
p59
aVdevm_devfreq_*
p60
aVupdate_devfreq
p61
aVmodule:drivers/infiniband/**
p62
aVacpi_ec_add_query_handler
p63
aVacpi_ec_remove_query_handler
p64
aVfirst_ec
p65
aVdebugfs_create_automount
p66
aVmodule:drivers/iio/imu/inv_mpu6050/*
p67
aVdrm_crtc_accurate_vblank_count
p68
ass(Vbase
p69
tp70
(dp71
Varches
p72
(lp73
Valpha
p74
aVamd64
p75
aVarm64
p76
aVarm64ilp32
p77
aVarmel
p78
aVarmhf
p79
aVhppa
p80
aVi386
p81
aVia64
p82
aVm68k
p83
aVmips
p84
aVmips64
p85
aVmips64el
p86
aVmips64r6
p87
aVmips64r6el
p88
aVmipsel
p89
aVmipsn32
p90
aVmipsn32el
p91
aVmipsn32r6
p92
aVmipsn32r6el
p93
aVmipsr6
p94
aVmipsr6el
p95
aVpowerpc
p96
aVpowerpcspe
p97
aVppc64
p98
aVppc64el
p99
aVriscv64
p100
aVs390
p101
aVs390x
p102
aVsh3
p103
aVsh4
p104
aVsparc
p105
aVsparc64
p106
aVtilegx
p107
aVx32
p108
asVcompiler
p109
Vgcc-7
p110
sVfeaturesets
p111
(lp112
Vnone
p113
aVrt
p114
ass(Vbuild
p115
tp116
(dp117
Vdebug-info
p118
I01
sVsigned-code
p119
I00
ss(Vbase
p120
NVrt
p121
tp122
(dp123
Venabled
p124
I00
ss(Vdescription
p125
tp126
(dp127
Vpart-long-up
p128
VThis kernel is not suitable for SMP (multi-processor,\u000amulti-core or hyper-threaded) systems.
p129
ss(Vimage
p130
tp131
(dp132
Vinitramfs-generators
p133
(lp134
Vinitramfs-tools
p135
aVinitramfs-fallback
p136
asVrecommends
p137
Vapparmor
p138
ss(Vrelations
p139
tp140
(dp141
Vgcc-7
p142
Vgcc-7 <!stage1 !cross>, gcc-7-@gnu-type-package@ <!stage1 cross>
p143
sVinitramfs-fallback
p144
Vlinux-initramfs-tool
p145
sVinitramfs-tools
p146
Vinitramfs-tools (>= 0.120+deb8u2)
p147
ss(Vbase
p148
Valpha
p149
tp150
(dp151
Vkernel-arch
p152
Valpha
p153
sVfeaturesets
p154
(lp155
Vnone
p156
ass(Vbuild
p157
g149
tp158
(dp159
Vimage-file
p160
Varch/alpha/boot/vmlinux.gz
p161
ss(Vimage
p162
g149
tp163
(dp164
Vsuggests
p165
Vaboot, fdutils
p166
sVinstall-stem
p167
Vvmlinuz
p168
ss(Vdescription
p169
g149
NValpha-generic
p170
tp171
(dp172
Vhardware
p173
VAlpha
p174
sVhardware-long
p175
VDEC Alpha systems with extended kernel start address (Wildfire, Titan, Marvel)
p176
ss(Vdescription
p177
g149
NValpha-smp
p178
tp179
(dp180
Vhardware
p181
VAlpha SMP
p182
sVhardware-long
p183
VDEC Alpha SMP systems with extended kernel start address (Wildfire, Titan, Marvel)
p184
ss(Vbase
p185
g149
g156
tp186
(dp187
Vflavours
p188
(lp189
Valpha-generic
p190
aValpha-smp
p191
asVimplicit-flavour
p192
I01
ss(Vbase
p193
Vamd64
p194
tp195
(dp196
Vfeaturesets
p197
(lp198
Vnone
p199
aVrt
p200
asVkernel-arch
p201
Vx86
p202
ss(Vbuild
p203
g194
tp204
(dp205
Vdebug-info
p206
I01
sVimage-file
p207
Varch/x86/boot/bzImage
p208
sVvdso
p209
I01
ss(Vimage
p210
g194
tp211
(dp212
Vbootloaders
p213
(lp214
Vgrub-pc
p215
aVgrub-efi-amd64
p216
aVextlinux
p217
asVinstall-stem
p218
Vvmlinuz
p219
sVbreaks
p220
Vxserver-xorg-input-vmmouse (<< 1:13.0.99)
p221
ss(Vrelations
p222
g194
tp223
(dp224
Vgcc-7
p225
Vgcc-7 (>= 7.2.0-20~) <!stage1 !cross>, gcc-7-x86-64-linux-gnu (>= 7.2.0-20~) <!stage1 cross>
p226
sVheaders%gcc-7
p227
Vlinux-compiler-gcc-7-x86 (>= 4.14.17-1~)
p228
ss(Vdescription
p229
g194
NVamd64
p230
tp231
(dp232
Vhardware
p233
V64-bit PCs
p234
sVhardware-long
p235
VPCs with AMD64, Intel 64 or VIA Nano processors
p236
ss(Vdescription
p237
g194
NVcloud-amd64
p238
tp239
(dp240
Vhardware
p241
Vx86-64 cloud
p242
sVhardware-long
p243
VAmazon EC2, Google Compute Engine and Microsoft Azure cloud platforms
p244
ss(Vbase
p245
g194
Vnone
p246
tp247
(dp248
Vflavours
p249
(lp250
Vamd64
p251
aVcloud-amd64
p252
ass(Vbase
p253
g194
Vrt
p254
tp255
(dp256
Vflavours
p257
(lp258
Vamd64
p259
ass(Vbase
p260
Varm64
p261
tp262
(dp263
Vkernel-arch
p264
Varm64
p265
sVfeaturesets
p266
(lp267
Vnone
p268
ass(Vbuild
p269
g261
tp270
(dp271
Vdebug-info
p272
I01
sVimage-file
p273
Varch/arm64/boot/Image
p274
sVvdso
p275
I01
ss(Vimage
p276
g261
tp277
(dp278
Vinstall-stem
p279
Vvmlinuz
p280
sVbreaks
p281
Vlibmozjs185-1.0, libmozjs-24-0 (<< 24.2.0-5.1~)
p282
ss(Vdescription
p283
g261
NVarm64
p284
tp285
(dp286
Vhardware
p287
V64-bit ARMv8 machines
p288
ss(Vimage
p289
g261
NVarm64
p290
tp291
(dp292
s(Vbase
p293
g261
Vnone
p294
tp295
(dp296
Vflavours
p297
(lp298
Varm64
p299
ass(Vbase
p300
Varm64ilp32
p301
tp302
(dp303
Vkernel-arch
p304
Varm64
p305
sVfeaturesets
p306
(lp307
ss(Vbase
p308
Varmel
p309
tp310
(dp311
Vkernel-arch
p312
Varm
p313
sg154
(lp314
g156
ass(Vbuild
p315
g309
tp316
(dp317
Vimage-file
p318
Varch/arm/boot/zImage
p319
sVuncompressed-image-file
p320
Varch/arm/boot/Image
p321
ss(Vimage
p322
g309
tp323
(dp324
Vinstall-stem
p325
Vvmlinuz
p326
ss(Vrelations
p327
g309
tp328
(dp329
Vheaders%gcc-7
p330
Vlinux-compiler-gcc-7-arm
p331
ss(Vdescription
p332
g309
NVmarvell
p333
tp334
(dp335
Vhardware
p336
VMarvell Kirkwood/Orion
p337
sVhardware-long
p338
VMarvell Kirkwood and Orion based systems (https://wiki.debian.org/ArmEabiPort#Supported_hardware)
p339
ss(Vimage
p340
g309
NVmarvell
p341
tp342
(dp343
Vrecommends
p344
Vu-boot-tools
p345
sVcheck-size
p346
L2097080L
sVcheck-size-with-dtb
p347
I01
sVcheck-uncompressed-size
p348
L7340032L
sVbreaks
p349
Vflash-kernel (<< 3.57~)
p350
ss(g185
g309
g156
tp351
(dp352
g188
(lp353
Vmarvell
p354
asg192
I01
ss(Vbase
p355
Varmhf
p356
tp357
(dp358
Vkernel-arch
p359
Varm
p360
sg154
(lp361
g156
ass(Vbuild
p362
g356
tp363
(dp364
Vimage-file
p365
Varch/arm/boot/zImage
p366
sVvdso
p367
I01
ss(Vimage
p368
g356
tp369
(dp370
Vinstall-stem
p371
Vvmlinuz
p372
ss(Vrelations
p373
g356
tp374
(dp375
Vheaders%gcc-7
p376
Vlinux-compiler-gcc-7-arm
p377
ss(Vdescription
p378
g356
NVarmmp
p379
tp380
(dp381
Vhardware
p382
VARMv7 multiplatform compatible SoCs
p383
sVhardware-long
p384
VARMv7 multiplatform kernel. See\u000ahttps://wiki.debian.org/DebianKernel/ARMMP for details of supported\u000aplatforms
p385
ss(Vdescription
p386
g356
NVarmmp-lpae
p387
tp388
(dp389
Vhardware
p390
VARMv7 multiplatform compatible SoCs supporting LPAE
p391
sVhardware-long
p392
VARMv7 multiplatform kernel supporting LPAE. See\u000ahttps://wiki.debian.org/DebianKernel/ARMMP for details of supported\u000aplatforms.
p393
ss(g185
g356
g156
tp394
(dp395
g188
(lp396
Varmmp
p397
aVarmmp-lpae
p398
asg192
I01
ss(Vbase
p399
Vhppa
p400
tp401
(dp402
Vkernel-arch
p403
Vparisc
p404
sg154
(lp405
g156
ass(Vbuild
p406
g400
tp407
(dp408
Vimage-file
p409
Varch/parisc/boot/bzImage
p410
sVdebug-info
p411
I00
ss(Vimage
p412
g400
tp413
(dp414
Vsuggests
p415
Vpalo
p416
sVinstall-stem
p417
Vvmlinuz
p418
ss(Vdescription
p419
g400
NVparisc
p420
tp421
(dp422
Vhardware
p423
V32-bit PA-RISC
p424
sVhardware-long
p425
VHP PA-RISC 32-bit systems with max 4 GB RAM
p426
ss(Vdescription
p427
g400
NVparisc-smp
p428
tp429
(dp430
Vhardware
p431
Vmultiprocessor 32-bit PA-RISC
p432
sVhardware-long
p433
VHP PA-RISC 32-bit SMP systems with max 4 GB RAM
p434
ss(Vbase
p435
g400
NVparisc64-smp
p436
tp437
(dp438
Vcflags
p439
V-fno-cse-follow-jumps
p440
sVoverride-host-type
p441
Vhppa64-linux-gnu
p442
ss(Vdescription
p443
g400
NVparisc64-smp
p444
tp445
(dp446
Vhardware
p447
Vmultiprocessor 64-bit PA-RISC
p448
sVhardware-long
p449
VHP PA-RISC 64-bit SMP systems with support for more than 4 GB RAM
p450
ss(Vrelations
p451
g400
tp452
(dp453
Vgcc-7
p454
Vgcc-7 <!stage1 !cross>, binutils-hppa64-linux-gnu <!stage1 !cross>, gcc-7-hppa64-linux-gnu <!stage1 !cross>, gcc-7-hppa-linux-gnu <!stage1 cross>, binutils-hppa64-linux-gnu <!stage1 cross>, gcc-7-hppa64-linux-gnu <!stage1 cross>
p455
ss(g185
g400
g156
tp456
(dp457
g188
(lp458
Vparisc
p459
aVparisc-smp
p460
aVparisc64-smp
p461
asg192
I01
ss(Vbase
p462
Vi386
p463
tp464
(dp465
Vfeaturesets
p466
(lp467
Vnone
p468
aVrt
p469
asVkernel-arch
p470
Vx86
p471
ss(Vbuild
p472
g463
tp473
(dp474
Vimage-file
p475
Varch/x86/boot/bzImage
p476
sVvdso
p477
I01
ss(Vdescription
p478
g463
tp479
(dp480
Vpart-long-pae
p481
VThis kernel requires PAE (Physical Address Extension).\u000aThis feature is supported by the Intel Pentium Pro/II/III/4/4M/D, Xeon,\u000aCore and Atom; AMD Geode NX, Athlon (K7), Duron, Opteron, Sempron,\u000aTurion or Phenom; Transmeta Efficeon; VIA C7; and some other processors.
p482
ss(Vimage
p483
g463
tp484
(dp485
Vbootloaders
p486
(lp487
Vgrub-pc
p488
aVextlinux
p489
asVinstall-stem
p490
Vvmlinuz
p491
sVbreaks
p492
Vxserver-xorg-input-vmmouse (<< 1:13.0.99)
p493
ss(Vrelations
p494
g463
tp495
(dp496
Vgcc-7
p497
Vgcc-7 (>= 7.2.0-20~) <!stage1 !cross>, gcc-7-i686-linux-gnu (>= 7.2.0-20~) <!stage1 cross>
p498
sVheaders%gcc-7
p499
Vlinux-compiler-gcc-7-x86 (>= 4.14.17-1~)
p500
ss(Vdescription
p501
g463
NV686
p502
tp503
(dp504
Vhardware
p505
Volder PCs
p506
sVhardware-long
p507
VPCs with one or more processors not supporting PAE
p508
ss(Vbuild
p509
g463
NV686-pae
p510
tp511
(dp512
Vdebug-info
p513
I01
ss(Vdescription
p514
g463
NV686-pae
p515
tp516
(dp517
Vhardware
p518
Vmodern PCs
p519
sVhardware-long
p520
VPCs with one or more processors supporting PAE
p521
sVparts
p522
(lp523
Vpae
p524
ass(Vbase
p525
g463
Vnone
p526
tp527
(dp528
Vflavours
p529
(lp530
V686
p531
aV686-pae
p532
ass(Vbase
p533
g463
Vrt
p534
tp535
(dp536
Vflavours
p537
(lp538
V686-pae
p539
ass(Vbase
p540
Via64
p541
tp542
(dp543
Vkernel-arch
p544
Via64
p545
sg154
(lp546
g156
ass(Vbuild
p547
g541
tp548
(dp549
Vimage-file
p550
Vvmlinux.gz
p551
ss(Vimage
p552
g541
tp553
(dp554
Vbootloaders
p555
(lp556
Velilo
p557
asVinstall-stem
p558
Vvmlinuz
p559
ss(Vdescription
p560
g541
NVitanium
p561
tp562
(dp563
Vhardware
p564
VItanium (Merced)
p565
sVhardware-long
p566
Vsystems with original Itanium (Merced) processors
p567
ss(Vdescription
p568
g541
NVmckinley
p569
tp570
(dp571
Vhardware
p572
VItanium 2+
p573
sVhardware-long
p574
Vsystems with Itanium 2 or 9300/9500/9700-series processors
p575
ss(g185
g541
g156
tp576
(dp577
g188
(lp578
Vitanium
p579
aVmckinley
p580
asg192
I01
ss(Vbase
p581
Vm68k
p582
tp583
(dp584
Vcflags
p585
V-ffreestanding
p586
sVkernel-arch
p587
Vm68k
p588
sg154
(lp589
g156
ass(Vbuild
p590
g582
tp591
(dp592
Vimage-file
p593
Vvmlinux
p594
ss(Vimage
p595
g582
tp596
(dp597
Vsuggests
p598
Vvmelilo, fdutils
p599
sVinstall-stem
p600
Vvmlinux
p601
ss(Vdescription
p602
g582
NVm68k
p603
tp604
(dp605
Vhardware
p606
VMotorola MC68020+ family
p607
ss(g185
g582
g156
tp608
(dp609
g188
(lp610
Vm68k
p611
asg192
I01
ss(Vbase
p612
Vmips
p613
tp614
(dp615
Vkernel-arch
p616
Vmips
p617
sg154
(lp618
g156
ass(Vbuild
p619
g613
tp620
(dp621
Vimage-file
p622
Vvmlinux
p623
ss(Vimage
p624
g613
tp625
(dp626
Vinstall-stem
p627
Vvmlinux
p628
ss(Vdescription
p629
g613
NV4kc-malta
p630
tp631
(dp632
Vhardware
p633
VMIPS Malta
p634
sVhardware-long
p635
VMIPS Malta boards
p636
ss(Vimage
p637
g613
NV4kc-malta
p638
tp639
(dp640
Vconfigs
p641
(lp642
Vkernelarch-mips/config.malta
p643
aVkernelarch-mips/config.mips32r2
p644
ass(Vdescription
p645
g613
NV5kc-malta
p646
tp647
(dp648
Vhardware
p649
VMIPS Malta (64-bit)
p650
sVhardware-long
p651
VMIPS Malta boards (64-bit)
p652
ss(Vimage
p653
g613
NV5kc-malta
p654
tp655
(dp656
Vconfigs
p657
(lp658
Vkernelarch-mips/config.malta
p659
aVkernelarch-mips/config.mips64r2
p660
ass(Vdescription
p661
g613
NVocteon
p662
tp663
(dp664
Vhardware
p665
VOcteon
p666
sVhardware-long
p667
VCavium Networks Octeon
p668
ss(Vimage
p669
g613
NVocteon
p670
tp671
(dp672
Vconfigs
p673
(lp674
Vkernelarch-mips/config.octeon
p675
ass(g185
g613
g156
tp676
(dp677
g188
(lp678
V4kc-malta
p679
aV5kc-malta
p680
aVocteon
p681
asg192
I01
ss(Vbase
p682
Vmips64
p683
tp684
(dp685
Vkernel-arch
p686
Vmips
p687
sg154
(lp688
g156
ass(Vbuild
p689
g683
tp690
(dp691
Vimage-file
p692
Vvmlinux
p693
ss(Vimage
p694
g683
tp695
(dp696
Vinstall-stem
p697
Vvmlinux
p698
ss(Vdescription
p699
g683
NV5kc-malta
p700
tp701
(dp702
Vhardware
p703
VMIPS Malta
p704
sVhardware-long
p705
VMIPS Malta boards
p706
ss(Vimage
p707
g683
NV5kc-malta
p708
tp709
(dp710
Vconfigs
p711
(lp712
Vkernelarch-mips/config.malta
p713
aVkernelarch-mips/config.mips64r2
p714
ass(Vdescription
p715
g683
NVocteon
p716
tp717
(dp718
Vhardware
p719
VOcteon
p720
sVhardware-long
p721
VCavium Networks Octeon
p722
ss(Vimage
p723
g683
NVocteon
p724
tp725
(dp726
Vconfigs
p727
(lp728
Vkernelarch-mips/config.octeon
p729
ass(g185
g683
g156
tp730
(dp731
g188
(lp732
V5kc-malta
p733
aVocteon
p734
asg192
I01
ss(Vbase
p735
Vmips64el
p736
tp737
(dp738
Vkernel-arch
p739
Vmips
p740
sg154
(lp741
g156
ass(Vbuild
p742
g736
tp743
(dp744
Vimage-file
p745
Vvmlinux
p746
ss(Vimage
p747
g736
tp748
(dp749
Vinstall-stem
p750
Vvmlinux
p751
ss(Vdescription
p752
g736
NV5kc-malta
p753
tp754
(dp755
Vhardware
p756
VMIPS Malta
p757
sVhardware-long
p758
VMIPS Malta boards
p759
ss(Vimage
p760
g736
NV5kc-malta
p761
tp762
(dp763
Vconfigs
p764
(lp765
Vkernelarch-mips/config.malta
p766
aVkernelarch-mips/config.mips64r2
p767
ass(Vdescription
p768
g736
NVloongson-3
p769
tp770
(dp771
Vhardware
p772
VLoongson 3A/3B
p773
sVhardware-long
p774
VLoongson 3A or 3B based systems (e.g. from Loongson or Lemote)
p775
ss(Vimage
p776
g736
NVloongson-3
p777
tp778
(dp779
Vconfigs
p780
(lp781
Vkernelarch-mips/config.loongson-3
p782
ass(Vdescription
p783
g736
NVocteon
p784
tp785
(dp786
Vhardware
p787
VOcteon
p788
sVhardware-long
p789
VCavium Networks Octeon
p790
ss(Vimage
p791
g736
NVocteon
p792
tp793
(dp794
Vconfigs
p795
(lp796
Vkernelarch-mips/config.octeon
p797
ass(g185
g736
g156
tp798
(dp799
g188
(lp800
V5kc-malta
p801
aVloongson-3
p802
aVocteon
p803
asg192
I01
ss(Vbase
p804
Vmips64r6
p805
tp806
(dp807
Vkernel-arch
p808
Vmips
p809
sg154
(lp810
g156
ass(Vbuild
p811
g805
tp812
(dp813
Vimage-file
p814
Vvmlinux
p815
ss(Vimage
p816
g805
tp817
(dp818
Vinstall-stem
p819
Vvmlinux
p820
ss(Vdescription
p821
g805
NVmips64r6
p822
tp823
(dp824
Vhardware
p825
VMIPS R6 (64 bit, big endian)
p826
sVhardware-long
p827
VMIPS R6 (64 bit, big endian)
p828
ss(Vimage
p829
g805
NVmips64r6
p830
tp831
(dp832
Vconfigs
p833
(lp834
Vkernelarch-mips/config.boston
p835
aVkernelarch-mips/config.mips64r6
p836
ass(g185
g805
g156
tp837
(dp838
g188
(lp839
Vmips64r6
p840
asg192
I01
ss(Vbase
p841
Vmips64r6el
p842
tp843
(dp844
Vkernel-arch
p845
Vmips
p846
sg154
(lp847
g156
ass(Vbuild
p848
g842
tp849
(dp850
Vimage-file
p851
Vvmlinux
p852
ss(Vimage
p853
g842
tp854
(dp855
Vinstall-stem
p856
Vvmlinux
p857
ss(Vdescription
p858
g842
NVmips64r6el
p859
tp860
(dp861
Vhardware
p862
VMIPS R6 (64 bit, little endian)
p863
sVhardware-long
p864
VMIPS R6 (64 bit, little endian)
p865
ss(Vimage
p866
g842
NVmips64r6el
p867
tp868
(dp869
Vconfigs
p870
(lp871
Vkernelarch-mips/config.boston
p872
aVkernelarch-mips/config.mips64r6
p873
ass(g185
g842
g156
tp874
(dp875
g188
(lp876
Vmips64r6el
p877
asg192
I01
ss(Vbase
p878
Vmipsel
p879
tp880
(dp881
Vkernel-arch
p882
Vmips
p883
sg154
(lp884
g156
ass(Vbuild
p885
g879
tp886
(dp887
Vimage-file
p888
Vvmlinux
p889
ss(Vimage
p890
g879
tp891
(dp892
Vinstall-stem
p893
Vvmlinux
p894
ss(Vdescription
p895
g879
NV4kc-malta
p896
tp897
(dp898
Vhardware
p899
VMIPS Malta
p900
sVhardware-long
p901
VMIPS Malta boards
p902
ss(Vimage
p903
g879
NV4kc-malta
p904
tp905
(dp906
Vconfigs
p907
(lp908
Vkernelarch-mips/config.malta
p909
aVkernelarch-mips/config.mips32r2
p910
ass(Vdescription
p911
g879
NV5kc-malta
p912
tp913
(dp914
Vhardware
p915
VMIPS Malta (64-bit)
p916
sVhardware-long
p917
VMIPS Malta boards (64-bit)
p918
ss(Vimage
p919
g879
NV5kc-malta
p920
tp921
(dp922
Vconfigs
p923
(lp924
Vkernelarch-mips/config.malta
p925
aVkernelarch-mips/config.mips64r2
p926
ass(Vdescription
p927
g879
NVloongson-3
p928
tp929
(dp930
Vhardware
p931
VLoongson 3A/3B
p932
sVhardware-long
p933
VLoongson 3A or 3B based systems (e.g. from Loongson or Lemote)
p934
ss(Vimage
p935
g879
NVloongson-3
p936
tp937
(dp938
Vconfigs
p939
(lp940
Vkernelarch-mips/config.loongson-3
p941
ass(Vdescription
p942
g879
NVocteon
p943
tp944
(dp945
Vhardware
p946
VOcteon
p947
sVhardware-long
p948
VCavium Networks Octeon
p949
ss(Vimage
p950
g879
NVocteon
p951
tp952
(dp953
Vconfigs
p954
(lp955
Vkernelarch-mips/config.octeon
p956
ass(g185
g879
g156
tp957
(dp958
g188
(lp959
V4kc-malta
p960
aV5kc-malta
p961
aVloongson-3
p962
aVocteon
p963
asg192
I01
ss(Vbase
p964
Vmipsn32
p965
tp966
(dp967
Vkernel-arch
p968
Vmips
p969
sVfeaturesets
p970
(lp971
ss(Vbase
p972
Vmipsn32el
p973
tp974
(dp975
Vkernel-arch
p976
Vmips
p977
sVfeaturesets
p978
(lp979
ss(Vbase
p980
Vmipsn32r6
p981
tp982
(dp983
Vkernel-arch
p984
Vmips
p985
sVfeaturesets
p986
(lp987
ss(Vbase
p988
Vmipsn32r6el
p989
tp990
(dp991
Vkernel-arch
p992
Vmips
p993
sVfeaturesets
p994
(lp995
ss(Vbase
p996
Vmipsr6
p997
tp998
(dp999
Vkernel-arch
p1000
Vmips
p1001
sg154
(lp1002
g156
ass(Vbuild
p1003
g997
tp1004
(dp1005
Vimage-file
p1006
Vvmlinux
p1007
ss(Vimage
p1008
g997
tp1009
(dp1010
Vinstall-stem
p1011
Vvmlinux
p1012
ss(Vdescription
p1013
g997
NVmips32r6
p1014
tp1015
(dp1016
Vhardware
p1017
VMIPS R6 (32 bit, big endian)
p1018
sVhardware-long
p1019
VMIPS R6 (32 bit, big endian)
p1020
ss(Vimage
p1021
g997
NVmips32r6
p1022
tp1023
(dp1024
Vconfigs
p1025
(lp1026
Vkernelarch-mips/config.boston
p1027
aVkernelarch-mips/config.mips32r6
p1028
ass(Vdescription
p1029
g997
NVmips64r6
p1030
tp1031
(dp1032
Vhardware
p1033
VMIPS R6 (64 bit, big endian)
p1034
sVhardware-long
p1035
VMIPS R6 (64 bit, big endian)
p1036
ss(Vimage
p1037
g997
NVmips64r6
p1038
tp1039
(dp1040
Vconfigs
p1041
(lp1042
Vkernelarch-mips/config.boston
p1043
aVkernelarch-mips/config.mips64r6
p1044
ass(g185
g997
g156
tp1045
(dp1046
g188
(lp1047
Vmips32r6
p1048
aVmips64r6
p1049
asg192
I01
ss(Vbase
p1050
Vmipsr6el
p1051
tp1052
(dp1053
Vkernel-arch
p1054
Vmips
p1055
sg154
(lp1056
g156
ass(Vbuild
p1057
g1051
tp1058
(dp1059
Vimage-file
p1060
Vvmlinux
p1061
ss(Vimage
p1062
g1051
tp1063
(dp1064
Vinstall-stem
p1065
Vvmlinux
p1066
ss(Vdescription
p1067
g1051
NVmips32r6el
p1068
tp1069
(dp1070
Vhardware
p1071
VMIPS R6 (32 bit, little endian)
p1072
sVhardware-long
p1073
VMIPS R6 (32 bit, little endian)
p1074
ss(Vimage
p1075
g1051
NVmips32r6el
p1076
tp1077
(dp1078
Vconfigs
p1079
(lp1080
Vkernelarch-mips/config.boston
p1081
aVkernelarch-mips/config.mips32r6
p1082
ass(Vdescription
p1083
g1051
NVmips64r6el
p1084
tp1085
(dp1086
Vhardware
p1087
VMIPS R6 (64 bit, little endian)
p1088
sVhardware-long
p1089
VMIPS R6 (64 bit, little endian)
p1090
ss(Vimage
p1091
g1051
NVmips64r6el
p1092
tp1093
(dp1094
Vconfigs
p1095
(lp1096
Vkernelarch-mips/config.boston
p1097
aVkernelarch-mips/config.mips64r6
p1098
ass(g185
g1051
g156
tp1099
(dp1100
g188
(lp1101
Vmips32r6el
p1102
aVmips64r6el
p1103
asg192
I01
ss(Vbase
p1104
Vpowerpc
p1105
tp1106
(dp1107
Vkernel-arch
p1108
Vpowerpc
p1109
sg154
(lp1110
g156
ass(Vbuild
p1111
g1105
tp1112
(dp1113
Vimage-file
p1114
Vvmlinux
p1115
sVvdso
p1116
I01
ss(Vimage
p1117
g1105
tp1118
(dp1119
Vconfigs
p1120
(lp1121
sVsuggests
p1122
Vmkvmlinuz
p1123
sVinstall-stem
p1124
Vvmlinux
p1125
ss(Vdescription
p1126
g1105
NVpowerpc
p1127
tp1128
(dp1129
Vhardware
p1130
Vuniprocessor 32-bit PowerPC
p1131
ss(Vdescription
p1132
g1105
NVpowerpc-smp
p1133
tp1134
(dp1135
Vhardware
p1136
Vmultiprocessor 32-bit PowerPC
p1137
ss(Vimage
p1138
g1105
NVpowerpc-smp
p1139
tp1140
(dp1141
Vconfigs
p1142
(lp1143
Vpowerpc/config.powerpc
p1144
aVpowerpc/config.powerpc-smp
p1145
ass(Vdescription
p1146
g1105
NVpowerpc64
p1147
tp1148
(dp1149
Vhardware
p1150
V64-bit PowerPC
p1151
ss(Vimage
p1152
g1105
NVpowerpc64
p1153
tp1154
(dp1155
Vconfigs
p1156
(lp1157
Vkernelarch-powerpc/config-arch-64
p1158
aVkernelarch-powerpc/config-arch-64-be
p1159
ass(g185
g1105
g156
tp1160
(dp1161
g188
(lp1162
Vpowerpc
p1163
aVpowerpc-smp
p1164
aVpowerpc64
p1165
asg192
I01
ss(Vbase
p1166
Vpowerpcspe
p1167
tp1168
(dp1169
Vkernel-arch
p1170
Vpowerpc
p1171
sg154
(lp1172
g156
ass(Vbuild
p1173
g1167
tp1174
(dp1175
Vimage-file
p1176
Vvmlinux
p1177
sVvdso
p1178
I01
ss(Vimage
p1179
g1167
tp1180
(dp1181
Vsuggests
p1182
Vmkvmlinuz
p1183
sVinstall-stem
p1184
Vvmlinux
p1185
ss(Vdescription
p1186
g1167
tp1187
(dp1188
Vhardware
p1189
V32-bit PowerPC with SPE (instead of AltiVec) with SMP support
p1190
ss(g185
g1167
g156
tp1191
(dp1192
g188
(lp1193
Vpowerpcspe
p1194
asg192
I01
ss(Vbase
p1195
Vppc64
p1196
tp1197
(dp1198
Vkernel-arch
p1199
Vpowerpc
p1200
sg154
(lp1201
g156
ass(Vbuild
p1202
g1196
tp1203
(dp1204
Vimage-file
p1205
Vvmlinux
p1206
sVvdso
p1207
I01
ss(Vimage
p1208
g1196
tp1209
(dp1210
Vconfigs
p1211
(lp1212
sVsuggests
p1213
Vmkvmlinuz
p1214
sVinstall-stem
p1215
Vvmlinux
p1216
ss(Vdescription
p1217
g1196
NVpowerpc64
p1218
tp1219
(dp1220
Vhardware
p1221
V64-bit PowerPC
p1222
ss(Vimage
p1223
g1196
NVpowerpc64
p1224
tp1225
(dp1226
Vconfigs
p1227
(lp1228
Vkernelarch-powerpc/config-arch-64
p1229
aVkernelarch-powerpc/config-arch-64-be
p1230
ass(g185
g1196
g156
tp1231
(dp1232
g188
(lp1233
Vpowerpc64
p1234
asg192
I01
ss(Vbase
p1235
Vppc64el
p1236
tp1237
(dp1238
Vkernel-arch
p1239
Vpowerpc
p1240
sg154
(lp1241
g156
ass(Vbuild
p1242
g1236
tp1243
(dp1244
Vimage-file
p1245
Vvmlinux
p1246
sVvdso
p1247
I01
ss(Vimage
p1248
g1236
tp1249
(dp1250
Vconfigs
p1251
(lp1252
sVsuggests
p1253
Vmkvmlinuz
p1254
sVinstall-stem
p1255
Vvmlinux
p1256
ss(Vdescription
p1257
g1236
NVpowerpc64le
p1258
tp1259
(dp1260
Vhardware
p1261
VLittle-endian 64-bit PowerPC
p1262
ss(Vimage
p1263
g1236
NVpowerpc64le
p1264
tp1265
(dp1266
Vconfigs
p1267
(lp1268
Vkernelarch-powerpc/config-arch-64
p1269
aVkernelarch-powerpc/config-arch-64-le
p1270
ass(g185
g1236
g156
tp1271
(dp1272
g188
(lp1273
Vpowerpc64le
p1274
asg192
I01
ss(Vbase
p1275
Vriscv64
p1276
tp1277
(dp1278
Vkernel-arch
p1279
Vriscv
p1280
sVfeaturesets
p1281
(lp1282
ss(Vbase
p1283
Vs390
p1284
tp1285
(dp1286
Vkernel-arch
p1287
Vs390
p1288
sVfeaturesets
p1289
(lp1290
ss(Vbase
p1291
Vs390x
p1292
tp1293
(dp1294
Vkernel-arch
p1295
Vs390
p1296
sg154
(lp1297
g156
ass(Vbuild
p1298
g1292
tp1299
(dp1300
Vimage-file
p1301
Varch/s390/boot/image
p1302
sVvdso
p1303
I01
ss(Vimage
p1304
g1292
tp1305
(dp1306
Vbootloaders
p1307
(lp1308
Vs390-tools
p1309
asVinstall-stem
p1310
Vvmlinuz
p1311
ss(Vrelations
p1312
g1292
tp1313
(dp1314
Vheaders%gcc-7
p1315
Vlinux-compiler-gcc-7-s390
p1316
ss(Vbuild
p1317
g1292
NVs390x
p1318
tp1319
(dp1320
Vdebug-info
p1321
I01
ss(Vdescription
p1322
g1292
NVs390x
p1323
tp1324
(dp1325
Vhardware
p1326
VIBM zSeries
p1327
ss(g185
g1292
g156
tp1328
(dp1329
g188
(lp1330
Vs390x
p1331
asg192
I01
ss(Vbase
p1332
Vsh3
p1333
tp1334
(dp1335
Vkernel-arch
p1336
Vsh
p1337
sVfeaturesets
p1338
(lp1339
ss(Vbase
p1340
Vsh4
p1341
tp1342
(dp1343
Vkernel-arch
p1344
Vsh
p1345
sg154
(lp1346
g156
ass(Vbuild
p1347
g1341
tp1348
(dp1349
Vimage-file
p1350
Varch/sh/boot/zImage
p1351
ss(Vimage
p1352
g1341
tp1353
(dp1354
Vinstall-stem
p1355
Vvmlinuz
p1356
ss(Vdescription
p1357
g1341
NVsh7751r
p1358
tp1359
(dp1360
Vhardware
p1361
Vsh7751r
p1362
sVhardware-long
p1363
VRenesas SH7751R R2D plus board
p1364
ss(Vdescription
p1365
g1341
NVsh7785lcr
p1366
tp1367
(dp1368
Vhardware
p1369
Vsh7785lcr
p1370
sVhardware-long
p1371
VRenesas SH7785 reference board
p1372
ss(Vimage
p1373
g1341
NVsh7785lcr
p1374
tp1375
(dp1376
Vrecommends
p1377
Vu-boot-tools
p1378
sVcheck-size
p1379
L4194304L
ss(g185
g1341
g156
tp1380
(dp1381
g188
(lp1382
Vsh7751r
p1383
aVsh7785lcr
p1384
asg192
I01
ss(Vbase
p1385
Vsparc
p1386
tp1387
(dp1388
Vkernel-arch
p1389
Vsparc
p1390
sVfeaturesets
p1391
(lp1392
ss(Vbase
p1393
Vsparc64
p1394
tp1395
(dp1396
Vkernel-arch
p1397
Vsparc
p1398
sg154
(lp1399
g156
ass(Vbuild
p1400
g1394
tp1401
(dp1402
Vimage-file
p1403
Varch/sparc/boot/zImage
p1404
ss(Vimage
p1405
g1394
tp1406
(dp1407
Vconfigs
p1408
(lp1409
sVsuggests
p1410
Vsilo, fdutils
p1411
sVinstall-stem
p1412
Vvmlinuz
p1413
ss(Vdescription
p1414
g1394
NVsparc64
p1415
tp1416
(dp1417
Vhardware
p1418
Vuniprocessor 64-bit UltraSPARC
p1419
ss(Vimage
p1420
g1394
NVsparc64
p1421
tp1422
(dp1423
Vconfigs
p1424
(lp1425
Vkernelarch-sparc/config-up
p1426
ass(Vdescription
p1427
g1394
NVsparc64-smp
p1428
tp1429
(dp1430
Vhardware
p1431
Vmultiprocessor 64-bit UltraSPARC
p1432
ss(Vimage
p1433
g1394
NVsparc64-smp
p1434
tp1435
(dp1436
Vconfigs
p1437
(lp1438
Vkernelarch-sparc/config-smp
p1439
ass(g185
g1394
g156
tp1440
(dp1441
g188
(lp1442
Vsparc64
p1443
aVsparc64-smp
p1444
asg192
I01
ss(Vbase
p1445
Vtilegx
p1446
tp1447
(dp1448
Vkernel-arch
p1449
Vtile
p1450
sVfeaturesets
p1451
(lp1452
ss(Vbase
p1453
Vx32
p1454
tp1455
(dp1456
Vkernel-arch
p1457
Vx86
p1458
sVfeaturesets
p1459
(lp1460
ss(Vabi
p1461
NVrt
p1462
tp1463
(dp1464
Vignore-changes
p1465
(lp1466
V*
p1467
ass(Vdescription
p1468
Ng1462
tp1469
(dp1470
Vpart-long-rt
p1471
VThis kernel includes the PREEMPT_RT realtime patch set.
p1472
sVpart-short-rt
p1473
VPREEMPT_RT
p1474
sVparts
p1475
(lp1476
Vrt
p1477
ass(Vversion
p1478
tp1479
(dp1480
Vsource
p1481
V4.17.6-2
p1482
sVupstream
p1483
V4.17
p1484
sVabiname_base
p1485
V4.17.0
p1486
sVabiname
p1487
V4.17.0-1
p1488
ss.