ccopy_reg
_reconstructor
p0
(cdebian_linux.config
ConfigCore
p1
c__builtin__
dict
p2
(dp3
(S'image'
p4
S'amd64'
p5
tp6
(dp7
S'install-stem'
p8
S'vmlinuz'
p9
sS'configs'
p10
(lp11
sS'bootloaders'
p12
(lp13
S'grub-pc'
p14
aS'grub-efi'
p15
aS'extlinux'
p16
ass(S'description'
p17
S'mips64'
p18
NS'sb1-bcm91250a'
p19
tp20
(dp21
S'hardware'
p22
S'BCM91250A'
p23
sS'hardware-long'
p24
S'Broadcom BCM91250A systems (aka SWARM)'
p25
ss(S'description'
p26
S'sh4'
p27
NS'sh7751r'
p28
tp29
(dp30
S'hardware'
p31
S'sh7751r'
p32
sS'hardware-long'
p33
S'Renesas SH7751R R2D plus board'
p34
ss(S'base'
p35
g5
S'none'
p36
tp37
(dp38
S'flavours'
p39
(lp40
S'amd64'
p41
ass(S'image'
p42
S'mips'
p43
NS'octeon'
p44
tp45
(dp46
S'configs'
p47
(lp48
S'kernelarch-mips/config.octeon'
p49
ass(S'image'
p50
S'ia64'
p51
tp52
(dp53
S'suggests'
p54
S'fdutils'
p55
sS'bootloaders'
p56
(lp57
S'elilo'
p58
asS'install-stem'
p59
S'vmlinuz'
p60
ss(S'abi'
p61
NS'rt'
p62
tp63
(dp64
S'ignore-changes'
p65
(lp66
S'*'
p67
ass(S'image'
p68
S'i386'
p69
NS'586'
p70
tp71
(dp72
S'configs'
p73
(lp74
S'kernelarch-x86/config-arch-32'
p75
aS'i386/config.586'
p76
ass(S'description'
p77
S'arm64'
p78
NS'arm64'
p79
tp80
(dp81
S'hardware'
p82
S'64-bit ARMv8 machines'
p83
ss(S'version'
p84
tp85
(dp86
S'abiname'
p87
S'4.1.0-kali1'
p88
sS'source'
p89
V4.1.6-1kali1
p90
sS'abiname_base'
p91
S'4.1.0'
p92
sS'upstream'
p93
S'4.1'
p94
ss(S'description'
p95
S'powerpc'
p96
NS'powerpc-smp'
p97
tp98
(dp99
S'hardware'
p100
S'multiprocessor 32-bit PowerPC'
p101
ss(S'description'
p102
g5
g36
S'amd64'
p103
tp104
(dp105
S'parts'
p106
(lp107
S'xen'
p108
ass(S'description'
p109
g18
NS'5kc-malta'
p110
tp111
(dp112
S'hardware'
p113
S'MIPS Malta'
p114
sS'hardware-long'
p115
S'MIPS Malta boards'
p116
ss(S'base'
p117
S'ppc64'
p118
S'none'
p119
tp120
(dp121
S'implicit-flavour'
p122
I01
sS'flavours'
p123
(lp124
S'powerpc64'
p125
ass(S'description'
p126
S'hppa'
p127
NS'parisc'
p128
tp129
(dp130
S'hardware'
p131
S'32-bit PA-RISC'
p132
sS'hardware-long'
p133
S'HP PA-RISC 32-bit systems with max 4 GB RAM'
p134
ss(S'description'
p135
g43
NS'r4k-ip22'
p136
tp137
(dp138
S'hardware'
p139
S'SGI IP22'
p140
sS'hardware-long'
p141
S'SGI IP22 systems (Indy, Indigo2)'
p142
ss(S'image'
p143
g27
NS'sh7785lcr'
p144
tp145
(dp146
S'check-size'
p147
I4194304
sS'recommends'
p148
S'u-boot-tools'
p149
ss(S'description'
p150
g96
NS'powerpc'
p151
tp152
(dp153
S'hardware'
p154
S'uniprocessor 32-bit PowerPC'
p155
ss(S'base'
p156
S'alpha'
p157
tp158
(dp159
S'kernel-arch'
p160
S'alpha'
p161
sS'featuresets'
p162
(lp163
g119
ass(S'description'
p164
g43
NS'5kc-malta'
p165
tp166
(dp167
S'hardware'
p168
S'MIPS Malta (64-bit)'
p169
sS'hardware-long'
p170
S'MIPS Malta boards (64-bit)'
p171
ss(S'image'
p172
g18
NS'octeon'
p173
tp174
(dp175
S'configs'
p176
(lp177
S'kernelarch-mips/config.octeon'
p178
ass(g117
S'armhf'
p179
g119
tp180
(dp181
g122
I01
sg123
(lp182
S'armmp'
p183
aS'armmp-lpae'
p184
ass(S'description'
p185
g43
NS'sb1-bcm91250a'
p186
tp187
(dp188
S'hardware'
p189
S'BCM91250A'
p190
sS'hardware-long'
p191
S'Broadcom BCM91250A systems (aka SWARM)'
p192
ss(S'base'
p193
g69
S'rt'
p194
tp195
(dp196
S'flavours'
p197
(lp198
S'686-pae'
p199
ass(S'image'
p200
S'mips64el'
p201
NS'5kc-malta'
p202
tp203
(dp204
S'configs'
p205
(lp206
S'kernelarch-mips/config.5kc-malta'
p207
ass(S'description'
p208
S'mipsel'
p209
NS'sb1-bcm91250a'
p210
tp211
(dp212
S'hardware'
p213
S'BCM91250A'
p214
sS'hardware-long'
p215
S'Broadcom BCM91250A systems (aka SWARM)'
p216
ss(S'image'
p217
g209
NS'loongson-3'
p218
tp219
(dp220
S'configs'
p221
(lp222
S'kernelarch-mips/config.loongson-3'
p223
ass(S'relations'
p224
g69
tp225
(dp226
S'headers%gcc-4.9'
p227
S'linux-compiler-gcc-4.9-x86'
p228
ss(S'image'
p229
g209
NS'4kc-malta'
p230
tp231
(dp232
S'configs'
p233
(lp234
S'kernelarch-mips/config.4kc-malta'
p235
ass(S'description'
p236
g209
NS'loongson-3'
p237
tp238
(dp239
S'hardware'
p240
S'Loongson 3A/3B'
p241
sS'hardware-long'
p242
S'Loongson 3A or 3B based systems (e.g. from Loongson or Lemote)'
p243
ss(S'image'
p244
g96
tp245
(dp246
S'suggests'
p247
S'mkvmlinuz'
p248
sS'configs'
p249
(lp250
sS'install-stem'
p251
S'vmlinux'
p252
ss(S'description'
p253
g157
NS'alpha-generic'
p254
tp255
(dp256
S'hardware'
p257
S'Alpha'
p258
sS'hardware-long'
p259
S'DEC Alpha systems with extended kernel start address (Wildfire, Titan, Marvel)'
p260
ss(S'description'
p261
S'sparc64'
p262
NS'sparc64'
p263
tp264
(dp265
S'hardware'
p266
S'uniprocessor 64-bit UltraSPARC'
p267
ss(S'base'
p268
g5
S'rt'
p269
tp270
(dp271
S'flavours'
p272
(lp273
S'amd64'
p274
ass(S'build'
p275
S'ppc64el'
p276
tp277
(dp278
S'image-file'
p279
S'vmlinux'
p280
ss(S'build'
p281
g118
tp282
(dp283
S'image-file'
p284
S'vmlinux'
p285
ss(S'image'
p286
g43
NS'sb1-bcm91250a'
p287
tp288
(dp289
S'configs'
p290
(lp291
S'kernelarch-mips/config.sb1-bcm91250a'
p292
ass(S'description'
p293
g43
NS'octeon'
p294
tp295
(dp296
S'hardware'
p297
S'Octeon'
p298
sS'hardware-long'
p299
S'Cavium Networks Octeon'
p300
ss(S'image'
p301
g78
NS'arm64'
p302
tp303
(dp304
s(S'image'
p305
S'armel'
p306
NS'orion5x'
p307
tp308
(dp309
S'check-size'
p310
I2097080
sS'check-size-with-dtb'
p311
I01
sS'configs'
p312
(lp313
S'armel/config-reduced'
p314
aS'armel/config.orion5x'
p315
asS'recommends'
p316
S'u-boot-tools'
p317
ss(S'base'
p318
g69
tp319
(dp320
S'kernel-arch'
p321
S'x86'
p322
sS'featuresets'
p323
(lp324
S'none'
p325
aS'rt'
p326
ass(S'base'
p327
g209
tp328
(dp329
S'kernel-arch'
p330
S'mips'
p331
sg162
(lp332
g119
ass(S'relations'
p333
g5
tp334
(dp335
S'headers%gcc-4.9'
p336
S'linux-compiler-gcc-4.9-x86'
p337
ss(S'build'
p338
g69
NS'686-pae'
p339
tp340
(dp341
S'debug-info'
p342
I01
ss(S'image'
p343
g179
NS'armmp-lpae'
p344
tp345
(dp346
S'configs'
p347
(lp348
S'armhf/config.armmp'
p349
aS'armhf/config.lpae'
p350
ass(g117
g209
g119
tp351
(dp352
g122
I01
sg123
(lp353
S'sb1-bcm91250a'
p354
aS'4kc-malta'
p355
aS'5kc-malta'
p356
aS'loongson-2e'
p357
aS'loongson-2f'
p358
aS'loongson-3'
p359
ass(S'image'
p360
g69
NS'686-pae'
p361
tp362
(dp363
S'configs'
p364
(lp365
S'kernelarch-x86/config-arch-32'
p366
aS'i386/config.686-pae'
p367
asS'recommends'
p368
S'libc6-i686'
p369
ss(S'description'
p370
S'powerpcspe'
p371
tp372
(dp373
S'hardware'
p374
S'32-bit PowerPC with SPE (instead of AltiVec) with SMP support'
p375
ss(S'relations'
p376
tp377
(dp378
S'gcc-4.9'
p379
S'gcc-4.9'
p380
sS'gcc-4.8'
p381
S'gcc-4.8'
p382
sS'initramfs-fallback'
p383
S'linux-initramfs-tool'
p384
sS'gcc-4.7'
p385
S'gcc-4.7'
p386
sS'gcc-4.6'
p387
S'gcc-4.6'
p388
sS'initramfs-tools'
p389
S'initramfs-tools (>= 0.110~)'
p390
ss(S'image'
p391
g209
NS'loongson-2f'
p392
tp393
(dp394
S'configs'
p395
(lp396
S'kernelarch-mips/config.loongson-2f'
p397
asS'recommends'
p398
S'libc6-loongson2f'
p399
ss(S'image'
p400
g96
NS'powerpc64'
p401
tp402
(dp403
S'configs'
p404
(lp405
S'kernelarch-powerpc/config-arch-64'
p406
aS'kernelarch-powerpc/config-arch-64-be'
p407
ass(S'description'
p408
g18
NS'octeon'
p409
tp410
(dp411
S'hardware'
p412
S'Octeon'
p413
sS'hardware-long'
p414
S'Cavium Networks Octeon'
p415
ss(g117
g201
g119
tp416
(dp417
g122
I01
sg123
(lp418
S'sb1-bcm91250a'
p419
aS'5kc-malta'
p420
aS'loongson-3'
p421
aS'octeon'
p422
ass(S'build'
p423
g371
tp424
(dp425
S'image-file'
p426
S'vmlinux'
p427
ss(S'description'
p428
g306
NS'versatile'
p429
tp430
(dp431
S'hardware'
p432
S'Versatile'
p433
sS'hardware-long'
p434
S'Versatile systems (PB, AB, Qemu)'
p435
ss(S'build'
p436
g127
tp437
(dp438
S'image-file'
p439
S'vmlinux'
p440
ss(S'image'
p441
g157
tp442
(dp443
S'suggests'
p444
S'aboot, fdutils'
p445
sS'install-stem'
p446
S'vmlinuz'
p447
ss(S'description'
p448
g69
NS'586'
p449
tp450
(dp451
S'hardware'
p452
S'older PCs'
p453
sS'parts'
p454
(lp455
S'up'
p456
asS'hardware-long'
p457
S'PCs with a single processor not supporting PAE'
p458
ss(S'description'
p459
g262
NS'sparc64-smp'
p460
tp461
(dp462
S'hardware'
p463
S'multiprocessor 64-bit UltraSPARC'
p464
ss(S'base'
p465
g306
tp466
(dp467
S'kernel-arch'
p468
S'arm'
p469
sg162
(lp470
g119
ass(S'description'
p471
g201
NS'sb1-bcm91250a'
p472
tp473
(dp474
S'hardware'
p475
S'BCM91250A'
p476
sS'hardware-long'
p477
S'Broadcom BCM91250A systems (aka SWARM)'
p478
ss(S'description'
p479
g157
NS'alpha-smp'
p480
tp481
(dp482
S'hardware'
p483
S'Alpha SMP'
p484
sS'hardware-long'
p485
S'DEC Alpha SMP systems with extended kernel start address (Wildfire, Titan, Marvel)'
p486
ss(S'image'
p487
g118
NS'powerpc64'
p488
tp489
(dp490
S'configs'
p491
(lp492
S'kernelarch-powerpc/config-arch-64'
p493
aS'kernelarch-powerpc/config-arch-64-be'
p494
ass(S'description'
p495
g127
NS'parisc64-smp'
p496
tp497
(dp498
S'hardware'
p499
S'multiprocessor 64-bit PA-RISC'
p500
sS'hardware-long'
p501
S'HP PA-RISC 64-bit SMP systems with support for more than 4 GB RAM'
p502
ss(S'base'
p503
g371
tp504
(dp505
S'kernel-arch'
p506
S'powerpc'
p507
sg162
(lp508
g119
ass(g117
g96
g119
tp509
(dp510
g122
I01
sg123
(lp511
S'powerpc'
p512
aS'powerpc-smp'
p513
aS'powerpc64'
p514
ass(S'description'
p515
g51
NS'itanium'
p516
tp517
(dp518
S'hardware'
p519
S'Itanium'
p520
ss(S'image'
p521
g43
NS'4kc-malta'
p522
tp523
(dp524
S'configs'
p525
(lp526
S'kernelarch-mips/config.4kc-malta'
p527
ass(g117
S's390x'
p528
g119
tp529
(dp530
g122
I01
sg123
(lp531
S's390x'
p532
ass(S'base'
p533
g43
tp534
(dp535
S'kernel-arch'
p536
S'mips'
p537
sg162
(lp538
g119
ass(S'build'
p539
g5
tp540
(dp541
S'debug-info'
p542
I01
sS'image-file'
p543
S'arch/x86/boot/bzImage'
p544
ss(S'description'
p545
g201
NS'5kc-malta'
p546
tp547
(dp548
S'hardware'
p549
S'MIPS Malta'
p550
sS'hardware-long'
p551
S'MIPS Malta boards'
p552
ss(S'base'
p553
g127
NS'parisc64-smp'
p554
tp555
(dp556
S'override-host-type'
p557
S'hppa64-linux-gnu'
p558
sS'cflags'
p559
S'-fno-cse-follow-jumps'
p560
ss(S'image'
p561
g276
NS'powerpc64le'
p562
tp563
(dp564
S'configs'
p565
(lp566
S'kernelarch-powerpc/config-arch-64'
p567
aS'kernelarch-powerpc/config-arch-64-le'
p568
ass(S'build'
p569
S'sparc'
p570
tp571
(dp572
S'image-file'
p573
S'arch/sparc/boot/zImage'
p574
ss(S'image'
p575
g209
tp576
(dp577
S'install-stem'
p578
S'vmlinux'
p579
ss(S'description'
p580
g570
NS'sparc64-smp'
p581
tp582
(dp583
S'hardware'
p584
S'multiprocessor 64-bit UltraSPARC'
p585
ss(S'build'
p586
g96
tp587
(dp588
S'image-file'
p589
S'vmlinux'
p590
ss(S'build'
p591
g78
tp592
(dp593
S'debug-info'
p594
I01
sS'image-file'
p595
S'arch/arm64/boot/Image'
p596
ss(S'build'
p597
g209
tp598
(dp599
S'image-file'
p600
S'vmlinux'
p601
ss(S'base'
p602
g18
tp603
(dp604
S'kernel-arch'
p605
S'mips'
p606
sg162
(lp607
g119
ass(S'base'
p608
g528
tp609
(dp610
S'kernel-arch'
p611
S's390'
p612
sg162
(lp613
g119
asS'compiler'
p614
S'gcc-4.8'
p615
ss(S'base'
p616
g5
tp617
(dp618
S'kernel-arch'
p619
S'x86'
p620
sS'featuresets'
p621
(lp622
S'none'
p623
aS'rt'
p624
ass(S'base'
p625
g51
tp626
(dp627
S'kernel-arch'
p628
S'ia64'
p629
sg162
(lp630
g119
asS'compiler'
p631
S'gcc-4.6'
p632
ss(S'image'
p633
g209
NS'5kc-malta'
p634
tp635
(dp636
S'configs'
p637
(lp638
S'kernelarch-mips/config.5kc-malta'
p639
ass(S'base'
p640
S's390'
p641
tp642
(dp643
S'kernel-arch'
p644
S's390'
p645
sS'featuresets'
p646
(lp647
ss(g117
g306
g119
tp648
(dp649
g122
I01
sg123
(lp650
S'kirkwood'
p651
aS'orion5x'
p652
aS'versatile'
p653
ass(S'description'
p654
g51
NS'mckinley'
p655
tp656
(dp657
S'hardware'
p658
S'Itanium II'
p659
ss(S'description'
p660
g209
NS'5kc-malta'
p661
tp662
(dp663
S'hardware'
p664
S'MIPS Malta (64-bit)'
p665
sS'hardware-long'
p666
S'MIPS Malta boards (64-bit)'
p667
ss(S'description'
p668
g69
tp669
(dp670
S'part-long-pae'
p671
S'This kernel requires PAE (Physical Address Extension).\nThis feature is supported by the Intel Pentium Pro/II/III/4/4M/D, Xeon,\nCore and Atom; AMD Geode NX, Athlon (K7), Duron, Opteron, Sempron,\nTurion or Phenom; Transmeta Efficeon; VIA C7; and some other processors.'
p672
ss(S'build'
p673
g201
tp674
(dp675
S'image-file'
p676
S'vmlinux'
p677
ss(S'xen'
p678
g5
g36
S'amd64'
p679
tp680
(dp681
S'flavours'
p682
(lp683
S'amd64'
p684
ass(S'image'
p685
g306
tp686
(dp687
S'suggests'
p688
S'fdutils'
p689
sS'configs'
p690
(lp691
S'kernelarch-arm/config'
p692
aS'armel/config'
p693
asS'install-stem'
p694
S'vmlinuz'
p695
ss(S'relations'
p696
g306
tp697
(dp698
S'headers%gcc-4.9'
p699
S'linux-compiler-gcc-4.9-arm'
p700
ss(S'image'
p701
g127
tp702
(dp703
S'suggests'
p704
S'palo'
p705
sS'install-stem'
p706
S'vmlinux'
p707
ss(S'description'
p708
g179
NS'armmp'
p709
tp710
(dp711
S'hardware'
p712
S'ARMv7 multiplatform compatible SoCs'
p713
sS'hardware-long'
p714
S'ARMv7 multiplatform kernel. See\nhttps://wiki.debian.org/DebianKernel/ARMMP for details of supported\nplatforms'
p715
ss(S'image'
p716
g371
tp717
(dp718
S'suggests'
p719
S'mkvmlinuz'
p720
sS'install-stem'
p721
S'vmlinux'
p722
ss(S'relations'
p723
g127
tp724
(dp725
S'gcc-4.9'
p726
S'gcc-4.9, binutils-hppa64, gcc-4.9-hppa64'
p727
ss(S'description'
p728
g43
NS'4kc-malta'
p729
tp730
(dp731
S'hardware'
p732
S'MIPS Malta'
p733
sS'hardware-long'
p734
S'MIPS Malta boards'
p735
ss(S'image'
p736
g43
NS'r4k-ip22'
p737
tp738
(dp739
S'configs'
p740
(lp741
S'kernelarch-mips/config.r4k-ip22'
p742
ass(S'image'
p743
g262
NS'sparc64-smp'
p744
tp745
(dp746
S'configs'
p747
(lp748
S'kernelarch-sparc/config-smp'
p749
ass(S'description'
p750
g276
NS'powerpc64le'
p751
tp752
(dp753
S'hardware'
p754
S'Little-endian 64-bit PowerPC'
p755
ss(S'description'
p756
g570
NS'sparc64'
p757
tp758
(dp759
S'hardware'
p760
S'uniprocessor 64-bit UltraSPARC'
p761
ss(S'image'
p762
g306
NS'kirkwood'
p763
tp764
(dp765
S'check-size'
p766
I2097080
sS'check-size-with-dtb'
p767
I01
sS'breaks'
p768
S'flash-kernel (<< 3.30~)'
p769
sS'recommends'
p770
S'u-boot-tools'
p771
sS'configs'
p772
(lp773
S'armel/config-reduced'
p774
aS'armel/config.kirkwood'
p775
ass(g117
g127
g119
tp776
(dp777
g122
I01
sg123
(lp778
S'parisc'
p779
aS'parisc64-smp'
p780
ass(S'image'
p781
g43
NS'r5k-ip32'
p782
tp783
(dp784
S'configs'
p785
(lp786
S'kernelarch-mips/config.r5k-ip32'
p787
ass(S'image'
p788
g96
NS'powerpc-smp'
p789
tp790
(dp791
S'configs'
p792
(lp793
S'powerpc/config.powerpc'
p794
aS'powerpc/config.powerpc-smp'
p795
ass(S'base'
p796
g262
tp797
(dp798
S'kernel-arch'
p799
S'sparc'
p800
sg162
(lp801
g119
ass(S'image'
p802
g18
NS'5kc-malta'
p803
tp804
(dp805
S'configs'
p806
(lp807
S'kernelarch-mips/config.5kc-malta'
p808
ass(S'base'
p809
S'or1k'
p810
tp811
(dp812
S'kernel-arch'
p813
S'openrisc'
p814
sS'featuresets'
p815
(lp816
ss(S'description'
p817
g69
NS'686-pae'
p818
tp819
(dp820
S'hardware'
p821
S'modern PCs'
p822
sS'parts'
p823
(lp824
S'pae'
p825
asS'hardware-long'
p826
S'PCs with one or more processors supporting PAE'
p827
ss(S'description'
p828
g27
NS'sh7785lcr'
p829
tp830
(dp831
S'hardware'
p832
S'sh7785lcr'
p833
sS'hardware-long'
p834
S'Renesas SH7785 reference board'
p835
ss(S'image'
p836
g570
NS'sparc32'
p837
tp838
(dp839
S'image-postproc'
p840
S'sparc32-image-postproc'
p841
ss(S'image'
p842
g201
NS'sb1-bcm91250a'
p843
tp844
(dp845
S'configs'
p846
(lp847
S'kernelarch-mips/config.sb1-bcm91250a'
p848
ass(S'image'
p849
g118
tp850
(dp851
S'suggests'
p852
S'mkvmlinuz'
p853
sS'configs'
p854
(lp855
sS'install-stem'
p856
S'vmlinux'
p857
ss(S'image'
p858
g43
tp859
(dp860
S'install-stem'
p861
S'vmlinux'
p862
ss(S'image'
p863
g69
tp864
(dp865
S'install-stem'
p866
S'vmlinuz'
p867
sS'configs'
p868
(lp869
sS'bootloaders'
p870
(lp871
S'grub-pc'
p872
aS'extlinux'
p873
ass(g117
g570
g119
tp874
(dp875
g122
I01
sg123
(lp876
S'sparc64'
p877
aS'sparc64-smp'
p878
ass(S'base'
p879
NS'rt'
p880
tp881
(dp882
S'enabled'
p883
I00
ss(g117
g157
g119
tp884
(dp885
g122
I01
sg123
(lp886
S'alpha-generic'
p887
aS'alpha-smp'
p888
ass(S'description'
p889
g69
S'none'
p890
S'686-pae'
p891
tp892
(dp893
S'parts'
p894
(lp895
S'xen'
p896
ass(g117
g51
g119
tp897
(dp898
g122
I01
sg123
(lp899
S'itanium'
p900
aS'mckinley'
p901
ass(S'base'
p902
g118
tp903
(dp904
S'kernel-arch'
p905
S'powerpc'
p906
sg162
(lp907
g119
ass(S'description'
p908
g5
NS'amd64'
p909
tp910
(dp911
S'hardware'
p912
S'64-bit PCs'
p913
sS'hardware-long'
p914
S'PCs with AMD64, Intel 64 or VIA Nano processors'
p915
ss(S'build'
p916
g528
tp917
(dp918
S'image-file'
p919
S'arch/s390/boot/image'
p920
ss(g117
g43
g119
tp921
(dp922
g122
I01
sg123
(lp923
S'r4k-ip22'
p924
aS'r5k-ip32'
p925
aS'sb1-bcm91250a'
p926
aS'4kc-malta'
p927
aS'5kc-malta'
p928
aS'octeon'
p929
ass(S'build'
p930
g43
tp931
(dp932
S'image-file'
p933
S'vmlinux'
p934
ss(S'description'
p935
S'm68k'
p936
NS'm68k'
p937
tp938
(dp939
S'hardware'
p940
S'Motorola MC68020+ family'
p941
ss(S'image'
p942
g18
tp943
(dp944
S'install-stem'
p945
S'vmlinux'
p946
ss(g117
g27
g119
tp947
(dp948
g122
I01
sg123
(lp949
S'sh7751r'
p950
aS'sh7785lcr'
p951
ass(S'description'
p952
g209
NS'loongson-2f'
p953
tp954
(dp955
S'hardware'
p956
S'Loongson 2F'
p957
sS'hardware-long'
p958
S'Lemote Loongson 2F systems'
p959
ss(S'base'
p960
S'x32'
p961
tp962
(dp963
S'kernel-arch'
p964
S'x86'
p965
sS'featuresets'
p966
(lp967
ss(S'build'
p968
g27
tp969
(dp970
S'image-file'
p971
S'arch/sh/boot/zImage'
p972
ss(S'image'
p973
g936
tp974
(dp975
S'suggests'
p976
S'vmelilo, fdutils'
p977
sS'install-stem'
p978
S'vmlinuz'
p979
ss(S'base'
p980
g78
S'none'
p981
tp982
(dp983
S'flavours'
p984
(lp985
S'arm64'
p986
ass(S'description'
p987
g43
NS'r5k-ip32'
p988
tp989
(dp990
S'hardware'
p991
S'SGI IP32'
p992
sS'hardware-long'
p993
S'SGI IP32 systems (O2)'
p994
ss(S'build'
p995
g18
tp996
(dp997
S'image-file'
p998
S'vmlinux'
p999
ss(S'build'
p1000
g51
tp1001
(dp1002
S'image-file'
p1003
S'vmlinux.gz'
p1004
ss(S'base'
p1005
g179
tp1006
(dp1007
S'kernel-arch'
p1008
S'arm'
p1009
sg162
(lp1010
g119
ass(S'image'
p1011
g27
tp1012
(dp1013
S'suggests'
p1014
S'fdutils'
p1015
sS'install-stem'
p1016
S'vmlinuz'
p1017
ss(S'base'
p1018
g127
tp1019
(dp1020
S'kernel-arch'
p1021
S'parisc'
p1022
sg162
(lp1023
g119
ass(S'description'
p1024
g306
NS'kirkwood'
p1025
tp1026
(dp1027
S'hardware'
p1028
S'Marvell Kirkwood'
p1029
sS'hardware-long'
p1030
S'Marvell Kirkwood based systems (SheevaPlug, QNAP TS-119/TS-219, etc)'
p1031
ss(S'base'
p1032
g27
tp1033
(dp1034
S'kernel-arch'
p1035
S'sh'
p1036
sg162
(lp1037
g119
ass(S'image'
p1038
g570
tp1039
(dp1040
S'suggests'
p1041
S'silo, fdutils'
p1042
sS'configs'
p1043
(lp1044
sS'install-stem'
p1045
S'vmlinuz'
p1046
ss(S'description'
p1047
tp1048
(dp1049
S'part-long-up'
p1050
S'This kernel is not suitable for SMP (multi-processor,\nmulti-core or hyper-threaded) systems.'
p1051
sS'part-long-xen'
p1052
S'This kernel also runs on a Xen hypervisor.\nIt supports both privileged (dom0) and unprivileged (domU) operation.'
p1053
ss(S'build'
p1054
g262
tp1055
(dp1056
S'image-file'
p1057
S'arch/sparc/boot/zImage'
p1058
ss(S'relations'
p1059
g179
tp1060
(dp1061
S'headers%gcc-4.9'
p1062
S'linux-compiler-gcc-4.9-arm'
p1063
ss(S'description'
p1064
g96
NS'powerpc64'
p1065
tp1066
(dp1067
S'hardware'
p1068
S'64-bit PowerPC'
p1069
ss(S'image'
p1070
g528
NS's390x'
p1071
tp1072
(dp1073
S'configs'
p1074
(lp1075
S'kernelarch-s390/config-arch-64'
p1076
ass(S'image'
p1077
g201
NS'loongson-3'
p1078
tp1079
(dp1080
S'configs'
p1081
(lp1082
S'kernelarch-mips/config.loongson-3'
p1083
ass(S'build'
p1084
g157
tp1085
(dp1086
S'image-file'
p1087
S'arch/alpha/boot/vmlinux.gz'
p1088
ss(S'relations'
p1089
g528
tp1090
(dp1091
S'headers%gcc-4.8'
p1092
S'linux-compiler-gcc-4.8-s390'
p1093
ss(S'base'
p1094
g96
tp1095
(dp1096
S'kernel-arch'
p1097
S'powerpc'
p1098
sg162
(lp1099
g119
ass(S'image'
p1100
g209
NS'sb1-bcm91250a'
p1101
tp1102
(dp1103
S'configs'
p1104
(lp1105
S'kernelarch-mips/config.sb1-bcm91250a'
p1106
ass(S'description'
p1107
g528
NS's390x'
p1108
tp1109
(dp1110
S'hardware'
p1111
S'IBM zSeries'
p1112
ss(S'description'
p1113
g209
NS'4kc-malta'
p1114
tp1115
(dp1116
S'hardware'
p1117
S'MIPS Malta'
p1118
sS'hardware-long'
p1119
S'MIPS Malta boards'
p1120
ss(S'image'
p1121
g528
tp1122
(dp1123
S'install-stem'
p1124
S'vmlinuz'
p1125
sS'configs'
p1126
(lp1127
sS'bootloaders'
p1128
(lp1129
S's390-tools'
p1130
ass(S'image'
p1131
g276
tp1132
(dp1133
S'suggests'
p1134
S'mkvmlinuz'
p1135
sS'configs'
p1136
(lp1137
sS'install-stem'
p1138
S'vmlinux'
p1139
ss(S'description'
p1140
g201
NS'octeon'
p1141
tp1142
(dp1143
S'hardware'
p1144
S'Octeon'
p1145
sS'hardware-long'
p1146
S'Cavium Networks Octeon'
p1147
ss(S'base'
p1148
g78
tp1149
(dp1150
S'kernel-arch'
p1151
S'arm64'
p1152
sS'featuresets'
p1153
(lp1154
S'none'
p1155
ass(S'image'
p1156
g179
tp1157
(dp1158
S'suggests'
p1159
S'fdutils'
p1160
sS'configs'
p1161
(lp1162
S'kernelarch-arm/config'
p1163
asS'install-stem'
p1164
S'vmlinuz'
p1165
ss(S'abi'
p1166
tp1167
(dp1168
S'abiname'
p1169
S'kali1'
p1170
sS'ignore-changes'
p1171
(lp1172
S'module:sound/firewire/snd-firewire-lib'
p1173
aS'perf_*'
p1174
ass(g117
g371
g119
tp1175
(dp1176
g122
I01
sg123
(lp1177
S'powerpcspe'
p1178
ass(g117
g936
g119
tp1179
(dp1180
g122
I01
sg123
(lp1181
S'm68k'
p1182
ass(S'image'
p1183
g570
NS'sparc64-smp'
p1184
tp1185
(dp1186
S'configs'
p1187
(lp1188
S'kernelarch-sparc/config-smp'
p1189
ass(S'description'
p1190
Ng62
tp1191
(dp1192
S'part-long-rt'
p1193
S'This kernel includes the PREEMPT_RT realtime patch set.'
p1194
sS'parts'
p1195
(lp1196
S'rt'
p1197
asS'part-short-rt'
p1198
S'PREEMPT_RT'
p1199
ss(S'base'
p1200
g69
g890
tp1201
(dp1202
S'flavours'
p1203
(lp1204
S'586'
p1205
aS'686-pae'
p1206
ass(S'base'
p1207
tp1208
(dp1209
S'arches'
p1210
(lp1211
S'alpha'
p1212
aS'amd64'
p1213
aS'arm64'
p1214
aS'armel'
p1215
aS'armhf'
p1216
aS'hppa'
p1217
aS'i386'
p1218
aS'ia64'
p1219
aS'm68k'
p1220
aS'mips'
p1221
aS'mipsel'
p1222
aS'mips64'
p1223
aS'mips64el'
p1224
aS'or1k'
p1225
aS'powerpc'
p1226
aS'powerpcspe'
p1227
aS'ppc64'
p1228
aS'ppc64el'
p1229
aS's390'
p1230
aS's390x'
p1231
aS'sh4'
p1232
aS'sparc'
p1233
aS'sparc64'
p1234
aS'x32'
p1235
asS'featuresets'
p1236
(lp1237
S'none'
p1238
aS'rt'
p1239
asS'compiler'
p1240
S'gcc-4.9'
p1241
ss(S'image'
p1242
g18
NS'sb1-bcm91250a'
p1243
tp1244
(dp1245
S'configs'
p1246
(lp1247
S'kernelarch-mips/config.sb1-bcm91250a'
p1248
ass(S'build'
p1249
g936
tp1250
(dp1251
S'image-file'
p1252
S'vmlinux.gz'
p1253
ss(S'build'
p1254
g306
tp1255
(dp1256
S'image-file'
p1257
S'arch/arm/boot/zImage'
p1258
ss(S'image'
p1259
g570
NS'sparc64'
p1260
tp1261
(dp1262
S'configs'
p1263
(lp1264
S'kernelarch-sparc/config-up'
p1265
ass(S'image'
p1266
g262
tp1267
(dp1268
S'suggests'
p1269
S'silo, fdutils'
p1270
sS'configs'
p1271
(lp1272
sS'install-stem'
p1273
S'vmlinuz'
p1274
ss(S'build'
p1275
g179
tp1276
(dp1277
S'image-file'
p1278
S'arch/arm/boot/zImage'
p1279
ss(S'build'
p1280
g528
NS's390x'
p1281
tp1282
(dp1283
S'debug-info'
p1284
I01
ss(S'base'
p1285
g276
tp1286
(dp1287
S'kernel-arch'
p1288
S'powerpc'
p1289
sg162
(lp1290
g119
ass(S'base'
p1291
g201
tp1292
(dp1293
S'kernel-arch'
p1294
S'mips'
p1295
sg162
(lp1296
g119
ass(S'base'
p1297
g570
tp1298
(dp1299
S'kernel-arch'
p1300
S'sparc'
p1301
sg162
(lp1302
g119
ass(S'base'
p1303
g936
tp1304
(dp1305
S'kernel-arch'
p1306
S'm68k'
p1307
sg162
(lp1308
g119
asS'cflags'
p1309
S'-ffreestanding'
p1310
sS'compiler'
p1311
S'gcc-4.8'
p1312
ss(S'description'
p1313
g209
NS'loongson-2e'
p1314
tp1315
(dp1316
S'hardware'
p1317
S'Loongson 2E'
p1318
sS'hardware-long'
p1319
S'Lemote Loongson 2E systems'
p1320
ss(S'image'
p1321
tp1322
(dp1323
S'initramfs-generators'
p1324
(lp1325
S'initramfs-tools'
p1326
aS'initramfs-fallback'
p1327
asS'type'
p1328
S'plain'
p1329
ss(S'description'
p1330
g201
NS'loongson-3'
p1331
tp1332
(dp1333
S'hardware'
p1334
S'Loongson 3A/3B'
p1335
sS'hardware-long'
p1336
S'Loongson 3A or 3B based systems (e.g. from Loongson or Lemote)'
p1337
ss(S'image'
p1338
g209
NS'loongson-2e'
p1339
tp1340
(dp1341
S'configs'
p1342
(lp1343
S'kernelarch-mips/config.loongson-2e'
p1344
ass(g117
g262
g119
tp1345
(dp1346
g122
I01
sg123
(lp1347
S'sparc64'
p1348
aS'sparc64-smp'
p1349
ass(S'image'
p1350
g201
tp1351
(dp1352
S'install-stem'
p1353
S'vmlinux'
p1354
ss(S'description'
p1355
g306
NS'orion5x'
p1356
tp1357
(dp1358
S'hardware'
p1359
S'Marvell Orion'
p1360
sS'hardware-long'
p1361
S'Marvell Orion 5181, 5182 and 5281 based systems (QNAP TS-109/TS-209, etc)'
p1362
ss(S'description'
p1363
g570
NS'sparc32'
p1364
tp1365
(dp1366
S'hardware'
p1367
S'uniprocessor sparc32 (sun4m)'
p1368
ss(S'image'
p1369
g43
NS'5kc-malta'
p1370
tp1371
(dp1372
S'configs'
p1373
(lp1374
S'kernelarch-mips/config.5kc-malta'
p1375
ass(S'description'
p1376
g118
NS'powerpc64'
p1377
tp1378
(dp1379
S'hardware'
p1380
S'64-bit PowerPC'
p1381
ss(S'image'
p1382
g262
NS'sparc64'
p1383
tp1384
(dp1385
S'configs'
p1386
(lp1387
S'kernelarch-sparc/config-up'
p1388
ass(g117
g18
g119
tp1389
(dp1390
g122
I01
sg123
(lp1391
S'sb1-bcm91250a'
p1392
aS'5kc-malta'
p1393
aS'octeon'
p1394
ass(S'image'
p1395
g78
tp1396
(dp1397
S'install-stem'
p1398
S'vmlinuz'
p1399
ss(S'image'
p1400
g201
NS'octeon'
p1401
tp1402
(dp1403
S'configs'
p1404
(lp1405
S'kernelarch-mips/config.octeon'
p1406
ass(S'description'
p1407
g179
NS'armmp-lpae'
p1408
tp1409
(dp1410
S'hardware'
p1411
S'ARMv7 multiplatform compatible SoCs supporting LPAE'
p1412
sS'hardware-long'
p1413
S'ARMv7 multiplatform kernel supporting LPAE. See\nhttps://wiki.debian.org/DebianKernel/ARMMP for details of supported\nplatforms.'
p1414
ss(S'build'
p1415
g69
tp1416
(dp1417
S'image-file'
p1418
S'arch/x86/boot/bzImage'
p1419
ss(g117
g276
g119
tp1420
(dp1421
g122
I01
sg123
(lp1422
S'powerpc64le'
p1423
ass(S'image'
p1424
g5
NS'amd64'
p1425
tp1426
(dp1427
S'configs'
p1428
(lp1429
S'kernelarch-x86/config-arch-64'
p1430
asstp1431
Rp1432
.