ccopy_reg
_reconstructor
p0
(cdebian_linux.config
ConfigCore
p1
c__builtin__
dict
p2
(dp3
(S'image'
p4
S'amd64'
p5
tp6
(dp7
S'install-stem'
p8
S'vmlinuz'
p9
sS'configs'
p10
(lp11
sS'bootloaders'
p12
(lp13
S'grub-pc'
p14
aS'grub-efi'
p15
aS'extlinux'
p16
ass(S'description'
p17
S'mips64'
p18
NS'sb1-bcm91250a'
p19
tp20
(dp21
S'hardware'
p22
S'BCM91250A'
p23
sS'hardware-long'
p24
S'Broadcom BCM91250A systems (aka SWARM)'
p25
ss(S'description'
p26
S'sh4'
p27
NS'sh7751r'
p28
tp29
(dp30
S'hardware'
p31
S'sh7751r'
p32
sS'hardware-long'
p33
S'Renesas SH7751R R2D plus board'
p34
ss(S'base'
p35
g5
S'none'
p36
tp37
(dp38
S'flavours'
p39
(lp40
S'amd64'
p41
ass(S'description'
p42
S'alpha'
p43
NS'alpha-smp'
p44
tp45
(dp46
S'hardware'
p47
S'Alpha SMP'
p48
sS'hardware-long'
p49
S'DEC Alpha SMP systems with extended kernel start address (Wildfire, Titan, Marvel)'
p50
ss(S'image'
p51
S'mips'
p52
NS'4kc-malta'
p53
tp54
(dp55
S'configs'
p56
(lp57
S'kernelarch-mips/config.4kc-malta'
p58
ass(S'image'
p59
g52
NS'octeon'
p60
tp61
(dp62
S'configs'
p63
(lp64
S'kernelarch-mips/config.octeon'
p65
ass(S'image'
p66
S'ia64'
p67
tp68
(dp69
S'suggests'
p70
S'fdutils'
p71
sS'bootloaders'
p72
(lp73
S'elilo'
p74
asS'install-stem'
p75
S'vmlinuz'
p76
ss(S'abi'
p77
NS'rt'
p78
tp79
(dp80
S'ignore-changes'
p81
(lp82
S'*'
p83
ass(S'image'
p84
S'i386'
p85
NS'586'
p86
tp87
(dp88
S'configs'
p89
(lp90
S'kernelarch-x86/config-arch-32'
p91
aS'i386/config.586'
p92
ass(S'description'
p93
S'arm64'
p94
NS'arm64'
p95
tp96
(dp97
S'hardware'
p98
S'64-bit ARMv8 machines'
p99
ss(S'version'
p100
tp101
(dp102
S'abiname'
p103
S'3.18.0-kali2'
p104
sS'source'
p105
V3.18.3-1+kali1
p106
sS'abiname_base'
p107
S'3.18.0'
p108
sS'upstream'
p109
S'3.18'
p110
ss(S'description'
p111
S'powerpc'
p112
NS'powerpc-smp'
p113
tp114
(dp115
S'hardware'
p116
S'multiprocessor 32-bit PowerPC'
p117
ss(S'description'
p118
g5
g36
S'amd64'
p119
tp120
(dp121
S'parts'
p122
(lp123
S'xen'
p124
ass(S'description'
p125
g18
NS'5kc-malta'
p126
tp127
(dp128
S'hardware'
p129
S'MIPS Malta'
p130
sS'hardware-long'
p131
S'MIPS Malta boards'
p132
ss(S'base'
p133
S'ppc64'
p134
S'none'
p135
tp136
(dp137
S'implicit-flavour'
p138
I01
sS'flavours'
p139
(lp140
S'powerpc64'
p141
ass(S'description'
p142
S'hppa'
p143
NS'parisc'
p144
tp145
(dp146
S'hardware'
p147
S'32-bit PA-RISC'
p148
sS'hardware-long'
p149
S'HP PA-RISC 32-bit systems with max 4 GB RAM'
p150
ss(S'description'
p151
g52
NS'r4k-ip22'
p152
tp153
(dp154
S'hardware'
p155
S'SGI IP22'
p156
sS'hardware-long'
p157
S'SGI IP22 systems (Indy, Indigo2)'
p158
ss(S'image'
p159
g27
NS'sh7785lcr'
p160
tp161
(dp162
S'check-size'
p163
I4194304
sS'recommends'
p164
S'uboot-mkimage'
p165
ss(S'description'
p166
g85
S'none'
p167
S'amd64'
p168
tp169
(dp170
S'parts'
p171
(lp172
S'xen'
p173
ass(S'description'
p174
g85
NS'686-pae'
p175
tp176
(dp177
S'hardware'
p178
S'modern PCs'
p179
sS'parts'
p180
(lp181
S'pae'
p182
asS'hardware-long'
p183
S'PCs with one or more processors supporting PAE'
p184
ss(S'description'
p185
g112
NS'powerpc'
p186
tp187
(dp188
S'hardware'
p189
S'uniprocessor 32-bit PowerPC'
p190
ss(S'base'
p191
g43
tp192
(dp193
S'kernel-arch'
p194
S'alpha'
p195
sS'featuresets'
p196
(lp197
g135
ass(S'description'
p198
g52
NS'5kc-malta'
p199
tp200
(dp201
S'hardware'
p202
S'MIPS Malta (64-bit)'
p203
sS'hardware-long'
p204
S'MIPS Malta boards (64-bit)'
p205
ss(S'image'
p206
g18
NS'octeon'
p207
tp208
(dp209
S'configs'
p210
(lp211
S'kernelarch-mips/config.octeon'
p212
ass(g133
S'armhf'
p213
g135
tp214
(dp215
g138
I01
sg139
(lp216
S'armmp'
p217
aS'armmp-lpae'
p218
ass(S'image'
p219
g94
NS'arm64'
p220
tp221
(dp222
s(S'base'
p223
g85
S'rt'
p224
tp225
(dp226
S'flavours'
p227
(lp228
S'686-pae'
p229
ass(S'description'
p230
S'mipsel'
p231
NS'sb1-bcm91250a'
p232
tp233
(dp234
S'hardware'
p235
S'BCM91250A'
p236
sS'hardware-long'
p237
S'Broadcom BCM91250A systems (aka SWARM)'
p238
ss(S'image'
p239
g231
NS'loongson-3'
p240
tp241
(dp242
S'configs'
p243
(lp244
S'kernelarch-mips/config.loongson-3'
p245
ass(S'relations'
p246
g85
tp247
(dp248
S'headers%gcc-4.9'
p249
S'linux-compiler-gcc-4.9-x86'
p250
ss(S'image'
p251
g231
NS'4kc-malta'
p252
tp253
(dp254
S'configs'
p255
(lp256
S'kernelarch-mips/config.4kc-malta'
p257
ass(S'description'
p258
g231
NS'loongson-3'
p259
tp260
(dp261
S'hardware'
p262
S'Loongson 3A/3B'
p263
sS'hardware-long'
p264
S'Loongson 3A or 3B based systems (e.g. from Loongson or Lemote)'
p265
ss(S'image'
p266
g112
tp267
(dp268
S'suggests'
p269
S'mkvmlinuz'
p270
sS'configs'
p271
(lp272
sS'install-stem'
p273
S'vmlinux'
p274
ss(S'description'
p275
g43
NS'alpha-generic'
p276
tp277
(dp278
S'hardware'
p279
S'Alpha'
p280
sS'hardware-long'
p281
S'DEC Alpha systems with extended kernel start address (Wildfire, Titan, Marvel)'
p282
ss(S'description'
p283
S'sparc64'
p284
NS'sparc64'
p285
tp286
(dp287
S'hardware'
p288
S'uniprocessor 64-bit UltraSPARC'
p289
ss(S'base'
p290
g5
S'rt'
p291
tp292
(dp293
S'flavours'
p294
(lp295
S'amd64'
p296
ass(S'build'
p297
S'ppc64el'
p298
tp299
(dp300
S'image-file'
p301
S'vmlinux'
p302
ss(S'build'
p303
g134
tp304
(dp305
S'image-file'
p306
S'vmlinux'
p307
ss(S'description'
p308
g52
NS'octeon'
p309
tp310
(dp311
S'hardware'
p312
S'Octeon'
p313
sS'hardware-long'
p314
S'Cavium Networks Octeon'
p315
ss(S'base'
p316
g94
tp317
(dp318
S'kernel-arch'
p319
S'arm64'
p320
sS'featuresets'
p321
(lp322
S'none'
p323
ass(S'image'
p324
S'armel'
p325
NS'orion5x'
p326
tp327
(dp328
S'check-size'
p329
I1572792
sS'check-size-with-dtb'
p330
I01
sS'configs'
p331
(lp332
S'armel/config-reduced'
p333
aS'armel/config.orion5x'
p334
asS'recommends'
p335
S'uboot-mkimage'
p336
ss(S'base'
p337
g85
tp338
(dp339
S'kernel-arch'
p340
S'x86'
p341
sS'featuresets'
p342
(lp343
S'none'
p344
aS'rt'
p345
ass(S'base'
p346
g231
tp347
(dp348
S'kernel-arch'
p349
S'mips'
p350
sg196
(lp351
g135
ass(S'relations'
p352
g5
tp353
(dp354
S'headers%gcc-4.9'
p355
S'linux-compiler-gcc-4.9-x86'
p356
ss(S'description'
p357
S's390'
p358
NS's390x'
p359
tp360
(dp361
S'hardware'
p362
S'IBM zSeries'
p363
ss(S'image'
p364
g52
NS'sb1-bcm91250a'
p365
tp366
(dp367
S'configs'
p368
(lp369
S'kernelarch-mips/config.sb1-bcm91250a'
p370
ass(S'image'
p371
g213
NS'armmp-lpae'
p372
tp373
(dp374
S'configs'
p375
(lp376
S'armhf/config.armmp'
p377
aS'armhf/config.lpae'
p378
ass(S'relations'
p379
g358
tp380
(dp381
S'headers%gcc-4.8'
p382
S'linux-compiler-gcc-4.8-s390'
p383
ss(g133
g231
g135
tp384
(dp385
g138
I01
sg139
(lp386
S'sb1-bcm91250a'
p387
aS'4kc-malta'
p388
aS'5kc-malta'
p389
aS'loongson-2e'
p390
aS'loongson-2f'
p391
aS'loongson-3'
p392
ass(S'image'
p393
g85
NS'686-pae'
p394
tp395
(dp396
S'configs'
p397
(lp398
S'kernelarch-x86/config-arch-32'
p399
aS'i386/config.686-pae'
p400
asS'recommends'
p401
S'libc6-i686'
p402
ss(S'description'
p403
S'powerpcspe'
p404
tp405
(dp406
S'hardware'
p407
S'32-bit PowerPC with SPE (instead of AltiVec) with SMP support'
p408
ss(S'relations'
p409
tp410
(dp411
S'gcc-4.9'
p412
S'gcc-4.9'
p413
sS'gcc-4.8'
p414
S'gcc-4.8'
p415
sS'initramfs-fallback'
p416
S'linux-initramfs-tool'
p417
sS'gcc-4.7'
p418
S'gcc-4.7'
p419
sS'gcc-4.6'
p420
S'gcc-4.6'
p421
sS'initramfs-tools'
p422
S'initramfs-tools (>= 0.110~)'
p423
ss(S'image'
p424
g231
NS'loongson-2f'
p425
tp426
(dp427
S'configs'
p428
(lp429
S'kernelarch-mips/config.loongson-2f'
p430
asS'recommends'
p431
S'libc6-loongson2f'
p432
ss(S'description'
p433
g213
NS'armmp'
p434
tp435
(dp436
S'hardware'
p437
S'ARMv7 multiplatform compatible SoCs'
p438
sS'hardware-long'
p439
S'ARMv7 multiplatform kernel. See\nhttps://wiki.debian.org/DebianKernel/ARMMP for details of supported\nplatforms'
p440
ss(S'description'
p441
g18
NS'octeon'
p442
tp443
(dp444
S'hardware'
p445
S'Octeon'
p446
sS'hardware-long'
p447
S'Cavium Networks Octeon'
p448
ss(S'base'
p449
g27
tp450
(dp451
S'kernel-arch'
p452
S'sh'
p453
sg196
(lp454
g135
ass(S'build'
p455
g404
tp456
(dp457
S'image-file'
p458
S'vmlinux'
p459
ss(S'description'
p460
g325
NS'versatile'
p461
tp462
(dp463
S'hardware'
p464
S'Versatile'
p465
sS'hardware-long'
p466
S'Versatile systems (PB, AB, Qemu)'
p467
ss(S'build'
p468
g143
tp469
(dp470
S'image-file'
p471
S'vmlinux'
p472
ss(S'description'
p473
g43
NS'alpha-legacy'
p474
tp475
(dp476
S'hardware'
p477
S'Alpha Legacy'
p478
sS'hardware-long'
p479
S'DEC Alpha systems with legacy kernel start address'
p480
ss(S'description'
p481
g85
NS'586'
p482
tp483
(dp484
S'hardware'
p485
S'older PCs'
p486
sS'parts'
p487
(lp488
S'up'
p489
asS'hardware-long'
p490
S'PCs with a single processor not supporting PAE'
p491
ss(S'description'
p492
g284
NS'sparc64-smp'
p493
tp494
(dp495
S'hardware'
p496
S'multiprocessor 64-bit UltraSPARC'
p497
ss(S'description'
p498
S'mips64el'
p499
NS'octeon'
p500
tp501
(dp502
S'hardware'
p503
S'Octeon'
p504
sS'hardware-long'
p505
S'Cavium Networks Octeon'
p506
ss(S'description'
p507
g499
NS'sb1-bcm91250a'
p508
tp509
(dp510
S'hardware'
p511
S'BCM91250A'
p512
sS'hardware-long'
p513
S'Broadcom BCM91250A systems (aka SWARM)'
p514
ss(S'description'
p515
g499
NS'loongson-3'
p516
tp517
(dp518
S'hardware'
p519
S'Loongson 3A/3B'
p520
sS'hardware-long'
p521
S'Loongson 3A or 3B based systems (e.g. from Loongson or Lemote)'
p522
ss(S'image'
p523
g134
NS'powerpc64'
p524
tp525
(dp526
S'configs'
p527
(lp528
S'kernelarch-powerpc/config-arch-64'
p529
aS'kernelarch-powerpc/config-arch-64-be'
p530
ass(S'build'
p531
g358
NS's390x'
p532
tp533
(dp534
S'debug-info'
p535
I01
ss(S'description'
p536
g143
NS'parisc64-smp'
p537
tp538
(dp539
S'hardware'
p540
S'multiprocessor 64-bit PA-RISC'
p541
sS'hardware-long'
p542
S'HP PA-RISC 64-bit SMP systems with support for more than 4 GB RAM'
p543
ss(S'base'
p544
g404
tp545
(dp546
S'kernel-arch'
p547
S'powerpc'
p548
sg196
(lp549
g135
ass(g133
g112
g135
tp550
(dp551
g138
I01
sg139
(lp552
S'powerpc'
p553
aS'powerpc-smp'
p554
aS'powerpc64'
p555
ass(S'description'
p556
g67
NS'itanium'
p557
tp558
(dp559
S'hardware'
p560
S'Itanium'
p561
ss(g133
g358
g135
tp562
(dp563
g138
I01
sg139
(lp564
S's390x'
p565
ass(g133
S's390x'
p566
g135
tp567
(dp568
g138
I01
sg139
(lp569
S's390x'
p570
ass(S'base'
p571
g52
tp572
(dp573
S'kernel-arch'
p574
S'mips'
p575
sg196
(lp576
g135
ass(S'build'
p577
g5
tp578
(dp579
S'debug-info'
p580
I01
sS'image-file'
p581
S'arch/x86/boot/bzImage'
p582
ss(S'description'
p583
g499
NS'5kc-malta'
p584
tp585
(dp586
S'hardware'
p587
S'MIPS Malta'
p588
sS'hardware-long'
p589
S'MIPS Malta boards'
p590
ss(S'base'
p591
g143
NS'parisc64-smp'
p592
tp593
(dp594
S'override-host-type'
p595
S'hppa64-linux-gnu'
p596
sS'cflags'
p597
S'-fno-cse-follow-jumps'
p598
ss(S'image'
p599
g298
NS'powerpc64le'
p600
tp601
(dp602
S'configs'
p603
(lp604
S'kernelarch-powerpc/config-arch-64'
p605
aS'kernelarch-powerpc/config-arch-64-le'
p606
ass(S'build'
p607
S'sparc'
p608
tp609
(dp610
S'image-file'
p611
S'arch/sparc/boot/zImage'
p612
ss(S'image'
p613
g231
tp614
(dp615
S'install-stem'
p616
S'vmlinux'
p617
ss(S'description'
p618
g608
NS'sparc64-smp'
p619
tp620
(dp621
S'hardware'
p622
S'multiprocessor 64-bit UltraSPARC'
p623
ss(S'build'
p624
g112
tp625
(dp626
S'image-file'
p627
S'vmlinux'
p628
ss(S'build'
p629
g94
tp630
(dp631
S'debug-info'
p632
I01
sS'image-file'
p633
S'arch/arm64/boot/Image'
p634
ss(S'build'
p635
g231
tp636
(dp637
S'image-file'
p638
S'vmlinux'
p639
ss(S'base'
p640
g18
tp641
(dp642
S'kernel-arch'
p643
S'mips'
p644
sg196
(lp645
g135
ass(S'base'
p646
g566
tp647
(dp648
S'kernel-arch'
p649
S's390'
p650
sg196
(lp651
g135
asS'compiler'
p652
S'gcc-4.8'
p653
ss(S'base'
p654
g5
tp655
(dp656
S'kernel-arch'
p657
S'x86'
p658
sS'featuresets'
p659
(lp660
S'none'
p661
aS'rt'
p662
ass(S'base'
p663
g67
tp664
(dp665
S'kernel-arch'
p666
S'ia64'
p667
sg196
(lp668
g135
asS'compiler'
p669
S'gcc-4.6'
p670
ss(S'image'
p671
g231
NS'5kc-malta'
p672
tp673
(dp674
S'configs'
p675
(lp676
S'kernelarch-mips/config.5kc-malta'
p677
ass(S'base'
p678
g358
tp679
(dp680
S'kernel-arch'
p681
S's390'
p682
sg196
(lp683
g135
asS'compiler'
p684
S'gcc-4.8'
p685
ss(g133
g325
g135
tp686
(dp687
g138
I01
sg139
(lp688
S'kirkwood'
p689
aS'orion5x'
p690
aS'versatile'
p691
ass(S'description'
p692
g67
NS'mckinley'
p693
tp694
(dp695
S'hardware'
p696
S'Itanium II'
p697
ss(S'description'
p698
g231
NS'5kc-malta'
p699
tp700
(dp701
S'hardware'
p702
S'MIPS Malta (64-bit)'
p703
sS'hardware-long'
p704
S'MIPS Malta boards (64-bit)'
p705
ss(S'description'
p706
g85
tp707
(dp708
S'part-long-pae'
p709
S'This kernel requires PAE (Physical Address Extension).\nThis feature is supported by the Intel Pentium Pro/II/III/4/4M/D, Xeon,\nCore and Atom; AMD Geode NX, Athlon (K7), Duron, Opteron, Sempron,\nTurion or Phenom; Transmeta Efficeon; VIA C7; and some other processors.'
p710
ss(S'build'
p711
g499
tp712
(dp713
S'image-file'
p714
S'vmlinux'
p715
ss(S'xen'
p716
g5
g36
S'amd64'
p717
tp718
(dp719
S'flavours'
p720
(lp721
S'amd64'
p722
ass(S'image'
p723
g325
tp724
(dp725
S'suggests'
p726
S'fdutils'
p727
sS'configs'
p728
(lp729
S'kernelarch-arm/config'
p730
aS'armel/config'
p731
asS'install-stem'
p732
S'vmlinuz'
p733
ss(S'image'
p734
g358
tp735
(dp736
S'install-stem'
p737
S'vmlinuz'
p738
sS'configs'
p739
(lp740
sS'bootloaders'
p741
(lp742
S's390-tools'
p743
ass(S'build'
p744
g85
NS'686-pae'
p745
tp746
(dp747
S'debug-info'
p748
I01
ss(S'relations'
p749
g325
tp750
(dp751
S'headers%gcc-4.9'
p752
S'linux-compiler-gcc-4.9-arm'
p753
ss(S'image'
p754
g143
tp755
(dp756
S'suggests'
p757
S'palo'
p758
sS'install-stem'
p759
S'vmlinux'
p760
ss(S'image'
p761
g112
NS'powerpc64'
p762
tp763
(dp764
S'configs'
p765
(lp766
S'kernelarch-powerpc/config-arch-64'
p767
aS'kernelarch-powerpc/config-arch-64-be'
p768
ass(g133
g18
g135
tp769
(dp770
g138
I01
sg139
(lp771
S'sb1-bcm91250a'
p772
aS'5kc-malta'
p773
aS'octeon'
p774
ass(S'relations'
p775
g143
tp776
(dp777
S'gcc-4.9'
p778
S'gcc-4.9, binutils-hppa64, gcc-4.9-hppa64'
p779
ss(S'description'
p780
g85
NS'amd64'
p781
tp782
(dp783
S'hardware'
p784
S'64-bit PCs'
p785
sS'parts'
p786
(lp787
S'xen'
p788
asS'hardware-long'
p789
S'PCs with AMD64, Intel 64 or VIA Nano processors'
p790
ss(S'image'
p791
g52
NS'r4k-ip22'
p792
tp793
(dp794
S'configs'
p795
(lp796
S'kernelarch-mips/config.r4k-ip22'
p797
ass(S'image'
p798
g284
NS'sparc64-smp'
p799
tp800
(dp801
S'configs'
p802
(lp803
S'kernelarch-sparc/config-smp'
p804
ass(S'description'
p805
g298
NS'powerpc64le'
p806
tp807
(dp808
S'hardware'
p809
S'Little-endian 64-bit PowerPC'
p810
ss(S'description'
p811
g608
NS'sparc64'
p812
tp813
(dp814
S'hardware'
p815
S'uniprocessor 64-bit UltraSPARC'
p816
ss(S'image'
p817
g325
NS'kirkwood'
p818
tp819
(dp820
S'check-size'
p821
I2097080
sS'check-size-with-dtb'
p822
I01
sS'breaks'
p823
S'flash-kernel (<< 3.30~)'
p824
sS'recommends'
p825
S'uboot-mkimage'
p826
sS'configs'
p827
(lp828
S'armel/config-reduced'
p829
aS'armel/config.kirkwood'
p830
ass(g133
g143
g135
tp831
(dp832
g138
I01
sg139
(lp833
S'parisc'
p834
aS'parisc64-smp'
p835
ass(S'image'
p836
g52
NS'r5k-ip32'
p837
tp838
(dp839
S'configs'
p840
(lp841
S'kernelarch-mips/config.r5k-ip32'
p842
ass(S'image'
p843
g112
NS'powerpc-smp'
p844
tp845
(dp846
S'configs'
p847
(lp848
S'powerpc/config.powerpc'
p849
aS'powerpc/config.powerpc-smp'
p850
ass(S'base'
p851
g284
tp852
(dp853
S'kernel-arch'
p854
S'sparc'
p855
sg196
(lp856
g135
ass(S'image'
p857
g18
NS'5kc-malta'
p858
tp859
(dp860
S'configs'
p861
(lp862
S'kernelarch-mips/config.5kc-malta'
p863
ass(S'base'
p864
S'or1k'
p865
tp866
(dp867
S'kernel-arch'
p868
S'openrisc'
p869
sS'featuresets'
p870
(lp871
ss(S'description'
p872
g27
NS'sh7785lcr'
p873
tp874
(dp875
S'hardware'
p876
S'sh7785lcr'
p877
sS'hardware-long'
p878
S'Renesas SH7785 reference board'
p879
ss(S'image'
p880
g52
tp881
(dp882
S'install-stem'
p883
S'vmlinux'
p884
ss(g133
g499
g135
tp885
(dp886
g138
I01
sg139
(lp887
S'sb1-bcm91250a'
p888
aS'5kc-malta'
p889
aS'loongson-3'
p890
aS'octeon'
p891
ass(S'image'
p892
g499
NS'sb1-bcm91250a'
p893
tp894
(dp895
S'configs'
p896
(lp897
S'kernelarch-mips/config.sb1-bcm91250a'
p898
ass(S'image'
p899
g134
tp900
(dp901
S'suggests'
p902
S'mkvmlinuz'
p903
sS'configs'
p904
(lp905
sS'install-stem'
p906
S'vmlinux'
p907
ss(S'description'
p908
S'm68k'
p909
NS'm68k'
p910
tp911
(dp912
S'hardware'
p913
S'Motorola MC68020+ family'
p914
ss(S'image'
p915
g85
tp916
(dp917
S'install-stem'
p918
S'vmlinuz'
p919
sS'configs'
p920
(lp921
sS'bootloaders'
p922
(lp923
S'grub-pc'
p924
aS'extlinux'
p925
ass(S'build'
p926
g358
tp927
(dp928
S'image-file'
p929
S'arch/s390/boot/image'
p930
ss(g133
g608
g135
tp931
(dp932
g138
I01
sg139
(lp933
S'sparc64'
p934
aS'sparc64-smp'
p935
ass(S'base'
p936
NS'rt'
p937
tp938
(dp939
S'enabled'
p940
I00
ss(g133
g43
g135
tp941
(dp942
g138
I01
sg139
(lp943
S'alpha-generic'
p944
aS'alpha-smp'
p945
aS'alpha-legacy'
p946
ass(S'description'
p947
g85
g167
S'686-pae'
p948
tp949
(dp950
S'parts'
p951
(lp952
S'xen'
p953
ass(g133
g67
g135
tp954
(dp955
g138
I01
sg139
(lp956
S'itanium'
p957
aS'mckinley'
p958
ass(S'base'
p959
g134
tp960
(dp961
S'kernel-arch'
p962
S'powerpc'
p963
sg196
(lp964
g135
ass(S'description'
p965
g5
NS'amd64'
p966
tp967
(dp968
S'hardware'
p969
S'64-bit PCs'
p970
sS'hardware-long'
p971
S'PCs with AMD64, Intel 64 or VIA Nano processors'
p972
ss(S'build'
p973
g566
tp974
(dp975
S'image-file'
p976
S'arch/s390/boot/image'
p977
ss(g133
g52
g135
tp978
(dp979
g138
I01
sg139
(lp980
S'r4k-ip22'
p981
aS'r5k-ip32'
p982
aS'sb1-bcm91250a'
p983
aS'4kc-malta'
p984
aS'5kc-malta'
p985
aS'octeon'
p986
ass(S'build'
p987
g52
tp988
(dp989
S'image-file'
p990
S'vmlinux'
p991
ss(S'image'
p992
g18
tp993
(dp994
S'install-stem'
p995
S'vmlinux'
p996
ss(g133
g27
g135
tp997
(dp998
g138
I01
sg139
(lp999
S'sh7751r'
p1000
aS'sh7785lcr'
p1001
ass(S'base'
p1002
S'x32'
p1003
tp1004
(dp1005
S'kernel-arch'
p1006
S'x86'
p1007
sS'featuresets'
p1008
(lp1009
ss(S'build'
p1010
g27
tp1011
(dp1012
S'image-file'
p1013
S'arch/sh/boot/zImage'
p1014
ss(S'image'
p1015
g909
tp1016
(dp1017
S'suggests'
p1018
S'vmelilo, fdutils'
p1019
sS'install-stem'
p1020
S'vmlinuz'
p1021
ss(S'base'
p1022
g94
S'none'
p1023
tp1024
(dp1025
S'flavours'
p1026
(lp1027
S'arm64'
p1028
ass(S'description'
p1029
g52
NS'r5k-ip32'
p1030
tp1031
(dp1032
S'hardware'
p1033
S'SGI IP32'
p1034
sS'hardware-long'
p1035
S'SGI IP32 systems (O2)'
p1036
ss(S'build'
p1037
g18
tp1038
(dp1039
S'image-file'
p1040
S'vmlinux'
p1041
ss(S'description'
p1042
g52
NS'sb1-bcm91250a'
p1043
tp1044
(dp1045
S'hardware'
p1046
S'BCM91250A'
p1047
sS'hardware-long'
p1048
S'Broadcom BCM91250A systems (aka SWARM)'
p1049
ss(S'build'
p1050
g67
tp1051
(dp1052
S'image-file'
p1053
S'vmlinux.gz'
p1054
ss(S'base'
p1055
g213
tp1056
(dp1057
S'kernel-arch'
p1058
S'arm'
p1059
sg196
(lp1060
g135
ass(S'description'
p1061
g52
NS'4kc-malta'
p1062
tp1063
(dp1064
S'hardware'
p1065
S'MIPS Malta'
p1066
sS'hardware-long'
p1067
S'MIPS Malta boards'
p1068
ss(S'image'
p1069
g27
tp1070
(dp1071
S'suggests'
p1072
S'fdutils'
p1073
sS'install-stem'
p1074
S'vmlinuz'
p1075
ss(S'image'
p1076
g608
NS'sparc32'
p1077
tp1078
(dp1079
S'image-postproc'
p1080
S'sparc32-image-postproc'
p1081
ss(S'base'
p1082
g143
tp1083
(dp1084
S'kernel-arch'
p1085
S'parisc'
p1086
sg196
(lp1087
g135
ass(S'description'
p1088
g325
NS'kirkwood'
p1089
tp1090
(dp1091
S'hardware'
p1092
S'Marvell Kirkwood'
p1093
sS'hardware-long'
p1094
S'Marvell Kirkwood based systems (SheevaPlug, QNAP TS-119/TS-219, etc)'
p1095
ss(S'image'
p1096
g608
NS'sparc64-smp'
p1097
tp1098
(dp1099
S'configs'
p1100
(lp1101
S'kernelarch-sparc/config-smp'
p1102
ass(S'image'
p1103
g608
tp1104
(dp1105
S'suggests'
p1106
S'silo, fdutils'
p1107
sS'configs'
p1108
(lp1109
sS'install-stem'
p1110
S'vmlinuz'
p1111
ss(S'description'
p1112
tp1113
(dp1114
S'part-long-up'
p1115
S'This kernel is not suitable for SMP (multi-processor,\nmulti-core or hyper-threaded) systems.'
p1116
sS'part-long-xen'
p1117
S'This kernel also runs on a Xen hypervisor.\nIt supports both privileged (dom0) and unprivileged (domU) operation.'
p1118
ss(S'build'
p1119
g284
tp1120
(dp1121
S'image-file'
p1122
S'arch/sparc/boot/zImage'
p1123
ss(S'relations'
p1124
g213
tp1125
(dp1126
S'headers%gcc-4.9'
p1127
S'linux-compiler-gcc-4.9-arm'
p1128
ss(S'description'
p1129
g112
NS'powerpc64'
p1130
tp1131
(dp1132
S'hardware'
p1133
S'64-bit PowerPC'
p1134
ss(S'image'
p1135
g566
NS's390x'
p1136
tp1137
(dp1138
S'configs'
p1139
(lp1140
S'kernelarch-s390/config-arch-64'
p1141
ass(S'image'
p1142
g499
NS'loongson-3'
p1143
tp1144
(dp1145
S'configs'
p1146
(lp1147
S'kernelarch-mips/config.loongson-3'
p1148
ass(S'build'
p1149
g43
tp1150
(dp1151
S'image-file'
p1152
S'arch/alpha/boot/vmlinux.gz'
p1153
ss(S'image'
p1154
g43
tp1155
(dp1156
S'suggests'
p1157
S'aboot, fdutils'
p1158
sS'install-stem'
p1159
S'vmlinuz'
p1160
ss(S'relations'
p1161
g566
tp1162
(dp1163
S'headers%gcc-4.8'
p1164
S'linux-compiler-gcc-4.8-s390'
p1165
ss(S'description'
p1166
g231
NS'loongson-2f'
p1167
tp1168
(dp1169
S'hardware'
p1170
S'Loongson 2F'
p1171
sS'hardware-long'
p1172
S'Lemote Loongson 2F systems'
p1173
ss(S'base'
p1174
g112
tp1175
(dp1176
S'kernel-arch'
p1177
S'powerpc'
p1178
sg196
(lp1179
g135
ass(S'image'
p1180
g231
NS'sb1-bcm91250a'
p1181
tp1182
(dp1183
S'configs'
p1184
(lp1185
S'kernelarch-mips/config.sb1-bcm91250a'
p1186
ass(S'description'
p1187
g566
NS's390x'
p1188
tp1189
(dp1190
S'hardware'
p1191
S'IBM zSeries'
p1192
ss(S'description'
p1193
g231
NS'4kc-malta'
p1194
tp1195
(dp1196
S'hardware'
p1197
S'MIPS Malta'
p1198
sS'hardware-long'
p1199
S'MIPS Malta boards'
p1200
ss(S'image'
p1201
g298
tp1202
(dp1203
S'suggests'
p1204
S'mkvmlinuz'
p1205
sS'configs'
p1206
(lp1207
sS'install-stem'
p1208
S'vmlinux'
p1209
ss(S'base'
p1210
g325
tp1211
(dp1212
S'kernel-arch'
p1213
S'arm'
p1214
sg196
(lp1215
g135
ass(S'image'
p1216
g404
tp1217
(dp1218
S'suggests'
p1219
S'mkvmlinuz'
p1220
sS'install-stem'
p1221
S'vmlinux'
p1222
ss(S'image'
p1223
g85
NS'amd64'
p1224
tp1225
(dp1226
S'configs'
p1227
(lp1228
S'kernelarch-x86/config-arch-64'
p1229
asS'recommends'
p1230
S'libc6-i686'
p1231
ss(S'image'
p1232
g213
tp1233
(dp1234
S'suggests'
p1235
S'fdutils'
p1236
sS'configs'
p1237
(lp1238
S'kernelarch-arm/config'
p1239
aS'armhf/config'
p1240
asS'install-stem'
p1241
S'vmlinuz'
p1242
ss(S'abi'
p1243
tp1244
(dp1245
S'abiname'
p1246
S'kali2'
p1247
ss(S'image'
p1248
g499
NS'5kc-malta'
p1249
tp1250
(dp1251
S'configs'
p1252
(lp1253
S'kernelarch-mips/config.5kc-malta'
p1254
ass(g133
g404
g135
tp1255
(dp1256
g138
I01
sg139
(lp1257
S'powerpcspe'
p1258
ass(g133
g909
g135
tp1259
(dp1260
g138
I01
sg139
(lp1261
S'm68k'
p1262
ass(S'image'
p1263
g18
NS'sb1-bcm91250a'
p1264
tp1265
(dp1266
S'configs'
p1267
(lp1268
S'kernelarch-mips/config.sb1-bcm91250a'
p1269
ass(S'base'
p1270
g85
g167
tp1271
(dp1272
S'flavours'
p1273
(lp1274
S'586'
p1275
aS'686-pae'
p1276
aS'amd64'
p1277
ass(S'base'
p1278
tp1279
(dp1280
S'arches'
p1281
(lp1282
S'alpha'
p1283
aS'amd64'
p1284
aS'arm64'
p1285
aS'armel'
p1286
aS'armhf'
p1287
aS'hppa'
p1288
aS'i386'
p1289
aS'ia64'
p1290
aS'm68k'
p1291
aS'mips'
p1292
aS'mipsel'
p1293
aS'mips64'
p1294
aS'mips64el'
p1295
aS'or1k'
p1296
aS'powerpc'
p1297
aS'powerpcspe'
p1298
aS'ppc64'
p1299
aS'ppc64el'
p1300
aS's390'
p1301
aS's390x'
p1302
aS'sh4'
p1303
aS'sparc'
p1304
aS'sparc64'
p1305
aS'x32'
p1306
asS'featuresets'
p1307
(lp1308
S'none'
p1309
aS'rt'
p1310
asS'compiler'
p1311
S'gcc-4.9'
p1312
ss(S'description'
p1313
Ng78
tp1314
(dp1315
S'part-long-rt'
p1316
S'This kernel includes the PREEMPT_RT realtime patch set.'
p1317
sS'parts'
p1318
(lp1319
S'rt'
p1320
asS'part-short-rt'
p1321
S'PREEMPT_RT'
p1322
ss(S'build'
p1323
g909
tp1324
(dp1325
S'image-file'
p1326
S'vmlinux.gz'
p1327
ss(S'build'
p1328
g325
tp1329
(dp1330
S'image-file'
p1331
S'arch/arm/boot/zImage'
p1332
ss(S'image'
p1333
g608
NS'sparc64'
p1334
tp1335
(dp1336
S'configs'
p1337
(lp1338
S'kernelarch-sparc/config-up'
p1339
ass(S'image'
p1340
g284
tp1341
(dp1342
S'suggests'
p1343
S'silo, fdutils'
p1344
sS'configs'
p1345
(lp1346
sS'install-stem'
p1347
S'vmlinuz'
p1348
ss(S'build'
p1349
g213
tp1350
(dp1351
S'image-file'
p1352
S'arch/arm/boot/zImage'
p1353
ss(S'build'
p1354
g566
NS's390x'
p1355
tp1356
(dp1357
S'debug-info'
p1358
I01
ss(S'image'
p1359
g358
NS's390x'
p1360
tp1361
(dp1362
S'configs'
p1363
(lp1364
S'kernelarch-s390/config-arch-64'
p1365
ass(S'base'
p1366
g298
tp1367
(dp1368
S'kernel-arch'
p1369
S'powerpc'
p1370
sg196
(lp1371
g135
ass(S'base'
p1372
g499
tp1373
(dp1374
S'kernel-arch'
p1375
S'mips'
p1376
sg196
(lp1377
g135
ass(S'base'
p1378
g608
tp1379
(dp1380
S'kernel-arch'
p1381
S'sparc'
p1382
sg196
(lp1383
g135
ass(S'base'
p1384
g909
tp1385
(dp1386
S'kernel-arch'
p1387
S'm68k'
p1388
sg196
(lp1389
g135
asS'cflags'
p1390
S'-ffreestanding'
p1391
sS'compiler'
p1392
S'gcc-4.8'
p1393
ss(S'description'
p1394
g231
NS'loongson-2e'
p1395
tp1396
(dp1397
S'hardware'
p1398
S'Loongson 2E'
p1399
sS'hardware-long'
p1400
S'Lemote Loongson 2E systems'
p1401
ss(S'image'
p1402
tp1403
(dp1404
S'initramfs-generators'
p1405
(lp1406
S'initramfs-tools'
p1407
aS'initramfs-fallback'
p1408
asS'type'
p1409
S'plain'
p1410
ss(S'image'
p1411
g231
NS'loongson-2e'
p1412
tp1413
(dp1414
S'configs'
p1415
(lp1416
S'kernelarch-mips/config.loongson-2e'
p1417
ass(g133
g284
g135
tp1418
(dp1419
g138
I01
sg139
(lp1420
S'sparc64'
p1421
aS'sparc64-smp'
p1422
ass(S'image'
p1423
g499
tp1424
(dp1425
S'install-stem'
p1426
S'vmlinux'
p1427
ss(S'description'
p1428
g325
NS'orion5x'
p1429
tp1430
(dp1431
S'hardware'
p1432
S'Marvell Orion'
p1433
sS'hardware-long'
p1434
S'Marvell Orion 5181, 5182 and 5281 based systems (QNAP TS-109/TS-209, etc)'
p1435
ss(S'description'
p1436
g608
NS'sparc32'
p1437
tp1438
(dp1439
S'hardware'
p1440
S'uniprocessor sparc32 (sun4m)'
p1441
ss(S'image'
p1442
g52
NS'5kc-malta'
p1443
tp1444
(dp1445
S'configs'
p1446
(lp1447
S'kernelarch-mips/config.5kc-malta'
p1448
ass(S'description'
p1449
g134
NS'powerpc64'
p1450
tp1451
(dp1452
S'hardware'
p1453
S'64-bit PowerPC'
p1454
ss(S'image'
p1455
g284
NS'sparc64'
p1456
tp1457
(dp1458
S'configs'
p1459
(lp1460
S'kernelarch-sparc/config-up'
p1461
ass(S'image'
p1462
g566
tp1463
(dp1464
S'install-stem'
p1465
S'vmlinuz'
p1466
sS'configs'
p1467
(lp1468
sS'bootloaders'
p1469
(lp1470
S's390-tools'
p1471
ass(S'image'
p1472
g94
tp1473
(dp1474
S'install-stem'
p1475
S'vmlinuz'
p1476
ss(S'image'
p1477
g499
NS'octeon'
p1478
tp1479
(dp1480
S'configs'
p1481
(lp1482
S'kernelarch-mips/config.octeon'
p1483
ass(S'description'
p1484
g213
NS'armmp-lpae'
p1485
tp1486
(dp1487
S'hardware'
p1488
S'ARMv7 multiplatform compatible SoCs supporting LPAE'
p1489
sS'hardware-long'
p1490
S'ARMv7 multiplatform kernel supporting LPAE. See\nhttps://wiki.debian.org/DebianKernel/ARMMP for details of supported\nplatforms.'
p1491
ss(S'build'
p1492
g85
tp1493
(dp1494
S'image-file'
p1495
S'arch/x86/boot/bzImage'
p1496
ss(g133
g298
g135
tp1497
(dp1498
g138
I01
sg139
(lp1499
S'powerpc64le'
p1500
ass(S'image'
p1501
g5
NS'amd64'
p1502
tp1503
(dp1504
S'configs'
p1505
(lp1506
S'kernelarch-x86/config-arch-64'
p1507
asstp1508
Rp1509
.