ccopy_reg
_reconstructor
p0
(cdebian_linux.config
ConfigCore
p1
c__builtin__
dict
p2
(dp3
(Vimage
p4
Vsparc64
p5
NVsparc64
p6
tp7
(dp8
Vconfigs
p9
(lp10
Vkernelarch-sparc/config-up
p11
ass(Vimage
p12
g5
tp13
(dp14
Vconfigs
p15
(lp16
sVsuggests
p17
Vsilo, fdutils
p18
sVinstall-stem
p19
Vvmlinuz
p20
ss(Vbase
p21
Vmips64
p22
Vnone
p23
tp24
(dp25
Vflavours
p26
(lp27
V5kc-malta
p28
aVocteon
p29
asVimplicit-flavour
p30
I01
ss(Vbase
p31
Varmel
p32
tp33
(dp34
Vfeaturesets
p35
(lp36
g23
asVkernel-arch
p37
Varm
p38
ss(Vbuild
p39
Vhppa
p40
tp41
(dp42
Vsigned-modules
p43
I00
sVimage-file
p44
Vvmlinux
p45
ss(Vbuild
p46
Vpowerpcspe
p47
tp48
(dp49
Vsigned-modules
p50
I00
sVimage-file
p51
Vvmlinux
p52
sVvdso
p53
I01
ss(Vbase
p54
Vi386
p55
Vnone
p56
tp57
(dp58
Vflavours
p59
(lp60
V686
p61
aV686-pae
p62
ass(Vdescription
p63
Vmips
p64
NVocteon
p65
tp66
(dp67
Vhardware-long
p68
VCavium Networks Octeon
p69
sVhardware
p70
VOcteon
p71
ss(Vimage
p72
Vmips64el
p73
NV5kc-malta
p74
tp75
(dp76
Vconfigs
p77
(lp78
Vkernelarch-mips/config.5kc-malta
p79
ass(Vdescription
p80
Vpowerpc
p81
NVpowerpc64
p82
tp83
(dp84
Vhardware
p85
V64-bit PowerPC
p86
ss(Vbase
p87
Vs390
p88
tp89
(dp90
Vfeaturesets
p91
(lp92
sVkernel-arch
p93
Vs390
p94
ss(Vdescription
p95
Vm68k
p96
NVm68k
p97
tp98
(dp99
Vhardware
p100
VMotorola MC68020+ family
p101
ss(Vimage
p102
g81
NVpowerpc64
p103
tp104
(dp105
Vconfigs
p106
(lp107
Vkernelarch-powerpc/config-arch-64
p108
aVkernelarch-powerpc/config-arch-64-be
p109
ass(Vrelations
p110
g40
tp111
(dp112
Vgcc-5
p113
Vgcc-5 <!stage1>, binutils-hppa64-linux-gnu <!stage1>, gcc-5-hppa64-linux-gnu <!stage1>
p114
ss(g21
g40
g23
tp115
(dp116
g26
(lp117
Vparisc
p118
aVparisc64-smp
p119
asg30
I01
ss(Vrelations
p120
Vamd64
p121
tp122
(dp123
Vheaders%gcc-5
p124
Vlinux-compiler-gcc-5-x86
p125
ss(Vimage
p126
g64
tp127
(dp128
Vinstall-stem
p129
Vvmlinux
p130
ss(Vimage
p131
g73
tp132
(dp133
Vinstall-stem
p134
Vvmlinux
p135
ss(Vbase
p136
g81
tp137
(dp138
g35
(lp139
g23
asVkernel-arch
p140
Vpowerpc
p141
ss(Vdescription
p142
Vmipsel
p143
NV4kc-malta
p144
tp145
(dp146
Vhardware-long
p147
VMIPS Malta boards
p148
sVhardware
p149
VMIPS Malta
p150
ss(Vimage
p151
g143
NVloongson-3
p152
tp153
(dp154
Vconfigs
p155
(lp156
Vkernelarch-mips/config.loongson-3
p157
ass(g21
g47
g23
tp158
(dp159
g26
(lp160
Vpowerpcspe
p161
asg30
I01
ss(Vrelations
p162
Varmhf
p163
tp164
(dp165
Vheaders%gcc-5
p166
Vlinux-compiler-gcc-5-arm
p167
ss(Vimage
p168
g143
tp169
(dp170
Vinstall-stem
p171
Vvmlinux
p172
ss(Vimage
p173
g55
tp174
(dp175
Vconfigs
p176
(lp177
sVbreaks
p178
Vxserver-xorg-input-vmmouse (<< 1:13.0.99)
p179
sVbootloaders
p180
(lp181
Vgrub-pc
p182
aVextlinux
p183
asVinstall-stem
p184
Vvmlinuz
p185
ss(Vimage
p186
Varm64
p187
NVarm64
p188
tp189
(dp190
s(Vbase
p191
Valpha
p192
tp193
(dp194
g35
(lp195
g23
asVkernel-arch
p196
Valpha
p197
ss(Vdescription
p198
g73
NV5kc-malta
p199
tp200
(dp201
Vhardware-long
p202
VMIPS Malta boards
p203
sVhardware
p204
VMIPS Malta
p205
ss(Vbase
p206
g143
tp207
(dp208
g35
(lp209
g23
asVkernel-arch
p210
Vmips
p211
ss(Vimage
p212
Vppc64el
p213
tp214
(dp215
Vconfigs
p216
(lp217
sVsuggests
p218
Vmkvmlinuz
p219
sVinstall-stem
p220
Vvmlinux
p221
ss(Vimage
p222
Vppc64
p223
NVpowerpc64
p224
tp225
(dp226
Vconfigs
p227
(lp228
Vkernelarch-powerpc/config-arch-64
p229
aVkernelarch-powerpc/config-arch-64-be
p230
ass(Vbase
p231
g55
tp232
(dp233
Vfeaturesets
p234
(lp235
Vnone
p236
aVrt
p237
asVkernel-arch
p238
Vx86
p239
ss(Vimage
p240
g96
tp241
(dp242
Vsuggests
p243
Vvmelilo, fdutils
p244
sVinstall-stem
p245
Vvmlinuz
p246
ss(Vimage
p247
g22
NVocteon
p248
tp249
(dp250
Vconfigs
p251
(lp252
Vkernelarch-mips/config.octeon
p253
ass(Vbase
p254
g96
tp255
(dp256
Vkernel-arch
p257
Vm68k
p258
sVcflags
p259
V-ffreestanding
p260
sg35
(lp261
g23
ass(Vimage
p262
g143
NV4kc-malta
p263
tp264
(dp265
Vconfigs
p266
(lp267
Vkernelarch-mips/config.4kc-malta
p268
ass(Vimage
p269
g64
NV5kc-malta
p270
tp271
(dp272
Vconfigs
p273
(lp274
Vkernelarch-mips/config.5kc-malta
p275
ass(Vbase
p276
g64
tp277
(dp278
g35
(lp279
g23
asVkernel-arch
p280
Vmips
p281
ss(Vbase
p282
g121
tp283
(dp284
Vfeaturesets
p285
(lp286
Vnone
p287
aVrt
p288
asVkernel-arch
p289
Vx86
p290
ss(g21
g213
g23
tp291
(dp292
g26
(lp293
Vpowerpc64le
p294
asg30
I01
ss(Vbase
p295
g40
tp296
(dp297
g35
(lp298
g23
asVkernel-arch
p299
Vparisc
p300
ss(Vdescription
p301
g192
NValpha-smp
p302
tp303
(dp304
Vhardware-long
p305
VDEC Alpha SMP systems with extended kernel start address (Wildfire, Titan, Marvel)
p306
sVhardware
p307
VAlpha SMP
p308
ss(Vabi
p309
NVrt
p310
tp311
(dp312
Vignore-changes
p313
(lp314
V*
p315
ass(Vbuild
p316
g22
tp317
(dp318
Vsigned-modules
p319
I00
sVimage-file
p320
Vvmlinux
p321
ss(Vdescription
p322
g223
NVpowerpc64
p323
tp324
(dp325
Vhardware
p326
V64-bit PowerPC
p327
ss(Vdescription
p328
g40
NVparisc
p329
tp330
(dp331
Vhardware-long
p332
VHP PA-RISC 32-bit systems with max 4 GB RAM
p333
sVhardware
p334
V32-bit PA-RISC
p335
ss(Vbuild
p336
g55
NV686-pae
p337
tp338
(dp339
Vdebug-info
p340
I01
ss(Vbase
p341
g121
Vnone
p342
tp343
(dp344
Vflavours
p345
(lp346
Vamd64
p347
ass(Vbase
p348
g213
tp349
(dp350
g35
(lp351
g23
asVkernel-arch
p352
Vpowerpc
p353
ss(Vdescription
p354
g143
NV5kc-malta
p355
tp356
(dp357
Vhardware-long
p358
VMIPS Malta boards (64-bit)
p359
sVhardware
p360
VMIPS Malta (64-bit)
p361
ss(Vimage
p362
g143
NV5kc-malta
p363
tp364
(dp365
Vconfigs
p366
(lp367
Vkernelarch-mips/config.5kc-malta
p368
ass(Vimage
p369
g192
tp370
(dp371
Vsuggests
p372
Vaboot, fdutils
p373
sVinstall-stem
p374
Vvmlinuz
p375
ss(Vimage
p376
g47
tp377
(dp378
Vsuggests
p379
Vmkvmlinuz
p380
sVinstall-stem
p381
Vvmlinux
p382
ss(Vdescription
p383
g73
NVloongson-3
p384
tp385
(dp386
Vhardware-long
p387
VLoongson 3A or 3B based systems (e.g. from Loongson or Lemote)
p388
sVhardware
p389
VLoongson 3A/3B
p390
ss(Vimage
p391
Vs390x
p392
tp393
(dp394
Vconfigs
p395
(lp396
sVbootloaders
p397
(lp398
Vs390-tools
p399
asVinstall-stem
p400
Vvmlinuz
p401
ss(g21
g64
g23
tp402
(dp403
g26
(lp404
V4kc-malta
p405
aV5kc-malta
p406
aVocteon
p407
asg30
I01
ss(Vbuild
p408
g5
tp409
(dp410
Vsigned-modules
p411
I00
sVimage-file
p412
Varch/sparc/boot/zImage
p413
ss(Vversion
p414
tp415
(dp416
Vabiname
p417
V4.5.0-kali1
p418
sVabiname_base
p419
V4.5.0
p420
sVupstream
p421
V4.5
p422
sVsource
p423
V4.5.5-1kali1
p424
ss(g21
g32
g23
tp425
(dp426
g26
(lp427
Vmarvell
p428
aVversatile
p429
asg30
I01
ss(Vabi
p430
tp431
(dp432
Vabiname
p433
Vkali1
p434
sVignore-changes
p435
(lp436
Vmodule:drivers/net/ethernet/*
p437
aVmodule:sound/hda/*
p438
aVzpci_disable_device
p439
aVzpci_enable_device
p440
aVzpci_stop_device
p441
ass(Vimage
p442
g73
NVocteon
p443
tp444
(dp445
Vconfigs
p446
(lp447
Vkernelarch-mips/config.octeon
p448
ass(Vbuild
p449
g32
NVmarvell
p450
tp451
(dp452
Vsigned-modules
p453
I00
ss(Vdescription
p454
g55
tp455
(dp456
Vpart-long-pae
p457
VThis kernel requires PAE (Physical Address Extension).\u000aThis feature is supported by the Intel Pentium Pro/II/III/4/4M/D, Xeon,\u000aCore and Atom; AMD Geode NX, Athlon (K7), Duron, Opteron, Sempron,\u000aTurion or Phenom; Transmeta Efficeon; VIA C7; and some other processors.
p458
ss(Vbase
p459
g73
tp460
(dp461
g35
(lp462
g23
asVkernel-arch
p463
Vmips
p464
ss(g21
g143
g23
tp465
(dp466
g26
(lp467
V4kc-malta
p468
aV5kc-malta
p469
aVloongson-2e
p470
aVloongson-2f
p471
aVloongson-3
p472
aVocteon
p473
asg30
I01
ss(Vdescription
p474
g81
NVpowerpc-smp
p475
tp476
(dp477
Vhardware
p478
Vmultiprocessor 32-bit PowerPC
p479
ss(Vdescription
p480
g392
NVs390x
p481
tp482
(dp483
Vhardware
p484
VIBM zSeries
p485
ss(Vdescription
p486
g55
NV686
p487
tp488
(dp489
Vhardware-long
p490
VPCs with one or more processors not supporting PAE
p491
sVhardware
p492
Volder PCs
p493
ss(Vrelations
p494
g32
tp495
(dp496
Vheaders%gcc-5
p497
Vlinux-compiler-gcc-5-arm
p498
ss(Vbuild
p499
g163
tp500
(dp501
Vimage-file
p502
Varch/arm/boot/zImage
p503
sVvdso
p504
I01
ss(Vdescription
p505
tp506
(dp507
Vpart-long-xen
p508
VThis kernel also runs on a Xen hypervisor.\u000aIt supports both privileged (dom0) and unprivileged (domU) operation.
p509
sVpart-long-up
p510
VThis kernel is not suitable for SMP (multi-processor,\u000amulti-core or hyper-threaded) systems.
p511
ss(Vbase
p512
tp513
(dp514
Vcompiler
p515
Vgcc-5
p516
sVarches
p517
(lp518
Valpha
p519
aVamd64
p520
aVarm64
p521
aVarmel
p522
aVarmhf
p523
aVhppa
p524
aVi386
p525
aVm68k
p526
aVmips
p527
aVmipsel
p528
aVmips64
p529
aVmips64el
p530
aVor1k
p531
aVpowerpc
p532
aVpowerpcspe
p533
aVppc64
p534
aVppc64el
p535
aVs390
p536
aVs390x
p537
aVsh4
p538
aVsparc
p539
aVsparc64
p540
aVx32
p541
asVfeaturesets
p542
(lp543
Vnone
p544
aVrt
p545
ass(Vimage
p546
g22
tp547
(dp548
Vinstall-stem
p549
Vvmlinux
p550
ss(Vdescription
p551
Vsh4
p552
NVsh7751r
p553
tp554
(dp555
Vhardware-long
p556
VRenesas SH7751R R2D plus board
p557
sVhardware
p558
Vsh7751r
p559
ss(Vimage
p560
g213
NVpowerpc64le
p561
tp562
(dp563
Vconfigs
p564
(lp565
Vkernelarch-powerpc/config-arch-64
p566
aVkernelarch-powerpc/config-arch-64-le
p567
ass(Vbuild
p568
g81
tp569
(dp570
Vimage-file
p571
Vvmlinux
p572
sVvdso
p573
I01
ss(Vbuild
p574
g121
tp575
(dp576
Vdebug-info
p577
I01
sVimage-file
p578
Varch/x86/boot/bzImage
p579
sVvdso
p580
I01
ss(Vdescription
p581
g32
NVversatile
p582
tp583
(dp584
Vhardware-long
p585
VVersatile systems (PB, AB, Qemu)
p586
sVhardware
p587
VVersatile
p588
ss(g21
g392
g23
tp589
(dp590
g26
(lp591
Vs390x
p592
asg30
I01
ss(Vbase
p593
g47
tp594
(dp595
g35
(lp596
g23
asVkernel-arch
p597
Vpowerpc
p598
ss(Vdescription
p599
g55
g56
V686-pae
p600
tp601
(dp602
Vparts
p603
(lp604
Vxen
p605
ass(Vimage
p606
g163
tp607
(dp608
Vconfigs
p609
(lp610
Vkernelarch-arm/config
p611
asVsuggests
p612
Vfdutils
p613
sVinstall-stem
p614
Vvmlinuz
p615
ss(g21
g73
g23
tp616
(dp617
g26
(lp618
V5kc-malta
p619
aVloongson-3
p620
aVocteon
p621
asg30
I01
ss(Vdescription
p622
g22
NVocteon
p623
tp624
(dp625
Vhardware-long
p626
VCavium Networks Octeon
p627
sVhardware
p628
VOcteon
p629
ss(Vdescription
p630
g213
NVpowerpc64le
p631
tp632
(dp633
Vhardware
p634
VLittle-endian 64-bit PowerPC
p635
ss(Vbase
p636
g22
tp637
(dp638
g35
(lp639
g23
asVkernel-arch
p640
Vmips
p641
ss(Vdescription
p642
g143
NVloongson-3
p643
tp644
(dp645
Vhardware-long
p646
VLoongson 3A or 3B based systems (e.g. from Loongson or Lemote)
p647
sVhardware
p648
VLoongson 3A/3B
p649
ss(Vdescription
p650
g5
NVsparc64
p651
tp652
(dp653
Vhardware
p654
Vuniprocessor 64-bit UltraSPARC
p655
ss(Vimage
p656
g187
tp657
(dp658
Vinstall-stem
p659
Vvmlinuz
p660
ss(Vimage
p661
g64
NV4kc-malta
p662
tp663
(dp664
Vconfigs
p665
(lp666
Vkernelarch-mips/config.4kc-malta
p667
ass(Vimage
p668
g55
NV686
p669
tp670
(dp671
Vconfigs
p672
(lp673
Vkernelarch-x86/config-arch-32
p674
aVi386/config.686
p675
ass(Vimage
p676
g392
NVs390x
p677
tp678
(dp679
Vconfigs
p680
(lp681
Vkernelarch-s390/config-arch-64
p682
ass(Vbuild
p683
g192
tp684
(dp685
Vsigned-modules
p686
I00
sVimage-file
p687
Varch/alpha/boot/vmlinux.gz
p688
ss(Vimage
p689
g22
NV5kc-malta
p690
tp691
(dp692
Vconfigs
p693
(lp694
Vkernelarch-mips/config.5kc-malta
p695
ass(Vimage
p696
g40
tp697
(dp698
Vsuggests
p699
Vpalo
p700
sVinstall-stem
p701
Vvmlinux
p702
ss(Vbase
p703
g223
tp704
(dp705
g35
(lp706
g23
asVkernel-arch
p707
Vpowerpc
p708
ss(Vimage
p709
g32
tp710
(dp711
Vconfigs
p712
(lp713
Vkernelarch-arm/config
p714
aVarmel/config
p715
asVsuggests
p716
Vfdutils
p717
sVinstall-stem
p718
Vvmlinuz
p719
ss(Vimage
p720
g121
tp721
(dp722
Vconfigs
p723
(lp724
sVbreaks
p725
Vxserver-xorg-input-vmmouse (<< 1:13.0.99)
p726
sVbootloaders
p727
(lp728
Vgrub-pc
p729
aVgrub-efi
p730
aVextlinux
p731
asVinstall-stem
p732
Vvmlinuz
p733
ss(Vbuild
p734
g55
tp735
(dp736
Vimage-file
p737
Varch/x86/boot/bzImage
p738
sVvdso
p739
I01
ss(Vbase
p740
Vsparc
p741
tp742
(dp743
Vfeaturesets
p744
(lp745
sVkernel-arch
p746
Vsparc
p747
ss(Vdescription
p748
g187
NVarm64
p749
tp750
(dp751
Vhardware
p752
V64-bit ARMv8 machines
p753
ss(Vbase
p754
Vx32
p755
tp756
(dp757
Vfeaturesets
p758
(lp759
sVkernel-arch
p760
Vx86
p761
ss(Vdescription
p762
g81
NVpowerpc
p763
tp764
(dp765
Vhardware
p766
Vuniprocessor 32-bit PowerPC
p767
ss(Vdescription
p768
g64
NV4kc-malta
p769
tp770
(dp771
Vhardware-long
p772
VMIPS Malta boards
p773
sVhardware
p774
VMIPS Malta
p775
ss(Vimage
p776
g5
NVsparc64-smp
p777
tp778
(dp779
Vconfigs
p780
(lp781
Vkernelarch-sparc/config-smp
p782
ass(g21
g5
g23
tp783
(dp784
g26
(lp785
Vsparc64
p786
aVsparc64-smp
p787
asg30
I01
ss(g21
g192
g23
tp788
(dp789
g26
(lp790
Valpha-generic
p791
aValpha-smp
p792
asg30
I01
ss(Vimage
p793
g143
NVloongson-2f
p794
tp795
(dp796
Vconfigs
p797
(lp798
Vkernelarch-mips/config.loongson-2f
p799
asVrecommends
p800
Vlibc6-loongson2f
p801
ss(Vdescription
p802
g192
NValpha-generic
p803
tp804
(dp805
Vhardware-long
p806
VDEC Alpha systems with extended kernel start address (Wildfire, Titan, Marvel)
p807
sVhardware
p808
VAlpha
p809
ss(Vbuild
p810
tp811
(dp812
Vsigned-modules
p813
I01
ss(Vbase
p814
g55
Vrt
p815
tp816
(dp817
Vflavours
p818
(lp819
V686-pae
p820
ass(g21
g552
g23
tp821
(dp822
g26
(lp823
Vsh7751r
p824
aVsh7785lcr
p825
asg30
I01
ss(Vdescription
p826
g22
NV5kc-malta
p827
tp828
(dp829
Vhardware-long
p830
VMIPS Malta boards
p831
sVhardware
p832
VMIPS Malta
p833
ss(Vbase
p834
g392
tp835
(dp836
g35
(lp837
g23
asVkernel-arch
p838
Vs390
p839
ss(Vbase
p840
NVrt
p841
tp842
(dp843
Venabled
p844
I00
ss(Vdescription
p845
g143
NVloongson-2e
p846
tp847
(dp848
Vhardware-long
p849
VLemote Loongson 2E systems
p850
sVhardware
p851
VLoongson 2E
p852
ss(Vbase
p853
g40
NVparisc64-smp
p854
tp855
(dp856
Voverride-host-type
p857
Vhppa64-linux-gnu
p858
sVcflags
p859
V-fno-cse-follow-jumps
p860
ss(Vdescription
p861
g32
NVmarvell
p862
tp863
(dp864
Vhardware-long
p865
VMarvell Kirkwood based systems (SheevaPlug, QNAP TS-119/TS-219, etc)\u000aand Orion 5181, 5182 and 5281 based systems (QNAP TS-109/TS-209, etc)
p866
sVhardware
p867
VMarvell Kirkwood/Orion
p868
ss(Vdescription
p869
g55
NV686-pae
p870
tp871
(dp872
Vhardware-long
p873
VPCs with one or more processors supporting PAE
p874
sVhardware
p875
Vmodern PCs
p876
sVparts
p877
(lp878
Vpae
p879
ass(Vdescription
p880
g64
NV5kc-malta
p881
tp882
(dp883
Vhardware-long
p884
VMIPS Malta boards (64-bit)
p885
sVhardware
p886
VMIPS Malta (64-bit)
p887
ss(Vdescription
p888
g143
NVloongson-2f
p889
tp890
(dp891
Vhardware-long
p892
VLemote Loongson 2F systems
p893
sVhardware
p894
VLoongson 2F
p895
ss(Vxen
p896
g121
g342
Vamd64
p897
tp898
(dp899
Vflavours
p900
(lp901
Vamd64
p902
ass(Vdescription
p903
g47
tp904
(dp905
Vhardware
p906
V32-bit PowerPC with SPE (instead of AltiVec) with SMP support
p907
ss(Vimage
p908
g121
NVamd64
p909
tp910
(dp911
Vconfigs
p912
(lp913
Vkernelarch-x86/config-arch-64
p914
ass(g21
g223
g23
tp915
(dp916
g26
(lp917
Vpowerpc64
p918
asg30
I01
ss(Vbuild
p919
g73
tp920
(dp921
Vsigned-modules
p922
I00
sVimage-file
p923
Vvmlinux
p924
ss(Vimage
p925
g552
tp926
(dp927
Vsuggests
p928
Vfdutils
p929
sVinstall-stem
p930
Vvmlinuz
p931
ss(Vbuild
p932
g552
tp933
(dp934
Vsigned-modules
p935
I00
sVimage-file
p936
Varch/sh/boot/zImage
p937
ss(g21
g81
g23
tp938
(dp939
g26
(lp940
Vpowerpc
p941
aVpowerpc-smp
p942
aVpowerpc64
p943
asg30
I01
ss(Vbuild
p944
g143
tp945
(dp946
Vsigned-modules
p947
I00
sVimage-file
p948
Vvmlinux
p949
ss(Vdescription
p950
g5
NVsparc64-smp
p951
tp952
(dp953
Vhardware
p954
Vmultiprocessor 64-bit UltraSPARC
p955
ss(Vbuild
p956
g392
tp957
(dp958
Vimage-file
p959
Varch/s390/boot/image
p960
sVvdso
p961
I01
ss(Vimage
p962
g143
NVocteon
p963
tp964
(dp965
Vconfigs
p966
(lp967
Vkernelarch-mips/config.octeon
p968
ass(Vdescription
p969
g121
g342
Vamd64
p970
tp971
(dp972
Vparts
p973
(lp974
Vxen
p975
ass(Vbuild
p976
g96
tp977
(dp978
Vsigned-modules
p979
I00
sVimage-file
p980
Vvmlinux.gz
p981
ss(Vdescription
p982
g143
NVocteon
p983
tp984
(dp985
Vhardware-long
p986
VCavium Networks Octeon
p987
sVhardware
p988
VOcteon
p989
ss(Vdescription
p990
g40
NVparisc64-smp
p991
tp992
(dp993
Vhardware-long
p994
VHP PA-RISC 64-bit SMP systems with support for more than 4 GB RAM
p995
sVhardware
p996
Vmultiprocessor 64-bit PA-RISC
p997
ss(Vbuild
p998
g32
tp999
(dp1000
Vimage-file
p1001
Varch/arm/boot/zImage
p1002
ss(Vimage
p1003
g32
NVmarvell
p1004
tp1005
(dp1006
Vbreaks
p1007
Vflash-kernel (<< 3.57~)
p1008
sVcheck-size
p1009
L2097080L
sVrecommends
p1010
Vu-boot-tools
p1011
sVcheck-size-with-dtb
p1012
I01
ss(g21
g96
g23
tp1013
(dp1014
g26
(lp1015
Vm68k
p1016
asg30
I01
ss(Vimage
p1017
g81
tp1018
(dp1019
Vconfigs
p1020
(lp1021
sVsuggests
p1022
Vmkvmlinuz
p1023
sVinstall-stem
p1024
Vvmlinux
p1025
ss(Vbase
p1026
g552
tp1027
(dp1028
g35
(lp1029
g23
asVkernel-arch
p1030
Vsh
p1031
ss(Vbase
p1032
g187
tp1033
(dp1034
Vfeaturesets
p1035
(lp1036
Vnone
p1037
asVkernel-arch
p1038
Varm64
p1039
ss(Vimage
p1040
g55
NV686-pae
p1041
tp1042
(dp1043
Vconfigs
p1044
(lp1045
Vkernelarch-x86/config-arch-32
p1046
aVi386/config.686-pae
p1047
ass(Vimage
p1048
tp1049
(dp1050
Vinitramfs-generators
p1051
(lp1052
Vinitramfs-tools
p1053
aVinitramfs-fallback
p1054
ass(Vbase
p1055
g163
tp1056
(dp1057
g35
(lp1058
g23
asVkernel-arch
p1059
Varm
p1060
ss(Vdescription
p1061
Ng310
tp1062
(dp1063
Vpart-long-rt
p1064
VThis kernel includes the PREEMPT_RT realtime patch set.
p1065
sVparts
p1066
(lp1067
Vrt
p1068
asVpart-short-rt
p1069
VPREEMPT_RT
p1070
ss(Vrelations
p1071
g55
tp1072
(dp1073
Vheaders%gcc-5
p1074
Vlinux-compiler-gcc-5-x86
p1075
ss(Vimage
p1076
g223
tp1077
(dp1078
Vconfigs
p1079
(lp1080
sVsuggests
p1081
Vmkvmlinuz
p1082
sVinstall-stem
p1083
Vvmlinux
p1084
ss(Vrelations
p1085
g392
tp1086
(dp1087
Vheaders%gcc-5
p1088
Vlinux-compiler-gcc-5-s390
p1089
ss(Vbuild
p1090
g64
tp1091
(dp1092
Vsigned-modules
p1093
I00
sVimage-file
p1094
Vvmlinux
p1095
ss(Vbuild
p1096
g213
tp1097
(dp1098
Vimage-file
p1099
Vvmlinux
p1100
sVvdso
p1101
I01
ss(Vbase
p1102
Vor1k
p1103
tp1104
(dp1105
Vfeaturesets
p1106
(lp1107
sVkernel-arch
p1108
Vopenrisc
p1109
ss(Vimage
p1110
g64
NVocteon
p1111
tp1112
(dp1113
Vconfigs
p1114
(lp1115
Vkernelarch-mips/config.octeon
p1116
ass(Vbase
p1117
g5
tp1118
(dp1119
g35
(lp1120
g23
asVkernel-arch
p1121
Vsparc
p1122
ss(Vimage
p1123
g73
NVloongson-3
p1124
tp1125
(dp1126
Vconfigs
p1127
(lp1128
Vkernelarch-mips/config.loongson-3
p1129
ass(Vdescription
p1130
g552
NVsh7785lcr
p1131
tp1132
(dp1133
Vhardware-long
p1134
VRenesas SH7785 reference board
p1135
sVhardware
p1136
Vsh7785lcr
p1137
ss(Vbuild
p1138
g392
NVs390x
p1139
tp1140
(dp1141
Vdebug-info
p1142
I01
ss(g21
g163
g23
tp1143
(dp1144
g26
(lp1145
Varmmp
p1146
aVarmmp-lpae
p1147
asg30
I01
ss(Vimage
p1148
g163
NVarmmp-lpae
p1149
tp1150
(dp1151
Vconfigs
p1152
(lp1153
Varmhf/config.armmp
p1154
aVarmhf/config.lpae
p1155
ass(Vbase
p1156
g187
Vnone
p1157
tp1158
(dp1159
Vflavours
p1160
(lp1161
Varm64
p1162
ass(Vrelations
p1163
tp1164
(dp1165
Vinitramfs-fallback
p1166
Vlinux-initramfs-tool
p1167
sVgcc-5
p1168
Vgcc-5 <!stage1>
p1169
sVinitramfs-tools
p1170
Vinitramfs-tools (>= 0.110~)
p1171
ss(Vdescription
p1172
g163
NVarmmp
p1173
tp1174
(dp1175
Vhardware-long
p1176
VARMv7 multiplatform kernel. See\u000ahttps://wiki.debian.org/DebianKernel/ARMMP for details of supported\u000aplatforms
p1177
sVhardware
p1178
VARMv7 multiplatform compatible SoCs
p1179
ss(Vimage
p1180
g143
NVloongson-2e
p1181
tp1182
(dp1183
Vconfigs
p1184
(lp1185
Vkernelarch-mips/config.loongson-2e
p1186
ass(Vdescription
p1187
g121
NVamd64
p1188
tp1189
(dp1190
Vhardware-long
p1191
VPCs with AMD64, Intel 64 or VIA Nano processors
p1192
sVhardware
p1193
V64-bit PCs
p1194
ss(Vimage
p1195
g552
NVsh7785lcr
p1196
tp1197
(dp1198
Vcheck-size
p1199
L4194304L
sVrecommends
p1200
Vu-boot-tools
p1201
ss(Vimage
p1202
g81
NVpowerpc-smp
p1203
tp1204
(dp1205
Vconfigs
p1206
(lp1207
Vpowerpc/config.powerpc
p1208
aVpowerpc/config.powerpc-smp
p1209
ass(Vbuild
p1210
g223
tp1211
(dp1212
Vsigned-modules
p1213
I00
sVimage-file
p1214
Vvmlinux
p1215
sVvdso
p1216
I01
ss(Vdescription
p1217
g163
NVarmmp-lpae
p1218
tp1219
(dp1220
Vhardware-long
p1221
VARMv7 multiplatform kernel supporting LPAE. See\u000ahttps://wiki.debian.org/DebianKernel/ARMMP for details of supported\u000aplatforms.
p1222
sVhardware
p1223
VARMv7 multiplatform compatible SoCs supporting LPAE
p1224
ss(Vbase
p1225
g121
Vrt
p1226
tp1227
(dp1228
Vflavours
p1229
(lp1230
Vamd64
p1231
ass(Vbuild
p1232
g187
tp1233
(dp1234
Vdebug-info
p1235
I01
sVimage-file
p1236
Varch/arm64/boot/Image
p1237
sVvdso
p1238
I01
ss(Vdescription
p1239
g73
NVocteon
p1240
tp1241
(dp1242
Vhardware-long
p1243
VCavium Networks Octeon
p1244
sVhardware
p1245
VOcteon
p1246
sstp1247
Rp1248
.