ccopy_reg
_reconstructor
p0
(cdebian_linux.config
ConfigCore
p1
c__builtin__
dict
p2
(dp3
(Vrelations
p4
Varmhf
p5
tp6
(dp7
Vheaders%gcc-4.9
p8
Vlinux-compiler-gcc-4.9-arm
p9
ss(Vimage
p10
Vpowerpc
p11
tp12
(dp13
Vconfigs
p14
(lp15
sVsuggests
p16
Vmkvmlinuz
p17
sVinstall-stem
p18
Vvmlinux
p19
ss(Vimage
p20
Vmips64
p21
tp22
(dp23
Vinstall-stem
p24
Vvmlinux
p25
ss(Vimage
p26
Vs390x
p27
NVs390x
p28
tp29
(dp30
Vconfigs
p31
(lp32
Vkernelarch-s390/config-arch-64
p33
ass(Vbuild
p34
g21
tp35
(dp36
Vimage-file
p37
Vvmlinux
p38
ss(Vrelations
p39
Vamd64
p40
tp41
(dp42
Vheaders%gcc-5
p43
Vlinux-compiler-gcc-5-x86
p44
ss(Vbuild
p45
Varm64
p46
tp47
(dp48
Vimage-file
p49
Varch/arm64/boot/Image
p50
sVvdso
p51
I01
sVdebug-info
p52
I01
ss(Vimage
p53
Vmipsel
p54
tp55
(dp56
Vinstall-stem
p57
Vvmlinux
p58
ss(Vbuild
p59
Vsh4
p60
tp61
(dp62
Vimage-file
p63
Varch/sh/boot/zImage
p64
ss(Vdescription
p65
g21
NV5kc-malta
p66
tp67
(dp68
Vhardware-long
p69
VMIPS Malta boards
p70
sVhardware
p71
VMIPS Malta
p72
ss(Vdescription
p73
Valpha
p74
NValpha-generic
p75
tp76
(dp77
Vhardware-long
p78
VDEC Alpha systems with extended kernel start address (Wildfire, Titan, Marvel)
p79
sVhardware
p80
VAlpha
p81
ss(Vbase
p82
Vppc64
p83
tp84
(dp85
Vkernel-arch
p86
Vpowerpc
p87
sVfeaturesets
p88
(lp89
Vnone
p90
ass(Vversion
p91
tp92
(dp93
Vsource
p94
V4.4.6-1kali1
p95
sVabiname
p96
V4.4.0-kali1
p97
sVupstream
p98
V4.4
p99
sVabiname_base
p100
V4.4.0
p101
ss(Vabi
p102
Vhppa
p103
tp104
(dp105
Vignore-changes
p106
(lp107
Vdrm_dp_*
p108
ass(Vimage
p109
Vppc64el
p110
tp111
(dp112
Vconfigs
p113
(lp114
sVsuggests
p115
Vmkvmlinuz
p116
sVinstall-stem
p117
Vvmlinux
p118
ss(Vdescription
p119
g40
Vnone
p120
Vamd64
p121
tp122
(dp123
Vparts
p124
(lp125
Vxen
p126
ass(Vdescription
p127
g110
NVpowerpc64le
p128
tp129
(dp130
Vhardware
p131
VLittle-endian 64-bit PowerPC
p132
ss(Vimage
p133
Vmips64el
p134
NV5kc-malta
p135
tp136
(dp137
Vconfigs
p138
(lp139
Vkernelarch-mips/config.5kc-malta
p140
ass(Vimage
p141
Vm68k
p142
tp143
(dp144
Vsuggests
p145
Vvmelilo, fdutils
p146
sVinstall-stem
p147
Vvmlinuz
p148
ss(Vrelations
p149
g27
tp150
(dp151
Vheaders%gcc-4.9
p152
Vlinux-compiler-gcc-4.9-s390
p153
ss(Vimage
p154
Vi386
p155
tp156
(dp157
Vbootloaders
p158
(lp159
Vgrub-pc
p160
aVextlinux
p161
asVbreaks
p162
Vxserver-xorg-input-vmmouse (<< 1:13.0.99)
p163
sVconfigs
p164
(lp165
sVinstall-stem
p166
Vvmlinuz
p167
ss(Vbase
p168
g155
Vnone
p169
tp170
(dp171
Vflavours
p172
(lp173
V686
p174
aV686-pae
p175
ass(Vbuild
p176
g155
NV686-pae
p177
tp178
(dp179
Vdebug-info
p180
I01
ss(Vbase
p181
Varmel
p182
g90
tp183
(dp184
Vimplicit-flavour
p185
I01
sVflavours
p186
(lp187
Vmarvell
p188
aVversatile
p189
ass(Vimage
p190
g21
NVocteon
p191
tp192
(dp193
Vconfigs
p194
(lp195
Vkernelarch-mips/config.octeon
p196
ass(Vimage
p197
Vmips
p198
NV5kc-malta
p199
tp200
(dp201
Vconfigs
p202
(lp203
Vkernelarch-mips/config.5kc-malta
p204
ass(Vbase
p205
g40
Vrt
p206
tp207
(dp208
Vflavours
p209
(lp210
Vamd64
p211
ass(Vimage
p212
g155
NV686
p213
tp214
(dp215
Vconfigs
p216
(lp217
Vkernelarch-x86/config-arch-32
p218
aVi386/config.686
p219
asVrecommends
p220
Vlibc6-i686
p221
ss(Vimage
p222
Vsparc64
p223
NVsparc64-smp
p224
tp225
(dp226
Vconfigs
p227
(lp228
Vkernelarch-sparc/config-smp
p229
ass(Vimage
p230
g54
NVloongson-2f
p231
tp232
(dp233
Vconfigs
p234
(lp235
Vkernelarch-mips/config.loongson-2f
p236
asVrecommends
p237
Vlibc6-loongson2f
p238
ss(Vbase
p239
g54
tp240
(dp241
Vkernel-arch
p242
Vmips
p243
sg88
(lp244
g90
ass(Vbase
p245
g134
tp246
(dp247
Vkernel-arch
p248
Vmips
p249
sg88
(lp250
g90
ass(Vimage
p251
g198
tp252
(dp253
Vinstall-stem
p254
Vvmlinux
p255
ss(Vdescription
p256
g27
NVs390x
p257
tp258
(dp259
Vhardware
p260
VIBM zSeries
p261
ss(Vimage
p262
g54
NV4kc-malta
p263
tp264
(dp265
Vconfigs
p266
(lp267
Vkernelarch-mips/config.4kc-malta
p268
ass(Vbase
p269
g11
tp270
(dp271
Vkernel-arch
p272
Vpowerpc
p273
sg88
(lp274
g90
ass(Vbase
p275
g155
tp276
(dp277
Vcompiler
p278
Vgcc-5
p279
sVfeaturesets
p280
(lp281
Vnone
p282
aVrt
p283
asVkernel-arch
p284
Vx86
p285
ss(g181
g103
g90
tp286
(dp287
g185
I01
sg186
(lp288
Vparisc
p289
aVparisc64-smp
p290
ass(Vbuild
p291
g103
tp292
(dp293
Vimage-file
p294
Vvmlinux
p295
ss(g181
g198
g90
tp296
(dp297
g185
I01
sg186
(lp298
V4kc-malta
p299
aV5kc-malta
p300
aVocteon
p301
ass(Vbuild
p302
g83
tp303
(dp304
Vimage-file
p305
Vvmlinux
p306
sVvdso
p307
I01
ss(Vimage
p308
g27
tp309
(dp310
Vbootloaders
p311
(lp312
Vs390-tools
p313
asVconfigs
p314
(lp315
sVinstall-stem
p316
Vvmlinuz
p317
ss(Vdescription
p318
Vpowerpcspe
p319
tp320
(dp321
Vhardware
p322
V32-bit PowerPC with SPE (instead of AltiVec) with SMP support
p323
ss(Vdescription
p324
g11
NVpowerpc-smp
p325
tp326
(dp327
Vhardware
p328
Vmultiprocessor 32-bit PowerPC
p329
ss(Vdescription
p330
g54
NV4kc-malta
p331
tp332
(dp333
Vhardware-long
p334
VMIPS Malta boards
p335
sVhardware
p336
VMIPS Malta
p337
ss(Vbase
p338
g21
tp339
(dp340
Vkernel-arch
p341
Vmips
p342
sg88
(lp343
g90
ass(Vdescription
p344
g182
NVmarvell
p345
tp346
(dp347
Vhardware-long
p348
VMarvell Kirkwood based systems (SheevaPlug, QNAP TS-119/TS-219, etc)\u000aand Orion 5181, 5182 and 5281 based systems (QNAP TS-109/TS-209, etc)
p349
sVhardware
p350
VMarvell Kirkwood/Orion
p351
ss(g181
g142
g90
tp352
(dp353
g185
I01
sg186
(lp354
Vm68k
p355
ass(Vdescription
p356
g11
NVpowerpc64
p357
tp358
(dp359
Vhardware
p360
V64-bit PowerPC
p361
ss(Vbase
p362
g103
tp363
(dp364
Vkernel-arch
p365
Vparisc
p366
sg88
(lp367
g90
ass(g181
g11
g90
tp368
(dp369
g185
I01
sg186
(lp370
Vpowerpc
p371
aVpowerpc-smp
p372
aVpowerpc64
p373
ass(Vdescription
p374
g223
NVsparc64
p375
tp376
(dp377
Vhardware
p378
Vuniprocessor 64-bit UltraSPARC
p379
ss(Vimage
p380
g198
NV4kc-malta
p381
tp382
(dp383
Vconfigs
p384
(lp385
Vkernelarch-mips/config.4kc-malta
p386
ass(Vbuild
p387
g11
tp388
(dp389
Vimage-file
p390
Vvmlinux
p391
sVvdso
p392
I01
ss(Vdescription
p393
g5
NVarmmp
p394
tp395
(dp396
Vhardware-long
p397
VARMv7 multiplatform kernel. See\u000ahttps://wiki.debian.org/DebianKernel/ARMMP for details of supported\u000aplatforms
p398
sVhardware
p399
VARMv7 multiplatform compatible SoCs
p400
ss(Vimage
p401
g83
NVpowerpc64
p402
tp403
(dp404
Vconfigs
p405
(lp406
Vkernelarch-powerpc/config-arch-64
p407
aVkernelarch-powerpc/config-arch-64-be
p408
ass(Vimage
p409
g182
NVmarvell
p410
tp411
(dp412
Vcheck-size
p413
L2097080L
sVbreaks
p414
Vflash-kernel (<< 3.57~)
p415
sVrecommends
p416
Vu-boot-tools
p417
sVcheck-size-with-dtb
p418
I01
ss(Vimage
p419
g40
tp420
(dp421
Vbootloaders
p422
(lp423
Vgrub-pc
p424
aVgrub-efi
p425
aVextlinux
p426
asVbreaks
p427
Vxserver-xorg-input-vmmouse (<< 1:13.0.99)
p428
sVconfigs
p429
(lp430
sVinstall-stem
p431
Vvmlinuz
p432
ss(Vdescription
p433
g83
NVpowerpc64
p434
tp435
(dp436
Vhardware
p437
V64-bit PowerPC
p438
ss(Vimage
p439
g319
tp440
(dp441
Vsuggests
p442
Vmkvmlinuz
p443
sVinstall-stem
p444
Vvmlinux
p445
ss(Vbase
p446
g223
tp447
(dp448
Vkernel-arch
p449
Vsparc
p450
sg88
(lp451
g90
ass(Vbuild
p452
g54
tp453
(dp454
Vimage-file
p455
Vvmlinux
p456
ss(Vbase
p457
g74
tp458
(dp459
Vkernel-arch
p460
Valpha
p461
sg88
(lp462
g90
ass(Vbase
p463
Vsparc
p464
tp465
(dp466
Vkernel-arch
p467
Vsparc
p468
sVfeaturesets
p469
(lp470
ss(Vrelations
p471
g182
tp472
(dp473
Vheaders%gcc-4.9
p474
Vlinux-compiler-gcc-4.9-arm
p475
ss(Vbase
p476
g5
tp477
(dp478
Vkernel-arch
p479
Varm
p480
sg88
(lp481
g90
ass(Vbuild
p482
g110
tp483
(dp484
Vimage-file
p485
Vvmlinux
p486
sVvdso
p487
I01
ss(Vimage
p488
g223
tp489
(dp490
Vconfigs
p491
(lp492
sVsuggests
p493
Vsilo, fdutils
p494
sVinstall-stem
p495
Vvmlinuz
p496
ss(Vimage
p497
g110
NVpowerpc64le
p498
tp499
(dp500
Vconfigs
p501
(lp502
Vkernelarch-powerpc/config-arch-64
p503
aVkernelarch-powerpc/config-arch-64-le
p504
ass(Vbase
p505
g319
tp506
(dp507
Vkernel-arch
p508
Vpowerpc
p509
sg88
(lp510
g90
ass(Vdescription
p511
g155
g169
V686-pae
p512
tp513
(dp514
Vparts
p515
(lp516
Vxen
p517
ass(Vxen
p518
g40
g120
Vamd64
p519
tp520
(dp521
Vflavours
p522
(lp523
Vamd64
p524
ass(Vdescription
p525
g54
NV5kc-malta
p526
tp527
(dp528
Vhardware-long
p529
VMIPS Malta boards (64-bit)
p530
sVhardware
p531
VMIPS Malta (64-bit)
p532
ss(g181
g27
g90
tp533
(dp534
g185
I01
sg186
(lp535
Vs390x
p536
ass(Vdescription
p537
g5
NVarmmp-lpae
p538
tp539
(dp540
Vhardware-long
p541
VARMv7 multiplatform kernel supporting LPAE. See\u000ahttps://wiki.debian.org/DebianKernel/ARMMP for details of supported\u000aplatforms.
p542
sVhardware
p543
VARMv7 multiplatform compatible SoCs supporting LPAE
p544
ss(Vrelations
p545
g103
tp546
(dp547
Vgcc-4.9
p548
Vgcc-4.9 <!stage1>, binutils-hppa64 <!stage1>, gcc-4.9-hppa64 <!stage1>
p549
ss(Vimage
p550
g54
NV5kc-malta
p551
tp552
(dp553
Vconfigs
p554
(lp555
Vkernelarch-mips/config.5kc-malta
p556
ass(Vdescription
p557
g134
NVloongson-3
p558
tp559
(dp560
Vhardware-long
p561
VLoongson 3A or 3B based systems (e.g. from Loongson or Lemote)
p562
sVhardware
p563
VLoongson 3A/3B
p564
ss(Vabi
p565
NVrt
p566
tp567
(dp568
Vignore-changes
p569
(lp570
V*
p571
ass(Vimage
p572
tp573
(dp574
Vinitramfs-generators
p575
(lp576
Vinitramfs-tools
p577
aVinitramfs-fallback
p578
ass(Vbuild
p579
g134
tp580
(dp581
Vimage-file
p582
Vvmlinux
p583
ss(Vdescription
p584
Ng566
tp585
(dp586
Vpart-long-rt
p587
VThis kernel includes the PREEMPT_RT realtime patch set.
p588
sVparts
p589
(lp590
Vrt
p591
asVpart-short-rt
p592
VPREEMPT_RT
p593
ss(Vimage
p594
g54
NVloongson-2e
p595
tp596
(dp597
Vconfigs
p598
(lp599
Vkernelarch-mips/config.loongson-2e
p600
ass(Vbase
p601
g182
tp602
(dp603
Vkernel-arch
p604
Varm
p605
sg88
(lp606
g90
ass(Vbase
p607
g46
tp608
(dp609
Vkernel-arch
p610
Varm64
p611
sVfeaturesets
p612
(lp613
Vnone
p614
ass(Vdescription
p615
g198
NVocteon
p616
tp617
(dp618
Vhardware-long
p619
VCavium Networks Octeon
p620
sVhardware
p621
VOcteon
p622
ss(Vbase
p623
g142
tp624
(dp625
Vcompiler
p626
Vgcc-4.8
p627
sg88
(lp628
g90
asVcflags
p629
V-ffreestanding
p630
sVkernel-arch
p631
Vm68k
p632
ss(Vrelations
p633
tp634
(dp635
Vgcc-4.8
p636
Vgcc-4.8 <!stage1>
p637
sVgcc-4.9
p638
Vgcc-4.9 <!stage1>
p639
sVgcc-5
p640
Vgcc-5 <!stage1>
p641
sVinitramfs-fallback
p642
Vlinux-initramfs-tool
p643
sVinitramfs-tools
p644
Vinitramfs-tools (>= 0.110~)
p645
ss(Vdescription
p646
tp647
(dp648
Vpart-long-xen
p649
VThis kernel also runs on a Xen hypervisor.\u000aIt supports both privileged (dom0) and unprivileged (domU) operation.
p650
sVpart-long-up
p651
VThis kernel is not suitable for SMP (multi-processor,\u000amulti-core or hyper-threaded) systems.
p652
ss(Vimage
p653
g54
NVloongson-3
p654
tp655
(dp656
Vconfigs
p657
(lp658
Vkernelarch-mips/config.loongson-3
p659
ass(Vdescription
p660
g155
NV686-pae
p661
tp662
(dp663
Vhardware-long
p664
VPCs with one or more processors supporting PAE
p665
sVparts
p666
(lp667
Vpae
p668
asVhardware
p669
Vmodern PCs
p670
ss(Vimage
p671
g103
tp672
(dp673
Vsuggests
p674
Vpalo
p675
sVinstall-stem
p676
Vvmlinux
p677
ss(Vimage
p678
g5
NVarmmp-lpae
p679
tp680
(dp681
Vconfigs
p682
(lp683
Varmhf/config.armmp
p684
aVarmhf/config.lpae
p685
ass(Vimage
p686
g83
tp687
(dp688
Vconfigs
p689
(lp690
sVsuggests
p691
Vmkvmlinuz
p692
sVinstall-stem
p693
Vvmlinux
p694
ss(Vimage
p695
g155
NV686-pae
p696
tp697
(dp698
Vconfigs
p699
(lp700
Vkernelarch-x86/config-arch-32
p701
aVi386/config.686-pae
p702
asVrecommends
p703
Vlibc6-i686
p704
ss(Vdescription
p705
g11
NVpowerpc
p706
tp707
(dp708
Vhardware
p709
Vuniprocessor 32-bit PowerPC
p710
ss(Vbuild
p711
g27
tp712
(dp713
Vimage-file
p714
Varch/s390/boot/image
p715
sVvdso
p716
I01
ss(Vabi
p717
tp718
(dp719
Vignore-changes
p720
(lp721
V__scm_destroy
p722
aV__scm_send
p723
aVscm_detach_fds
p724
aVscm_fp_dup
p725
aVefivar_validate
p726
aVget_thermal_instance
p727
aVinet_csk_reqsk_queue_add
p728
aVtcp_req_err
p729
aVmodule:drivers/gpu/drm/drm_kms_helper
p730
aVmodule:drivers/hv/hv_vmbus
p731
aVmodule:drivers/md/dm-snapshot
p732
aVmodule:drivers/mmc/host/sdhci
p733
aVmodule:drivers/mmc/host/sdhci*
p734
aVmodule:net/ceph/libceph
p735
asVabiname
p736
Vkali1
p737
ss(Vdescription
p738
g54
NVloongson-2f
p739
tp740
(dp741
Vhardware-long
p742
VLemote Loongson 2F systems
p743
sVhardware
p744
VLoongson 2F
p745
ss(g181
g54
g90
tp746
(dp747
g185
I01
sg186
(lp748
V4kc-malta
p749
aV5kc-malta
p750
aVloongson-2e
p751
aVloongson-2f
p752
aVloongson-3
p753
ass(Vbase
p754
g103
NVparisc64-smp
p755
tp756
(dp757
Vcflags
p758
V-fno-cse-follow-jumps
p759
sVoverride-host-type
p760
Vhppa64-linux-gnu
p761
ss(Vdescription
p762
g198
NV5kc-malta
p763
tp764
(dp765
Vhardware-long
p766
VMIPS Malta boards (64-bit)
p767
sVhardware
p768
VMIPS Malta (64-bit)
p769
ss(Vimage
p770
g182
tp771
(dp772
Vconfigs
p773
(lp774
Vkernelarch-arm/config
p775
aVarmel/config
p776
asVsuggests
p777
Vfdutils
p778
sVinstall-stem
p779
Vvmlinuz
p780
ss(Vbase
p781
tp782
(dp783
Vcompiler
p784
Vgcc-4.9
p785
sVarches
p786
(lp787
Valpha
p788
aVamd64
p789
aVarm64
p790
aVarmel
p791
aVarmhf
p792
aVhppa
p793
aVi386
p794
aVm68k
p795
aVmips
p796
aVmipsel
p797
aVmips64
p798
aVmips64el
p799
aVor1k
p800
aVpowerpc
p801
aVpowerpcspe
p802
aVppc64
p803
aVppc64el
p804
aVs390
p805
aVs390x
p806
aVsh4
p807
aVsparc
p808
aVsparc64
p809
aVx32
p810
asVfeaturesets
p811
(lp812
Vnone
p813
aVrt
p814
ass(Vimage
p815
g134
NVloongson-3
p816
tp817
(dp818
Vconfigs
p819
(lp820
Vkernelarch-mips/config.loongson-3
p821
ass(g181
g60
g90
tp822
(dp823
g185
I01
sg186
(lp824
Vsh7751r
p825
aVsh7785lcr
p826
ass(Vbuild
p827
g40
tp828
(dp829
Vimage-file
p830
Varch/x86/boot/bzImage
p831
sVvdso
p832
I01
sVdebug-info
p833
I01
ss(Vbuild
p834
g319
tp835
(dp836
Vimage-file
p837
Vvmlinux
p838
sVvdso
p839
I01
ss(Vbase
p840
g46
Vnone
p841
tp842
(dp843
Vflavours
p844
(lp845
Varm64
p846
ass(Vimage
p847
g74
tp848
(dp849
Vsuggests
p850
Vaboot, fdutils
p851
sVinstall-stem
p852
Vvmlinuz
p853
ss(Vbase
p854
Vs390
p855
tp856
(dp857
Vkernel-arch
p858
Vs390
p859
sVfeaturesets
p860
(lp861
ss(Vbuild
p862
g5
tp863
(dp864
Vimage-file
p865
Varch/arm/boot/zImage
p866
sVvdso
p867
I01
ss(Vbase
p868
g40
tp869
(dp870
Vcompiler
p871
Vgcc-5
p872
sVfeaturesets
p873
(lp874
Vnone
p875
aVrt
p876
asVkernel-arch
p877
Vx86
p878
ss(Vdescription
p879
g155
tp880
(dp881
Vpart-long-pae
p882
VThis kernel requires PAE (Physical Address Extension).\u000aThis feature is supported by the Intel Pentium Pro/II/III/4/4M/D, Xeon,\u000aCore and Atom; AMD Geode NX, Athlon (K7), Duron, Opteron, Sempron,\u000aTurion or Phenom; Transmeta Efficeon; VIA C7; and some other processors.
p883
ss(g181
g223
g90
tp884
(dp885
g185
I01
sg186
(lp886
Vsparc64
p887
aVsparc64-smp
p888
ass(Vdescription
p889
g103
NVparisc
p890
tp891
(dp892
Vhardware-long
p893
VHP PA-RISC 32-bit systems with max 4 GB RAM
p894
sVhardware
p895
V32-bit PA-RISC
p896
ss(Vbuild
p897
g223
tp898
(dp899
Vimage-file
p900
Varch/sparc/boot/zImage
p901
ss(g181
g5
g90
tp902
(dp903
g185
I01
sg186
(lp904
Varmmp
p905
aVarmmp-lpae
p906
ass(Vbase
p907
NVrt
p908
tp909
(dp910
Venabled
p911
I00
ss(Vdescription
p912
g134
NVocteon
p913
tp914
(dp915
Vhardware-long
p916
VCavium Networks Octeon
p917
sVhardware
p918
VOcteon
p919
ss(g181
g83
g90
tp920
(dp921
g185
I01
sg186
(lp922
Vpowerpc64
p923
ass(Vbuild
p924
g198
tp925
(dp926
Vimage-file
p927
Vvmlinux
p928
ss(Vbase
p929
g40
g120
tp930
(dp931
Vflavours
p932
(lp933
Vamd64
p934
ass(Vdescription
p935
g198
NV4kc-malta
p936
tp937
(dp938
Vhardware-long
p939
VMIPS Malta boards
p940
sVhardware
p941
VMIPS Malta
p942
ss(Vimage
p943
g46
tp944
(dp945
Vinstall-stem
p946
Vvmlinuz
p947
ss(Vimage
p948
g60
tp949
(dp950
Vsuggests
p951
Vfdutils
p952
sVinstall-stem
p953
Vvmlinuz
p954
ss(Vbase
p955
g27
tp956
(dp957
Vkernel-arch
p958
Vs390
p959
sg88
(lp960
g90
ass(Vimage
p961
g198
NVocteon
p962
tp963
(dp964
Vconfigs
p965
(lp966
Vkernelarch-mips/config.octeon
p967
ass(Vdescription
p968
g103
NVparisc64-smp
p969
tp970
(dp971
Vhardware-long
p972
VHP PA-RISC 64-bit SMP systems with support for more than 4 GB RAM
p973
sVhardware
p974
Vmultiprocessor 64-bit PA-RISC
p975
ss(Vbase
p976
g60
tp977
(dp978
Vkernel-arch
p979
Vsh
p980
sg88
(lp981
g90
ass(Vdescription
p982
g54
NVloongson-2e
p983
tp984
(dp985
Vhardware-long
p986
VLemote Loongson 2E systems
p987
sVhardware
p988
VLoongson 2E
p989
ss(Vimage
p990
g134
tp991
(dp992
Vinstall-stem
p993
Vvmlinux
p994
ss(g181
g134
g90
tp995
(dp996
g185
I01
sg186
(lp997
V5kc-malta
p998
aVloongson-3
p999
aVocteon
p1000
ass(g181
g319
g90
tp1001
(dp1002
g185
I01
sg186
(lp1003
Vpowerpcspe
p1004
ass(g181
g110
g90
tp1005
(dp1006
g185
I01
sg186
(lp1007
Vpowerpc64le
p1008
ass(Vbase
p1009
g198
tp1010
(dp1011
Vkernel-arch
p1012
Vmips
p1013
sg88
(lp1014
g90
ass(Vbuild
p1015
g155
tp1016
(dp1017
Vimage-file
p1018
Varch/x86/boot/bzImage
p1019
sVvdso
p1020
I01
ss(Vdescription
p1021
g74
NValpha-smp
p1022
tp1023
(dp1024
Vhardware-long
p1025
VDEC Alpha SMP systems with extended kernel start address (Wildfire, Titan, Marvel)
p1026
sVhardware
p1027
VAlpha SMP
p1028
ss(Vimage
p1029
g46
NVarm64
p1030
tp1031
(dp1032
s(Vbuild
p1033
g142
tp1034
(dp1035
Vimage-file
p1036
Vvmlinux.gz
p1037
ss(Vbuild
p1038
g27
NVs390x
p1039
tp1040
(dp1041
Vdebug-info
p1042
I01
ss(Vbase
p1043
Vor1k
p1044
tp1045
(dp1046
Vkernel-arch
p1047
Vopenrisc
p1048
sVfeaturesets
p1049
(lp1050
ss(Vimage
p1051
g223
NVsparc64
p1052
tp1053
(dp1054
Vconfigs
p1055
(lp1056
Vkernelarch-sparc/config-up
p1057
ass(g181
g74
g90
tp1058
(dp1059
g185
I01
sg186
(lp1060
Valpha-generic
p1061
aValpha-smp
p1062
ass(Vimage
p1063
g40
NVamd64
p1064
tp1065
(dp1066
Vconfigs
p1067
(lp1068
Vkernelarch-x86/config-arch-64
p1069
ass(Vdescription
p1070
g54
NVloongson-3
p1071
tp1072
(dp1073
Vhardware-long
p1074
VLoongson 3A or 3B based systems (e.g. from Loongson or Lemote)
p1075
sVhardware
p1076
VLoongson 3A/3B
p1077
ss(Vrelations
p1078
g155
tp1079
(dp1080
Vheaders%gcc-5
p1081
Vlinux-compiler-gcc-5-x86
p1082
ss(Vdescription
p1083
g60
NVsh7751r
p1084
tp1085
(dp1086
Vhardware-long
p1087
VRenesas SH7751R R2D plus board
p1088
sVhardware
p1089
Vsh7751r
p1090
ss(Vbase
p1091
g155
Vrt
p1092
tp1093
(dp1094
Vflavours
p1095
(lp1096
V686-pae
p1097
ass(Vdescription
p1098
g134
NV5kc-malta
p1099
tp1100
(dp1101
Vhardware-long
p1102
VMIPS Malta boards
p1103
sVhardware
p1104
VMIPS Malta
p1105
ss(Vdescription
p1106
g142
NVm68k
p1107
tp1108
(dp1109
Vhardware
p1110
VMotorola MC68020+ family
p1111
ss(Vimage
p1112
g11
NVpowerpc-smp
p1113
tp1114
(dp1115
Vconfigs
p1116
(lp1117
Vpowerpc/config.powerpc
p1118
aVpowerpc/config.powerpc-smp
p1119
ass(Vdescription
p1120
g223
NVsparc64-smp
p1121
tp1122
(dp1123
Vhardware
p1124
Vmultiprocessor 64-bit UltraSPARC
p1125
ss(Vbase
p1126
g110
tp1127
(dp1128
Vkernel-arch
p1129
Vpowerpc
p1130
sg88
(lp1131
g90
ass(Vdescription
p1132
g21
NVocteon
p1133
tp1134
(dp1135
Vhardware-long
p1136
VCavium Networks Octeon
p1137
sVhardware
p1138
VOcteon
p1139
ss(Vbase
p1140
Vx32
p1141
tp1142
(dp1143
Vkernel-arch
p1144
Vx86
p1145
sVfeaturesets
p1146
(lp1147
ss(Vimage
p1148
g134
NVocteon
p1149
tp1150
(dp1151
Vconfigs
p1152
(lp1153
Vkernelarch-mips/config.octeon
p1154
ass(Vimage
p1155
g60
NVsh7785lcr
p1156
tp1157
(dp1158
Vcheck-size
p1159
L4194304L
sVrecommends
p1160
Vu-boot-tools
p1161
ss(Vdescription
p1162
g40
NVamd64
p1163
tp1164
(dp1165
Vhardware-long
p1166
VPCs with AMD64, Intel 64 or VIA Nano processors
p1167
sVhardware
p1168
V64-bit PCs
p1169
ss(Vbuild
p1170
g74
tp1171
(dp1172
Vimage-file
p1173
Varch/alpha/boot/vmlinux.gz
p1174
ss(Vdescription
p1175
g155
NV686
p1176
tp1177
(dp1178
Vhardware-long
p1179
VPCs with one or more processors not supporting PAE
p1180
sVhardware
p1181
Volder PCs
p1182
ss(Vdescription
p1183
g182
NVversatile
p1184
tp1185
(dp1186
Vhardware-long
p1187
VVersatile systems (PB, AB, Qemu)
p1188
sVhardware
p1189
VVersatile
p1190
ss(Vbuild
p1191
g182
tp1192
(dp1193
Vimage-file
p1194
Varch/arm/boot/zImage
p1195
ss(Vimage
p1196
g21
NV5kc-malta
p1197
tp1198
(dp1199
Vconfigs
p1200
(lp1201
Vkernelarch-mips/config.5kc-malta
p1202
ass(Vimage
p1203
g5
tp1204
(dp1205
Vconfigs
p1206
(lp1207
Vkernelarch-arm/config
p1208
asVsuggests
p1209
Vfdutils
p1210
sVinstall-stem
p1211
Vvmlinuz
p1212
ss(Vabi
p1213
g27
tp1214
(dp1215
Vignore-changes
p1216
(lp1217
Vmodule:arch/s390/kvm/kvm
p1218
ass(g181
g21
g90
tp1219
(dp1220
g185
I01
sg186
(lp1221
V5kc-malta
p1222
aVocteon
p1223
ass(Vimage
p1224
g11
NVpowerpc64
p1225
tp1226
(dp1227
Vconfigs
p1228
(lp1229
Vkernelarch-powerpc/config-arch-64
p1230
aVkernelarch-powerpc/config-arch-64-be
p1231
ass(Vdescription
p1232
g46
NVarm64
p1233
tp1234
(dp1235
Vhardware
p1236
V64-bit ARMv8 machines
p1237
ss(Vdescription
p1238
g60
NVsh7785lcr
p1239
tp1240
(dp1241
Vhardware-long
p1242
VRenesas SH7785 reference board
p1243
sVhardware
p1244
Vsh7785lcr
p1245
sstp1246
Rp1247
.