ccopy_reg
_reconstructor
p0
(cdebian_linux.config
ConfigCore
p1
c__builtin__
dict
p2
(dp3
(S'image'
p4
S'amd64'
p5
NS'amd64'
p6
tp7
(dp8
S'configs'
p9
(lp10
S'kernelarch-x86/config-arch-64'
p11
ass(S'image'
p12
g5
tp13
(dp14
S'install-stem'
p15
S'vmlinuz'
p16
sS'configs'
p17
(lp18
sS'bootloaders'
p19
(lp20
S'grub-pc'
p21
aS'grub-efi'
p22
aS'extlinux'
p23
ass(S'image'
p24
S'mips64el'
p25
NS'loongson-3'
p26
tp27
(dp28
S'configs'
p29
(lp30
S'kernelarch-mips/config.loongson-3'
p31
ass(S'base'
p32
g5
S'none'
p33
tp34
(dp35
S'flavours'
p36
(lp37
S'amd64'
p38
ass(S'image'
p39
S'powerpcspe'
p40
tp41
(dp42
S'suggests'
p43
S'mkvmlinuz'
p44
sS'install-stem'
p45
S'vmlinux'
p46
ss(S'description'
p47
S'armel'
p48
NS'kirkwood'
p49
tp50
(dp51
S'hardware'
p52
S'Marvell Kirkwood'
p53
sS'hardware-long'
p54
S'Marvell Kirkwood based systems (SheevaPlug, QNAP TS-119/TS-219, etc)'
p55
ss(S'image'
p56
S'ia64'
p57
tp58
(dp59
S'suggests'
p60
S'fdutils'
p61
sS'bootloaders'
p62
(lp63
S'elilo'
p64
asS'install-stem'
p65
S'vmlinuz'
p66
ss(S'abi'
p67
tp68
(dp69
S'abiname'
p70
S'2'
p71
sS'ignore-changes'
p72
(lp73
S'module:sound/firewire/snd-firewire-lib'
p74
aS'perf_*'
p75
ass(S'description'
p76
S's390x'
p77
NS's390x'
p78
tp79
(dp80
S'hardware'
p81
S'IBM zSeries'
p82
ss(S'description'
p83
S'armhf'
p84
NS'armmp'
p85
tp86
(dp87
S'hardware'
p88
S'ARMv7 multiplatform compatible SoCs'
p89
sS'hardware-long'
p90
S'ARMv7 multiplatform kernel. See\nhttps://wiki.debian.org/DebianKernel/ARMMP for details of supported\nplatforms'
p91
ss(S'base'
p92
NS'rt'
p93
tp94
(dp95
S'enabled'
p96
I01
ss(S'version'
p97
tp98
(dp99
S'abiname'
p100
S'4.1.0-2'
p101
sS'source'
p102
V4.1.6-1
p103
sS'abiname_base'
p104
S'4.1.0'
p105
sS'upstream'
p106
S'4.1'
p107
ss(S'description'
p108
S'sparc'
p109
NS'sparc32'
p110
tp111
(dp112
S'hardware'
p113
S'uniprocessor sparc32 (sun4m)'
p114
ss(S'description'
p115
g5
g33
S'amd64'
p116
tp117
(dp118
S'parts'
p119
(lp120
S'xen'
p121
ass(S'base'
p122
S'ppc64'
p123
S'none'
p124
tp125
(dp126
S'implicit-flavour'
p127
I01
sS'flavours'
p128
(lp129
S'powerpc64'
p130
ass(S'description'
p131
S'powerpc'
p132
NS'powerpc-smp'
p133
tp134
(dp135
S'hardware'
p136
S'multiprocessor 32-bit PowerPC'
p137
ss(S'description'
p138
g5
NS'amd64'
p139
tp140
(dp141
S'hardware'
p142
S'64-bit PCs'
p143
sS'hardware-long'
p144
S'PCs with AMD64, Intel 64 or VIA Nano processors'
p145
ss(S'image'
p146
g77
NS's390x'
p147
tp148
(dp149
S'configs'
p150
(lp151
S'kernelarch-s390/config-arch-64'
p152
ass(S'description'
p153
g109
NS'sparc64'
p154
tp155
(dp156
S'hardware'
p157
S'uniprocessor 64-bit UltraSPARC'
p158
ss(S'description'
p159
g109
NS'sparc64-smp'
p160
tp161
(dp162
S'hardware'
p163
S'multiprocessor 64-bit UltraSPARC'
p164
ss(S'base'
p165
S'alpha'
p166
tp167
(dp168
S'kernel-arch'
p169
S'alpha'
p170
sS'featuresets'
p171
(lp172
g124
ass(g122
g84
g124
tp173
(dp174
g127
I01
sg128
(lp175
S'armmp'
p176
aS'armmp-lpae'
p177
ass(S'image'
p178
S'mips'
p179
NS'5kc-malta'
p180
tp181
(dp182
S'configs'
p183
(lp184
S'kernelarch-mips/config.5kc-malta'
p185
ass(S'image'
p186
S'i386'
p187
NS'586'
p188
tp189
(dp190
S'configs'
p191
(lp192
S'kernelarch-x86/config-arch-32'
p193
aS'i386/config.586'
p194
ass(S'description'
p195
g179
NS'r5k-ip32'
p196
tp197
(dp198
S'hardware'
p199
S'SGI IP32'
p200
sS'hardware-long'
p201
S'SGI IP32 systems (O2)'
p202
ss(S'base'
p203
g187
S'rt'
p204
tp205
(dp206
S'flavours'
p207
(lp208
S'686-pae'
p209
ass(S'description'
p210
g57
NS'itanium'
p211
tp212
(dp213
S'hardware'
p214
S'Itanium'
p215
ss(S'image'
p216
g48
NS'orion5x'
p217
tp218
(dp219
S'check-size'
p220
I2097080
sS'check-size-with-dtb'
p221
I01
sS'configs'
p222
(lp223
S'armel/config-reduced'
p224
aS'armel/config.orion5x'
p225
asS'recommends'
p226
S'u-boot-tools'
p227
ss(S'relations'
p228
g187
tp229
(dp230
S'headers%gcc-4.9'
p231
S'linux-compiler-gcc-4.9-x86'
p232
ss(S'image'
p233
g132
tp234
(dp235
S'suggests'
p236
S'mkvmlinuz'
p237
sS'configs'
p238
(lp239
sS'install-stem'
p240
S'vmlinux'
p241
ss(S'image'
p242
S'sh4'
p243
NS'sh7785lcr'
p244
tp245
(dp246
S'check-size'
p247
I4194304
sS'recommends'
p248
S'u-boot-tools'
p249
ss(S'description'
p250
NS'rt'
p251
tp252
(dp253
S'part-long-rt'
p254
S'This kernel includes the PREEMPT_RT realtime patch set.'
p255
sS'parts'
p256
(lp257
S'rt'
p258
asS'part-short-rt'
p259
S'PREEMPT_RT'
p260
ss(S'base'
p261
g5
S'rt'
p262
tp263
(dp264
S'flavours'
p265
(lp266
S'amd64'
p267
ass(S'description'
p268
S'sparc64'
p269
NS'sparc64'
p270
tp271
(dp272
S'hardware'
p273
S'uniprocessor 64-bit UltraSPARC'
p274
ss(S'build'
p275
S'ppc64el'
p276
tp277
(dp278
S'image-file'
p279
S'vmlinux'
p280
ss(S'build'
p281
g123
tp282
(dp283
S'image-file'
p284
S'vmlinux'
p285
ss(S'description'
p286
g84
NS'armmp-lpae'
p287
tp288
(dp289
S'hardware'
p290
S'ARMv7 multiplatform compatible SoCs supporting LPAE'
p291
sS'hardware-long'
p292
S'ARMv7 multiplatform kernel supporting LPAE. See\nhttps://wiki.debian.org/DebianKernel/ARMMP for details of supported\nplatforms.'
p293
ss(S'image'
p294
g187
NS'686-pae'
p295
tp296
(dp297
S'configs'
p298
(lp299
S'kernelarch-x86/config-arch-32'
p300
aS'i386/config.686-pae'
p301
asS'recommends'
p302
S'libc6-i686'
p303
ss(S'base'
p304
g187
tp305
(dp306
S'kernel-arch'
p307
S'x86'
p308
sS'featuresets'
p309
(lp310
S'none'
p311
aS'rt'
p312
ass(S'base'
p313
S'mipsel'
p314
tp315
(dp316
S'kernel-arch'
p317
S'mips'
p318
sg171
(lp319
g124
ass(S'description'
p320
g243
NS'sh7751r'
p321
tp322
(dp323
S'hardware'
p324
S'sh7751r'
p325
sS'hardware-long'
p326
S'Renesas SH7751R R2D plus board'
p327
ss(S'relations'
p328
g5
tp329
(dp330
S'headers%gcc-4.9'
p331
S'linux-compiler-gcc-4.9-x86'
p332
ss(S'description'
p333
g314
NS'sb1-bcm91250a'
p334
tp335
(dp336
S'hardware'
p337
S'BCM91250A'
p338
sS'hardware-long'
p339
S'Broadcom BCM91250A systems (aka SWARM)'
p340
ss(S'description'
p341
S'arm64'
p342
NS'arm64'
p343
tp344
(dp345
S'hardware'
p346
S'64-bit ARMv8 machines'
p347
ss(S'description'
p348
g314
NS'5kc-malta'
p349
tp350
(dp351
S'hardware'
p352
S'MIPS Malta (64-bit)'
p353
sS'hardware-long'
p354
S'MIPS Malta boards (64-bit)'
p355
ss(S'image'
p356
g314
NS'5kc-malta'
p357
tp358
(dp359
S'configs'
p360
(lp361
S'kernelarch-mips/config.5kc-malta'
p362
ass(g122
g314
g124
tp363
(dp364
g127
I01
sg128
(lp365
S'sb1-bcm91250a'
p366
aS'4kc-malta'
p367
aS'5kc-malta'
p368
aS'loongson-2e'
p369
aS'loongson-2f'
p370
aS'loongson-3'
p371
ass(S'description'
p372
g179
NS'4kc-malta'
p373
tp374
(dp375
S'hardware'
p376
S'MIPS Malta'
p377
sS'hardware-long'
p378
S'MIPS Malta boards'
p379
ss(S'description'
p380
g40
tp381
(dp382
S'hardware'
p383
S'32-bit PowerPC with SPE (instead of AltiVec) with SMP support'
p384
ss(S'relations'
p385
tp386
(dp387
S'gcc-4.9'
p388
S'gcc-4.9'
p389
sS'gcc-4.8'
p390
S'gcc-4.8'
p391
sS'initramfs-fallback'
p392
S'linux-initramfs-tool'
p393
sS'gcc-4.7'
p394
S'gcc-4.7'
p395
sS'gcc-4.6'
p396
S'gcc-4.6'
p397
sS'initramfs-tools'
p398
S'initramfs-tools (>= 0.110~)'
p399
ss(S'build'
p400
g166
tp401
(dp402
S'image-file'
p403
S'arch/alpha/boot/vmlinux.gz'
p404
ss(S'image'
p405
g84
tp406
(dp407
S'suggests'
p408
S'fdutils'
p409
sS'configs'
p410
(lp411
S'kernelarch-arm/config'
p412
asS'install-stem'
p413
S'vmlinuz'
p414
ss(S'build'
p415
g40
tp416
(dp417
S'image-file'
p418
S'vmlinux'
p419
ss(S'description'
p420
S'mips64'
p421
NS'5kc-malta'
p422
tp423
(dp424
S'hardware'
p425
S'MIPS Malta'
p426
sS'hardware-long'
p427
S'MIPS Malta boards'
p428
ss(g122
g243
g124
tp429
(dp430
g127
I01
sg128
(lp431
S'sh7751r'
p432
aS'sh7785lcr'
p433
ass(S'build'
p434
S'hppa'
p435
tp436
(dp437
S'image-file'
p438
S'vmlinux'
p439
ss(S'image'
p440
g179
NS'4kc-malta'
p441
tp442
(dp443
S'configs'
p444
(lp445
S'kernelarch-mips/config.4kc-malta'
p446
ass(S'base'
p447
g48
tp448
(dp449
S'kernel-arch'
p450
S'arm'
p451
sg171
(lp452
g124
ass(S'description'
p453
g187
NS'586'
p454
tp455
(dp456
S'hardware'
p457
S'older PCs'
p458
sS'parts'
p459
(lp460
S'up'
p461
asS'hardware-long'
p462
S'PCs with a single processor not supporting PAE'
p463
ss(S'image'
p464
g179
NS'octeon'
p465
tp466
(dp467
S'configs'
p468
(lp469
S'kernelarch-mips/config.octeon'
p470
ass(S'build'
p471
g342
tp472
(dp473
S'debug-info'
p474
I01
sS'image-file'
p475
S'arch/arm64/boot/Image'
p476
ss(S'description'
p477
S'm68k'
p478
NS'm68k'
p479
tp480
(dp481
S'hardware'
p482
S'Motorola MC68020+ family'
p483
ss(S'base'
p484
g109
tp485
(dp486
S'kernel-arch'
p487
S'sparc'
p488
sg171
(lp489
g124
ass(S'image'
p490
g276
NS'powerpc64le'
p491
tp492
(dp493
S'configs'
p494
(lp495
S'kernelarch-powerpc/config-arch-64'
p496
aS'kernelarch-powerpc/config-arch-64-le'
p497
ass(g122
g77
g124
tp498
(dp499
g127
I01
sg128
(lp500
S's390x'
p501
ass(S'base'
p502
g179
tp503
(dp504
S'kernel-arch'
p505
S'mips'
p506
sg171
(lp507
g124
ass(S'build'
p508
g5
tp509
(dp510
S'debug-info'
p511
I01
sS'image-file'
p512
S'arch/x86/boot/bzImage'
p513
ss(S'build'
p514
g109
tp515
(dp516
S'image-file'
p517
S'arch/sparc/boot/zImage'
p518
ss(S'image'
p519
g314
tp520
(dp521
S'install-stem'
p522
S'vmlinux'
p523
ss(S'base'
p524
g435
NS'parisc64-smp'
p525
tp526
(dp527
S'override-host-type'
p528
S'hppa64-linux-gnu'
p529
sS'cflags'
p530
S'-fno-cse-follow-jumps'
p531
ss(S'build'
p532
g132
tp533
(dp534
S'image-file'
p535
S'vmlinux'
p536
ss(S'description'
p537
g132
NS'powerpc'
p538
tp539
(dp540
S'hardware'
p541
S'uniprocessor 32-bit PowerPC'
p542
ss(S'description'
p543
g314
NS'loongson-2f'
p544
tp545
(dp546
S'hardware'
p547
S'Loongson 2F'
p548
sS'hardware-long'
p549
S'Lemote Loongson 2F systems'
p550
ss(S'image'
p551
g421
NS'octeon'
p552
tp553
(dp554
S'configs'
p555
(lp556
S'kernelarch-mips/config.octeon'
p557
ass(S'build'
p558
g314
tp559
(dp560
S'image-file'
p561
S'vmlinux'
p562
ss(S'description'
p563
g25
NS'loongson-3'
p564
tp565
(dp566
S'hardware'
p567
S'Loongson 3A/3B'
p568
sS'hardware-long'
p569
S'Loongson 3A or 3B based systems (e.g. from Loongson or Lemote)'
p570
ss(S'base'
p571
g5
tp572
(dp573
S'kernel-arch'
p574
S'x86'
p575
sS'featuresets'
p576
(lp577
S'none'
p578
aS'rt'
p579
ass(S'base'
p580
g57
tp581
(dp582
S'kernel-arch'
p583
S'ia64'
p584
sg171
(lp585
g124
asS'compiler'
p586
S'gcc-4.6'
p587
ss(S'image'
p588
g84
NS'armmp-lpae'
p589
tp590
(dp591
S'configs'
p592
(lp593
S'armhf/config.armmp'
p594
aS'armhf/config.lpae'
p595
ass(S'description'
p596
g187
NS'686-pae'
p597
tp598
(dp599
S'hardware'
p600
S'modern PCs'
p601
sS'parts'
p602
(lp603
S'pae'
p604
asS'hardware-long'
p605
S'PCs with one or more processors supporting PAE'
p606
ss(S'image'
p607
g179
NS'r4k-ip22'
p608
tp609
(dp610
S'configs'
p611
(lp612
S'kernelarch-mips/config.r4k-ip22'
p613
ass(S'description'
p614
g166
NS'alpha-smp'
p615
tp616
(dp617
S'hardware'
p618
S'Alpha SMP'
p619
sS'hardware-long'
p620
S'DEC Alpha SMP systems with extended kernel start address (Wildfire, Titan, Marvel)'
p621
ss(S'base'
p622
S's390'
p623
tp624
(dp625
S'kernel-arch'
p626
S's390'
p627
sS'featuresets'
p628
(lp629
ss(g122
g48
g124
tp630
(dp631
g127
I01
sg128
(lp632
S'kirkwood'
p633
aS'orion5x'
p634
aS'versatile'
p635
ass(S'image'
p636
g48
NS'kirkwood'
p637
tp638
(dp639
S'check-size'
p640
I2097080
sS'check-size-with-dtb'
p641
I01
sS'breaks'
p642
S'flash-kernel (<< 3.30~)'
p643
sS'recommends'
p644
S'u-boot-tools'
p645
sS'configs'
p646
(lp647
S'armel/config-reduced'
p648
aS'armel/config.kirkwood'
p649
ass(S'description'
p650
g179
NS'sb1-bcm91250a'
p651
tp652
(dp653
S'hardware'
p654
S'BCM91250A'
p655
sS'hardware-long'
p656
S'Broadcom BCM91250A systems (aka SWARM)'
p657
ss(S'description'
p658
g179
NS'octeon'
p659
tp660
(dp661
S'hardware'
p662
S'Octeon'
p663
sS'hardware-long'
p664
S'Cavium Networks Octeon'
p665
ss(S'description'
p666
g187
tp667
(dp668
S'part-long-pae'
p669
S'This kernel requires PAE (Physical Address Extension).\nThis feature is supported by the Intel Pentium Pro/II/III/4/4M/D, Xeon,\nCore and Atom; AMD Geode NX, Athlon (K7), Duron, Opteron, Sempron,\nTurion or Phenom; Transmeta Efficeon; VIA C7; and some other processors.'
p670
ss(S'description'
p671
g276
NS'powerpc64le'
p672
tp673
(dp674
S'hardware'
p675
S'Little-endian 64-bit PowerPC'
p676
ss(S'build'
p677
g25
tp678
(dp679
S'image-file'
p680
S'vmlinux'
p681
ss(S'xen'
p682
g5
g33
S'amd64'
p683
tp684
(dp685
S'flavours'
p686
(lp687
S'amd64'
p688
ass(S'image'
p689
g48
tp690
(dp691
S'suggests'
p692
S'fdutils'
p693
sS'configs'
p694
(lp695
S'kernelarch-arm/config'
p696
aS'armel/config'
p697
asS'install-stem'
p698
S'vmlinuz'
p699
ss(S'description'
p700
g25
NS'5kc-malta'
p701
tp702
(dp703
S'hardware'
p704
S'MIPS Malta'
p705
sS'hardware-long'
p706
S'MIPS Malta boards'
p707
ss(S'description'
p708
g314
NS'4kc-malta'
p709
tp710
(dp711
S'hardware'
p712
S'MIPS Malta'
p713
sS'hardware-long'
p714
S'MIPS Malta boards'
p715
ss(S'relations'
p716
g48
tp717
(dp718
S'headers%gcc-4.9'
p719
S'linux-compiler-gcc-4.9-arm'
p720
ss(S'image'
p721
g435
tp722
(dp723
S'suggests'
p724
S'palo'
p725
sS'install-stem'
p726
S'vmlinux'
p727
ss(g122
g421
g124
tp728
(dp729
g127
I01
sg128
(lp730
S'sb1-bcm91250a'
p731
aS'5kc-malta'
p732
aS'octeon'
p733
ass(S'relations'
p734
g435
tp735
(dp736
S'gcc-4.9'
p737
S'gcc-4.9, binutils-hppa64, gcc-4.9-hppa64'
p738
ss(g122
g435
g124
tp739
(dp740
g127
I01
sg128
(lp741
S'parisc'
p742
aS'parisc64-smp'
p743
ass(S'description'
p744
g421
NS'octeon'
p745
tp746
(dp747
S'hardware'
p748
S'Octeon'
p749
sS'hardware-long'
p750
S'Cavium Networks Octeon'
p751
ss(S'image'
p752
g166
tp753
(dp754
S'suggests'
p755
S'aboot, fdutils'
p756
sS'install-stem'
p757
S'vmlinuz'
p758
ss(S'base'
p759
g269
tp760
(dp761
S'kernel-arch'
p762
S'sparc'
p763
sg171
(lp764
g124
ass(S'image'
p765
g187
tp766
(dp767
S'install-stem'
p768
S'vmlinuz'
p769
sS'configs'
p770
(lp771
sS'bootloaders'
p772
(lp773
S'grub-pc'
p774
aS'extlinux'
p775
ass(S'base'
p776
S'or1k'
p777
tp778
(dp779
S'kernel-arch'
p780
S'openrisc'
p781
sS'featuresets'
p782
(lp783
ss(S'base'
p784
g77
tp785
(dp786
S'kernel-arch'
p787
S's390'
p788
sg171
(lp789
g124
asS'compiler'
p790
S'gcc-4.8'
p791
ss(S'description'
p792
g435
NS'parisc'
p793
tp794
(dp795
S'hardware'
p796
S'32-bit PA-RISC'
p797
sS'hardware-long'
p798
S'HP PA-RISC 32-bit systems with max 4 GB RAM'
p799
ss(S'image'
p800
g421
NS'sb1-bcm91250a'
p801
tp802
(dp803
S'configs'
p804
(lp805
S'kernelarch-mips/config.sb1-bcm91250a'
p806
ass(S'image'
p807
g132
NS'powerpc-smp'
p808
tp809
(dp810
S'configs'
p811
(lp812
S'powerpc/config.powerpc'
p813
aS'powerpc/config.powerpc-smp'
p814
ass(g122
g25
g124
tp815
(dp816
g127
I01
sg128
(lp817
S'sb1-bcm91250a'
p818
aS'5kc-malta'
p819
aS'loongson-3'
p820
aS'octeon'
p821
ass(S'image'
p822
g123
tp823
(dp824
S'suggests'
p825
S'mkvmlinuz'
p826
sS'configs'
p827
(lp828
sS'install-stem'
p829
S'vmlinux'
p830
ss(S'image'
p831
g179
tp832
(dp833
S'install-stem'
p834
S'vmlinux'
p835
ss(S'image'
p836
g25
NS'octeon'
p837
tp838
(dp839
S'configs'
p840
(lp841
S'kernelarch-mips/config.octeon'
p842
ass(g122
g109
g124
tp843
(dp844
g127
I01
sg128
(lp845
S'sparc64'
p846
aS'sparc64-smp'
p847
ass(S'base'
p848
g123
tp849
(dp850
S'kernel-arch'
p851
S'powerpc'
p852
sg171
(lp853
g124
ass(g122
g179
g124
tp854
(dp855
g127
I01
sg128
(lp856
S'r4k-ip22'
p857
aS'r5k-ip32'
p858
aS'sb1-bcm91250a'
p859
aS'4kc-malta'
p860
aS'5kc-malta'
p861
aS'octeon'
p862
ass(S'description'
p863
g187
S'none'
p864
S'686-pae'
p865
tp866
(dp867
S'parts'
p868
(lp869
S'xen'
p870
ass(g122
g57
g124
tp871
(dp872
g127
I01
sg128
(lp873
S'itanium'
p874
aS'mckinley'
p875
ass(S'base'
p876
g342
S'none'
p877
tp878
(dp879
S'flavours'
p880
(lp881
S'arm64'
p882
ass(S'build'
p883
g77
tp884
(dp885
S'image-file'
p886
S'arch/s390/boot/image'
p887
ss(g122
g166
g124
tp888
(dp889
g127
I01
sg128
(lp890
S'alpha-generic'
p891
aS'alpha-smp'
p892
ass(S'build'
p893
g179
tp894
(dp895
S'image-file'
p896
S'vmlinux'
p897
ss(S'image'
p898
g421
tp899
(dp900
S'install-stem'
p901
S'vmlinux'
p902
ss(S'image'
p903
g25
NS'sb1-bcm91250a'
p904
tp905
(dp906
S'configs'
p907
(lp908
S'kernelarch-mips/config.sb1-bcm91250a'
p909
ass(S'description'
p910
g123
NS'powerpc64'
p911
tp912
(dp913
S'hardware'
p914
S'64-bit PowerPC'
p915
ss(S'base'
p916
S'x32'
p917
tp918
(dp919
S'kernel-arch'
p920
S'x86'
p921
sS'featuresets'
p922
(lp923
ss(S'build'
p924
g243
tp925
(dp926
S'image-file'
p927
S'arch/sh/boot/zImage'
p928
ss(S'image'
p929
g478
tp930
(dp931
S'suggests'
p932
S'vmelilo, fdutils'
p933
sS'install-stem'
p934
S'vmlinuz'
p935
ss(S'description'
p936
g435
NS'parisc64-smp'
p937
tp938
(dp939
S'hardware'
p940
S'multiprocessor 64-bit PA-RISC'
p941
sS'hardware-long'
p942
S'HP PA-RISC 64-bit SMP systems with support for more than 4 GB RAM'
p943
ss(S'image'
p944
g109
NS'sparc32'
p945
tp946
(dp947
S'image-postproc'
p948
S'sparc32-image-postproc'
p949
ss(S'build'
p950
g421
tp951
(dp952
S'image-file'
p953
S'vmlinux'
p954
ss(S'build'
p955
g84
tp956
(dp957
S'image-file'
p958
S'arch/arm/boot/zImage'
p959
ss(S'image'
p960
g269
NS'sparc64'
p961
tp962
(dp963
S'configs'
p964
(lp965
S'kernelarch-sparc/config-up'
p966
ass(S'build'
p967
g57
tp968
(dp969
S'image-file'
p970
S'vmlinux.gz'
p971
ss(S'base'
p972
g84
tp973
(dp974
S'kernel-arch'
p975
S'arm'
p976
sg171
(lp977
g124
ass(S'image'
p978
g243
tp979
(dp980
S'suggests'
p981
S'fdutils'
p982
sS'install-stem'
p983
S'vmlinuz'
p984
ss(S'base'
p985
g421
tp986
(dp987
S'kernel-arch'
p988
S'mips'
p989
sg171
(lp990
g124
ass(S'base'
p991
g435
tp992
(dp993
S'kernel-arch'
p994
S'parisc'
p995
sg171
(lp996
g124
ass(S'image'
p997
g421
NS'5kc-malta'
p998
tp999
(dp1000
S'configs'
p1001
(lp1002
S'kernelarch-mips/config.5kc-malta'
p1003
ass(S'base'
p1004
g243
tp1005
(dp1006
S'kernel-arch'
p1007
S'sh'
p1008
sg171
(lp1009
g124
ass(S'description'
p1010
g314
NS'loongson-2e'
p1011
tp1012
(dp1013
S'hardware'
p1014
S'Loongson 2E'
p1015
sS'hardware-long'
p1016
S'Lemote Loongson 2E systems'
p1017
ss(S'image'
p1018
g109
tp1019
(dp1020
S'suggests'
p1021
S'silo, fdutils'
p1022
sS'configs'
p1023
(lp1024
sS'install-stem'
p1025
S'vmlinuz'
p1026
ss(S'description'
p1027
tp1028
(dp1029
S'part-long-up'
p1030
S'This kernel is not suitable for SMP (multi-processor,\nmulti-core or hyper-threaded) systems.'
p1031
sS'part-long-xen'
p1032
S'This kernel also runs on a Xen hypervisor.\nIt supports both privileged (dom0) and unprivileged (domU) operation.'
p1033
ss(S'image'
p1034
g314
NS'loongson-2e'
p1035
tp1036
(dp1037
S'configs'
p1038
(lp1039
S'kernelarch-mips/config.loongson-2e'
p1040
ass(S'build'
p1041
g269
tp1042
(dp1043
S'image-file'
p1044
S'arch/sparc/boot/zImage'
p1045
ss(S'relations'
p1046
g84
tp1047
(dp1048
S'headers%gcc-4.9'
p1049
S'linux-compiler-gcc-4.9-arm'
p1050
ss(S'image'
p1051
g314
NS'loongson-2f'
p1052
tp1053
(dp1054
S'configs'
p1055
(lp1056
S'kernelarch-mips/config.loongson-2f'
p1057
asS'recommends'
p1058
S'libc6-loongson2f'
p1059
ss(S'description'
p1060
g179
NS'5kc-malta'
p1061
tp1062
(dp1063
S'hardware'
p1064
S'MIPS Malta (64-bit)'
p1065
sS'hardware-long'
p1066
S'MIPS Malta boards (64-bit)'
p1067
ss(S'description'
p1068
g132
NS'powerpc64'
p1069
tp1070
(dp1071
S'hardware'
p1072
S'64-bit PowerPC'
p1073
ss(S'image'
p1074
g179
NS'r5k-ip32'
p1075
tp1076
(dp1077
S'configs'
p1078
(lp1079
S'kernelarch-mips/config.r5k-ip32'
p1080
ass(S'image'
p1081
g269
tp1082
(dp1083
S'suggests'
p1084
S'silo, fdutils'
p1085
sS'configs'
p1086
(lp1087
sS'install-stem'
p1088
S'vmlinuz'
p1089
ss(S'relations'
p1090
g77
tp1091
(dp1092
S'headers%gcc-4.8'
p1093
S'linux-compiler-gcc-4.8-s390'
p1094
ss(S'description'
p1095
g57
NS'mckinley'
p1096
tp1097
(dp1098
S'hardware'
p1099
S'Itanium II'
p1100
ss(S'base'
p1101
g132
tp1102
(dp1103
S'kernel-arch'
p1104
S'powerpc'
p1105
sg171
(lp1106
g124
ass(S'image'
p1107
g123
NS'powerpc64'
p1108
tp1109
(dp1110
S'configs'
p1111
(lp1112
S'kernelarch-powerpc/config-arch-64'
p1113
aS'kernelarch-powerpc/config-arch-64-be'
p1114
ass(S'description'
p1115
g25
NS'sb1-bcm91250a'
p1116
tp1117
(dp1118
S'hardware'
p1119
S'BCM91250A'
p1120
sS'hardware-long'
p1121
S'Broadcom BCM91250A systems (aka SWARM)'
p1122
ss(S'image'
p1123
g342
NS'arm64'
p1124
tp1125
(dp1126
s(S'description'
p1127
g25
NS'octeon'
p1128
tp1129
(dp1130
S'hardware'
p1131
S'Octeon'
p1132
sS'hardware-long'
p1133
S'Cavium Networks Octeon'
p1134
ss(S'description'
p1135
g166
NS'alpha-generic'
p1136
tp1137
(dp1138
S'hardware'
p1139
S'Alpha'
p1140
sS'hardware-long'
p1141
S'DEC Alpha systems with extended kernel start address (Wildfire, Titan, Marvel)'
p1142
ss(S'image'
p1143
g276
tp1144
(dp1145
S'suggests'
p1146
S'mkvmlinuz'
p1147
sS'configs'
p1148
(lp1149
sS'install-stem'
p1150
S'vmlinux'
p1151
ss(S'description'
p1152
g421
NS'sb1-bcm91250a'
p1153
tp1154
(dp1155
S'hardware'
p1156
S'BCM91250A'
p1157
sS'hardware-long'
p1158
S'Broadcom BCM91250A systems (aka SWARM)'
p1159
ss(S'image'
p1160
g179
NS'sb1-bcm91250a'
p1161
tp1162
(dp1163
S'configs'
p1164
(lp1165
S'kernelarch-mips/config.sb1-bcm91250a'
p1166
ass(S'base'
p1167
g342
tp1168
(dp1169
S'kernel-arch'
p1170
S'arm64'
p1171
sS'featuresets'
p1172
(lp1173
S'none'
p1174
ass(S'image'
p1175
g269
NS'sparc64-smp'
p1176
tp1177
(dp1178
S'configs'
p1179
(lp1180
S'kernelarch-sparc/config-smp'
p1181
ass(S'image'
p1182
g314
NS'loongson-3'
p1183
tp1184
(dp1185
S'configs'
p1186
(lp1187
S'kernelarch-mips/config.loongson-3'
p1188
ass(S'description'
p1189
g48
NS'versatile'
p1190
tp1191
(dp1192
S'hardware'
p1193
S'Versatile'
p1194
sS'hardware-long'
p1195
S'Versatile systems (PB, AB, Qemu)'
p1196
ss(S'description'
p1197
g314
NS'loongson-3'
p1198
tp1199
(dp1200
S'hardware'
p1201
S'Loongson 3A/3B'
p1202
sS'hardware-long'
p1203
S'Loongson 3A or 3B based systems (e.g. from Loongson or Lemote)'
p1204
ss(g122
g40
g124
tp1205
(dp1206
g127
I01
sg128
(lp1207
S'powerpcspe'
p1208
ass(S'image'
p1209
g314
NS'sb1-bcm91250a'
p1210
tp1211
(dp1212
S'configs'
p1213
(lp1214
S'kernelarch-mips/config.sb1-bcm91250a'
p1215
ass(g122
g478
g124
tp1216
(dp1217
g127
I01
sg128
(lp1218
S'm68k'
p1219
ass(S'base'
p1220
g187
g864
tp1221
(dp1222
S'flavours'
p1223
(lp1224
S'586'
p1225
aS'686-pae'
p1226
ass(S'base'
p1227
tp1228
(dp1229
S'arches'
p1230
(lp1231
S'alpha'
p1232
aS'amd64'
p1233
aS'arm64'
p1234
aS'armel'
p1235
aS'armhf'
p1236
aS'hppa'
p1237
aS'i386'
p1238
aS'ia64'
p1239
aS'm68k'
p1240
aS'mips'
p1241
aS'mipsel'
p1242
aS'mips64'
p1243
aS'mips64el'
p1244
aS'or1k'
p1245
aS'powerpc'
p1246
aS'powerpcspe'
p1247
aS'ppc64'
p1248
aS'ppc64el'
p1249
aS's390'
p1250
aS's390x'
p1251
aS'sh4'
p1252
aS'sparc'
p1253
aS'sparc64'
p1254
aS'x32'
p1255
asS'featuresets'
p1256
(lp1257
S'none'
p1258
aS'rt'
p1259
asS'compiler'
p1260
S'gcc-4.9'
p1261
ss(S'image'
p1262
g109
NS'sparc64'
p1263
tp1264
(dp1265
S'configs'
p1266
(lp1267
S'kernelarch-sparc/config-up'
p1268
ass(S'build'
p1269
g478
tp1270
(dp1271
S'image-file'
p1272
S'vmlinux.gz'
p1273
ss(S'build'
p1274
g48
tp1275
(dp1276
S'image-file'
p1277
S'arch/arm/boot/zImage'
p1278
ss(g122
g132
g124
tp1279
(dp1280
g127
I01
sg128
(lp1281
S'powerpc'
p1282
aS'powerpc-smp'
p1283
aS'powerpc64'
p1284
ass(S'image'
p1285
g25
tp1286
(dp1287
S'install-stem'
p1288
S'vmlinux'
p1289
ss(S'base'
p1290
g276
tp1291
(dp1292
S'kernel-arch'
p1293
S'powerpc'
p1294
sg171
(lp1295
g124
ass(S'base'
p1296
g25
tp1297
(dp1298
S'kernel-arch'
p1299
S'mips'
p1300
sg171
(lp1301
g124
ass(S'base'
p1302
g478
tp1303
(dp1304
S'kernel-arch'
p1305
S'm68k'
p1306
sg171
(lp1307
g124
asS'cflags'
p1308
S'-ffreestanding'
p1309
sS'compiler'
p1310
S'gcc-4.8'
p1311
ss(S'description'
p1312
g179
NS'r4k-ip22'
p1313
tp1314
(dp1315
S'hardware'
p1316
S'SGI IP22'
p1317
sS'hardware-long'
p1318
S'SGI IP22 systems (Indy, Indigo2)'
p1319
ss(S'image'
p1320
tp1321
(dp1322
S'initramfs-generators'
p1323
(lp1324
S'initramfs-tools'
p1325
aS'initramfs-fallback'
p1326
asS'type'
p1327
S'plain'
p1328
ss(S'base'
p1329
g40
tp1330
(dp1331
S'kernel-arch'
p1332
S'powerpc'
p1333
sg171
(lp1334
g124
ass(g122
g269
g124
tp1335
(dp1336
g127
I01
sg128
(lp1337
S'sparc64'
p1338
aS'sparc64-smp'
p1339
ass(S'image'
p1340
g25
NS'5kc-malta'
p1341
tp1342
(dp1343
S'configs'
p1344
(lp1345
S'kernelarch-mips/config.5kc-malta'
p1346
ass(S'description'
p1347
g243
NS'sh7785lcr'
p1348
tp1349
(dp1350
S'hardware'
p1351
S'sh7785lcr'
p1352
sS'hardware-long'
p1353
S'Renesas SH7785 reference board'
p1354
ss(S'image'
p1355
g314
NS'4kc-malta'
p1356
tp1357
(dp1358
S'configs'
p1359
(lp1360
S'kernelarch-mips/config.4kc-malta'
p1361
ass(S'build'
p1362
g187
NS'686-pae'
p1363
tp1364
(dp1365
S'debug-info'
p1366
I01
ss(S'build'
p1367
g77
NS's390x'
p1368
tp1369
(dp1370
S'debug-info'
p1371
I01
ss(S'description'
p1372
g48
NS'orion5x'
p1373
tp1374
(dp1375
S'hardware'
p1376
S'Marvell Orion'
p1377
sS'hardware-long'
p1378
S'Marvell Orion 5181, 5182 and 5281 based systems (QNAP TS-109/TS-209, etc)'
p1379
ss(S'image'
p1380
g77
tp1381
(dp1382
S'install-stem'
p1383
S'vmlinuz'
p1384
sS'configs'
p1385
(lp1386
sS'bootloaders'
p1387
(lp1388
S's390-tools'
p1389
ass(S'image'
p1390
g132
NS'powerpc64'
p1391
tp1392
(dp1393
S'configs'
p1394
(lp1395
S'kernelarch-powerpc/config-arch-64'
p1396
aS'kernelarch-powerpc/config-arch-64-be'
p1397
ass(S'image'
p1398
g342
tp1399
(dp1400
S'install-stem'
p1401
S'vmlinuz'
p1402
ss(S'description'
p1403
g269
NS'sparc64-smp'
p1404
tp1405
(dp1406
S'hardware'
p1407
S'multiprocessor 64-bit UltraSPARC'
p1408
ss(S'abi'
p1409
Ng251
tp1410
(dp1411
S'ignore-changes'
p1412
(lp1413
S'*'
p1414
ass(S'image'
p1415
g109
NS'sparc64-smp'
p1416
tp1417
(dp1418
S'configs'
p1419
(lp1420
S'kernelarch-sparc/config-smp'
p1421
ass(S'build'
p1422
g187
tp1423
(dp1424
S'image-file'
p1425
S'arch/x86/boot/bzImage'
p1426
ss(g122
g276
g124
tp1427
(dp1428
g127
I01
sg128
(lp1429
S'powerpc64le'
p1430
asstp1431
Rp1432
.