cdebian_linux.config
ConfigCore
p0
(tRp1
(Vbase
p2
tp3
(dp4
Varches
p5
(lp6
Valpha
p7
aVamd64
p8
aVarm64
p9
aVarmel
p10
aVarmhf
p11
aVhppa
p12
aVi386
p13
aVm68k
p14
aVmips
p15
aVmipsel
p16
aVmipsn32
p17
aVmipsn32el
p18
aVmips64
p19
aVmips64el
p20
aVpowerpc
p21
aVpowerpcspe
p22
aVppc64
p23
aVppc64el
p24
aVs390
p25
aVs390x
p26
aVsh3
p27
aVsh4
p28
aVsparc
p29
aVsparc64
p30
aVtilegx
p31
aVx32
p32
asVfeaturesets
p33
(lp34
Vnone
p35
aVrt
p36
asVcompiler
p37
Vgcc-6
p38
ss(Vbuild
p39
tp40
(dp41
Vsigned-modules
p42
I00
sVdebug-info
p43
I01
ss(Vbase
p44
NVrt
p45
tp46
(dp47
Venabled
p48
I00
ss(Vdescription
p49
tp50
(dp51
Vpart-long-up
p52
VThis kernel is not suitable for SMP (multi-processor,\u000amulti-core or hyper-threaded) systems.
p53
sVpart-long-xen
p54
VThis kernel also runs on a Xen hypervisor.\u000aIt supports both privileged (dom0) and unprivileged (domU) operation.
p55
ss(Vrelations
p56
tp57
(dp58
Vinitramfs-tools
p59
Vinitramfs-tools (>= 0.120+deb8u2)
p60
sVgcc-6
p61
Vgcc-6 <!stage1 !cross>, gcc-6-@gnu-type-package@ <!stage1 cross>
p62
sVinitramfs-fallback
p63
Vlinux-initramfs-tool
p64
ss(Vimage
p65
tp66
(dp67
Vinitramfs-generators
p68
(lp69
Vinitramfs-tools
p70
aVinitramfs-fallback
p71
ass(Vabi
p72
tp73
(dp74
Vabiname
p75
V2
p76
sVignore-changes
p77
(lp78
V__cpuhp_*
p79
aVbpf_analyzer
p80
aVcxl_*
p81
aViommu_device_*
p82
aVmm_iommu_*
p83
aVperf_*
p84
aVregister_cxl_calls
p85
aVunregister_cxl_calls
p86
aV*_hw_breakpoint
p87
aVmodule:arch/x86/kvm/*
p88
aVmodule:drivers/crypto/ccp/*
p89
aVmodule:drivers/hv/*
p90
aVmodule:drivers/iio/common/hid-sensors/*
p91
aVmodule:drivers/iio/common/st_sensors/**
p92
aVmodule:drivers/mtd/nand/*
p93
aVmodule:drivers/net/wireless/**
p94
aVmodule:drivers/nvdimm/*
p95
aVmodule:drivers/power/supply/bq27xxx_battery
p96
aVmodule:drivers/scsi/cxgbi/*
p97
aVmodule:drivers/scsi/libiscs*
p98
aVmodule:drivers/scsi/qla2xxx/qla2xxx
p99
aVmodule:drivers/scsi/ufs/*
p100
aVmodule:drivers/target/**
p101
aVmodule:drivers/usb/chipidea/**
p102
aVmodule:drivers/usb/host/**
p103
aVmodule:drivers/usb/musb/**
p104
aVmodule:net/ceph/libceph
p105
aVmodule:net/l2tp/l2tp_core
p106
aVmodule:sound/firewire/snd-firewire-lib
p107
aVbtree_*
p108
aVvisitor*
p109
aVcan_rx_register
p110
aVip6_xmit
p111
aVmodule:net/dccp/dccp
p112
aVmodule:net/rds/rds
p113
aVdevfreq_*
p114
aVdevm_devfreq_*
p115
aVupdate_devfreq
p116
aVmodule:drivers/infiniband/**
p117
aVacpi_ec_add_query_handler
p118
aVacpi_ec_remove_query_handler
p119
aVfirst_ec
p120
aVdebugfs_create_automount
p121
aVmodule:drivers/iio/imu/inv_mpu6050/*
p122
ass(Vbase
p123
Valpha
p124
tp125
(dp126
Vfeaturesets
p127
(lp128
Vnone
p129
asVkernel-arch
p130
Valpha
p131
ss(Vdescription
p132
g124
NValpha-smp
p133
tp134
(dp135
Vhardware
p136
VAlpha SMP
p137
sVhardware-long
p138
VDEC Alpha SMP systems with extended kernel start address (Wildfire, Titan, Marvel)
p139
ss(Vbuild
p140
g124
tp141
(dp142
Vsigned-modules
p143
I00
sVimage-file
p144
Varch/alpha/boot/vmlinux.gz
p145
ss(Vdescription
p146
g124
NValpha-generic
p147
tp148
(dp149
Vhardware
p150
VAlpha
p151
sVhardware-long
p152
VDEC Alpha systems with extended kernel start address (Wildfire, Titan, Marvel)
p153
ss(Vimage
p154
g124
tp155
(dp156
Vsuggests
p157
Vaboot, fdutils
p158
sVinstall-stem
p159
Vvmlinuz
p160
ss(Vbase
p161
g124
g129
tp162
(dp163
Vflavours
p164
(lp165
Valpha-generic
p166
aValpha-smp
p167
asVimplicit-flavour
p168
I01
ss(Vbase
p169
Vamd64
p170
tp171
(dp172
Vfeaturesets
p173
(lp174
Vnone
p175
aVrt
p176
asVkernel-arch
p177
Vx86
p178
ss(Vdescription
p179
g170
NVamd64
p180
tp181
(dp182
Vhardware
p183
V64-bit PCs
p184
sVhardware-long
p185
VPCs with AMD64, Intel 64 or VIA Nano processors
p186
ss(Vbuild
p187
g170
tp188
(dp189
Vvdso
p190
I01
sVimage-file
p191
Varch/x86/boot/bzImage
p192
sVdebug-info
p193
I01
ss(Vrelations
p194
g170
tp195
(dp196
Vheaders%gcc-6
p197
Vlinux-compiler-gcc-6-x86
p198
ss(Vimage
p199
g170
tp200
(dp201
Vbreaks
p202
Vxserver-xorg-input-vmmouse (<< 1:13.0.99)
p203
sVinstall-stem
p204
Vvmlinuz
p205
sVbootloaders
p206
(lp207
Vgrub-pc
p208
aVgrub-efi-amd64
p209
aVextlinux
p210
ass(Vbase
p211
g170
Vnone
p212
tp213
(dp214
Vflavours
p215
(lp216
Vamd64
p217
ass(Vdescription
p218
g170
g212
Vamd64
p219
tp220
(dp221
Vparts
p222
(lp223
Vxen
p224
ass(Vbase
p225
g170
Vrt
p226
tp227
(dp228
Vflavours
p229
(lp230
Vamd64
p231
ass(Vbase
p232
Varm64
p233
tp234
(dp235
Vfeaturesets
p236
(lp237
Vnone
p238
asVkernel-arch
p239
Varm64
p240
ss(Vdescription
p241
g233
NVarm64
p242
tp243
(dp244
Vhardware
p245
V64-bit ARMv8 machines
p246
ss(Vbuild
p247
g233
tp248
(dp249
Vvdso
p250
I01
sVimage-file
p251
Varch/arm64/boot/Image
p252
sVdebug-info
p253
I01
ss(Vimage
p254
g233
NVarm64
p255
tp256
(dp257
s(Vimage
p258
g233
tp259
(dp260
Vbreaks
p261
Vlibmozjs185-1.0, libmozjs-24-0 (<< 24.2.0-5.1~)
p262
sVinstall-stem
p263
Vvmlinuz
p264
ss(Vbase
p265
g233
Vnone
p266
tp267
(dp268
Vflavours
p269
(lp270
Varm64
p271
ass(Vbase
p272
Varmel
p273
tp274
(dp275
g127
(lp276
g129
asVkernel-arch
p277
Varm
p278
ss(Vbuild
p279
g273
tp280
(dp281
Vsigned-modules
p282
I00
sVimage-file
p283
Varch/arm/boot/zImage
p284
ss(Vimage
p285
g273
NVmarvell
p286
tp287
(dp288
Vrecommends
p289
Vu-boot-tools
p290
sVbreaks
p291
Vflash-kernel (<< 3.57~)
p292
sVcheck-size-with-dtb
p293
I01
sVcheck-size
p294
L2097080L
ss(Vdescription
p295
g273
NVmarvell
p296
tp297
(dp298
Vhardware
p299
VMarvell Kirkwood/Orion
p300
sVhardware-long
p301
VMarvell Kirkwood based systems (SheevaPlug, QNAP TS-119/TS-219, etc)\u000aand Orion 5181, 5182 and 5281 based systems (QNAP TS-109/TS-209, etc)
p302
ss(Vrelations
p303
g273
tp304
(dp305
Vheaders%gcc-6
p306
Vlinux-compiler-gcc-6-arm
p307
ss(Vimage
p308
g273
tp309
(dp310
Vinstall-stem
p311
Vvmlinuz
p312
ss(g161
g273
g129
tp313
(dp314
g164
(lp315
Vmarvell
p316
asg168
I01
ss(Vbase
p317
Varmhf
p318
tp319
(dp320
g127
(lp321
g129
asVkernel-arch
p322
Varm
p323
ss(Vdescription
p324
g318
NVarmmp
p325
tp326
(dp327
Vhardware
p328
VARMv7 multiplatform compatible SoCs
p329
sVhardware-long
p330
VARMv7 multiplatform kernel. See\u000ahttps://wiki.debian.org/DebianKernel/ARMMP for details of supported\u000aplatforms
p331
ss(Vbuild
p332
g318
tp333
(dp334
Vvdso
p335
I01
sVimage-file
p336
Varch/arm/boot/zImage
p337
ss(Vdescription
p338
g318
NVarmmp-lpae
p339
tp340
(dp341
Vhardware
p342
VARMv7 multiplatform compatible SoCs supporting LPAE
p343
sVhardware-long
p344
VARMv7 multiplatform kernel supporting LPAE. See\u000ahttps://wiki.debian.org/DebianKernel/ARMMP for details of supported\u000aplatforms.
p345
ss(Vrelations
p346
g318
tp347
(dp348
Vheaders%gcc-6
p349
Vlinux-compiler-gcc-6-arm
p350
ss(Vimage
p351
g318
tp352
(dp353
Vinstall-stem
p354
Vvmlinuz
p355
ss(g161
g318
g129
tp356
(dp357
g164
(lp358
Varmmp
p359
aVarmmp-lpae
p360
asg168
I01
ss(Vbase
p361
Vhppa
p362
tp363
(dp364
g127
(lp365
g129
asVkernel-arch
p366
Vparisc
p367
ss(Vbuild
p368
g362
tp369
(dp370
Vsigned-modules
p371
I00
sVimage-file
p372
Vvmlinux
p373
ss(Vdescription
p374
g362
NVparisc64-smp
p375
tp376
(dp377
Vhardware
p378
Vmultiprocessor 64-bit PA-RISC
p379
sVhardware-long
p380
VHP PA-RISC 64-bit SMP systems with support for more than 4 GB RAM
p381
ss(Vbase
p382
g362
NVparisc64-smp
p383
tp384
(dp385
Vcflags
p386
V-fno-cse-follow-jumps
p387
sVoverride-host-type
p388
Vhppa64-linux-gnu
p389
ss(Vrelations
p390
g362
tp391
(dp392
Vgcc-6
p393
Vgcc-6 <!stage1 !cross>, binutils-hppa64-linux-gnu <!stage1 !cross>, gcc-6-hppa64-linux-gnu <!stage1 !cross>, gcc-6-hppa-linux-gnu <!stage1 cross>, binutils-hppa64-linux-gnu <!stage1 cross>, gcc-6-hppa64-linux-gnu <!stage1 cross>
p394
ss(Vdescription
p395
g362
NVparisc
p396
tp397
(dp398
Vhardware
p399
V32-bit PA-RISC
p400
sVhardware-long
p401
VHP PA-RISC 32-bit systems with max 4 GB RAM
p402
ss(Vimage
p403
g362
tp404
(dp405
Vsuggests
p406
Vpalo
p407
sVinstall-stem
p408
Vvmlinux
p409
ss(g161
g362
g129
tp410
(dp411
g164
(lp412
Vparisc
p413
aVparisc64-smp
p414
asg168
I01
ss(Vbase
p415
Vi386
p416
tp417
(dp418
Vfeaturesets
p419
(lp420
Vnone
p421
aVrt
p422
asVkernel-arch
p423
Vx86
p424
ss(Vbuild
p425
g416
tp426
(dp427
Vvdso
p428
I01
sVimage-file
p429
Varch/x86/boot/bzImage
p430
ss(Vdescription
p431
g416
NV686-pae
p432
tp433
(dp434
Vhardware
p435
Vmodern PCs
p436
sVhardware-long
p437
VPCs with one or more processors supporting PAE
p438
sVparts
p439
(lp440
Vpae
p441
ass(Vdescription
p442
g416
tp443
(dp444
Vpart-long-pae
p445
VThis kernel requires PAE (Physical Address Extension).\u000aThis feature is supported by the Intel Pentium Pro/II/III/4/4M/D, Xeon,\u000aCore and Atom; AMD Geode NX, Athlon (K7), Duron, Opteron, Sempron,\u000aTurion or Phenom; Transmeta Efficeon; VIA C7; and some other processors.
p446
ss(Vbuild
p447
g416
NV686-pae
p448
tp449
(dp450
Vdebug-info
p451
I01
ss(Vdescription
p452
g416
NV686
p453
tp454
(dp455
Vhardware
p456
Volder PCs
p457
sVhardware-long
p458
VPCs with one or more processors not supporting PAE
p459
ss(Vrelations
p460
g416
tp461
(dp462
Vheaders%gcc-6
p463
Vlinux-compiler-gcc-6-x86
p464
ss(Vimage
p465
g416
tp466
(dp467
Vbreaks
p468
Vxserver-xorg-input-vmmouse (<< 1:13.0.99)
p469
sVinstall-stem
p470
Vvmlinuz
p471
sVbootloaders
p472
(lp473
Vgrub-pc
p474
aVextlinux
p475
ass(Vbase
p476
g416
Vnone
p477
tp478
(dp479
Vflavours
p480
(lp481
V686
p482
aV686-pae
p483
ass(Vdescription
p484
g416
g477
V686-pae
p485
tp486
(dp487
Vparts
p488
(lp489
Vxen
p490
ass(Vbase
p491
g416
Vrt
p492
tp493
(dp494
Vflavours
p495
(lp496
V686-pae
p497
ass(Vbase
p498
Vm68k
p499
tp500
(dp501
Vcflags
p502
V-ffreestanding
p503
sg127
(lp504
g129
asVkernel-arch
p505
Vm68k
p506
ss(Vbuild
p507
g499
tp508
(dp509
Vsigned-modules
p510
I00
sVimage-file
p511
Vvmlinux.gz
p512
ss(Vdescription
p513
g499
NVm68k
p514
tp515
(dp516
Vhardware
p517
VMotorola MC68020+ family
p518
ss(Vimage
p519
g499
tp520
(dp521
Vsuggests
p522
Vvmelilo, fdutils
p523
sVinstall-stem
p524
Vvmlinuz
p525
ss(g161
g499
g129
tp526
(dp527
g164
(lp528
Vm68k
p529
asg168
I01
ss(Vbase
p530
Vmips
p531
tp532
(dp533
g127
(lp534
g129
asVkernel-arch
p535
Vmips
p536
ss(Vbuild
p537
g531
tp538
(dp539
Vsigned-modules
p540
I00
sVimage-file
p541
Vvmlinux
p542
ss(Vimage
p543
g531
NV4kc-malta
p544
tp545
(dp546
Vconfigs
p547
(lp548
Vkernelarch-mips/config.malta
p549
aVkernelarch-mips/config.mips32r2
p550
ass(Vimage
p551
g531
NV5kc-malta
p552
tp553
(dp554
Vconfigs
p555
(lp556
Vkernelarch-mips/config.malta
p557
aVkernelarch-mips/config.mips64r2
p558
ass(Vdescription
p559
g531
NVocteon
p560
tp561
(dp562
Vhardware
p563
VOcteon
p564
sVhardware-long
p565
VCavium Networks Octeon
p566
ss(Vimage
p567
g531
NVocteon
p568
tp569
(dp570
Vconfigs
p571
(lp572
Vkernelarch-mips/config.octeon
p573
ass(Vimage
p574
g531
tp575
(dp576
Vinstall-stem
p577
Vvmlinux
p578
ss(Vdescription
p579
g531
NV5kc-malta
p580
tp581
(dp582
Vhardware
p583
VMIPS Malta (64-bit)
p584
sVhardware-long
p585
VMIPS Malta boards (64-bit)
p586
ss(Vdescription
p587
g531
NV4kc-malta
p588
tp589
(dp590
Vhardware
p591
VMIPS Malta
p592
sVhardware-long
p593
VMIPS Malta boards
p594
ss(g161
g531
g129
tp595
(dp596
g164
(lp597
V4kc-malta
p598
aV5kc-malta
p599
aVocteon
p600
asg168
I01
ss(Vbase
p601
Vmipsel
p602
tp603
(dp604
g127
(lp605
g129
asVkernel-arch
p606
Vmips
p607
ss(Vimage
p608
g602
NVloongson-3
p609
tp610
(dp611
Vconfigs
p612
(lp613
Vkernelarch-mips/config.loongson-3
p614
ass(Vbuild
p615
g602
tp616
(dp617
Vsigned-modules
p618
I00
sVimage-file
p619
Vvmlinux
p620
ss(Vimage
p621
g602
NV4kc-malta
p622
tp623
(dp624
Vconfigs
p625
(lp626
Vkernelarch-mips/config.malta
p627
aVkernelarch-mips/config.mips32r2
p628
ass(Vimage
p629
g602
NV5kc-malta
p630
tp631
(dp632
Vconfigs
p633
(lp634
Vkernelarch-mips/config.malta
p635
aVkernelarch-mips/config.mips64r2
p636
ass(Vdescription
p637
g602
NVocteon
p638
tp639
(dp640
Vhardware
p641
VOcteon
p642
sVhardware-long
p643
VCavium Networks Octeon
p644
ss(Vdescription
p645
g602
NVloongson-3
p646
tp647
(dp648
Vhardware
p649
VLoongson 3A/3B
p650
sVhardware-long
p651
VLoongson 3A or 3B based systems (e.g. from Loongson or Lemote)
p652
ss(Vimage
p653
g602
NVocteon
p654
tp655
(dp656
Vconfigs
p657
(lp658
Vkernelarch-mips/config.octeon
p659
ass(Vimage
p660
g602
tp661
(dp662
Vinstall-stem
p663
Vvmlinux
p664
ss(Vdescription
p665
g602
NV5kc-malta
p666
tp667
(dp668
Vhardware
p669
VMIPS Malta (64-bit)
p670
sVhardware-long
p671
VMIPS Malta boards (64-bit)
p672
ss(Vdescription
p673
g602
NV4kc-malta
p674
tp675
(dp676
Vhardware
p677
VMIPS Malta
p678
sVhardware-long
p679
VMIPS Malta boards
p680
ss(g161
g602
g129
tp681
(dp682
g164
(lp683
V4kc-malta
p684
aV5kc-malta
p685
aVloongson-3
p686
aVocteon
p687
asg168
I01
ss(Vbase
p688
Vmipsn32
p689
tp690
(dp691
Vfeaturesets
p692
(lp693
sVkernel-arch
p694
Vmips
p695
ss(Vbase
p696
Vmipsn32el
p697
tp698
(dp699
Vfeaturesets
p700
(lp701
sVkernel-arch
p702
Vmips
p703
ss(Vbase
p704
Vmips64
p705
tp706
(dp707
g127
(lp708
g129
asVkernel-arch
p709
Vmips
p710
ss(Vbuild
p711
g705
tp712
(dp713
Vsigned-modules
p714
I00
sVimage-file
p715
Vvmlinux
p716
ss(Vimage
p717
g705
NV5kc-malta
p718
tp719
(dp720
Vconfigs
p721
(lp722
Vkernelarch-mips/config.malta
p723
aVkernelarch-mips/config.mips64r2
p724
ass(Vdescription
p725
g705
NVocteon
p726
tp727
(dp728
Vhardware
p729
VOcteon
p730
sVhardware-long
p731
VCavium Networks Octeon
p732
ss(Vimage
p733
g705
tp734
(dp735
Vinstall-stem
p736
Vvmlinux
p737
ss(Vdescription
p738
g705
NV5kc-malta
p739
tp740
(dp741
Vhardware
p742
VMIPS Malta
p743
sVhardware-long
p744
VMIPS Malta boards
p745
ss(Vimage
p746
g705
NVocteon
p747
tp748
(dp749
Vconfigs
p750
(lp751
Vkernelarch-mips/config.octeon
p752
ass(g161
g705
g129
tp753
(dp754
g164
(lp755
V5kc-malta
p756
aVocteon
p757
asg168
I01
ss(Vbase
p758
Vmips64el
p759
tp760
(dp761
g127
(lp762
g129
asVkernel-arch
p763
Vmips
p764
ss(Vimage
p765
g759
NVloongson-3
p766
tp767
(dp768
Vconfigs
p769
(lp770
Vkernelarch-mips/config.loongson-3
p771
ass(Vbuild
p772
g759
tp773
(dp774
Vsigned-modules
p775
I00
sVimage-file
p776
Vvmlinux
p777
ss(Vimage
p778
g759
NV5kc-malta
p779
tp780
(dp781
Vconfigs
p782
(lp783
Vkernelarch-mips/config.malta
p784
aVkernelarch-mips/config.mips64r2
p785
ass(Vdescription
p786
g759
NVocteon
p787
tp788
(dp789
Vhardware
p790
VOcteon
p791
sVhardware-long
p792
VCavium Networks Octeon
p793
ss(Vdescription
p794
g759
NVloongson-3
p795
tp796
(dp797
Vhardware
p798
VLoongson 3A/3B
p799
sVhardware-long
p800
VLoongson 3A or 3B based systems (e.g. from Loongson or Lemote)
p801
ss(Vimage
p802
g759
tp803
(dp804
Vinstall-stem
p805
Vvmlinux
p806
ss(Vdescription
p807
g759
NV5kc-malta
p808
tp809
(dp810
Vhardware
p811
VMIPS Malta
p812
sVhardware-long
p813
VMIPS Malta boards
p814
ss(Vimage
p815
g759
NVocteon
p816
tp817
(dp818
Vconfigs
p819
(lp820
Vkernelarch-mips/config.octeon
p821
ass(g161
g759
g129
tp822
(dp823
g164
(lp824
V5kc-malta
p825
aVloongson-3
p826
aVocteon
p827
asg168
I01
ss(Vbase
p828
Vpowerpc
p829
tp830
(dp831
g127
(lp832
g129
asVkernel-arch
p833
Vpowerpc
p834
ss(Vdescription
p835
g829
NVpowerpc64
p836
tp837
(dp838
Vhardware
p839
V64-bit PowerPC
p840
ss(Vbuild
p841
g829
tp842
(dp843
Vvdso
p844
I01
sVimage-file
p845
Vvmlinux
p846
ss(Vimage
p847
g829
NVpowerpc-smp
p848
tp849
(dp850
Vconfigs
p851
(lp852
Vpowerpc/config.powerpc
p853
aVpowerpc/config.powerpc-smp
p854
ass(Vdescription
p855
g829
NVpowerpc
p856
tp857
(dp858
Vhardware
p859
Vuniprocessor 32-bit PowerPC
p860
ss(Vimage
p861
g829
NVpowerpc64
p862
tp863
(dp864
Vconfigs
p865
(lp866
Vkernelarch-powerpc/config-arch-64
p867
aVkernelarch-powerpc/config-arch-64-be
p868
ass(Vdescription
p869
g829
NVpowerpc-smp
p870
tp871
(dp872
Vhardware
p873
Vmultiprocessor 32-bit PowerPC
p874
ss(Vimage
p875
g829
tp876
(dp877
Vsuggests
p878
Vmkvmlinuz
p879
sVinstall-stem
p880
Vvmlinux
p881
sVconfigs
p882
(lp883
ss(g161
g829
g129
tp884
(dp885
g164
(lp886
Vpowerpc
p887
aVpowerpc-smp
p888
aVpowerpc64
p889
asg168
I01
ss(Vbase
p890
Vpowerpcspe
p891
tp892
(dp893
g127
(lp894
g129
asVkernel-arch
p895
Vpowerpc
p896
ss(Vbuild
p897
g891
tp898
(dp899
Vsigned-modules
p900
I00
sVimage-file
p901
Vvmlinux
p902
sVvdso
p903
I01
ss(Vimage
p904
g891
tp905
(dp906
Vsuggests
p907
Vmkvmlinuz
p908
sVinstall-stem
p909
Vvmlinux
p910
ss(Vdescription
p911
g891
tp912
(dp913
Vhardware
p914
V32-bit PowerPC with SPE (instead of AltiVec) with SMP support
p915
ss(g161
g891
g129
tp916
(dp917
g164
(lp918
Vpowerpcspe
p919
asg168
I01
ss(Vbase
p920
Vppc64
p921
tp922
(dp923
g127
(lp924
g129
asVkernel-arch
p925
Vpowerpc
p926
ss(Vdescription
p927
g921
NVpowerpc64
p928
tp929
(dp930
Vhardware
p931
V64-bit PowerPC
p932
ss(Vbuild
p933
g921
tp934
(dp935
Vsigned-modules
p936
I00
sVimage-file
p937
Vvmlinux
p938
sVvdso
p939
I01
ss(Vimage
p940
g921
NVpowerpc64
p941
tp942
(dp943
Vconfigs
p944
(lp945
Vkernelarch-powerpc/config-arch-64
p946
aVkernelarch-powerpc/config-arch-64-be
p947
ass(Vimage
p948
g921
tp949
(dp950
Vsuggests
p951
Vmkvmlinuz
p952
sVinstall-stem
p953
Vvmlinux
p954
sVconfigs
p955
(lp956
ss(g161
g921
g129
tp957
(dp958
g164
(lp959
Vpowerpc64
p960
asg168
I01
ss(Vbase
p961
Vppc64el
p962
tp963
(dp964
g127
(lp965
g129
asVkernel-arch
p966
Vpowerpc
p967
ss(Vdescription
p968
g962
NVpowerpc64le
p969
tp970
(dp971
Vhardware
p972
VLittle-endian 64-bit PowerPC
p973
ss(Vbuild
p974
g962
tp975
(dp976
Vvdso
p977
I01
sVimage-file
p978
Vvmlinux
p979
ss(Vimage
p980
g962
tp981
(dp982
Vsuggests
p983
Vmkvmlinuz
p984
sVinstall-stem
p985
Vvmlinux
p986
sVconfigs
p987
(lp988
ss(Vimage
p989
g962
NVpowerpc64le
p990
tp991
(dp992
Vconfigs
p993
(lp994
Vkernelarch-powerpc/config-arch-64
p995
aVkernelarch-powerpc/config-arch-64-le
p996
ass(g161
g962
g129
tp997
(dp998
g164
(lp999
Vpowerpc64le
p1000
asg168
I01
ss(Vbase
p1001
Vs390
p1002
tp1003
(dp1004
Vfeaturesets
p1005
(lp1006
sVkernel-arch
p1007
Vs390
p1008
ss(Vbase
p1009
Vs390x
p1010
tp1011
(dp1012
g127
(lp1013
g129
asVkernel-arch
p1014
Vs390
p1015
ss(Vdescription
p1016
g1010
NVs390x
p1017
tp1018
(dp1019
Vhardware
p1020
VIBM zSeries
p1021
ss(Vbuild
p1022
g1010
tp1023
(dp1024
Vvdso
p1025
I01
sVimage-file
p1026
Varch/s390/boot/image
p1027
ss(Vbuild
p1028
g1010
NVs390x
p1029
tp1030
(dp1031
Vdebug-info
p1032
I01
ss(Vrelations
p1033
g1010
tp1034
(dp1035
Vheaders%gcc-6
p1036
Vlinux-compiler-gcc-6-s390
p1037
ss(Vimage
p1038
g1010
tp1039
(dp1040
Vinstall-stem
p1041
Vvmlinuz
p1042
sVbootloaders
p1043
(lp1044
Vs390-tools
p1045
ass(g161
g1010
g129
tp1046
(dp1047
g164
(lp1048
Vs390x
p1049
asg168
I01
ss(Vbase
p1050
Vsh3
p1051
tp1052
(dp1053
Vfeaturesets
p1054
(lp1055
sVkernel-arch
p1056
Vsh
p1057
ss(Vbase
p1058
Vsh4
p1059
tp1060
(dp1061
g127
(lp1062
g129
asVkernel-arch
p1063
Vsh
p1064
ss(Vbuild
p1065
g1059
tp1066
(dp1067
Vsigned-modules
p1068
I00
sVimage-file
p1069
Varch/sh/boot/zImage
p1070
ss(Vdescription
p1071
g1059
NVsh7751r
p1072
tp1073
(dp1074
Vhardware
p1075
Vsh7751r
p1076
sVhardware-long
p1077
VRenesas SH7751R R2D plus board
p1078
ss(Vdescription
p1079
g1059
NVsh7785lcr
p1080
tp1081
(dp1082
Vhardware
p1083
Vsh7785lcr
p1084
sVhardware-long
p1085
VRenesas SH7785 reference board
p1086
ss(Vimage
p1087
g1059
tp1088
(dp1089
Vinstall-stem
p1090
Vvmlinuz
p1091
ss(Vimage
p1092
g1059
NVsh7785lcr
p1093
tp1094
(dp1095
Vrecommends
p1096
Vu-boot-tools
p1097
sVcheck-size
p1098
L4194304L
ss(g161
g1059
g129
tp1099
(dp1100
g164
(lp1101
Vsh7751r
p1102
aVsh7785lcr
p1103
asg168
I01
ss(Vbase
p1104
Vsparc
p1105
tp1106
(dp1107
Vfeaturesets
p1108
(lp1109
sVkernel-arch
p1110
Vsparc
p1111
ss(Vbase
p1112
Vsparc64
p1113
tp1114
(dp1115
g127
(lp1116
g129
asVkernel-arch
p1117
Vsparc
p1118
ss(Vbuild
p1119
g1113
tp1120
(dp1121
Vsigned-modules
p1122
I00
sVimage-file
p1123
Varch/sparc/boot/zImage
p1124
ss(Vimage
p1125
g1113
NVsparc64
p1126
tp1127
(dp1128
Vconfigs
p1129
(lp1130
Vkernelarch-sparc/config-up
p1131
ass(Vimage
p1132
g1113
NVsparc64-smp
p1133
tp1134
(dp1135
Vconfigs
p1136
(lp1137
Vkernelarch-sparc/config-smp
p1138
ass(Vimage
p1139
g1113
tp1140
(dp1141
Vsuggests
p1142
Vsilo, fdutils
p1143
sVinstall-stem
p1144
Vvmlinuz
p1145
sVconfigs
p1146
(lp1147
ss(Vdescription
p1148
g1113
NVsparc64-smp
p1149
tp1150
(dp1151
Vhardware
p1152
Vmultiprocessor 64-bit UltraSPARC
p1153
ss(Vdescription
p1154
g1113
NVsparc64
p1155
tp1156
(dp1157
Vhardware
p1158
Vuniprocessor 64-bit UltraSPARC
p1159
ss(g161
g1113
g129
tp1160
(dp1161
g164
(lp1162
Vsparc64
p1163
aVsparc64-smp
p1164
asg168
I01
ss(Vbase
p1165
Vtilegx
p1166
tp1167
(dp1168
Vfeaturesets
p1169
(lp1170
sVkernel-arch
p1171
Vtile
p1172
ss(Vbase
p1173
Vx32
p1174
tp1175
(dp1176
Vfeaturesets
p1177
(lp1178
sVkernel-arch
p1179
Vx86
p1180
ss(Vdescription
p1181
NVrt
p1182
tp1183
(dp1184
Vparts
p1185
(lp1186
Vrt
p1187
asVpart-long-rt
p1188
VThis kernel includes the PREEMPT_RT realtime patch set.
p1189
sVpart-short-rt
p1190
VPREEMPT_RT
p1191
ss(Vabi
p1192
Ng1182
tp1193
(dp1194
Vignore-changes
p1195
(lp1196
V*
p1197
ass(Vversion
p1198
tp1199
(dp1200
Vupstream
p1201
V4.12
p1202
sVsource
p1203
V4.12.12-2
p1204
sVabiname
p1205
V4.12.0-2
p1206
sVabiname_base
p1207
V4.12.0
p1208
ss.