cdebian_linux.config
ConfigCore
p0
(tRp1
(Vabi
p2
tp3
(dp4
Vabiname
p5
Vkali4
p6
sVignore-changes
p7
(lp8
V__cpuhp_*
p9
aV__udp_gso_segment
p10
aVbpf_analyzer
p11
aVcxl_*
p12
aVdax_flush
p13
aVieee80211_nullfunc_get
p14
aVinet_add_protocol
p15
aVinet_del_protocol
p16
aViommu_device_*
p17
aVmm_iommu_*
p18
aVmv_mbus_*
p19
aVperf_*
p20
aVregister_cxl_calls
p21
aVregister_key_type
p22
aVunregister_cxl_calls
p23
aV*_hw_breakpoint
p24
aVmodule:drivers/crypto/ccp/*
p25
aVmodule:drivers/hv/*
p26
aVmodule:drivers/gpu/drm/sun4i/*
p27
aVmodule:drivers/iio/**
p28
aVmodule:drivers/misc/cxl/*
p29
aVmodule:drivers/mtd/nand/*
p30
aVmodule:drivers/net/ethernet/**
p31
aVmodule:drivers/net/wireless/**
p32
aVmodule:drivers/nvdimm/*
p33
aVmodule:drivers/nvme/**
p34
aVmodule:drivers/power/supply/bq27xxx_battery
p35
aVmodule:drivers/scsi/cxgbi/*
p36
aVmodule:drivers/scsi/libiscs*
p37
aVmodule:drivers/scsi/qla2xxx/qla2xxx
p38
aVmodule:drivers/scsi/ufs/*
p39
aVmodule:drivers/target/**
p40
aVmodule:drivers/usb/chipidea/**
p41
aVmodule:drivers/usb/gadget/**
p42
aVmodule:drivers/usb/host/**
p43
aVmodule:drivers/usb/musb/**
p44
aVmodule:fs/nfs/**
p45
aVmodule:net/ceph/libceph
p46
aVmodule:net/l2tp/**
p47
aVmodule:net/rxrpc/rxrpc
p48
aVmodule:net/sctp/**
p49
aVmodule:sound/core/seq/**
p50
aVmodule:sound/firewire/snd-firewire-lib
p51
aVmodule:sound/pci/hda/*
p52
aVbtree_*
p53
aVvisitor*
p54
aVcan_rx_register
p55
aVip6_xmit
p56
aVmodule:net/dccp/dccp
p57
aVmodule:net/rds/rds
p58
aVdevfreq_*
p59
aVdevm_devfreq_*
p60
aVupdate_devfreq
p61
aVmodule:drivers/infiniband/**
p62
aVacpi_ec_add_query_handler
p63
aVacpi_ec_remove_query_handler
p64
aVfirst_ec
p65
aVdebugfs_create_automount
p66
aVmodule:drivers/iio/imu/inv_mpu6050/*
p67
aVdrm_crtc_accurate_vblank_count
p68
aVacpi_nfit_desc_init
p69
aVacpi_nfit_init
p70
aVloop_register_transfer
p71
aVxen_xlate_*
p72
aVnf_nat_masquerade_ipv4_register_notifier
p73
aVnf_nat_masquerade_ipv6_register_notifier
p74
aVdfltcc_*
p75
aVmodule:drivers/scsi/hisi_sas/*
p76
aV__gfn_*
p77
aV__kvmhv_*
p78
aV__kvm_*
p79
aV__xive_vm_h_*
p80
aVgfn_*
p81
aVh_ipi_redirect
p82
aVhalt_poll_ns*
p83
aVkvm_*
p84
aVkvmhv_*
p85
aVkvmppc_*
p86
aVmark_page_dirty
p87
aVvcpu_*
p88
aVmodule:arch/powerpc/kvm/*
p89
aVmodule:arch/s390/kvm/*
p90
aVmodule:arch/x86/kvm/*
p91
aVuv_info
p92
aVxhci_init_driver
p93
ass(Vbase
p94
tp95
(dp96
Varches
p97
(lp98
Valpha
p99
aVamd64
p100
aVarm64
p101
aVarm64ilp32
p102
aVarmel
p103
aVarmhf
p104
aVhppa
p105
aVi386
p106
aVia64
p107
aVm68k
p108
aVmips
p109
aVmips64
p110
aVmips64el
p111
aVmips64r6
p112
aVmips64r6el
p113
aVmipsel
p114
aVmipsn32
p115
aVmipsn32el
p116
aVmipsn32r6
p117
aVmipsn32r6el
p118
aVmipsr6
p119
aVmipsr6el
p120
aVpowerpc
p121
aVppc64
p122
aVppc64el
p123
aVriscv64
p124
aVs390
p125
aVs390x
p126
aVsh3
p127
aVsh4
p128
aVsparc
p129
aVsparc64
p130
aVx32
p131
asVcompiler
p132
Vgcc-10
p133
sVfeaturesets
p134
(lp135
Vnone
p136
aVrt
p137
ass(Vbuild
p138
tp139
(dp140
Vdebug-info
p141
I01
sVsigned-code
p142
I00
ss(Vbase
p143
NVrt
p144
tp145
(dp146
Venabled
p147
I01
ss(Vdescription
p148
tp149
(dp150
Vpart-long-up
p151
VThis kernel is not suitable for SMP (multi-processor,\u000amulti-core or hyper-threaded) systems.
p152
ss(Vimage
p153
tp154
(dp155
Vinitramfs-generators
p156
(lp157
Vinitramfs-tools
p158
aVinitramfs-fallback
p159
asVbreaks
p160
(lp161
Vwireless-regdb (<< 2019.06.03-1~)
p162
asVrecommends
p163
(lp164
Vapparmor
p165
ass(Vrelations
p166
tp167
(dp168
Vgcc-10
p169
Vgcc-10 <!stage1 !cross !pkg.linux.nokernel>, gcc-10-@gnu-type-package@ <!stage1 cross !pkg.linux.nokernel>
p170
sVinitramfs-fallback
p171
Vlinux-initramfs-tool
p172
sVinitramfs-tools
p173
Vinitramfs-tools (>= 0.120+deb8u2)
p174
ss(Vbase
p175
Valpha
p176
tp177
(dp178
Vdefault-flavour
p179
Valpha-smp
p180
sVkernel-arch
p181
Valpha
p182
sVfeaturesets
p183
(lp184
Vnone
p185
ass(Vbuild
p186
g176
tp187
(dp188
Vimage-file
p189
Varch/alpha/boot/vmlinux.gz
p190
ss(Vimage
p191
g176
tp192
(dp193
Vsuggests
p194
(lp195
Vaboot
p196
aVfdutils
p197
asVinstall-stem
p198
Vvmlinuz
p199
ss(Vdescription
p200
g176
NValpha-generic
p201
tp202
(dp203
Vhardware
p204
VAlpha
p205
sVhardware-long
p206
VDEC Alpha systems with extended kernel start address (Wildfire, Titan, Marvel)
p207
ss(Vdescription
p208
g176
NValpha-smp
p209
tp210
(dp211
Vhardware
p212
VAlpha SMP
p213
sVhardware-long
p214
VDEC Alpha SMP systems with extended kernel start address (Wildfire, Titan, Marvel)
p215
ss(Vbase
p216
g176
g185
tp217
(dp218
Vflavours
p219
(lp220
Valpha-generic
p221
aValpha-smp
p222
asVimplicit-flavour
p223
I01
ss(Vbase
p224
Vamd64
p225
tp226
(dp227
Vfeaturesets
p228
(lp229
Vnone
p230
aVrt
p231
asVkernel-arch
p232
Vx86
p233
ss(Vbuild
p234
g225
tp235
(dp236
Vimage-file
p237
Varch/x86/boot/bzImage
p238
sVsigned-code
p239
I00
sVvdso
p240
I01
ss(Vimage
p241
g225
tp242
(dp243
Vbootloaders
p244
(lp245
Vgrub-pc
p246
aVgrub-efi-amd64
p247
aVextlinux
p248
asVinstall-stem
p249
Vvmlinuz
p250
sVbreaks
p251
(lp252
Vxserver-xorg-input-vmmouse (<< 1:13.0.99)
p253
ass(Vrelations
p254
g225
tp255
(dp256
Vheaders%gcc-10
p257
Vlinux-compiler-gcc-10-x86
p258
ss(Vdescription
p259
g225
NVamd64
p260
tp261
(dp262
Vhardware
p263
V64-bit PCs
p264
sVhardware-long
p265
VPCs with AMD64, Intel 64 or VIA Nano processors
p266
ss(Vdescription
p267
g225
NVcloud-amd64
p268
tp269
(dp270
Vhardware
p271
Vx86-64 cloud
p272
sVhardware-long
p273
Vcloud platforms including Amazon EC2, Microsoft Azure, and Google Compute Engine
p274
ss(Vbase
p275
g225
Vnone
p276
tp277
(dp278
Vflavours
p279
(lp280
Vamd64
p281
aVcloud-amd64
p282
asVdefault-flavour
p283
Vamd64
p284
ss(Vimage
p285
g225
g276
Vcloud-amd64
p286
tp287
(dp288
Vconfigs
p289
(lp290
Vconfig.cloud
p291
aVamd64/config.cloud-amd64
p292
ass(Vbase
p293
g225
Vrt
p294
tp295
(dp296
Vflavours
p297
(lp298
Vamd64
p299
ass(Vbase
p300
Varm64
p301
tp302
(dp303
Vcross-compile-compat
p304
Varm-linux-gnueabihf-
p305
sVkernel-arch
p306
Varm64
p307
sVfeaturesets
p308
(lp309
Vnone
p310
aVrt
p311
ass(Vbuild
p312
g301
tp313
(dp314
Vimage-file
p315
Varch/arm64/boot/Image
p316
sVsigned-code
p317
I00
sVvdso
p318
I01
ss(Vimage
p319
g301
tp320
(dp321
Vinstall-stem
p322
Vvmlinuz
p323
sVbreaks
p324
(lp325
Vlibmozjs185-1.0
p326
aVlibmozjs-24-0 (<< 24.2.0-5.1~)
p327
ass(Vdescription
p328
g301
NVarm64
p329
tp330
(dp331
Vhardware
p332
V64-bit ARMv8 machines
p333
ss(Vdescription
p334
g301
NVcloud-arm64
p335
tp336
(dp337
Vhardware
p338
Varm64 cloud
p339
sVhardware-long
p340
Vcloud platforms supporting arm64 virtual machines
p341
ss(Vimage
p342
g301
NVarm64
p343
tp344
(dp345
s(Vrelations
p346
g301
tp347
(dp348
Vgcc-10
p349
Vgcc-10 <!stage1 !cross !pkg.linux.nokernel>, gcc-10-aarch64-linux-gnu <!stage1 cross !pkg.linux.nokernel>, gcc-arm-linux-gnueabihf <!stage1 !pkg.linux.nokernel>
p350
sVheaders%gcc-10
p351
Vgcc-10
p352
ss(Vbase
p353
g301
Vnone
p354
tp355
(dp356
Vflavours
p357
(lp358
Varm64
p359
aVcloud-arm64
p360
asVdefault-flavour
p361
Varm64
p362
ss(Vimage
p363
g301
g354
Vcloud-arm64
p364
tp365
(dp366
Vconfigs
p367
(lp368
Vconfig.cloud
p369
aVarm64/config.cloud-arm64
p370
ass(Vbase
p371
g301
Vrt
p372
tp373
(dp374
Vflavours
p375
(lp376
Varm64
p377
ass(Vbase
p378
Varm64ilp32
p379
tp380
(dp381
Vkernel-arch
p382
Varm64
p383
sVfeaturesets
p384
(lp385
ss(Vbase
p386
Varmel
p387
tp388
(dp389
Vkernel-arch
p390
Varm
p391
sg183
(lp392
g185
ass(Vbuild
p393
g387
tp394
(dp395
Vimage-file
p396
Varch/arm/boot/zImage
p397
sVuncompressed-image-file
p398
Varch/arm/boot/Image
p399
sVsigned-code
p400
I00
ss(Vimage
p401
g387
tp402
(dp403
Vinstall-stem
p404
Vvmlinuz
p405
ss(Vrelations
p406
g387
tp407
(dp408
Vheaders%gcc-10
p409
Vlinux-compiler-gcc-10-arm
p410
ss(Vdescription
p411
g387
NVmarvell
p412
tp413
(dp414
Vhardware
p415
VMarvell Kirkwood/Orion
p416
sVhardware-long
p417
VMarvell Kirkwood and Orion based systems (https://wiki.debian.org/ArmEabiPort#Supported_hardware)
p418
ss(Vdescription
p419
g387
NVrpi
p420
tp421
(dp422
Vhardware
p423
VRaspberry Pi and Pi Zero
p424
sVhardware-long
p425
VRaspberry Pi, Raspberry Pi Zero based systems
p426
ss(Vimage
p427
g387
NVmarvell
p428
tp429
(dp430
Vrecommends
p431
(lp432
Vu-boot-tools
p433
asVcheck-size
p434
I2729712
sVcheck-size-with-dtb
p435
I01
sVbreaks
p436
(lp437
Vflash-kernel (<< 3.57~)
p438
ass(g216
g387
g185
tp439
(dp440
g219
(lp441
Vmarvell
p442
aVrpi
p443
asg223
I01
ss(Vbase
p444
Varmhf
p445
tp446
(dp447
Vfeaturesets
p448
(lp449
Vnone
p450
aVrt
p451
asVkernel-arch
p452
Varm
p453
ss(Vbuild
p454
g445
tp455
(dp456
Vimage-file
p457
Varch/arm/boot/zImage
p458
sVvdso
p459
I01
sVsigned-code
p460
I00
ss(Vimage
p461
g445
tp462
(dp463
Vinstall-stem
p464
Vvmlinuz
p465
ss(Vrelations
p466
g445
tp467
(dp468
Vheaders%gcc-10
p469
Vlinux-compiler-gcc-10-arm
p470
ss(Vdescription
p471
g445
NVarmmp
p472
tp473
(dp474
Vhardware
p475
VARMv7 multiplatform compatible SoCs
p476
sVhardware-long
p477
VARMv7 multiplatform kernel. See\u000ahttps://wiki.debian.org/DebianKernel/ARMMP for details of supported\u000aplatforms
p478
ss(Vdescription
p479
g445
NVarmmp-lpae
p480
tp481
(dp482
Vhardware
p483
VARMv7 multiplatform compatible SoCs supporting LPAE
p484
sVhardware-long
p485
VARMv7 multiplatform kernel supporting LPAE. See\u000ahttps://wiki.debian.org/DebianKernel/ARMMP for details of supported\u000aplatforms.
p486
ss(Vbase
p487
g445
Vnone
p488
tp489
(dp490
Vflavours
p491
(lp492
Varmmp
p493
aVarmmp-lpae
p494
asVdefault-flavour
p495
Varmmp
p496
ss(Vbase
p497
g445
Vrt
p498
tp499
(dp500
Vflavours
p501
(lp502
Varmmp
p503
ass(Vbase
p504
Vhppa
p505
tp506
(dp507
Vdefault-flavour
p508
Vparisc
p509
sVkernel-arch
p510
Vparisc
p511
sg183
(lp512
g185
ass(Vbuild
p513
g505
tp514
(dp515
Vimage-file
p516
Varch/parisc/boot/bzImage
p517
sVdebug-info
p518
I00
ss(Vimage
p519
g505
tp520
(dp521
Vsuggests
p522
(lp523
Vpalo
p524
asVinstall-stem
p525
Vvmlinuz
p526
ss(Vdescription
p527
g505
NVparisc
p528
tp529
(dp530
Vhardware
p531
V32-bit PA-RISC
p532
sVhardware-long
p533
VHP PA-RISC 32-bit systems with max 4 GB RAM
p534
ss(Vbase
p535
g505
NVparisc64
p536
tp537
(dp538
Vcflags
p539
V-fno-cse-follow-jumps
p540
sVoverride-host-type
p541
Vhppa64-linux-gnu
p542
ss(Vdescription
p543
g505
NVparisc64
p544
tp545
(dp546
Vhardware
p547
V64-bit PA-RISC
p548
sVhardware-long
p549
VHP PA-RISC 64-bit systems with support for more than 4 GB RAM
p550
ss(Vrelations
p551
g505
tp552
(dp553
Vgcc-10
p554
Vgcc-10 <!stage1 !cross !pkg.linux.nokernel>, gcc-10-hppa-linux-gnu <!stage1 cross !pkg.linux.nokernel>, binutils-hppa64-linux-gnu <!stage1 !pkg.linux.nokernel>, gcc-10-hppa64-linux-gnu <!stage1 !pkg.linux.nokernel>
p555
ss(g216
g505
g185
tp556
(dp557
g219
(lp558
Vparisc
p559
aVparisc64
p560
asg223
I01
ss(Vbase
p561
Vi386
p562
tp563
(dp564
Vfeaturesets
p565
(lp566
Vnone
p567
aVrt
p568
asVkernel-arch
p569
Vx86
p570
ss(Vbuild
p571
g562
tp572
(dp573
Vimage-file
p574
Varch/x86/boot/bzImage
p575
sVsigned-code
p576
I00
sVvdso
p577
I01
ss(Vdescription
p578
g562
tp579
(dp580
Vpart-long-pae
p581
VThis kernel requires PAE (Physical Address Extension).\u000aThis feature is supported by the Intel Pentium Pro/II/III/4/4M/D, Xeon,\u000aCore and Atom; AMD Geode NX, Athlon (K7), Duron, Opteron, Sempron,\u000aTurion or Phenom; Transmeta Efficeon; VIA C7; and some other processors.
p582
ss(Vimage
p583
g562
tp584
(dp585
Vbootloaders
p586
(lp587
Vgrub-pc
p588
aVgrub-efi-ia32
p589
aVextlinux
p590
asVinstall-stem
p591
Vvmlinuz
p592
sVbreaks
p593
(lp594
Vxserver-xorg-input-vmmouse (<< 1:13.0.99)
p595
ass(Vrelations
p596
g562
tp597
(dp598
Vheaders%gcc-10
p599
Vlinux-compiler-gcc-10-x86
p600
ss(Vdescription
p601
g562
NV686
p602
tp603
(dp604
Vhardware
p605
Volder PCs
p606
sVhardware-long
p607
VPCs with one or more processors not supporting PAE
p608
ss(Vdescription
p609
g562
NV686-pae
p610
tp611
(dp612
Vhardware
p613
Vmodern PCs
p614
sVhardware-long
p615
VPCs with one or more processors supporting PAE
p616
sVparts
p617
(lp618
Vpae
p619
ass(Vbase
p620
g562
Vnone
p621
tp622
(dp623
Vflavours
p624
(lp625
V686
p626
aV686-pae
p627
asVdefault-flavour
p628
V686-pae
p629
ss(Vbase
p630
g562
Vrt
p631
tp632
(dp633
Vflavours
p634
(lp635
V686-pae
p636
ass(Vbase
p637
Via64
p638
tp639
(dp640
Vdefault-flavour
p641
Vitanium
p642
sVkernel-arch
p643
Via64
p644
sg183
(lp645
g185
ass(Vbuild
p646
g638
tp647
(dp648
Vimage-file
p649
Vvmlinux.gz
p650
ss(Vimage
p651
g638
tp652
(dp653
Vbootloaders
p654
(lp655
Vgrub-efi-ia64
p656
asVinstall-stem
p657
Vvmlinuz
p658
ss(Vdescription
p659
g638
NVitanium
p660
tp661
(dp662
Vhardware
p663
VItanium (Merced)
p664
sVhardware-long
p665
Vsystems with original Itanium (Merced) processors
p666
ss(Vdescription
p667
g638
NVmckinley
p668
tp669
(dp670
Vhardware
p671
VItanium 2+
p672
sVhardware-long
p673
Vsystems with Itanium 2 or 9300/9500/9700-series processors
p674
ss(g216
g638
g185
tp675
(dp676
g219
(lp677
Vitanium
p678
aVmckinley
p679
asg223
I01
ss(Vbase
p680
Vm68k
p681
tp682
(dp683
Vcflags
p684
V-ffreestanding
p685
sVdefault-flavour
p686
Vm68k
p687
sVkernel-arch
p688
Vm68k
p689
sg183
(lp690
g185
ass(Vbuild
p691
g681
tp692
(dp693
Vimage-file
p694
Vvmlinux
p695
ss(Vimage
p696
g681
tp697
(dp698
Vsuggests
p699
(lp700
Vvmelilo
p701
aVfdutils
p702
asVinstall-stem
p703
Vvmlinux
p704
ss(Vdescription
p705
g681
NVm68k
p706
tp707
(dp708
Vhardware
p709
VMotorola MC68020+ family
p710
ss(g216
g681
g185
tp711
(dp712
g219
(lp713
Vm68k
p714
asg223
I01
ss(Vbase
p715
Vmips
p716
tp717
(dp718
Vkernel-arch
p719
Vmips
p720
sg183
(lp721
g185
ass(Vbuild
p722
g716
tp723
(dp724
Vimage-file
p725
Vvmlinuz
p726
ss(Vimage
p727
g716
tp728
(dp729
Vinstall-stem
p730
Vvmlinuz
p731
ss(Vdescription
p732
g716
NV4kc-malta
p733
tp734
(dp735
Vhardware
p736
VMIPS Malta
p737
sVhardware-long
p738
VMIPS Malta boards
p739
ss(Vimage
p740
g716
NV4kc-malta
p741
tp742
(dp743
Vconfigs
p744
(lp745
Vkernelarch-mips/config.malta
p746
aVkernelarch-mips/config.mips32r2
p747
ass(Vdescription
p748
g716
NV5kc-malta
p749
tp750
(dp751
Vhardware
p752
VMIPS Malta (64-bit)
p753
sVhardware-long
p754
VMIPS Malta boards (64-bit)
p755
ss(Vimage
p756
g716
NV5kc-malta
p757
tp758
(dp759
Vconfigs
p760
(lp761
Vkernelarch-mips/config.malta
p762
aVkernelarch-mips/config.mips64r2
p763
ass(Vdescription
p764
g716
NVocteon
p765
tp766
(dp767
Vhardware
p768
VOcteon
p769
sVhardware-long
p770
VCavium Networks Octeon
p771
ss(Vbuild
p772
g716
NVocteon
p773
tp774
(dp775
Vimage-file
p776
Vvmlinux
p777
ss(Vimage
p778
g716
NVocteon
p779
tp780
(dp781
Vinstall-stem
p782
Vvmlinux
p783
sVconfigs
p784
(lp785
Vkernelarch-mips/config.octeon
p786
ass(g216
g716
g185
tp787
(dp788
g219
(lp789
V4kc-malta
p790
aV5kc-malta
p791
aVocteon
p792
asg223
I01
ss(Vbase
p793
Vmips64
p794
tp795
(dp796
Vkernel-arch
p797
Vmips
p798
sg183
(lp799
g185
ass(Vbuild
p800
g794
tp801
(dp802
Vimage-file
p803
Vvmlinuz
p804
ss(Vimage
p805
g794
tp806
(dp807
Vinstall-stem
p808
Vvmlinuz
p809
ss(Vdescription
p810
g794
NV5kc-malta
p811
tp812
(dp813
Vhardware
p814
VMIPS Malta
p815
sVhardware-long
p816
VMIPS Malta boards
p817
ss(Vimage
p818
g794
NV5kc-malta
p819
tp820
(dp821
Vconfigs
p822
(lp823
Vkernelarch-mips/config.malta
p824
aVkernelarch-mips/config.mips64r2
p825
ass(Vdescription
p826
g794
NVocteon
p827
tp828
(dp829
Vhardware
p830
VOcteon
p831
sVhardware-long
p832
VCavium Networks Octeon
p833
ss(Vbuild
p834
g794
NVocteon
p835
tp836
(dp837
Vimage-file
p838
Vvmlinux
p839
ss(Vimage
p840
g794
NVocteon
p841
tp842
(dp843
Vinstall-stem
p844
Vvmlinux
p845
sVconfigs
p846
(lp847
Vkernelarch-mips/config.octeon
p848
ass(g216
g794
g185
tp849
(dp850
g219
(lp851
V5kc-malta
p852
aVocteon
p853
asg223
I01
ss(Vbase
p854
Vmips64el
p855
tp856
(dp857
Vkernel-arch
p858
Vmips
p859
sg183
(lp860
g185
ass(Vbuild
p861
g855
tp862
(dp863
Vimage-file
p864
Vvmlinuz
p865
ss(Vimage
p866
g855
tp867
(dp868
Vinstall-stem
p869
Vvmlinuz
p870
ss(Vdescription
p871
g855
NV5kc-malta
p872
tp873
(dp874
Vhardware
p875
VMIPS Malta
p876
sVhardware-long
p877
VMIPS Malta boards
p878
ss(Vimage
p879
g855
NV5kc-malta
p880
tp881
(dp882
Vconfigs
p883
(lp884
Vkernelarch-mips/config.malta
p885
aVkernelarch-mips/config.mips64r2
p886
ass(Vdescription
p887
g855
NVloongson-3
p888
tp889
(dp890
Vhardware
p891
VLoongson 3A/3B
p892
sVhardware-long
p893
VLoongson 3A or 3B based systems (e.g. from Loongson or Lemote)
p894
ss(Vimage
p895
g855
NVloongson-3
p896
tp897
(dp898
Vconfigs
p899
(lp900
Vkernelarch-mips/config.loongson-3
p901
ass(Vdescription
p902
g855
NVocteon
p903
tp904
(dp905
Vhardware
p906
VOcteon
p907
sVhardware-long
p908
VCavium Networks Octeon
p909
ss(Vbuild
p910
g855
NVocteon
p911
tp912
(dp913
Vimage-file
p914
Vvmlinux
p915
ss(Vimage
p916
g855
NVocteon
p917
tp918
(dp919
Vinstall-stem
p920
Vvmlinux
p921
sVconfigs
p922
(lp923
Vkernelarch-mips/config.octeon
p924
ass(g216
g855
g185
tp925
(dp926
g219
(lp927
V5kc-malta
p928
aVloongson-3
p929
aVocteon
p930
asg223
I01
ss(Vbase
p931
Vmips64r6
p932
tp933
(dp934
Vdefault-flavour
p935
Vmips64r6
p936
sVkernel-arch
p937
Vmips
p938
sg183
(lp939
g185
ass(Vbuild
p940
g932
tp941
(dp942
Vimage-file
p943
Vvmlinux
p944
ss(Vimage
p945
g932
tp946
(dp947
Vinstall-stem
p948
Vvmlinux
p949
ss(Vdescription
p950
g932
NVmips64r6
p951
tp952
(dp953
Vhardware
p954
VMIPS R6 (64 bit, big endian)
p955
sVhardware-long
p956
VMIPS R6 (64 bit, big endian)
p957
ss(Vimage
p958
g932
NVmips64r6
p959
tp960
(dp961
Vconfigs
p962
(lp963
Vkernelarch-mips/config.boston
p964
aVkernelarch-mips/config.mips64r6
p965
ass(g216
g932
g185
tp966
(dp967
g219
(lp968
Vmips64r6
p969
asg223
I01
ss(Vbase
p970
Vmips64r6el
p971
tp972
(dp973
Vdefault-flavour
p974
Vmips64r6el
p975
sVkernel-arch
p976
Vmips
p977
sg183
(lp978
g185
ass(Vbuild
p979
g971
tp980
(dp981
Vimage-file
p982
Vvmlinux
p983
ss(Vimage
p984
g971
tp985
(dp986
Vinstall-stem
p987
Vvmlinux
p988
ss(Vdescription
p989
g971
NVmips64r6el
p990
tp991
(dp992
Vhardware
p993
VMIPS R6 (64 bit, little endian)
p994
sVhardware-long
p995
VMIPS R6 (64 bit, little endian)
p996
ss(Vimage
p997
g971
NVmips64r6el
p998
tp999
(dp1000
Vconfigs
p1001
(lp1002
Vkernelarch-mips/config.boston
p1003
aVkernelarch-mips/config.mips64r6
p1004
ass(g216
g971
g185
tp1005
(dp1006
g219
(lp1007
Vmips64r6el
p1008
asg223
I01
ss(Vbase
p1009
Vmipsel
p1010
tp1011
(dp1012
Vkernel-arch
p1013
Vmips
p1014
sg183
(lp1015
g185
ass(Vbuild
p1016
g1010
tp1017
(dp1018
Vimage-file
p1019
Vvmlinuz
p1020
ss(Vimage
p1021
g1010
tp1022
(dp1023
Vinstall-stem
p1024
Vvmlinuz
p1025
ss(Vdescription
p1026
g1010
NV4kc-malta
p1027
tp1028
(dp1029
Vhardware
p1030
VMIPS Malta
p1031
sVhardware-long
p1032
VMIPS Malta boards
p1033
ss(Vimage
p1034
g1010
NV4kc-malta
p1035
tp1036
(dp1037
Vconfigs
p1038
(lp1039
Vkernelarch-mips/config.malta
p1040
aVkernelarch-mips/config.mips32r2
p1041
ass(Vdescription
p1042
g1010
NV5kc-malta
p1043
tp1044
(dp1045
Vhardware
p1046
VMIPS Malta (64-bit)
p1047
sVhardware-long
p1048
VMIPS Malta boards (64-bit)
p1049
ss(Vimage
p1050
g1010
NV5kc-malta
p1051
tp1052
(dp1053
Vconfigs
p1054
(lp1055
Vkernelarch-mips/config.malta
p1056
aVkernelarch-mips/config.mips64r2
p1057
ass(Vdescription
p1058
g1010
NVloongson-3
p1059
tp1060
(dp1061
Vhardware
p1062
VLoongson 3A/3B
p1063
sVhardware-long
p1064
VLoongson 3A or 3B based systems (e.g. from Loongson or Lemote)
p1065
ss(Vimage
p1066
g1010
NVloongson-3
p1067
tp1068
(dp1069
Vconfigs
p1070
(lp1071
Vkernelarch-mips/config.loongson-3
p1072
ass(Vdescription
p1073
g1010
NVocteon
p1074
tp1075
(dp1076
Vhardware
p1077
VOcteon
p1078
sVhardware-long
p1079
VCavium Networks Octeon
p1080
ss(Vbuild
p1081
g1010
NVocteon
p1082
tp1083
(dp1084
Vimage-file
p1085
Vvmlinux
p1086
ss(Vimage
p1087
g1010
NVocteon
p1088
tp1089
(dp1090
Vinstall-stem
p1091
Vvmlinux
p1092
sVconfigs
p1093
(lp1094
Vkernelarch-mips/config.octeon
p1095
ass(g216
g1010
g185
tp1096
(dp1097
g219
(lp1098
V4kc-malta
p1099
aV5kc-malta
p1100
aVloongson-3
p1101
aVocteon
p1102
asg223
I01
ss(Vbase
p1103
Vmipsn32
p1104
tp1105
(dp1106
Vkernel-arch
p1107
Vmips
p1108
sVfeaturesets
p1109
(lp1110
ss(Vbase
p1111
Vmipsn32el
p1112
tp1113
(dp1114
Vkernel-arch
p1115
Vmips
p1116
sVfeaturesets
p1117
(lp1118
ss(Vbase
p1119
Vmipsn32r6
p1120
tp1121
(dp1122
Vkernel-arch
p1123
Vmips
p1124
sVfeaturesets
p1125
(lp1126
ss(Vbase
p1127
Vmipsn32r6el
p1128
tp1129
(dp1130
Vkernel-arch
p1131
Vmips
p1132
sVfeaturesets
p1133
(lp1134
ss(Vbase
p1135
Vmipsr6
p1136
tp1137
(dp1138
Vdefault-flavour
p1139
Vmips32r6
p1140
sVkernel-arch
p1141
Vmips
p1142
sg183
(lp1143
g185
ass(Vbuild
p1144
g1136
tp1145
(dp1146
Vimage-file
p1147
Vvmlinux
p1148
ss(Vimage
p1149
g1136
tp1150
(dp1151
Vinstall-stem
p1152
Vvmlinux
p1153
ss(Vdescription
p1154
g1136
NVmips32r6
p1155
tp1156
(dp1157
Vhardware
p1158
VMIPS R6 (32 bit, big endian)
p1159
sVhardware-long
p1160
VMIPS R6 (32 bit, big endian)
p1161
ss(Vimage
p1162
g1136
NVmips32r6
p1163
tp1164
(dp1165
Vconfigs
p1166
(lp1167
Vkernelarch-mips/config.boston
p1168
aVkernelarch-mips/config.mips32r6
p1169
ass(Vdescription
p1170
g1136
NVmips64r6
p1171
tp1172
(dp1173
Vhardware
p1174
VMIPS R6 (64 bit, big endian)
p1175
sVhardware-long
p1176
VMIPS R6 (64 bit, big endian)
p1177
ss(Vimage
p1178
g1136
NVmips64r6
p1179
tp1180
(dp1181
Vconfigs
p1182
(lp1183
Vkernelarch-mips/config.boston
p1184
aVkernelarch-mips/config.mips64r6
p1185
ass(g216
g1136
g185
tp1186
(dp1187
g219
(lp1188
Vmips32r6
p1189
aVmips64r6
p1190
asg223
I01
ss(Vbase
p1191
Vmipsr6el
p1192
tp1193
(dp1194
Vdefault-flavour
p1195
Vmips32r6el
p1196
sVkernel-arch
p1197
Vmips
p1198
sg183
(lp1199
g185
ass(Vbuild
p1200
g1192
tp1201
(dp1202
Vimage-file
p1203
Vvmlinux
p1204
ss(Vimage
p1205
g1192
tp1206
(dp1207
Vinstall-stem
p1208
Vvmlinux
p1209
ss(Vdescription
p1210
g1192
NVmips32r6el
p1211
tp1212
(dp1213
Vhardware
p1214
VMIPS R6 (32 bit, little endian)
p1215
sVhardware-long
p1216
VMIPS R6 (32 bit, little endian)
p1217
ss(Vimage
p1218
g1192
NVmips32r6el
p1219
tp1220
(dp1221
Vconfigs
p1222
(lp1223
Vkernelarch-mips/config.boston
p1224
aVkernelarch-mips/config.mips32r6
p1225
ass(Vdescription
p1226
g1192
NVmips64r6el
p1227
tp1228
(dp1229
Vhardware
p1230
VMIPS R6 (64 bit, little endian)
p1231
sVhardware-long
p1232
VMIPS R6 (64 bit, little endian)
p1233
ss(Vimage
p1234
g1192
NVmips64r6el
p1235
tp1236
(dp1237
Vconfigs
p1238
(lp1239
Vkernelarch-mips/config.boston
p1240
aVkernelarch-mips/config.mips64r6
p1241
ass(g216
g1192
g185
tp1242
(dp1243
g219
(lp1244
Vmips32r6el
p1245
aVmips64r6el
p1246
asg223
I01
ss(Vbase
p1247
Vpowerpc
p1248
tp1249
(dp1250
Vkernel-arch
p1251
Vpowerpc
p1252
sg183
(lp1253
g185
ass(Vbuild
p1254
g1248
tp1255
(dp1256
Vimage-file
p1257
Vvmlinux
p1258
sVvdso
p1259
I01
ss(Vimage
p1260
g1248
tp1261
(dp1262
Vconfigs
p1263
(lp1264
sVbootloaders
p1265
(lp1266
Vgrub-ieee1275
p1267
asVsuggests
p1268
(lp1269
Vmkvmlinuz
p1270
asVinstall-stem
p1271
Vvmlinux
p1272
ss(Vdescription
p1273
g1248
NVpowerpc
p1274
tp1275
(dp1276
Vhardware
p1277
Vuniprocessor 32-bit PowerPC
p1278
ss(Vdescription
p1279
g1248
NVpowerpc-smp
p1280
tp1281
(dp1282
Vhardware
p1283
Vmultiprocessor 32-bit PowerPC
p1284
ss(Vimage
p1285
g1248
NVpowerpc-smp
p1286
tp1287
(dp1288
Vconfigs
p1289
(lp1290
Vpowerpc/config.powerpc
p1291
aVpowerpc/config.powerpc-smp
p1292
ass(Vdescription
p1293
g1248
NVpowerpc64
p1294
tp1295
(dp1296
Vhardware
p1297
V64-bit PowerPC
p1298
ss(Vimage
p1299
g1248
NVpowerpc64
p1300
tp1301
(dp1302
Vconfigs
p1303
(lp1304
Vkernelarch-powerpc/config-arch-64
p1305
aVkernelarch-powerpc/config-arch-64-be
p1306
ass(g216
g1248
g185
tp1307
(dp1308
g219
(lp1309
Vpowerpc
p1310
aVpowerpc-smp
p1311
aVpowerpc64
p1312
asg223
I01
ss(Vbase
p1313
Vppc64
p1314
tp1315
(dp1316
Vdefault-flavour
p1317
Vpowerpc64
p1318
sVkernel-arch
p1319
Vpowerpc
p1320
sg183
(lp1321
g185
ass(Vbuild
p1322
g1314
tp1323
(dp1324
Vimage-file
p1325
Vvmlinux
p1326
sVvdso
p1327
I01
ss(Vimage
p1328
g1314
tp1329
(dp1330
Vconfigs
p1331
(lp1332
sVbootloaders
p1333
(lp1334
Vgrub-ieee1275
p1335
asVsuggests
p1336
(lp1337
Vmkvmlinuz
p1338
asVinstall-stem
p1339
Vvmlinux
p1340
ss(Vdescription
p1341
g1314
NVpowerpc64
p1342
tp1343
(dp1344
Vhardware
p1345
V64-bit PowerPC
p1346
ss(Vimage
p1347
g1314
NVpowerpc64
p1348
tp1349
(dp1350
Vconfigs
p1351
(lp1352
Vkernelarch-powerpc/config-arch-64
p1353
aVkernelarch-powerpc/config-arch-64-be
p1354
ass(g216
g1314
g185
tp1355
(dp1356
g219
(lp1357
Vpowerpc64
p1358
asg223
I01
ss(Vbase
p1359
Vppc64el
p1360
tp1361
(dp1362
Vdefault-flavour
p1363
Vpowerpc64le
p1364
sVkernel-arch
p1365
Vpowerpc
p1366
sg183
(lp1367
g185
ass(Vbuild
p1368
g1360
tp1369
(dp1370
Vimage-file
p1371
Vvmlinux
p1372
sVvdso
p1373
I01
ss(Vimage
p1374
g1360
tp1375
(dp1376
Vconfigs
p1377
(lp1378
sVbootloaders
p1379
(lp1380
Vgrub-ieee1275
p1381
asVsuggests
p1382
(lp1383
Vmkvmlinuz
p1384
asVinstall-stem
p1385
Vvmlinux
p1386
ss(Vdescription
p1387
g1360
NVpowerpc64le
p1388
tp1389
(dp1390
Vhardware
p1391
VLittle-endian 64-bit PowerPC
p1392
ss(Vimage
p1393
g1360
NVpowerpc64le
p1394
tp1395
(dp1396
Vconfigs
p1397
(lp1398
Vkernelarch-powerpc/config-arch-64
p1399
aVkernelarch-powerpc/config-arch-64-le
p1400
ass(g216
g1360
g185
tp1401
(dp1402
g219
(lp1403
Vpowerpc64le
p1404
asg223
I01
ss(Vbase
p1405
Vriscv64
p1406
tp1407
(dp1408
Vkernel-arch
p1409
Vriscv
p1410
sVfeaturesets
p1411
(lp1412
Vnone
p1413
ass(Vbuild
p1414
g1406
tp1415
(dp1416
Vimage-file
p1417
Varch/riscv/boot/Image
p1418
sVvdso
p1419
I01
ss(Vimage
p1420
g1406
tp1421
(dp1422
Vinstall-stem
p1423
Vvmlinux
p1424
ss(Vdescription
p1425
g1406
NVriscv64
p1426
tp1427
(dp1428
Vhardware
p1429
V64-bit RISC-V platforms
p1430
sVhardware-long
p1431
V64-bit RISC-V platforms
p1432
ss(Vbase
p1433
g1406
Vnone
p1434
tp1435
(dp1436
Vflavours
p1437
(lp1438
Vriscv64
p1439
asVdefault-flavour
p1440
Vriscv64
p1441
ss(Vbase
p1442
Vs390
p1443
tp1444
(dp1445
Vkernel-arch
p1446
Vs390
p1447
sVfeaturesets
p1448
(lp1449
ss(Vbase
p1450
Vs390x
p1451
tp1452
(dp1453
Vdefault-flavour
p1454
Vs390x
p1455
sVkernel-arch
p1456
Vs390
p1457
sg183
(lp1458
g185
ass(Vbuild
p1459
g1451
tp1460
(dp1461
Vimage-file
p1462
Varch/s390/boot/bzImage
p1463
sVvdso
p1464
I01
ss(Vimage
p1465
g1451
tp1466
(dp1467
Vbootloaders
p1468
(lp1469
Vs390-tools
p1470
asVinstall-stem
p1471
Vvmlinuz
p1472
ss(Vrelations
p1473
g1451
tp1474
(dp1475
Vheaders%gcc-10
p1476
Vlinux-compiler-gcc-10-s390
p1477
ss(Vdescription
p1478
g1451
NVs390x
p1479
tp1480
(dp1481
Vhardware
p1482
VIBM zSeries
p1483
ss(g216
g1451
g185
tp1484
(dp1485
g219
(lp1486
Vs390x
p1487
asg223
I01
ss(Vbase
p1488
Vsh3
p1489
tp1490
(dp1491
Vkernel-arch
p1492
Vsh
p1493
sVfeaturesets
p1494
(lp1495
ss(Vbase
p1496
Vsh4
p1497
tp1498
(dp1499
Vkernel-arch
p1500
Vsh
p1501
sg183
(lp1502
g185
ass(Vbuild
p1503
g1497
tp1504
(dp1505
Vimage-file
p1506
Varch/sh/boot/zImage
p1507
ss(Vimage
p1508
g1497
tp1509
(dp1510
Vinstall-stem
p1511
Vvmlinuz
p1512
ss(Vdescription
p1513
g1497
NVsh7751r
p1514
tp1515
(dp1516
Vhardware
p1517
Vsh7751r
p1518
sVhardware-long
p1519
VRenesas SH7751R R2D plus board
p1520
ss(Vdescription
p1521
g1497
NVsh7785lcr
p1522
tp1523
(dp1524
Vhardware
p1525
Vsh7785lcr
p1526
sVhardware-long
p1527
VRenesas SH7785 reference board
p1528
ss(Vimage
p1529
g1497
NVsh7785lcr
p1530
tp1531
(dp1532
Vrecommends
p1533
(lp1534
Vu-boot-tools
p1535
asVcheck-size
p1536
I4194304
ss(g216
g1497
g185
tp1537
(dp1538
g219
(lp1539
Vsh7751r
p1540
aVsh7785lcr
p1541
asg223
I01
ss(Vbase
p1542
Vsparc
p1543
tp1544
(dp1545
Vkernel-arch
p1546
Vsparc
p1547
sVfeaturesets
p1548
(lp1549
ss(Vbase
p1550
Vsparc64
p1551
tp1552
(dp1553
Vdefault-flavour
p1554
Vsparc64-smp
p1555
sVkernel-arch
p1556
Vsparc
p1557
sg183
(lp1558
g185
ass(Vbuild
p1559
g1551
tp1560
(dp1561
Vimage-file
p1562
Vvmlinux
p1563
ss(Vimage
p1564
g1551
tp1565
(dp1566
Vconfigs
p1567
(lp1568
sVbootloaders
p1569
(lp1570
Vgrub-ieee1275
p1571
asVsuggests
p1572
(lp1573
Vfdutils
p1574
asVinstall-stem
p1575
Vvmlinux
p1576
ss(Vdescription
p1577
g1551
NVsparc64
p1578
tp1579
(dp1580
Vhardware
p1581
Vuniprocessor 64-bit UltraSPARC
p1582
ss(Vimage
p1583
g1551
NVsparc64
p1584
tp1585
(dp1586
Vconfigs
p1587
(lp1588
Vkernelarch-sparc/config-up
p1589
ass(Vdescription
p1590
g1551
NVsparc64-smp
p1591
tp1592
(dp1593
Vhardware
p1594
Vmultiprocessor 64-bit UltraSPARC
p1595
ss(Vimage
p1596
g1551
NVsparc64-smp
p1597
tp1598
(dp1599
Vconfigs
p1600
(lp1601
Vkernelarch-sparc/config-smp
p1602
ass(g216
g1551
g185
tp1603
(dp1604
g219
(lp1605
Vsparc64
p1606
aVsparc64-smp
p1607
asg223
I01
ss(Vbase
p1608
Vx32
p1609
tp1610
(dp1611
Vkernel-arch
p1612
Vx86
p1613
sVfeaturesets
p1614
(lp1615
ss(Vabi
p1616
NVrt
p1617
tp1618
(dp1619
Vignore-changes
p1620
(lp1621
V*
p1622
ass(Vdescription
p1623
Ng1617
tp1624
(dp1625
Vpart-long-rt
p1626
VThis kernel includes the PREEMPT_RT realtime patch set.
p1627
sVpart-short-rt
p1628
VPREEMPT_RT
p1629
sVparts
p1630
(lp1631
Vrt
p1632
ass(Vversion
p1633
tp1634
(dp1635
Vsource
p1636
V5.10.19-1kali1
p1637
sVupstream
p1638
V5.10
p1639
sVabiname_base
p1640
V5.10.0
p1641
sVabiname
p1642
V5.10.0-kali4
p1643
ss.